SBLK format

Start instruction:
         000001000000                           ;"  !   "

Duplicate start instruction:
         000001000000                           ;"  !   "
(extra word: 000001000000)
(extra word: 000001000000)
(extra word: 000001000000)
(extra word: 000001000000)
(extra word: 000001000000)
(extra word: 000001000000)
(extra word: 000001000000)
(extra word: 000001000000)
(extra word: 000001000000)
(extra word: 000001000000)
(extra word: 000001000000)
(extra word: 000001000000)
(extra word: 000001000000)
(extra word: 000001000000)
(extra word: 000001000000)
(extra word: 000001000000)
(extra word: 000001000000)
(extra word: 000001000000)
(extra word: 000001000000)
(extra word: 000001000000)
(extra word: 000001000000)
(extra word: 000001000000)
(extra word: 000001000000)
(extra word: 000001000000)
(extra word: 000001000000)
(extra word: 000001000000)
(extra word: 000001000000)
(extra word: 000001000000)
(extra word: 000001000000)
(extra word: 000001000000)
(extra word: 000001000000)
(extra word: 000001000000)
(extra word: 000001000000)
(extra word: 000001000000)
(extra word: 000001000000)
(extra word: 000001000000)
(extra word: 000001000000)
(extra word: 000001000000)
(extra word: 000001000000)
(extra word: 000001000000)
(extra word: 000001000000)
(extra word: 000001000000)
(extra word: 000001000000)
(extra word: 000001000000)
(extra word: 000001000000)
(extra word: 000001000000)
(extra word: 000001000000)
(extra word: 000001000000)
(extra word: 000001000000)
(extra word: 000001000000)
(extra word: 000001000000)
(extra word: 000001000000)
(extra word: 000001000000)
(extra word: 000001000000)
(extra word: 000001000000)
(extra word: 000001000000)
(extra word: 000001000000)
(extra word: 000001000000)
(extra word: 000001000000)
(extra word: 000001000000)
(extra word: 000001000000)
(extra word: 000001000000)
(extra word: 000001000000)
(extra word: 000001000000)
(extra word: 000001000000)
(extra word: 000001000000)
(extra word: 000001000000)
(extra word: 000001000000)
(extra word: 000001000000)
(extra word: 000001000000)
(extra word: 000001000000)
(extra word: 000001000000)
(extra word: 000001000000)
(extra word: 000001000000)
(extra word: 000001000000)
(extra word: 000001000000)
(extra word: 000001000000)
(extra word: 000001000000)
(extra word: 000001000000)
(extra word: 000001000000)
(extra word: 000001000000)
(extra word: 000001000000)
(extra word: 000001000000)
(extra word: 000001000000)
(extra word: 000001000000)
(extra word: 000001000000)
(extra word: 000001000000)
(extra word: 000001000000)
(extra word: 000001000000)
(extra word: 000001000000)
(extra word: 000001000000)
(extra word: 000001000000)
(extra word: 000001000000)
(extra word: 000001000000)
(extra word: 000001000000)
(extra word: 000001000000)
(extra word: 000001000000)
(extra word: 000001000000)
(extra word: 000001000000)
(extra word: 000001000000)
(extra word: 000001000000)
(extra word: 000001000000)
(extra word: 000001000000)
(extra word: 000001000000)
(extra word: 000001000000)
(extra word: 000001000000)
(extra word: 000001000000)
(extra word: 000001000000)
(extra word: 000001000000)
(extra word: 000001000000)
(extra word: 000001000000)
(extra word: 000001000000)
(extra word: 000001000000)
(extra word: 000001000000)
(extra word: 000001000000)
(extra word: 000001000000)
(extra word: 000001000000)
(extra word: 000001000000)
(extra word: 000001000000)
(extra word: 000001000000)
(extra word: 000001000000)
(extra word: 000001000000)
(extra word: 000001000000)
(extra word: 000001000000)
(extra word: 000001000000)
(extra word: 000001000000)
(extra word: 000001000000)
(extra word: 000001000000)
(extra word: 000001000000)
(extra word: 000001000000)
(extra word: 000001000000)
(extra word: 000001000000)
(extra word: 000001000000)
(extra word: 000001000000)
(extra word: 000001000000)
(extra word: 000001000000)
(extra word: 000001000000)
(extra word: 000001000000)
(extra word: 000001000000)
(extra word: 000001000000)
(extra word: 000001000000)
(extra word: 000001000000)
(extra word: 000001000000)
(extra word: 000001000000)
(extra word: 000001000000)
(extra word: 000001000000)
(extra word: 000001000000)
(extra word: 000001000000)
(extra word: 000001000000)
(extra word: 000001000000)
(extra word: 000001000000)
(extra word: 000001000000)
(extra word: 000001000000)
(extra word: 000001000000)
(extra word: 000001000000)
(extra word: 000001000000)
(extra word: 000001000000)
(extra word: 000001000000)
(extra word: 000001000000)
(extra word: 000001000000)
(extra word: 000001000000)
(extra word: 000001000000)
(extra word: 000001000000)
(extra word: 000001000000)
(extra word: 000001000000)
(extra word: 000001000000)
(extra word: 000001000000)
(extra word: 000001000000)
(extra word: 000001000000)
(extra word: 000001000000)
(extra word: 000001000000)
(extra word: 000001000000)
(extra word: 000001000000)
(extra word: 000001000000)
(extra word: 000001000000)
(extra word: 000001000000)
(extra word: 000001000000)
(extra word: 000001000000)
(extra word: 000001000000)
(extra word: 000001000000)
(extra word: 000001000000)
(extra word: 000001000000)
(extra word: 000001000000)
(extra word: 000001000000)
(extra word: 000001000000)
(extra word: 000001000000)
(extra word: 000001000000)
(extra word: 000001000000)
(extra word: 000001000000)
(extra word: 000001000000)
(extra word: 000001000000)
(extra word: 000001000000)
(extra word: 000001000000)
(extra word: 000001000000)
(extra word: 000001000000)
(extra word: 000001000000)
(extra word: 000001000000)
(extra word: 000001000000)
(extra word: 000001000000)
(extra word: 000001000000)
(extra word: 000001000000)
(extra word: 000001000000)
(extra word: 000001000000)
(extra word: 000001000000)
(extra word: 000001000000)
(extra word: 000001000000)
(extra word: 000001000000)
(extra word: 000001000000)
(extra word: 000001000000)
(extra word: 000001000000)
(extra word: 000001000000)
(extra word: 000001000000)
(extra word: 000001000000)
(extra word: 000001000000)
(extra word: 000001000000)
(extra word: 000001000000)
(extra word: 000001000000)
(extra word: 000001000000)
(extra word: 000001000000)
(extra word: 000001000000)
(extra word: 000001000000)
(extra word: 000001000000)
(extra word: 000001000000)
(extra word: 000001000000)
(extra word: 000001000000)
(extra word: 000001000000)
(extra word: 000001000000)
(extra word: 000001000000)
(extra word: 000001000000)
(extra word: 000001000000)
(extra word: 000001000000)
(extra word: 000001000000)
(extra word: 000001000000)
(extra word: 000001000000)
(extra word: 000001000000)
(extra word: 000001000000)
(extra word: 000001000000)
(extra word: 000001000000)
(extra word: 000001000000)
(extra word: 000001000000)
(extra word: 000001000000)
(extra word: 000001000000)
(extra word: 000001000000)
(extra word: 000001000000)
(extra word: 000001000000)
(extra word: 000001000000)
(extra word: 000001000000)
(extra word: 000001000000)
(extra word: 000001000000)
(extra word: 000001000000)
(extra word: 000001000000)
(extra word: 000001000000)
(extra word: 000001000000)
(extra word: 000001000000)
(extra word: 000001000000)
(extra word: 000001000000)
(extra word: 000001000000)
(extra word: 000001000000)
(extra word: 000001000000)
(extra word: 000001000000)
(extra word: 000001000000)
(extra word: 000001000000)
(extra word: 000001000000)
(extra word: 000001000000)
(extra word: 000001000000)
(extra word: 000001000000)
(extra word: 000001000000)
(extra word: 000001000000)
(extra word: 000001000000)
(extra word: 000001000000)
(extra word: 000001000000)
(extra word: 000001000000)
(extra word: 000001000000)
(extra word: 000001000000)
(extra word: 000001000000)
(extra word: 000001000000)
(extra word: 000001000000)
(extra word: 000001000000)
(extra word: 000001000000)
(extra word: 000001000000)
(extra word: 000001000000)
(extra word: 000001000000)
(extra word: 000001000000)
(extra word: 000001000000)
(extra word: 000001000000)
(extra word: 000001000000)
(extra word: 000001000000)
(extra word: 000001000000)
(extra word: 000001000000)
(extra word: 000001000000)
(extra word: 000001000000)
(extra word: 000001000000)
(extra word: 000001000000)
(extra word: 000001000000)
(extra word: 000001000000)
(extra word: 000001000000)
(extra word: 000001000000)
(extra word: 000001000000)
(extra word: 000001000000)
(extra word: 000001000000)
(extra word: 000001000000)
(extra word: 000001000000)
(extra word: 000001000000)
(extra word: 000001000000)
(extra word: 000001000000)
(extra word: 000001000000)
(extra word: 000001000000)
(extra word: 000001000000)
(extra word: 000001000000)
(extra word: 000001000000)
(extra word: 000001000000)
(extra word: 000001000000)
(extra word: 000001000000)
(extra word: 000001000000)
(extra word: 000001000000)
(extra word: 000001000000)
(extra word: 000001000000)
(extra word: 000001000000)
(extra word: 000001000000)
(extra word: 000001000000)
(extra word: 000001000000)
(extra word: 000001000000)
(extra word: 000001000000)
(extra word: 000001000000)
(extra word: 000001000000)
(extra word: 000001000000)
(extra word: 000001000000)
(extra word: 000001000000)
(extra word: 000001000000)
(extra word: 000001000000)
(extra word: 000001000000)
(extra word: 000001000000)
(extra word: 000001000000)
(extra word: 000001000000)
(extra word: 000001000000)
(extra word: 000001000000)
(extra word: 000001000000)
(extra word: 000001000000)
(extra word: 000001000000)
(extra word: 000001000000)
(extra word: 000001000000)
(extra word: 000001000000)
(extra word: 000001000000)
(extra word: 000001000000)
(extra word: 000001000000)
(extra word: 000001000000)
(extra word: 000001000000)
(extra word: 000001000000)
(extra word: 000001000000)
(extra word: 000001000000)
(extra word: 000001000000)
(extra word: 000001000000)
(extra word: 000001000000)
(extra word: 000001000000)
(extra word: 000001000000)
(extra word: 000001000000)
(extra word: 000001000000)
(extra word: 000001000000)
(extra word: 000001000000)
(extra word: 000001000000)
(extra word: 000001000000)
(extra word: 000001000000)
(extra word: 000001000000)
(extra word: 000001000000)
(extra word: 000001000000)
(extra word: 000001000000)
(extra word: 000001000000)
(extra word: 000001000000)
(extra word: 000001000000)
(extra word: 000001000000)
(extra word: 000001000000)
(extra word: 000001000000)
(extra word: 000001000000)
(extra word: 000001000000)
(extra word: 000001000000)
(extra word: 000001000000)
(extra word: 000001000000)
(extra word: 000001000000)
(extra word: 000001000000)
(extra word: 000001000000)
(extra word: 000001000000)
(extra word: 000001000000)
(extra word: 000001000000)
(extra word: 000001000000)
(extra word: 000001000000)
(extra word: 000001000000)
(extra word: 000001000000)
(extra word: 000001000000)
(extra word: 000001000000)
(extra word: 000001000000)
(extra word: 000001000000)
(extra word: 000001000000)
(extra word: 000001000000)
(extra word: 000001000000)
(extra word: 000001000000)
(extra word: 000001000000)
(extra word: 000001000000)
(extra word: 000001000000)
(extra word: 000001000000)
(extra word: 000001000000)
(extra word: 000001000000)
(extra word: 000001000000)
(extra word: 000001000000)
(extra word: 000001000000)
(extra word: 000001000000)
(extra word: 000001000000)
(extra word: 000001000000)
(extra word: 000001000000)
(extra word: 000001000000)
(extra word: 000001000000)
(extra word: 000001000000)
(extra word: 000001000000)
(extra word: 000001000000)
(extra word: 000001000000)
(extra word: 000001000000)
(extra word: 000001000000)
(extra word: 000001000000)
(extra word: 000001000000)
(extra word: 000001000000)
(extra word: 000001000000)
(extra word: 000001000000)
(extra word: 000001000000)
(extra word: 000001000000)
(extra word: 000001000000)
(extra word: 000001000000)
(extra word: 000001000000)
(extra word: 000001000000)
(extra word: 000001000000)
(extra word: 000001000000)
(extra word: 000001000000)
(extra word: 000001000000)
(extra word: 000001000000)
(extra word: 000001000000)
(extra word: 000001000000)
(extra word: 000001000000)
(extra word: 000001000000)
(extra word: 000001000000)
(extra word: 000001000000)
(extra word: 000001000000)
(extra word: 000001000000)
(extra word: 000001000000)
(extra word: 000001000000)
(extra word: 000001000000)
(extra word: 000001000000)
(extra word: 000001000000)
(extra word: 000001000000)
(extra word: 000001000000)
(extra word: 000001000000)
(extra word: 000001000000)
(extra word: 000001000000)
(extra word: 000001000000)
(extra word: 000001000000)
(extra word: 000001000000)
(extra word: 000001000000)
(extra word: 000001000000)
(extra word: 000001000000)
(extra word: 000001000000)
(extra word: 000001000000)
(extra word: 000001000000)
(extra word: 000001000000)
(extra word: 000001000000)
(extra word: 000001000000)
(extra word: 000001000000)
(extra word: 000001000000)
(extra word: 000001000000)
(extra word: 000001000000)
(extra word: 000001000000)
(extra word: 000001000000)
(extra word: 000001000000)
(extra word: 000001000000)
(extra word: 000001000000)
(extra word: 000001000000)
(extra word: 000001000000)
(extra word: 000001000000)
(extra word: 000001000000)
(extra word: 000001000000)
(extra word: 000001000000)
(extra word: 000001000000)
(extra word: 000001000000)
(extra word: 000001000000)
(extra word: 000001000000)
(extra word: 000001000000)
(extra word: 000001000000)
(extra word: 000001000000)
(extra word: 000001000000)
(extra word: 000001000000)
(extra word: 000001000000)
(extra word: 000001000000)
(extra word: 000001000000)
(extra word: 000001000000)
(extra word: 000001000000)
(extra word: 000001000000)
(extra word: 000001000000)
(extra word: 000001000000)
(extra word: 000001000000)
(extra word: 000001000000)
(extra word: 000001000000)
(extra word: 000001000000)
(extra word: 000001000000)
(extra word: 000001000000)
(extra word: 000001000000)
(extra word: 000001000000)
(extra word: 000001000000)
(extra word: 000001000000)
(extra word: 000001000000)
(extra word: 000001000000)
(extra word: 000001000000)
(extra word: 000001000000)
(extra word: 000001000000)
(extra word: 000001000000)
(extra word: 000001000000)
(extra word: 000001000000)
(extra word: 000001000000)
(extra word: 000001000000)
(extra word: 000001000000)
(extra word: 000001000000)
(extra word: 000001000000)
(extra word: 000001000000)
(extra word: 000001000000)
(extra word: 000001000000)
(extra word: 000001000000)
(extra word: 000001000000)
(extra word: 000001000000)
(extra word: 000001000000)
(extra word: 000001000000)
(extra word: 000001000000)
(extra word: 000001000000)
(extra word: 000001000000)
(extra word: 000001000000)
(extra word: 000001000000)
(extra word: 000001000000)
(extra word: 000001000000)
(extra word: 000001000000)
(extra word: 000001000000)
(extra word: 000001000000)
(extra word: 000001000000)
(extra word: 000001000000)
(extra word: 000001000000)
(extra word: 000001000000)
(extra word: 000001000000)
(extra word: 000001000000)
(extra word: 000001000000)
(extra word: 000001000000)
(extra word: 000001000000)
(extra word: 000001000000)
(extra word: 000001000000)
(extra word: 000001000000)
(extra word: 000001000000)
(extra word: 000001000000)
(extra word: 000001000000)
(extra word: 000001000000)
(extra word: 000001000000)
(extra word: 000001000000)
(extra word: 000001000000)
(extra word: 000001000000)
(extra word: 000001000000)
(extra word: 000001000000)
(extra word: 000001000000)
(extra word: 000001000000)
(extra word: 000001000000)
(extra word: 000001000000)
(extra word: 000001000000)
(extra word: 000001000000)
(extra word: 000001000000)
(extra word: 000001000000)
(extra word: 000001000000)
(extra word: 000001000000)
(extra word: 000001000000)
(extra word: 000001000000)
(extra word: 000001000000)
(extra word: 000001000000)
(extra word: 000001000000)
(extra word: 000001000000)
(extra word: 000001000000)
(extra word: 000001000000)
(extra word: 000001000000)
(extra word: 000001000000)
(extra word: 000001000000)
(extra word: 000001000000)
(extra word: 000001000000)
(extra word: 000001000000)
(extra word: 000001000000)
(extra word: 000001000000)
(extra word: 000001000000)
(extra word: 000001000000)
(extra word: 000001000000)
(extra word: 000001000000)
(extra word: 000001000000)
(extra word: 000001000000)
(extra word: 000001000000)
(extra word: 000001000000)
(extra word: 000001000000)
(extra word: 000001000000)
(extra word: 000001000000)
(extra word: 000001000000)
(extra word: 000001000000)
(extra word: 000001000000)
(extra word: 000001000000)
(extra word: 000001000000)
(extra word: 000001000000)
(extra word: 000001000000)
(extra word: 000001000000)
(extra word: 000001000000)
(extra word: 000001000000)
(extra word: 000001000000)
(extra word: 000001000000)
(extra word: 000001000000)
(extra word: 000001000000)
(extra word: 000001000000)
(extra word: 000001000000)
(extra word: 000001000000)
(extra word: 000001000000)
(extra word: 000001000000)
(extra word: 000001000000)
(extra word: 000001000000)
(extra word: 000001000000)
(extra word: 000001000000)
(extra word: 000001000000)
(extra word: 000001000000)
(extra word: 000001000000)
(extra word: 000001000000)
(extra word: 000001000000)
(extra word: 000001000000)
(extra word: 000001000000)
(extra word: 000001000000)
(extra word: 000001000000)
(extra word: 000001000000)
(extra word: 000001000000)
(extra word: 000001000000)
(extra word: 000001000000)
(extra word: 000001000000)
(extra word: 000001000000)
(extra word: 000001000000)
(extra word: 000001000000)
(extra word: 000001000000)
(extra word: 000001000000)
(extra word: 000001000000)
(extra word: 000001000000)
(extra word: 000001000000)
(extra word: 000001000000)
(extra word: 000001000000)
(extra word: 000001000000)
(extra word: 000001000000)
(extra word: 000001000000)
(extra word: 000001000000)
(extra word: 000001000000)
(extra word: 000001000000)
(extra word: 000001000000)
(extra word: 000001000000)
(extra word: 000001000000)
(extra word: 000001000000)
(extra word: 000001000000)
(extra word: 000001000000)
(extra word: 000001000000)
(extra word: 000001000000)
(extra word: 000001000000)
(extra word: 000001000000)
(extra word: 000001000000)
(extra word: 000001000000)
(extra word: 000001000000)
(extra word: 000001000000)
(extra word: 000001000000)
(extra word: 000001000000)
(extra word: 000001000000)
(extra word: 000001000000)
(extra word: 000001000000)
(extra word: 000001000000)
(extra word: 000001000000)
(extra word: 000001000000)
(extra word: 000001000000)
(extra word: 000001000000)
(extra word: 000001000000)
(extra word: 000001000000)
(extra word: 000001000000)
(extra word: 000001000000)
(extra word: 000001000000)
(extra word: 000001000000)
(extra word: 000001000000)
(extra word: 000001000000)
(extra word: 000001000000)
(extra word: 000001000000)
(extra word: 000001000000)
(extra word: 000001000000)
(extra word: 000001000000)
(extra word: 000001000000)
(extra word: 000001000000)
(extra word: 000001000000)
(extra word: 000001000000)
(extra word: 000001000000)
(extra word: 000001000000)
(extra word: 000001000000)
(extra word: 000001000000)
(extra word: 000001000000)
(extra word: 000001000000)
(extra word: 000001000000)
(extra word: 000001000000)
(extra word: 000001000000)
(extra word: 000001000000)
(extra word: 000001000000)
(extra word: 000001000000)
(extra word: 000001000000)
(extra word: 000001000000)
(extra word: 000001000000)
(extra word: 000001000000)
(extra word: 000001000000)
(extra word: 000001000000)
(extra word: 000001000000)
(extra word: 000001000000)
(extra word: 000001000000)
(extra word: 000001000000)
(extra word: 000001000000)
(extra word: 000001000000)
(extra word: 000001000000)
(extra word: 000001000000)
(extra word: 000001000000)
(extra word: 000001000000)
(extra word: 000001000000)
(extra word: 000001000000)
(extra word: 000001000000)
(extra word: 000001000000)
(extra word: 000001000000)
(extra word: 000001000000)
(extra word: 000001000000)
(extra word: 000001000000)
(extra word: 000001000000)
(extra word: 000001000000)
(extra word: 000001000000)
(extra word: 000001000000)
(extra word: 000001000000)
(extra word: 000001000000)
(extra word: 000001000000)
(extra word: 000001000000)
(extra word: 000001000000)
(extra word: 000001000000)
(extra word: 000001000000)
(extra word: 000001000000)
(extra word: 000001000000)
(extra word: 000001000000)
(extra word: 000001000000)
(extra word: 000001000000)
(extra word: 000001000000)
(extra word: 000001000000)
(extra word: 000001000000)
(extra word: 000001000000)
(extra word: 000001000000)
(extra word: 000001000000)
(extra word: 000001000000)
(extra word: 000001000000)
(extra word: 000001000000)
(extra word: 000001000000)
(extra word: 000001000000)
(extra word: 000001000000)
(extra word: 000001000000)
(extra word: 000001000000)
(extra word: 000001000000)
(extra word: 000001000000)
(extra word: 000001000000)
(extra word: 000001000000)
(extra word: 000001000000)
(extra word: 000001000000)
(extra word: 000001000000)
(extra word: 000001000000)
(extra word: 000001000000)
(extra word: 000001000000)
(extra word: 000001000000)
(extra word: 000001000000)
(extra word: 000001000000)
(extra word: 000001000000)
(extra word: 000001000000)
(extra word: 000001000000)
(extra word: 000001000000)
(extra word: 000001000000)
(extra word: 000001000000)
(extra word: 000001000000)
(extra word: 000001000000)
(extra word: 000001000000)
(extra word: 000001000000)
(extra word: 000001000000)
(extra word: 000001000000)
(extra word: 000001000000)
(extra word: 000001000000)
(extra word: 000001000000)
(extra word: 000001000000)
(extra word: 000001000000)
(extra word: 000001000000)
(extra word: 000001000000)
(extra word: 000001000000)
(extra word: 000001000000)
(extra word: 000001000000)
(extra word: 000001000000)
(extra word: 000001000000)
(extra word: 000001000000)
(extra word: 000001000000)
(extra word: 000001000000)
(extra word: 000001000000)
(extra word: 000001000000)
(extra word: 000001000000)
(extra word: 000001000000)
(extra word: 000001000000)
(extra word: 000001000000)
(extra word: 000001000000)
(extra word: 000001000000)
(extra word: 000001000000)
(extra word: 000001000000)
(extra word: 000001000000)
(extra word: 000001000000)
(extra word: 000001000000)
(extra word: 000001000000)
(extra word: 000001000000)
(extra word: 000001000000)
(extra word: 000001000000)
(extra word: 000001000000)
(extra word: 000001000000)
(extra word: 000001000000)
(extra word: 000001000000)
(extra word: 000001000000)
(extra word: 000001000000)
(extra word: 000001000000)
(extra word: 000001000000)
(extra word: 000001000000)
(extra word: 000001000000)
(extra word: 000001000000)
(extra word: 000001000000)
(extra word: 000001000000)
(extra word: 000001000000)
(extra word: 000001000000)
(extra word: 000001000000)
(extra word: 000001000000)
(extra word: 000001000000)
(extra word: 000001000000)
(extra word: 000001000000)
(extra word: 000001000000)
(extra word: 000001000000)
(extra word: 000001000000)
(extra word: 000001000000)
(extra word: 000001000000)
(extra word: 000001000000)
(extra word: 000001000000)
(extra word: 000001000000)
(extra word: 000001000000)
(extra word: 000001000000)
(extra word: 000001000000)
(extra word: 000001000000)
(extra word: 000001000000)
(extra word: 000001000000)
(extra word: 000001000000)
(extra word: 000001000000)
(extra word: 000001000000)
(extra word: 000001000000)
(extra word: 000001000000)
(extra word: 000001000000)
(extra word: 000001000000)
(extra word: 000001000000)
(extra word: 000001000000)
(extra word: 000001000000)
(extra word: 000001000000)
(extra word: 000001000000)
(extra word: 000001000000)
(extra word: 000001000000)
(extra word: 000001000000)
(extra word: 000001000000)
(extra word: 000001000000)
(extra word: 000001000000)
(extra word: 000001000000)
(extra word: 000001000000)
(extra word: 000001000000)
(extra word: 000001000000)
(extra word: 000001000000)
(extra word: 000001000000)
(extra word: 000001000000)
(extra word: 000001000000)
(extra word: 000001000000)
(extra word: 000001000000)
(extra word: 000001000000)
(extra word: 000001000000)
(extra word: 000001000000)
(extra word: 000001000000)
(extra word: 000001000000)
(extra word: 000001000000)
(extra word: 000001000000)
(extra word: 000001000000)
(extra word: 000001000000)
(extra word: 000001000000)
(extra word: 000001000000)
(extra word: 000001000000)
(extra word: 000001000000)
(extra word: 000001000000)
(extra word: 000001000000)
(extra word: 000001000000)
(extra word: 000001000000)
(extra word: 000001000000)
(extra word: 000001000000)
(extra word: 000001000000)
(extra word: 000001000000)
(extra word: 000001000000)
(extra word: 000001000000)
(extra word: 000001000000)
(extra word: 000001000000)
(extra word: 000001000000)
(extra word: 000001000000)
(extra word: 000001000000)
(extra word: 000001000000)
(extra word: 000001000000)
(extra word: 000001000000)
(extra word: 000001000000)
(extra word: 000001000000)
(extra word: 000001000000)
(extra word: 000001000000)
(extra word: 000001000000)
(extra word: 000001000000)
(extra word: 000001000000)
(extra word: 000001000000)
(extra word: 000001000000)
(extra word: 000001000000)
(extra word: 000001000000)
(extra word: 000001000000)
(extra word: 000001000000)
(extra word: 000001000000)
(extra word: 000001000000)
(extra word: 000001000000)
(extra word: 000001000000)
(extra word: 000001000000)
(extra word: 000001000000)
(extra word: 000001000000)
(extra word: 000001000000)
(extra word: 000001000000)
(extra word: 000001000000)
(extra word: 000001000000)
(extra word: 000001000000)
(extra word: 000001000000)
(extra word: 000001000000)
(extra word: 000001000000)
(extra word: 000001000000)
(extra word: 000001000000)
(extra word: 000001000000)
(extra word: 000001000000)
(extra word: 000001000000)
(extra word: 000001000000)
(extra word: 000001000000)
(extra word: 000001000000)
(extra word: 000001000000)
(extra word: 000001000000)
(extra word: 000001000000)
(extra word: 000001000000)
(extra word: 000001000000)
(extra word: 000001000000)
(extra word: 000001000000)
(extra word: 000001000000)
(extra word: 000001000000)
(extra word: 000001000000)
(extra word: 000001000000)
(extra word: 000001000000)
(extra word: 000001000000)
(extra word: 000001000000)
(extra word: 000001000000)
(extra word: 000001000000)
(extra word: 000001000000)
(extra word: 000001000000)
(extra word: 000001000000)
(extra word: 000001000000)
(extra word: 000001000000)
(extra word: 000001000000)
(extra word: 000001000000)
(extra word: 000001000000)
(extra word: 000001000000)
(extra word: 000001000000)
(extra word: 000001000000)
(extra word: 000001000000)
(extra word: 000001000000)
(extra word: 000001000000)
(extra word: 000001000000)
(extra word: 000001000000)
(extra word: 000001000000)
(extra word: 000001000000)
(extra word: 000001000000)
(extra word: 000001000000)
(extra word: 000001000000)
(extra word: 000001000000)
(extra word: 000001000000)
(extra word: 000001000000)
(extra word: 000001000000)
(extra word: 000001000000)
(extra word: 000001000000)
(extra word: 000001000000)
(extra word: 000001000000)
(extra word: 000001000000)
(extra word: 000001000000)
(extra word: 000001000000)
(extra word: 000001000000)
(extra word: 000001000000)
(extra word: 000001000000)
(extra word: 000001000000)
(extra word: 000001000000)
(extra word: 000001000000)
(extra word: 000001000000)
(extra word: 000001000000)
(extra word: 000001000000)
(extra word: 000001000000)
(extra word: 000001000000)
(extra word: 000001000000)
(extra word: 000001000000)
(extra word: 000001000000)
(extra word: 000001000000)
(extra word: 000001000000)
(extra word: 000001000000)
(extra word: 000001000000)
(extra word: 000001000000)
(extra word: 000001000000)
(extra word: 000001000000)
(extra word: 000001000000)
(extra word: 000001000000)
(extra word: 000001000000)
(extra word: 000001000000)
(extra word: 000001000000)
(extra word: 000001000000)
(extra word: 000001000000)
(extra word: 000001000000)
(extra word: 000001000000)
(extra word: 000001000000)
(extra word: 000001000000)
(extra word: 000001000000)
(extra word: 000001000000)
Symbol table:
    Symbol p      = 1   ( global)
    Symbol a      = 4   ( global)
    Symbol tapac  = 4   ( global)
    Symbol ndir   = 4   ( global)
    Symbol nuwbuf = 20   ( global)
    Symbol nurbuf = 20   ( global)
    Symbol blkspc = 6   ( global)
    Symbol dischn = 7   ( global)
    Symbol dschna = 1   ( global)
    Symbol aprchn = 6   ( global)
    Symbol tpchn  = 2   ( global)
    Symbol tpchna = 40   ( global)
    Symbol utcchn = 3   ( global)
    Symbol flgchn = 3   ( global)
    Symbol flchna = 20   ( global)
    Symbol disize = 400   ( global)
    Symbol go2    = 122   ( global)
    Symbol rpa    = 250   ( global)
    Symbol inchr3 = 253   ( global)
    Symbol tfeed  = 420   ( global)
    Symbol tppb   = 460   ( global)
    Symbol tyi    = 570   ( global)
    Symbol tab    = 607   ( global)
    Symbol tyo    = 610   ( global)
    Symbol popret = 1223   ( global)
    Symbol dpt    = 1361   ( global)
    Symbol blkop  = 1640   ( global)
    Symbol .recyc = 1631   ( global)
    Symbol chsiz  = 2242   ( global)
    Symbol dispnr = 2245   ( global)
    Symbol disini = 2246   ( global)
    Symbol disad  = 2277   ( global)
    Symbol disclg = 2427   ( global)
    Symbol uwait  = 2457   ( global)
    Symbol .zzsw  = 1   ( global)
    Symbol .zzlv  = 254120002467   ( global)
    Symbol aprbrk = 2467   ( global)
    Symbol utcbrk = 2631   ( global)
    Symbol .ured  = 2713   ( global)
    Symbol .uwr   = 2737   ( global)
    Symbol .rbyts = 2762   ( global)
    Symbol .look  = 3161   ( global)
    Symbol opnrd  = 3201   ( global)
    Symbol .fileb = 3241   ( global)
    Symbol file   = 3241   ( global)
    Symbol opnwr  = 3305   ( global)
    Symbol uclstp = 3363   ( global)
    Symbol tapkil = 3433   ( global)
    Symbol filest = 3444   ( global)
    Symbol udele  = 3521   ( global)
    Symbol ured   = 3526   ( global)
    Symbol uredt  = 3531   ( global)
    Symbol uwr    = 3564   ( global)
    Symbol uredp  = 3617   ( global)
    Symbol ufpntr = 3621   ( global)
    Symbol ff     = 0   ( global)
    Symbol ppss   = 400000   ( global)
    Symbol vot    = 40000   ( global)
    Symbol pss    = 20000   ( global)
    Symbol npss   = 40000   ( global)
    Symbol contrl = 14735   ( global)
    Symbol lpdl   = 5000   ( global)
    Symbol rrl1   = 15461   ( global)
    Symbol rrr1   = 15471   ( global)
    Symbol macrch = 10000   ( global)
    Symbol arch   = 16145   ( global)
    Symbol typctl = 16151   ( global)
    Symbol init   = 20763   ( global)
    Symbol psyms  = 21135   ( global)
    Symbol ps2    = 23141   ( global)
    Symbol plod   = 23175   ( global)
    Symbol ps1    = 23652   ( global)
    Symbol pdl    = 66107   ( global)
  Header: midas  (345610014702)
    Symbol macl   = 40000   ( local)
    Symbol bytw   = 15005   ( local)
    Symbol smk    = 63760   ( local)
    Symbol prcal  = 15045   ( local)
    Symbol getfd2 = 15166   ( local)
    Symbol getfd3 = 15177   ( local)
    Symbol pls1   = 15224   ( local)
    Symbol multp1 = 15241   ( local)
    Symbol multp3 = 15246   ( local)
    Symbol multp4 = 15265   ( local)
    Symbol gmul1  = 15271   ( local)
    Symbol gmul2  = 15276   ( local)
    Symbol gmul5  = 15312   ( local)
    Symbol divid1 = 15314   ( local)
    Symbol xorf1  = 15337   ( local)
    Symbol iorf1  = 15341   ( local)
    Symbol andf1  = 15343   ( local)
    Symbol logic1 = 15344   ( local)
    Symbol logic2 = 15350   ( local)
    Symbol cbak1  = 15355   ( local)
    Symbol rru1   = 15403   ( local)
    Symbol getsyl = 15410   ( local)
    Symbol rrl2   = 15420   ( local)
    Symbol rr10   = 15427   ( local)
    Symbol rr9    = 15453   ( local)
    Symbol rr     = 15467   ( local)
    Symbol rrlm4  = 15501   ( local)
    Symbol maknm2 = 15535   ( local)
    Symbol maknm3 = 15537   ( local)
    Symbol numtab = 15542   ( local)
    Symbol highpt = 15545   ( local)
    Symbol lowpt  = 15550   ( local)
    Symbol aradix = 15553   ( local)
    Symbol ntclf  = 15556   ( local)
    Symbol numsl  = 15557   ( local)
    Symbol numsl4 = 15606   ( local)
    Symbol numsl2 = 15610   ( local)
    Symbol pt1    = 15615   ( local)
    Symbol fix    = 15620   ( local)
    Symbol rdxsel = 15626   ( local)
    Symbol numsl1 = 15641   ( local)
    Symbol rr7    = 15676   ( local)
    Symbol ua3    = 15701   ( local)
    Symbol uar1   = 15724   ( local)
    Symbol bak1   = 15765   ( local)
    Symbol upctrc = 15774   ( local)
    Symbol dq1a   = 15776   ( local)
    Symbol rr2a   = 16024   ( local)
    Symbol nsqtb  = 16026   ( local)
    Symbol poplis = 16053   ( local)
    Symbol pshm1  = 16141   ( local)
    Symbol rch    = 16145   ( local)
    Symbol getchr = 16147   ( local)
    Symbol rch1   = 16152   ( local)
    Symbol mrch   = 16155   ( local)
    Symbol mrch2c = 16163   ( local)
    Symbol mrch1  = 16202   ( local)
    Symbol rchsv2 = 16221   ( local)
    Symbol rchsav = 16222   ( local)
    Symbol rdwr3  = 16246   ( local)
    Symbol rdwr2d = 16260   ( local)
    Symbol rdwr2c = 16265   ( local)
    Symbol rdwr2  = 16266   ( local)
    Symbol putrel = 16275   ( local)
    Symbol addtr1 = 16344   ( local)
    Symbol rdwr6  = 16353   ( local)
    Symbol rdwr1  = 16374   ( local)
    Symbol rdtrns = 16413   ( local)
    Symbol symmg1 = 16422   ( local)
    Symbol gcend  = 16430   ( local)
    Symbol mstg2  = 16431   ( local)
    Symbol mstg4  = 16451   ( local)
    Symbol mstg3  = 16453   ( local)
    Symbol gcend1 = 16501   ( local)
    Symbol usymg1 = 16510   ( local)
    Symbol mscn   = 16513   ( local)
    Symbol mscn1  = 16524   ( local)
    Symbol maccl  = 16527   ( local)
    Symbol mac4   = 16565   ( local)
    Symbol mac1a  = 16600   ( local)
    Symbol mac2a  = 16620   ( local)
    Symbol mac2   = 16622   ( local)
    Symbol mac3a  = 16626   ( local)
    Symbol gensym = 16630   ( local)
    Symbol dmytrn = 16646   ( local)
    Symbol dmytr1 = 16661   ( local)
    Symbol gsyl2  = 16707   ( local)
    Symbol gsyl1b = 16716   ( local)
    Symbol gsyl1c = 16722   ( local)
    Symbol gsyl1a = 16724   ( local)
    Symbol strtp1 = 16735   ( local)
    Symbol strtp3 = 16745   ( local)
    Symbol defne  = 17004   ( local)
    Symbol defnb  = 17005   ( local)
    Symbol defna  = 17012   ( local)
    Symbol pdef   = 17036   ( local)
    Symbol wrqote = 17046   ( local)
    Symbol wrqot4 = 17060   ( local)
    Symbol wrqot5 = 17077   ( local)
    Symbol wrqot2 = 17106   ( local)
    Symbol wrqot1 = 17117   ( local)
    Symbol a.qot1 = 17121   ( local)
    Symbol rept1  = 17171   ( local)
    Symbol a.stp1 = 17217   ( local)
    Symbol repttm = 17222   ( local)
    Symbol rept2  = 17223   ( local)
    Symbol agetfd = 17237   ( local)
    Symbol agtfd1 = 17260   ( local)
    Symbol cond3  = 17304   ( local)
    Symbol cond2  = 17310   ( local)
    Symbol anull1 = 17312   ( local)
    Symbol scond3 = 17352   ( local)
    Symbol scond1 = 17364   ( local)
    Symbol scond7 = 17367   ( local)
    Symbol rchcnt = 17372   ( local)
    Symbol qscnt  = 17373   ( local)
    Symbol airp   = 17400   ( local)
    Symbol airp2  = 17436   ( local)
    Symbol airp4  = 17470   ( local)
    Symbol airp7a = 17535   ( local)
    Symbol airp7b = 17542   ( local)
    Symbol airp9  = 17560   ( local)
    Symbol airps2 = 17573   ( local)
    Symbol airps3 = 17601   ( local)
    Symbol airp7d = 17620   ( local)
    Symbol airp10 = 17623   ( local)
    Symbol airp5  = 17624   ( local)
    Symbol aairpc = 17626   ( local)
    Symbol airpc3 = 17653   ( local)
    Symbol colon1 = 17720   ( local)
    Symbol colon4 = 17734   ( local)
    Symbol col4e  = 17741   ( local)
    Symbol colon5 = 17743   ( local)
    Symbol gcol1  = 17746   ( local)
    Symbol gcol3  = 17765   ( local)
    Symbol gcol4  = 17767   ( local)
    Symbol c1asse = 17776   ( local)
    Symbol gcol2  = 17776   ( local)
    Symbol cnstb  = 20056   ( local)
    Symbol cnst2  = 20064   ( local)
    Symbol cnsta  = 20106   ( local)
    Symbol cnstda = 20125   ( local)
    Symbol cnstd  = 20127   ( local)
    Symbol cnst3  = 20146   ( local)
    Symbol conbg6 = 20237   ( local)
    Symbol conbg1 = 20240   ( local)
    Symbol conbg4 = 20254   ( local)
    Symbol conbg3 = 20255   ( local)
    Symbol conbg8 = 20262   ( local)
    Symbol lssth  = 20305   ( local)
    Symbol lssth7 = 20345   ( local)
    Symbol lssth6 = 20346   ( local)
    Symbol lssth4 = 20361   ( local)
    Symbol lssthr = 20367   ( local)
    Symbol avar3  = 20442   ( local)
    Symbol avar1  = 20470   ( local)
    Symbol avar4  = 20502   ( local)
    Symbol avar3a = 20513   ( local)
    Symbol avar2b = 20517   ( local)
    Symbol avar4a = 20522   ( local)
    Symbol scon   = 20603   ( local)
    Symbol scon3  = 20634   ( local)
    Symbol scon4  = 20647   ( local)
    Symbol scon6a = 20655   ( local)
    Symbol scon6  = 20656   ( local)
    Symbol scom1  = 20675   ( local)
    Symbol nocon  = 20702   ( local)
    Symbol nocon5 = 20746   ( local)
    Symbol cptmk  = 20752   ( local)
    Symbol init2  = 21000   ( local)
    Symbol cretn  = 21102   ( local)
    Symbol a.qote = 21103   ( local)
    Symbol assem1 = 21103   ( local)
    Symbol assem2 = 21123   ( local)
    Symbol return = 21141   ( local)
    Symbol apsym1 = 21142   ( local)
    Symbol eqg1   = 21201   ( local)
    Symbol eql7   = 21217   ( local)
    Symbol glkpnr = 21243   ( local)
    Symbol lkpnro = 21244   ( local)
    Symbol eql2   = 21261   ( local)
    Symbol casm1a = 21264   ( local)
    Symbol lopra  = 21265   ( local)
    Symbol eql1   = 21272   ( local)
    Symbol eql1e  = 21306   ( local)
    Symbol eql1d  = 21307   ( local)
    Symbol asem1a = 21322   ( local)
    Symbol atermi = 21324   ( local)
    Symbol outde2 = 21325   ( local)
    Symbol outde1 = 21326   ( local)
    Symbol eql1c  = 21344   ( local)
    Symbol p70    = 21362   ( local)
    Symbol pbitsz = 21363   ( local)
    Symbol pbits7 = 21364   ( local)
    Symbol eql1cd = 21366   ( local)
    Symbol eql1ca = 21371   ( local)
    Symbol eqa2a  = 21374   ( local)
    Symbol eql1b2 = 21400   ( local)
    Symbol eql1b  = 21401   ( local)
    Symbol colon2 = 21412   ( local)
    Symbol eql1ba = 21413   ( local)
    Symbol eql1bb = 21427   ( local)
    Symbol eql1sm = 21434   ( local)
    Symbol eql1a  = 21451   ( local)
    Symbol rchkmv = 21455   ( local)
    Symbol getval = 21457   ( local)
    Symbol gtvld1 = 21503   ( local)
    Symbol gtvl2  = 21510   ( local)
    Symbol gtvl2d = 21517   ( local)
    Symbol gtvl2c = 21521   ( local)
    Symbol gtvl2p = 21523   ( local)
    Symbol gtvpm  = 21527   ( local)
    Symbol gtvl1  = 21532   ( local)
    Symbol gtvl3  = 21535   ( local)
    Symbol gtvl7  = 21546   ( local)
    Symbol gtvl8g = 21561   ( local)
    Symbol gtvl6a = 21567   ( local)
    Symbol gtvlb  = 21575   ( local)
    Symbol gtvb1  = 21576   ( local)
    Symbol gtvl6  = 21603   ( local)
    Symbol gtvl5  = 21610   ( local)
    Symbol gtvl7b = 21617   ( local)
    Symbol gtvlp1 = 21640   ( local)
    Symbol gtvlp2 = 21643   ( local)
    Symbol $.h    = 21646   ( local)
    Symbol gtvle  = 21647   ( local)
    Symbol gtvle2 = 21657   ( local)
    Symbol gtvle1 = 21662   ( local)
    Symbol gtvle4 = 21664   ( local)
    Symbol getvun = 21666   ( local)
    Symbol gtver  = 21701   ( local)
    Symbol ploglo = 21703   ( local)
    Symbol dsyl   = 400000   ( local)
    Symbol dfld   = 200000   ( local)
    Symbol dtb    = 21711   ( local)
    Symbol es     = 21750   ( local)
    Symbol es3    = 22005   ( local)
    Symbol es5    = 22010   ( local)
    Symbol es2    = 22020   ( local)
    Symbol es2a   = 22022   ( local)
    Symbol popj1  = 22030   ( local)
    Symbol es3b1  = 22032   ( local)
    Symbol es6    = 22034   ( local)
    Symbol es6a   = 22036   ( local)
    Symbol vsm2lv = 22040   ( local)
    Symbol vsm2w  = 22041   ( local)
    Symbol vsm2   = 22042   ( local)
    Symbol vsm3a  = 22047   ( local)
    Symbol hash   = 22056   ( local)
    Symbol ifortb = 22065   ( local)
    Symbol fortab = 22112   ( local)
    Symbol frtbe  = 22136   ( local)
    Symbol getwrd = 22147   ( local)
    Symbol gtwd5  = 22215   ( local)
    Symbol comma  = 22224   ( local)
    Symbol getwd2 = 22245   ( local)
    Symbol comma1 = 22255   ( local)
    Symbol space  = 22257   ( local)
    Symbol intfld = 22275   ( local)
    Symbol intfd1 = 22321   ( local)
    Symbol intfd2 = 22335   ( local)
    Symbol intl   = 22340   ( local)
    Symbol intw   = 22347   ( local)
    Symbol intr   = 22355   ( local)
    Symbol intacl = 22360   ( local)
    Symbol intach = 22361   ( local)
    Symbol pbits  = 22411   ( local)
    Symbol outsm  = 22422   ( local)
    Symbol outwd  = 22423   ( local)
    Symbol output = 22424   ( local)
    Symbol eblk   = 22443   ( local)
    Symbol eblk3  = 22454   ( local)
    Symbol ebk2   = 22504   ( local)
    Symbol eblk4  = 22512   ( local)
    Symbol pwrda  = 22525   ( local)
    Symbol pwrd   = 22526   ( local)
    Symbol pwrd7a = 22566   ( local)
    Symbol pwrd7  = 22567   ( local)
    Symbol pwrd5  = 22574   ( local)
    Symbol pwrd5b = 22606   ( local)
    Symbol pwrd31 = 22650   ( local)
    Symbol pwrd3f = 22701   ( local)
    Symbol rpwrd  = 22703   ( local)
    Symbol pwrd3e = 22711   ( local)
    Symbol pwrd3  = 22713   ( local)
    Symbol pwrd2  = 22714   ( local)
    Symbol rchk   = 22721   ( local)
    Symbol rlcerr = 22730   ( local)
    Symbol rmove  = 22732   ( local)
    Symbol pwrd1  = 22737   ( local)
    Symbol sblk2  = 23000   ( local)
    Symbol esblk  = 23005   ( local)
    Symbol prim   = 23010   ( local)
    Symbol prim1  = 23015   ( local)
    Symbol lib2   = 23046   ( local)
    Symbol lib3   = 23063   ( local)
    Symbol libop  = 23071   ( local)
    Symbol lib5   = 23117   ( local)
    Symbol pa2a   = 23147   ( local)
    Symbol pa2b   = 23164   ( local)
    Symbol pldcm  = 23167   ( local)
    Symbol plod1  = 23200   ( local)
    Symbol aend1  = 23224   ( local)
    Symbol aend2  = 23241   ( local)
    Symbol aend5  = 23244   ( local)
    Symbol aend5e = 23261   ( local)
    Symbol aend5b = 23270   ( local)
    Symbol aloc   = 23307   ( local)
    Symbol aloc1  = 23346   ( local)
    Symbol aloc3  = 23404   ( local)
    Symbol aloc5  = 23415   ( local)
    Symbol a.ln1  = 23435   ( local)
    Symbol ablk2  = 23443   ( local)
    Symbol ablk4  = 23452   ( local)
    Symbol error  = 23472   ( local)
    Symbol err1   = 23522   ( local)
    Symbol symtyp = 23553   ( local)
    Symbol symtp1 = 23567   ( local)
    Symbol sytb   = 23571   ( local)
    Symbol octpnt = 23574   ( local)
    Symbol err4   = 23604   ( local)
    Symbol err5   = 23607   ( local)
    Symbol err2   = 23611   ( local)
    Symbol err3   = 23614   ( local)
    Symbol errret = 23616   ( local)
    Symbol sixtyo = 23623   ( local)
    Symbol crr    = 23631   ( local)
    Symbol iae    = 23635   ( local)
    Symbol typr1  = 23643   ( local)
    Symbol simblk = 23653   ( local)
    Symbol cabpop = 23664   ( local)
    Symbol atit1  = 23702   ( local)
    Symbol asend1 = 23731   ( local)
    Symbol clbpop = 23741   ( local)
    Symbol cpopj  = 23742   ( local)
    Symbol symdmp = 23743   ( local)
    Symbol symd3a = 24007   ( local)
    Symbol symd3  = 24010   ( local)
    Symbol symd1  = 24024   ( local)
    Symbol symd2a = 24032   ( local)
    Symbol symd2b = 24034   ( local)
    Symbol symd6  = 24047   ( local)
    Symbol cnartp = 24052   ( local)
    Symbol cntp2  = 24076   ( local)
    Symbol symda  = 24100   ( local)
    Symbol aasc1  = 24136   ( local)
    Symbol aasc1a = 24163   ( local)
    Symbol aasc2  = 24170   ( local)
    Symbol aasm1  = 24205   ( local)
    Symbol aasc5  = 24232   ( local)
    Symbol aasc9  = 24242   ( local)
    Symbol aasc7  = 24244   ( local)
    Symbol text6  = 24245   ( local)
    Symbol aasc1b = 24246   ( local)
    Symbol valret = 24254   ( local)
    Symbol text5  = 24261   ( local)
    Symbol valr1  = 24266   ( local)
    Symbol text2  = 24270   ( local)
    Symbol aascf1 = 24276   ( local)
    Symbol aascf2 = 24277   ( local)
    Symbol text4  = 24300   ( local)
    Symbol text8  = 24301   ( local)
    Symbol asbp1  = 24302   ( local)
    Symbol asbp2  = 24303   ( local)
    Symbol aasbf  = 24304   ( local)
    Symbol asuds1 = 24307   ( local)
    Symbol igtxt  = 24310   ( local)
    Symbol popaj  = 24315   ( local)
    Symbol areloc = 24360   ( local)
    Symbol sload  = 24411   ( local)
    Symbol sloadp = 24434   ( local)
    Symbol ag.sp2 = 24571   ( local)
    Symbol ag.sf  = 24574   ( local)
    Symbol a.gst4 = 24603   ( local)
    Symbol a.gst3 = 24604   ( local)
    Symbol ccomp  = 24605   ( local)
    Symbol bcompa = 24615   ( local)
    Symbol a.go2  = 24644   ( local)
    Symbol pmacp  = 24646   ( local)
    Symbol a.go4  = 24661   ( local)
    Symbol a.go6  = 24662   ( local)
    Symbol a.by2  = 24702   ( local)
    Symbol byset  = 24714   ( local)
    Symbol a.by3  = 24724   ( local)
    Symbol pby1   = 24750   ( local)
    Symbol bytinr = 24757   ( local)
    Symbol pbyte  = 24764   ( local)
    Symbol pby2   = 24766   ( local)
    Symbol bybyt  = 24776   ( local)
    Symbol feed1  = 25005   ( local)
    Symbol feed   = 25006   ( local)
    Symbol ppb    = 25010   ( local)
    Symbol ppba   = 25011   ( local)
    Symbol $    0 = 25012   ( local)
    Symbol gdtab  = 25202   ( local)
    Symbol %asq   = 25402   ( local)
    Symbol %bsq   = 25411   ( local)
    Symbol %csq   = 25420   ( local)
    Symbol %dsq   = 25427   ( local)
    Symbol %esq   = 25436   ( local)
    Symbol %fsq   = 25445   ( local)
    Symbol %gsq   = 25454   ( local)
    Symbol %hsq   = 25463   ( local)
    Symbol %isq   = 25472   ( local)
    Symbol %jsq   = 25501   ( local)
    Symbol %ksq   = 25510   ( local)
    Symbol %lsq   = 25517   ( local)
    Symbol %msq   = 25526   ( local)
    Symbol %nsq   = 25535   ( local)
    Symbol %osq   = 25544   ( local)
    Symbol %psq   = 25553   ( local)
    Symbol %qsq   = 25562   ( local)
    Symbol %rsq   = 25571   ( local)
    Symbol %ssq   = 25600   ( local)
    Symbol %tsq   = 25607   ( local)
    Symbol %usq   = 25616   ( local)
    Symbol %vsq   = 25625   ( local)
    Symbol %wsq   = 25634   ( local)
    Symbol %xsq   = 25643   ( local)
    Symbol %ysq   = 25652   ( local)
    Symbol %zsq   = 25661   ( local)
    Symbol %1sq   = 25670   ( local)
    Symbol %2sq   = 25677   ( local)
    Symbol %3sq   = 25706   ( local)
    Symbol %4sq   = 25715   ( local)
    Symbol %5sq   = 25724   ( local)
    Symbol %6sq   = 25733   ( local)
    Symbol %7sq   = 25742   ( local)
    Symbol %8sq   = 25751   ( local)
    Symbol %9sq   = 25760   ( local)
    Symbol %0sq   = 25767   ( local)
    Symbol %$sq   = 25776   ( local)
    Symbol %%sq   = 26005   ( local)
    Symbol %.sq   = 26014   ( local)
    Symbol mactab = 26023   ( local)
    Symbol init1  = 26024   ( local)
    Symbol sp2    = 26042   ( local)
    Symbol sp1    = 26044   ( local)
    Symbol $    2 = 26061   ( local)
    Symbol isymtb = 26063   ( local)
    Symbol eisym1 = 26631   ( local)
    Symbol eisymt = 27203   ( local)
    Symbol bkbuf  = 66023   ( local)
    Symbol glotb  = 66067   ( local)
    Symbol st     = 73110   ( local)
    Symbol 3rdwrd = 243050   ( local)
    Symbol conbit = 275041   ( local)
    Symbol contab = 276351   ( local)
    Symbol pcntb  = 327351   ( local)
    Symbol conglo = 327651   ( local)
    Symbol vartab = 335651   ( local)
    Symbol strsto = 335751   ( local)
    Symbol dmydef = 336151   ( local)
    Symbol dstg   = 336171   ( local)
    Symbol dmyagt = 336571   ( local)
    Symbol toppp  = 342571   ( local)
    Symbol macpdl = 342571   ( local)
    Symbol gcsv   = 345571   ( local)
    Symbol lstloc = 345607   ( local)
    Symbol $    3 = 345610   ( local)
    Symbol rch2   = 16150   ( local)
    Symbol gtvl1a = 21504   ( local)
    Symbol 3ini   = 40000   ( halfkilled local)
    Symbol logic1 = 15344   ( local)
    Symbol cntp1  = 24053   ( local)
    Symbol pwrd1  = 22737   ( local)
    Symbol aword  = 24352   ( local)
    Symbol pbyte  = 24764   ( local)
    Symbol sgtsy1 = 15123   ( local)
    Symbol pwrd3d = 22670   ( local)
    Symbol mscn1  = 16524   ( local)
    Symbol gtvl8  = 21541   ( local)
    Symbol prim1  = 23015   ( local)
    Symbol glsp2  = 14705   ( local)
    Symbol lssth5 = 20321   ( local)
    Symbol numc1  = 15567   ( local)
    Symbol airps4 = 17576   ( local)
    Symbol gtvlb  = 21575   ( local)
    Symbol aasc6  = 24220   ( local)
    Symbol lccmst = 3   ( halfkilled local)
    Symbol irpcr  = 15071   ( local)
    Symbol forpnr = 14707   ( local)
    Symbol syloc1 = 14756   ( local)
    Symbol spread = 26027   ( local)
    Symbol pbits  = 22411   ( local)
    Symbol usvwld = 16063   ( local)
    Symbol lgpa   = 7   ( halfkilled local)
    Symbol hfwdf  = 100000   ( halfkilled local)
    Symbol bytwp  = 15004   ( local)
    Symbol gchi   = 15072   ( local)
    Symbol gsyl2a = 16676   ( local)
    Symbol pby2   = 24766   ( local)
    Symbol rdwr2a = 16271   ( local)
    Symbol asbp2  = 24303   ( local)
    Symbol pmacp  = 24646   ( local)
    Symbol cbak2  = 15237   ( local)
    Symbol macp   = 15023   ( local)
    Symbol bytmt  = 15003   ( local)
    Symbol avar3a = 20513   ( local)
    Symbol dmytr1 = 16661   ( local)
    Symbol crdf   = 4   ( halfkilled local)
    Symbol mdepth = 15066   ( local)
    Symbol es5    = 22010   ( local)
    Symbol multp1 = 15241   ( local)
    Symbol cassm1 = 17742   ( local)
    Symbol put1   = 16410   ( local)
    Symbol isymtb = 26063   ( local)
    Symbol getsyl = 15410   ( local)
    Symbol lopra1 = 21224   ( local)
    Symbol %%sq   = 26005   ( local)
    Symbol pwrd31 = 22650   ( local)
    Symbol sload  = 24411   ( local)
    Symbol redpt  = 15056   ( local)
    Symbol intfd1 = 22321   ( local)
    Symbol macnm  = 15033   ( local)
    Symbol maccr  = 16613   ( local)
    Symbol eql1   = 21272   ( local)
    Symbol mnsflg = 100   ( halfkilled local)
    Symbol conbg3 = 20255   ( local)
    Symbol uparr  = 15654   ( local)
    Symbol aend5e = 23261   ( local)
    Symbol airpt  = 15070   ( local)
    Symbol valr1  = 24266   ( local)
    Symbol hfwdad = 15110   ( local)
    Symbol cond   = 17266   ( local)
    Symbol symmg2 = 16324   ( local)
    Symbol sblks1 = 22750   ( local)
    Symbol pbits3 = 22373   ( local)
    Symbol uar1   = 15724   ( local)
    Symbol %esq   = 25436   ( local)
    Symbol a.go1  = 24630   ( local)
    Symbol gtvlp1 = 21640   ( local)
    Symbol asuds1 = 24307   ( local)
    Symbol blockf = 14772   ( local)
    Symbol %msq   = 25526   ( local)
    Symbol ch2    = 16   ( local)
    Symbol gsyl1b = 16716   ( local)
    Symbol varcnt = 14740   ( local)
    Symbol sp4    = 21005   ( local)
    Symbol apsym1 = 21142   ( local)
    Symbol asend1 = 23731   ( local)
    Symbol pshm1  = 16141   ( local)
    Symbol wrqote = 17046   ( local)
    Symbol symda  = 24100   ( local)
    Symbol pby1   = 24750   ( local)
    Symbol pldcm  = 23167   ( local)
    Symbol %4sq   = 25715   ( local)
    Symbol vsm3a  = 22047   ( local)
    Symbol a.go4  = 24661   ( local)
    Symbol ld.op  = 7   ( halfkilled local)
    Symbol %nsq   = 25535   ( local)
    Symbol anosym = 23456   ( local)
    Symbol ag.sp1 = 24573   ( local)
    Symbol cptr   = 15044   ( local)
    Symbol symd4  = 23761   ( local)
    Symbol rch    = 16145   ( local)
    Symbol a.gst1 = 24533   ( local)
    Symbol eql8   = 21215   ( local)
    Symbol defgvr = 300000   ( halfkilled local)
    Symbol nocon2 = 20705   ( local)
    Symbol comma1 = 22255   ( local)
    Symbol crdwr7 = 16352   ( local)
    Symbol airp7  = 17521   ( local)
    Symbol limbo1 = 14742   ( local)
    Symbol outde1 = 21326   ( local)
    Symbol aexp   = 23663   ( local)
    Symbol %fsq   = 25445   ( local)
    Symbol crptct = 15075   ( local)
    Symbol aasc1a = 24163   ( local)
    Symbol gcol4  = 17767   ( local)
    Symbol asixbi = 24133   ( local)
    Symbol lowpt  = 15550   ( local)
    Symbol p2ini  = 21035   ( local)
    Symbol aloc3  = 23404   ( local)
    Symbol pprime = 14703   ( local)
    Symbol a.eldc = 23072   ( local)
    Symbol %usq   = 25616   ( local)
    Symbol lcrind = 10000   ( local)
    Symbol rdwr1  = 16374   ( local)
    Symbol symstr = 15055   ( local)
    Symbol highpt = 15545   ( local)
    Symbol srim1  = 23654   ( local)
    Symbol a.lifs = 23031   ( local)
    Symbol cnstc  = 20045   ( local)
    Symbol cloc   = 14723   ( local)
    Symbol addtr1 = 16344   ( local)
    Symbol mstg4  = 16451   ( local)
    Symbol a.qot3 = 17125   ( local)
    Symbol cond1  = 17314   ( local)
    Symbol fortab = 22112   ( local)
    Symbol prim   = 23010   ( local)
    Symbol aend5a = 23246   ( local)
    Symbol eql1a1 = 21430   ( local)
    Symbol casm1a = 21264   ( local)
    Symbol init4  = 20767   ( local)
    Symbol rru1   = 15403   ( local)
    Symbol cmmn   = 0   ( halfkilled local)
    Symbol dquote = 15770   ( local)
    Symbol text7  = 24145   ( local)
    Symbol a.lnko = 23243   ( local)
    Symbol cnst2  = 20064   ( local)
    Symbol lbrak1 = 20561   ( local)
    Symbol gtwd6  = 22242   ( local)
    Symbol conbg8 = 20262   ( local)
    Symbol getfd  = 15152   ( local)
    Symbol pa2c   = 23150   ( local)
    Symbol symd1  = 24024   ( local)
    Symbol mrsw   = 200   ( local)
    Symbol airp7b = 17542   ( local)
    Symbol format = 14706   ( local)
    Symbol nsqtb  = 16026   ( local)
    Symbol ebk1   = 22474   ( local)
    Symbol parbit = 14775   ( local)
    Symbol udefgv = 340000   ( halfkilled local)
    Symbol mac3   = 16555   ( local)
    Symbol colon2 = 21412   ( local)
    Symbol scond4 = 17345   ( local)
    Symbol esl1   = 14732   ( local)
    Symbol cnstnt = 20004   ( local)
    Symbol gtvl2  = 21510   ( local)
    Symbol aasm1  = 24205   ( local)
    Symbol conb8a = 20231   ( local)
    Symbol lcontb = 31000   ( halfkilled local)
    Symbol strtp3 = 16745   ( local)
    Symbol dmytrn = 16646   ( local)
    Symbol nprc   = 1000   ( halfkilled local)
    Symbol rr2    = 16016   ( local)
    Symbol aascf2 = 24277   ( local)
    Symbol aasc5  = 24232   ( local)
    Symbol gtvld1 = 21503   ( local)
    Symbol eql1ce = 21320   ( local)
    Symbol gdtab  = 25202   ( local)
    Symbol ut141  = 15506   ( local)
    Symbol scon6a = 20655   ( local)
    Symbol aend4  = 23130   ( local)
    Symbol arim1  = 4   ( halfkilled local)
    Symbol redinc = 16232   ( local)
    Symbol airp2  = 17436   ( local)
    Symbol errret = 23616   ( local)
    Symbol ifortb = 22065   ( local)
    Symbol gtvl6b = 21572   ( local)
    Symbol gtwd3  = 22201   ( local)
    Symbol a.stop = 17212   ( local)
    Symbol ppba   = 25011   ( local)
    Symbol ldofs  = 6   ( halfkilled local)
    Symbol prcal  = 15045   ( local)
    Symbol ncons  = 100   ( halfkilled local)
    Symbol eql2   = 21261   ( local)
    Symbol gtvl5  = 21610   ( local)
    Symbol a.op   = 24107   ( local)
    Symbol opt1   = 14727   ( local)
    Symbol numsl4 = 15606   ( local)
    Symbol %8sq   = 25751   ( local)
    Symbol rept4  = 17234   ( local)
    Symbol wrtss  = 16751   ( local)
    Symbol rchsv1 = 16204   ( local)
    Symbol init2  = 21000   ( local)
    Symbol a1pass = 24356   ( local)
    Symbol 3rlr   = 200000   ( halfkilled local)
    Symbol assem1 = 21103   ( local)
    Symbol bitf   = 400   ( halfkilled local)
    Symbol symdmp = 23743   ( local)
    Symbol pwrd3a = 22651   ( local)
    Symbol csqz   = 14747   ( local)
    Symbol mrch2c = 16163   ( local)
    Symbol sp3    = 26031   ( local)
    Symbol getfd3 = 15177   ( local)
    Symbol aasciz = 24126   ( local)
    Symbol p70    = 21362   ( local)
    Symbol ioinst = 23736   ( local)
    Symbol eql1bb = 21427   ( local)
    Symbol rpwrd1 = 22660   ( local)
    Symbol putrel = 16275   ( local)
    Symbol aloc   = 23307   ( local)
    Symbol srim   = 23661   ( local)
    Symbol c      = 6   ( local)
    Symbol rlcerr = 22730   ( local)
    Symbol getchr = 16147   ( local)
    Symbol defnc  = 16772   ( local)
    Symbol open   = 20267   ( local)
    Symbol aasc9  = 24242   ( local)
    Symbol rr8    = 15425   ( local)
    Symbol aasc1  = 24136   ( local)
    Symbol ablk5b = 23445   ( local)
    Symbol bak1   = 15765   ( local)
    Symbol text5  = 24261   ( local)
    Symbol bcompa = 24615   ( local)
    Symbol scon   = 20603   ( local)
    Symbol d      = 7   ( local)
    Symbol rdwr2d = 16260   ( local)
    Symbol airp6a = 17512   ( local)
    Symbol agetfd = 17237   ( local)
    Symbol rru    = 15401   ( local)
    Symbol numsl8 = 15635   ( local)
    Symbol crpt   = 5   ( halfkilled local)
    Symbol bytinr = 24757   ( local)
    Symbol 3rlnk  = 100000   ( halfkilled local)
    Symbol gtvle2 = 21657   ( local)
    Symbol eql1ca = 21371   ( local)
    Symbol atermi = 21324   ( local)
    Symbol pwrd3e = 22711   ( local)
    Symbol bytw   = 15005   ( local)
    Symbol rept2  = 17223   ( local)
    Symbol aasbf  = 24304   ( local)
    Symbol typr1  = 23643   ( local)
    Symbol ablk3  = 23325   ( local)
    Symbol gcend  = 16430   ( local)
    Symbol gcol2  = 17776   ( local)
    Symbol cnsth  = 20031   ( local)
    Symbol eqa2a  = 21374   ( local)
    Symbol gtvl8l = 21564   ( local)
    Symbol locf   = 100000   ( halfkilled local)
    Symbol mac1   = 16566   ( local)
    Symbol conbg6 = 20237   ( local)
    Symbol fix    = 15620   ( local)
    Symbol ltcp   = 11   ( halfkilled local)
    Symbol pbits2 = 14720   ( local)
    Symbol 3vp    = 20000   ( halfkilled local)
    Symbol aradix = 15553   ( local)
    Symbol %dsq   = 25427   ( local)
    Symbol aasc1b = 24246   ( local)
    Symbol asem1a = 21322   ( local)
    Symbol lldcm  = 1   ( halfkilled local)
    Symbol alnscn = 2000   ( halfkilled local)
    Symbol deflvr = 200000   ( halfkilled local)
    Symbol %jsq   = 25501   ( local)
    Symbol intr1  = 22342   ( local)
    Symbol macc2  = 16607   ( local)
    Symbol andf   = 15334   ( local)
    Symbol cptrb  = 15030   ( local)
    Symbol bytinc = 24736   ( local)
    Symbol rept5  = 16253   ( local)
    Symbol mstg3  = 16453   ( local)
    Symbol lcnglo = 6000   ( halfkilled local)
    Symbol lssth4 = 20361   ( local)
    Symbol peri   = 100   ( halfkilled local)
    Symbol airps1 = 17550   ( local)
    Symbol outdef = 21336   ( local)
    Symbol aprntx = 24376   ( local)
    Symbol aasc8a = 24234   ( local)
    Symbol mwrd   = 4000   ( halfkilled local)
    Symbol lprgn  = 4   ( halfkilled local)
    Symbol defne  = 17004   ( local)
    Symbol atit1  = 23702   ( local)
    Symbol gloety = 400000   ( halfkilled local)
    Symbol pa2a   = 23147   ( local)
    Symbol gtvb1  = 21576   ( local)
    Symbol symtyp = 23553   ( local)
    Symbol comma4 = 22227   ( local)
    Symbol prstg  = 15037   ( local)
    Symbol pwrda  = 22525   ( local)
    Symbol a.type = 24525   ( local)
    Symbol ch1    = 15   ( local)
    Symbol es4    = 21760   ( local)
    Symbol pa2b   = 23164   ( local)
    Symbol clglo  = 2   ( halfkilled local)
    Symbol %lsq   = 25517   ( local)
    Symbol cnstb  = 20056   ( local)
    Symbol plim   = 14745   ( local)
    Symbol text6  = 24245   ( local)
    Symbol scont1 = 14743   ( local)
    Symbol usymg1 = 16510   ( local)
    Symbol strtp2 = 16732   ( local)
    Symbol pwrd2  = 22714   ( local)
    Symbol crr    = 23631   ( local)
    Symbol a.lop  = 24446   ( local)
    Symbol typr   = 77000000000   ( local)
    Symbol esl2   = 14733   ( local)
    Symbol a.byte = 24664   ( local)
    Symbol anull  = 17277   ( local)
    Symbol lnscn  = 1000   ( halfkilled local)
    Symbol mlcudf = 21524   ( local)
    Symbol eisym1 = 26631   ( local)
    Symbol conbg2 = 20155   ( local)
    Symbol sblks2 = 22760   ( local)
    Symbol scondf = 14771   ( local)
    Symbol mac5   = 16571   ( local)
    Symbol maknm2 = 15535   ( local)
    Symbol pwrd7a = 22566   ( local)
    Symbol aloc5  = 23415   ( local)
    Symbol scond1 = 17364   ( local)
    Symbol svf    = 15060   ( local)
    Symbol zzz    = 400000000000   ( local)
    Symbol sblk1  = 22767   ( local)
    Symbol cdatbc = 14737   ( local)
    Symbol triv   = 400000   ( halfkilled local)
    Symbol pwrd5e = 22601   ( local)
    Symbol gc     = 16305   ( local)
    Symbol outsm  = 22422   ( local)
    Symbol esblk  = 23005   ( local)
    Symbol symd6  = 24047   ( local)
    Symbol avar4b = 20466   ( local)
    Symbol gtvld4 = 21477   ( local)
    Symbol condep = 14760   ( local)
    Symbol err4   = 23604   ( local)
    Symbol t1     = 14712   ( local)
    Symbol firwd  = 400000   ( halfkilled local)
    Symbol aend5b = 23270   ( local)
    Symbol iae    = 23635   ( local)
    Symbol err5   = 23607   ( local)
    Symbol aiowd  = 400   ( halfkilled local)
    Symbol cbakar = 15352   ( local)
    Symbol symmg1 = 16422   ( local)
    Symbol intac1 = 22362   ( local)
    Symbol divid1 = 15314   ( local)
    Symbol uari   = 20   ( halfkilled local)
    Symbol scon2  = 20614   ( local)
    Symbol bcomp  = 15372   ( local)
    Symbol areloc = 24360   ( local)
    Symbol putcnt = 15067   ( local)
    Symbol aa     = 3   ( local)
    Symbol cbak1  = 15355   ( local)
    Symbol rdwr3  = 16246   ( local)
    Symbol gtvl5a = 21551   ( local)
    Symbol varpnt = 14761   ( local)
    Symbol rept3  = 17207   ( local)
    Symbol gsyl1c = 16722   ( local)
    Symbol prcalp = 15035   ( local)
    Symbol gtver  = 21701   ( local)
    Symbol lcglo  = 2   ( halfkilled local)
    Symbol ablock = 23436   ( local)
    Symbol colon5 = 17743   ( local)
    Symbol 3vcnt  = 1000   ( halfkilled local)
    Symbol gcol5  = 17770   ( local)
    Symbol eql7   = 21217   ( local)
    Symbol congol = 14752   ( local)
    Symbol space2 = 22223   ( local)
    Symbol pseudf = 4000   ( halfkilled local)
    Symbol t      = 10   ( local)
    Symbol airpc1 = 17654   ( local)
    Symbol bytmp  = 15002   ( local)
    Symbol rr     = 15467   ( local)
    Symbol mscn   = 16513   ( local)
    Symbol dsyl   = 400000   ( halfkilled local)
    Symbol getcnr = 14763   ( local)
    Symbol gsyl   = 16666   ( local)
    Symbol avar4  = 20502   ( local)
    Symbol b      = 5   ( local)
    Symbol freptb = 15064   ( local)
    Symbol a.tag  = 24624   ( local)
    Symbol rch1   = 16152   ( local)
    Symbol addtr2 = 16346   ( local)
    Symbol lssth7 = 20345   ( local)
    Symbol rrlm4a = 15504   ( local)
    Symbol eql1b  = 21401   ( local)
    Symbol zz     = 41   ( local)
    Symbol aasc8  = 24146   ( local)
    Symbol ardix  = 24317   ( local)
    Symbol avaria = 20372   ( local)
    Symbol strl   = 200   ( halfkilled local)
    Symbol nocon5 = 20746   ( local)
    Symbol dassem = 40000   ( halfkilled local)
    Symbol symd2b = 24034   ( local)
    Symbol upctrc = 15774   ( local)
    Symbol repttm = 17222   ( local)
    Symbol es6a   = 22036   ( local)
    Symbol rrl1a  = 15465   ( local)
    Symbol airp7c = 17532   ( local)
    Symbol flo    = 4   ( halfkilled local)
    Symbol var    = 2   ( halfkilled local)
    Symbol cofst  = 15057   ( local)
    Symbol numsl  = 15557   ( local)
    Symbol avar2b = 20517   ( local)
    Symbol pbconl = 14746   ( local)
    Symbol a.go   = 24626   ( local)
    Symbol scksum = 14741   ( local)
    Symbol arepea = 17132   ( local)
    Symbol vsm3   = 22046   ( local)
    Symbol gensym = 16630   ( local)
    Symbol ptpf   = 20000   ( halfkilled local)
    Symbol gmul1  = 15271   ( local)
    Symbol vcloc  = 14777   ( local)
    Symbol a.glob = 24510   ( local)
    Symbol ablk2  = 23443   ( local)
    Symbol prscn1 = 15040   ( local)
    Symbol igtxt  = 24310   ( local)
    Symbol conbg7 = 20243   ( local)
    Symbol symd5  = 23753   ( local)
    Symbol a.stp1 = 17217   ( local)
    Symbol eql1d  = 21307   ( local)
    Symbol multp3 = 15246   ( local)
    Symbol eql1cd = 21366   ( local)
    Symbol lceglo = 4   ( halfkilled local)
    Symbol llet   = 20   ( halfkilled local)
    Symbol ofrloc = 14726   ( local)
    Symbol lib5   = 23117   ( local)
    Symbol %hsq   = 25463   ( local)
    Symbol a.libr = 24477   ( local)
    Symbol sysym  = 14755   ( local)
    Symbol gcol3  = 17765   ( local)
    Symbol mac3b  = 16560   ( local)
    Symbol colon1 = 17720   ( local)
    Symbol leftp  = 20533   ( local)
    Symbol iorf1  = 15341   ( local)
    Symbol $.h    = 21646   ( local)
    Symbol cnsta  = 20106   ( local)
    Symbol dmdefl = 20   ( halfkilled local)
    Symbol i      = 2   ( local)
    Symbol rr10   = 15427   ( local)
    Symbol mstg2  = 16431   ( local)
    Symbol ppb    = 25010   ( local)
    Symbol minus  = 15233   ( local)
    Symbol numsl3 = 15601   ( local)
    Symbol avar2  = 20411   ( local)
    Symbol gtvl2p = 21523   ( local)
    Symbol %osq   = 25544   ( local)
    Symbol optt2  = 14731   ( local)
    Symbol maccl  = 16527   ( local)
    Symbol pt1    = 15615   ( local)
    Symbol sgtsy  = 15116   ( local)
    Symbol agtfd3 = 17243   ( local)
    Symbol assem2 = 21123   ( local)
    Symbol %gsq   = 25454   ( local)
    Symbol rdwr1a = 16375   ( local)
    Symbol prscnd = 15037   ( local)
    Symbol c%     = 16706   ( local)
    Symbol gcendf = 15062   ( local)
    Symbol bybyt  = 24776   ( local)
    Symbol getfd4 = 15175   ( local)
    Symbol p      = 1   ( local)
    Symbol ldccc  = 14774   ( local)
    Symbol symd2  = 24011   ( local)
    Symbol rdwr2c = 16265   ( local)
    Symbol rr7    = 15676   ( local)
    Symbol mactab = 26023   ( local)
    Symbol iorf   = 15327   ( local)
    Symbol %2sq   = 25677   ( local)
    Symbol gtwd1  = 22160   ( local)
    Symbol err3   = 23614   ( local)
    Symbol text2  = 24270   ( local)
    Symbol scom1  = 20675   ( local)
    Symbol ag.sf  = 24574   ( local)
    Symbol aloc3a = 22520   ( local)
    Symbol ccomp1 = 24606   ( local)
    Symbol unrchf = 2000   ( halfkilled local)
    Symbol logic  = 15331   ( local)
    Symbol rchsv2 = 16221   ( local)
    Symbol defval = 15032   ( local)
    Symbol prgnm  = 14765   ( local)
    Symbol lev    = 14736   ( local)
    Symbol lssth  = 20305   ( local)
    Symbol wrqot4 = 17060   ( local)
    Symbol cnste  = 20133   ( local)
    Symbol pdefpt = 17772   ( local)
    Symbol airps6 = 17420   ( local)
    Symbol eql1ba = 21413   ( local)
    Symbol aend5  = 23244   ( local)
    Symbol airp1  = 17410   ( local)
    Symbol a.rpcn = 17167   ( local)
    Symbol period = 15123   ( local)
    Symbol rrlm1  = 15475   ( local)
    Symbol pbitsz = 21363   ( local)
    Symbol intacl = 22360   ( local)
    Symbol syloc  = 14754   ( local)
    Symbol gtvl6a = 21567   ( local)
    Symbol defnb  = 17005   ( local)
    Symbol frptbs = 15065   ( local)
    Symbol rept6  = 16226   ( local)
    Symbol %asq   = 25402   ( local)
    Symbol gtvl6  = 21603   ( local)
    Symbol popls1 = 16056   ( local)
    Symbol com    = 40   ( halfkilled local)
    Symbol numsl7 = 15611   ( local)
    Symbol prdef  = 15043   ( local)
    Symbol airp4  = 17470   ( local)
    Symbol avar4a = 20522   ( local)
    Symbol cond3  = 17304   ( local)
    Symbol gtvle1 = 21662   ( local)
    Symbol multp  = 15235   ( local)
    Symbol syl    = 2   ( halfkilled local)
    Symbol udeflv = 240000   ( halfkilled local)
    Symbol aexpun = 23460   ( local)
    Symbol ctrl   = 200000   ( halfkilled local)
    Symbol outd1  = 21327   ( local)
    Symbol mrch1  = 16202   ( local)
    Symbol foo    = 14702   ( halfkilled local)
    Symbol intfd3 = 22331   ( local)
    Symbol cgbal  = 100000   ( halfkilled local)
    Symbol scon3  = 20634   ( local)
    Symbol gtvl8g = 21561   ( local)
    Symbol linktc = 15101   ( local)
    Symbol conbg5 = 20246   ( local)
    Symbol gtvl7b = 21617   ( local)
    Symbol gtwd4  = 22173   ( local)
    Symbol text10 = 24267   ( local)
    Symbol pbits1 = 14717   ( local)
    Symbol gtvlp  = 21624   ( local)
    Symbol maknm3 = 15537   ( local)
    Symbol bgetfd = 17236   ( local)
    Symbol eql1sm = 21434   ( local)
    Symbol cdefpt = 6   ( halfkilled local)
    Symbol rmove  = 22732   ( local)
    Symbol cntp2  = 24076   ( local)
    Symbol aend1  = 23224   ( local)
    Symbol dfld   = 200000   ( halfkilled local)
    Symbol ablk4  = 23452   ( local)
    Symbol glopra = 21220   ( local)
    Symbol maknum = 15510   ( local)
    Symbol let    = 4   ( halfkilled local)
    Symbol mac4   = 16565   ( local)
    Symbol prtcl  = 22345   ( local)
    Symbol eqlf   = 200   ( halfkilled local)
    Symbol lssth3 = 20312   ( local)
    Symbol airp   = 17400   ( local)
    Symbol scon6  = 20656   ( local)
    Symbol airps2 = 17573   ( local)
    Symbol ptab1  = 15017   ( local)
    Symbol libop  = 23071   ( local)
    Symbol airpt1 = 15074   ( local)
    Symbol 3skill = 10000   ( halfkilled local)
    Symbol pls    = 15205   ( local)
    Symbol rbrak  = 15367   ( local)
    Symbol intach = 22361   ( local)
    Symbol lnktc1 = 15100   ( local)
    Symbol conbg1 = 20240   ( local)
    Symbol text4  = 24300   ( local)
    Symbol gmul4  = 15255   ( local)
    Symbol a.gst3 = 24604   ( local)
    Symbol feed1  = 25005   ( local)
    Symbol rr9    = 15453   ( local)
    Symbol cnartp = 24052   ( local)
    Symbol symd2a = 24032   ( local)
    Symbol limbo  = 14722   ( local)
    Symbol mstg   = 16327   ( local)
    Symbol gsyl2  = 16707   ( local)
    Symbol gtvl3  = 21535   ( local)
    Symbol avar2a = 20430   ( local)
    Symbol varcnr = 14762   ( local)
    Symbol %5sq   = 25724   ( local)
    Symbol aasc3  = 24160   ( local)
    Symbol scond2 = 17335   ( local)
    Symbol aloc2  = 23334   ( local)
    Symbol pwrd5b = 22606   ( local)
    Symbol strtp1 = 16735   ( local)
    Symbol mrch   = 16155   ( local)
    Symbol lopra  = 21265   ( local)
    Symbol space  = 22257   ( local)
    Symbol pwrd3  = 22713   ( local)
    Symbol strtyp = 16726   ( local)
    Symbol %.sq   = 26014   ( local)
    Symbol lbrak3 = 20564   ( local)
    Symbol es3b1  = 22032   ( local)
    Symbol gcol1  = 17746   ( local)
    Symbol ag.sp3 = 24561   ( local)
    Symbol cond2  = 17310   ( local)
    Symbol aend5c = 23256   ( local)
    Symbol pushfd = 22230   ( local)
    Symbol return = 21141   ( local)
    Symbol freept = 15024   ( local)
    Symbol %ssq   = 25600   ( local)
    Symbol dcnt   = 15034   ( local)
    Symbol a.lib  = 23032   ( local)
    Symbol rrlm1a = 15473   ( local)
    Symbol sblks  = 10   ( halfkilled local)
    Symbol dwrd   = 100000   ( halfkilled local)
    Symbol %vsq   = 25625   ( local)
    Symbol a.by1  = 24670   ( local)
    Symbol lddsym = 10   ( halfkilled local)
    Symbol bitp   = 14767   ( local)
    Symbol numsl2 = 15610   ( local)
    Symbol gsyl1d = 16720   ( local)
    Symbol lib1   = 23036   ( local)
    Symbol gtvl2d = 21517   ( local)
    Symbol cont   = 1000   ( halfkilled local)
    Symbol uar2   = 15716   ( local)
    Symbol ptab   = 15012   ( local)
    Symbol dmytop = 15036   ( local)
    Symbol asend  = 23712   ( local)
    Symbol aprntc = 24376   ( local)
    Symbol gtvld3 = 21507   ( local)
    Symbol mac2a  = 16620   ( local)
    Symbol a.qot1 = 17121   ( local)
    Symbol eql1b2 = 21400   ( local)
    Symbol nbyts  = 15006   ( local)
    Symbol cnst1  = 20025   ( local)
    Symbol feed   = 25006   ( local)
    Symbol ag.sp  = 24553   ( local)
    Symbol getfd1 = 15142   ( local)
    Symbol eblk3  = 22454   ( local)
    Symbol a.gst  = 24531   ( local)
    Symbol dssiz  = 400   ( halfkilled local)
    Symbol nocon4 = 20636   ( local)
    Symbol comma  = 22224   ( local)
    Symbol %ksq   = 25510   ( local)
    Symbol col4e  = 17741   ( local)
    Symbol crloc  = 14724   ( local)
    Symbol bytm   = 15000   ( local)
    Symbol qscnt  = 17373   ( local)
    Symbol airp7d = 17620   ( local)
    Symbol scond6 = 17340   ( local)
    Symbol equal  = 21145   ( local)
    Symbol %csq   = 25420   ( local)
    Symbol 3mas   = 400   ( halfkilled local)
    Symbol a.asci = 24127   ( local)
    Symbol pwrd5  = 22574   ( local)
    Symbol tt     = 11   ( local)
    Symbol clibq  = 3   ( halfkilled local)
    Symbol getval = 21457   ( local)
    Symbol %6sq   = 25733   ( local)
    Symbol es3b   = 22000   ( local)
    Symbol assem3 = 21132   ( local)
    Symbol dq1    = 15777   ( local)
    Symbol lbrak  = 20557   ( local)
    Symbol airpc2 = 17651   ( local)
    Symbol gtvle4 = 21664   ( local)
    Symbol lssthr = 20367   ( local)
    Symbol gtvld  = 21475   ( local)
    Symbol wrqot1 = 17117   ( local)
    Symbol arim   = 2   ( halfkilled local)
    Symbol llib   = 5   ( halfkilled local)
    Symbol dq1a   = 15776   ( local)
    Symbol eql1a  = 21451   ( local)
    Symbol bsize  = 37   ( halfkilled local)
    Symbol mwrd1  = 20000   ( halfkilled local)
    Symbol eqa2   = 21373   ( local)
    Symbol eql1sr = 21422   ( local)
    Symbol 3rll   = 400000   ( halfkilled local)
    Symbol colon4 = 17734   ( local)
    Symbol aloc4  = 23343   ( local)
    Symbol concnt = 14751   ( local)
    Symbol atitle = 23666   ( local)
    Symbol invtf  = 4000   ( halfkilled local)
    Symbol bbase  = 15011   ( local)
    Symbol plod1a = 23204   ( local)
    Symbol squote = 16004   ( local)
    Symbol nlikf  = 2000   ( halfkilled local)
    Symbol gtvd2a = 21501   ( local)
    Symbol tm     = 17   ( local)
    Symbol cond4  = 17274   ( local)
    Symbol cnstd  = 20127   ( local)
    Symbol aairpc = 17626   ( local)
    Symbol intfld = 22275   ( local)
    Symbol mstg5  = 16442   ( local)
    Symbol rchkmv = 21455   ( local)
    Symbol strpnt = 15027   ( local)
    Symbol eq12   = 21453   ( local)
    Symbol ntclf  = 15556   ( local)
    Symbol pushem = 16102   ( local)
    Symbol eqg1   = 21201   ( local)
    Symbol minf   = 20000   ( halfkilled local)
    Symbol labs   = 2   ( halfkilled local)
    Symbol cnst1b = 20030   ( local)
    Symbol lrel   = 3   ( halfkilled local)
    Symbol %bsq   = 25411   ( local)
    Symbol ldcv   = 5   ( halfkilled local)
    Symbol gtvl7  = 21546   ( local)
    Symbol glsp1  = 14704   ( local)
    Symbol gsyl3  = 16672   ( local)
    Symbol gtwd4a = 22172   ( local)
    Symbol rdwr7  = 16262   ( local)
    Symbol %3sq   = 25706   ( local)
    Symbol popfd1 = 22234   ( local)
    Symbol mrchr  = 16154   ( local)
    Symbol popaj  = 24315   ( local)
    Symbol rdwr6a = 16363   ( local)
    Symbol pwrd7  = 22567   ( local)
    Symbol asqoz  = 24434   ( local)
    Symbol intl   = 22340   ( local)
    Symbol atsgn  = 15455   ( local)
    Symbol sytb   = 23571   ( local)
    Symbol lib2   = 23046   ( local)
    Symbol init1  = 26024   ( local)
    Symbol agtfd2 = 17254   ( local)
    Symbol scon4  = 20647   ( local)
    Symbol prirp  = 15042   ( local)
    Symbol wrqot5 = 17077   ( local)
    Symbol eql1c  = 21344   ( local)
    Symbol lssth2 = 20315   ( local)
    Symbol eql1cc = 21341   ( local)
    Symbol ccasm1 = 23120   ( local)
    Symbol a.go6  = 24662   ( local)
    Symbol rdtrns = 16413   ( local)
    Symbol clbpop = 23741   ( local)
    Symbol rdxsel = 15626   ( local)
    Symbol %1sq   = 25670   ( local)
    Symbol a.gsyl = 16663   ( local)
    Symbol strcnt = 15026   ( local)
    Symbol gloext = 440000   ( halfkilled local)
    Symbol rr4    = 15422   ( local)
    Symbol indeff = 200000   ( halfkilled local)
    Symbol bakar  = 15744   ( local)
    Symbol pbcon  = 14744   ( local)
    Symbol bytin1 = 24733   ( local)
    Symbol sym    = 12   ( local)
    Symbol rdwrdp = 15031   ( local)
    Symbol lbybyt = 5   ( halfkilled local)
    Symbol scon7  = 20627   ( local)
    Symbol a.leng = 23423   ( local)
    Symbol lcjmp  = 1   ( halfkilled local)
    Symbol gtvpm  = 21527   ( local)
    Symbol gtvlz  = 21502   ( local)
    Symbol ts     = 0   ( halfkilled local)
    Symbol multp4 = 15265   ( local)
    Symbol stgsw  = 14776   ( local)
    Symbol %rsq   = 25571   ( local)
    Symbol xorf   = 15332   ( local)
    Symbol lcomlo = 6   ( halfkilled local)
    Symbol semic  = 15362   ( local)
    Symbol lsort  = 20573   ( local)
    Symbol rept1  = 17171   ( local)
    Symbol aequal = 24322   ( local)
    Symbol sp2    = 26042   ( local)
    Symbol a.gsse = 24521   ( local)
    Symbol p1ini  = 21006   ( local)
    Symbol rrl2   = 15420   ( local)
    Symbol rdwr2b = 16402   ( local)
    Symbol intw   = 22347   ( local)
    Symbol %9sq   = 25760   ( local)
    Symbol asbp1  = 24302   ( local)
    Symbol aasc2  = 24170   ( local)
    Symbol fld    = 1   ( halfkilled local)
    Symbol cretn  = 21102   ( local)
    Symbol a.go2  = 24644   ( local)
    Symbol nrep   = 10000   ( halfkilled local)
    Symbol gminf  = 20000   ( halfkilled local)
    Symbol rdwr6  = 16353   ( local)
    Symbol scond7 = 17367   ( local)
    Symbol lib3   = 23063   ( local)
    Symbol numtab = 15542   ( local)
    Symbol logic2 = 15350   ( local)
    Symbol gmul2  = 15276   ( local)
    Symbol %wsq   = 25634   ( local)
    Symbol eblk   = 22443   ( local)
    Symbol valret = 24254   ( local)
    Symbol a.walg = 24725   ( local)
    Symbol gensm  = 15025   ( local)
    Symbol addtrn = 16345   ( local)
    Symbol airp5  = 17624   ( local)
    Symbol lssth6 = 20346   ( local)
    Symbol sloadp = 24434   ( local)
    Symbol gli    = 1   ( halfkilled local)
    Symbol airps3 = 17601   ( local)
    Symbol rr5    = 15435   ( local)
    Symbol c1asse = 17776   ( local)
    Symbol cnst3  = 20146   ( local)
    Symbol rpwrd  = 22703   ( local)
    Symbol airp10 = 17623   ( local)
    Symbol swapf  = 200000   ( halfkilled local)
    Symbol %zsq   = 25661   ( local)
    Symbol %$sq   = 25776   ( local)
    Symbol ua3    = 15701   ( local)
    Symbol a.irpc = 17166   ( local)
    Symbol gcend1 = 16501   ( local)
    Symbol getfda = 15163   ( local)
    Symbol err2   = 23611   ( local)
    Symbol conbg4 = 20254   ( local)
    Symbol symd3  = 24010   ( local)
    Symbol sixtyo = 23623   ( local)
    Symbol defna  = 17012   ( local)
    Symbol ctdef  = 400000   ( halfkilled local)
    Symbol pls1   = 15224   ( local)
    Symbol airp8  = 17556   ( local)
    Symbol dmytr2 = 16651   ( local)
    Symbol eql1e  = 21306   ( local)
    Symbol maknm4 = 15533   ( local)
    Symbol a.ldcv = 23102   ( local)
    Symbol lsret  = 40   ( halfkilled local)
    Symbol decp   = 10   ( halfkilled local)
    Symbol rchsv3 = 16207   ( local)
    Symbol macc1  = 16612   ( local)
    Symbol sblk2  = 23000   ( local)
    Symbol dmyagl = 4000   ( halfkilled local)
    Symbol xorf1  = 15337   ( local)
    Symbol pwrd3f = 22701   ( local)
    Symbol err1   = 23522   ( local)
    Symbol anull1 = 17312   ( local)
    Symbol glkpnr = 21243   ( local)
    Symbol rdwr2  = 16266   ( local)
    Symbol intfd2 = 22335   ( local)
    Symbol asend2 = 23714   ( local)
    Symbol sadr   = 14734   ( local)
    Symbol acf    = 40000   ( halfkilled local)
    Symbol a.qote = 21103   ( local)
    Symbol simblk = 23653   ( local)
    Symbol bytmc  = 15001   ( local)
    Symbol aend5d = 23125   ( local)
    Symbol airpt2 = 14773   ( local)
    Symbol es     = 21750   ( local)
    Symbol scinst = 14770   ( local)
    Symbol vsm2w  = 22041   ( local)
    Symbol %tsq   = 25607   ( local)
    Symbol pbits4 = 14721   ( local)
    Symbol getfld = 15132   ( local)
    Symbol gtvlp2 = 21643   ( local)
    Symbol gtvl7a = 21616   ( local)
    Symbol divid  = 15267   ( local)
    Symbol aascii = 24134   ( local)
    Symbol a.gst4 = 24603   ( local)
    Symbol gtvd2  = 21565   ( local)
    Symbol nocon  = 20702   ( local)
    Symbol airp6  = 17510   ( local)
    Symbol plod1  = 23200   ( local)
    Symbol gloloc = 1000   ( halfkilled local)
    Symbol rchsav = 16222   ( local)
    Symbol 3rel   = 600000   ( halfkilled local)
    Symbol gtvl2c = 21521   ( local)
    Symbol lib4   = 23034   ( local)
    Symbol getwd2 = 22245   ( local)
    Symbol popem  = 16121   ( local)
    Symbol prrept = 15041   ( local)
    Symbol usymg  = 16501   ( local)
    Symbol t2     = 14713   ( local)
    Symbol eltcb  = 12   ( halfkilled local)
    Symbol symtp1 = 23567   ( local)
    Symbol genf   = 400   ( halfkilled local)
    Symbol a.bytc = 25003   ( local)
    Symbol %7sq   = 25742   ( local)
    Symbol text8  = 24301   ( local)
    Symbol rdxs1  = 15625   ( local)
    Symbol cdisp  = 14702   ( local)
    Symbol airpc3 = 17653   ( local)
    Symbol pload1 = 23206   ( local)
    Symbol ag.sp2 = 24571   ( local)
    Symbol gtwd5  = 22215   ( local)
    Symbol isav   = 15007   ( local)
    Symbol aend3  = 23132   ( local)
    Symbol cdef   = 0   ( halfkilled local)
    Symbol outde2 = 21325   ( local)
    Symbol aasc7  = 24244   ( local)
    Symbol symmg  = 16320   ( local)
    Symbol es3    = 22005   ( local)
    Symbol getvun = 21666   ( local)
    Symbol link   = 13   ( local)
    Symbol scond  = 17320   ( local)
    Symbol es2    = 22020   ( local)
    Symbol aend2  = 23241   ( local)
    Symbol gtvl1  = 21532   ( local)
    Symbol wrdrlc = 14711   ( local)
    Symbol skilf  = 100000   ( halfkilled local)
    Symbol nvars  = 100   ( halfkilled local)
    Symbol airp7e = 17520   ( local)
    Symbol lkpnro = 21244   ( local)
    Symbol f      = 14   ( local)
    Symbol numsl1 = 15641   ( local)
    Symbol mstg13 = 16470   ( local)
    Symbol nrepc  = 14753   ( local)
    Symbol gtver1 = 21677   ( local)
    Symbol aprtx1 = 24401   ( local)
    Symbol frepts = 15061   ( local)
    Symbol a.qot2 = 15073   ( local)
    Symbol psudo  = 40000   ( halfkilled local)
    Symbol scend  = 200   ( halfkilled local)
    Symbol rrlm4  = 15501   ( local)
    Symbol eql1b1 = 21404   ( local)
    Symbol eisymt = 27203   ( local)
    Symbol symc   = 100000   ( halfkilled local)
    Symbol 3vas2  = 2000   ( halfkilled local)
    Symbol redptb = 15063   ( local)
    Symbol globt  = 14766   ( local)
    Symbol getfd2 = 15166   ( local)
    Symbol gmul5  = 15312   ( local)
    Symbol scon1  = 20610   ( local)
    Symbol symd3a = 24007   ( local)
    Symbol nocon3 = 20713   ( local)
    Symbol wrd    = 14710   ( local)
    Symbol isymf  = 14764   ( local)
    Symbol ebk2   = 22504   ( local)
    Symbol savl1  = 16053   ( local)
    Symbol airp9  = 17560   ( local)
    Symbol a      = 4   ( local)
    Symbol aoffse = 24365   ( local)
    Symbol ccomn  = 1   ( halfkilled local)
    Symbol andf1  = 15343   ( local)
    Symbol aend   = 23121   ( local)
    Symbol asbeg  = 23707   ( local)
    Symbol rr2a   = 16024   ( local)
    Symbol ofloc  = 14725   ( local)
    Symbol pwrd4  = 22542   ( local)
    Symbol a.sldr = 23221   ( local)
    Symbol sp1    = 26044   ( local)
    Symbol poplis = 16053   ( local)
    Symbol popj1  = 22030   ( local)
    Symbol ablk1  = 23314   ( local)
    Symbol lbrak2 = 20565   ( local)
    Symbol pdef   = 17036   ( local)
    Symbol conbug = 20152   ( local)
    Symbol scnd2a = 17334   ( local)
    Symbol sysym1 = 14757   ( local)
    Symbol mpdll  = 3000   ( halfkilled local)
    Symbol pbits7 = 21364   ( local)
    Symbol es6    = 22034   ( local)
    Symbol a.by2  = 24702   ( local)
    Symbol text9  = 24152   ( local)
    Symbol mac3a  = 16626   ( local)
    Symbol aloc1  = 23346   ( local)
    Symbol scond3 = 17352   ( local)
    Symbol opfld  = 200000   ( halfkilled local)
    Symbol intr   = 22355   ( local)
    Symbol octpnt = 23574   ( local)
    Symbol frtbe  = 22136   ( local)
    Symbol listsw = 0   ( halfkilled local)
    Symbol output = 22424   ( local)
    Symbol optt1  = 14730   ( local)
    Symbol aascf1 = 24276   ( local)
    Symbol %isq   = 25472   ( local)
    Symbol hash   = 22056   ( local)
    Symbol gtvld2 = 21477   ( local)
    Symbol wrqot2 = 17106   ( local)
    Symbol 3llv   = 4000   ( halfkilled local)
    Symbol eqlb2  = 21310   ( local)
    Symbol wrdf   = 400   ( halfkilled local)
    Symbol stpwr  = 16274   ( local)
    Symbol lcudf  = 140000   ( halfkilled local)
    Symbol %0sq   = 25767   ( local)
    Symbol outwd  = 22423   ( local)
    Symbol mac2   = 16622   ( local)
    Symbol tssymb = 27203   ( local)
    Symbol gtv2c1 = 21506   ( local)
    Symbol arel1  = 23413   ( local)
    Symbol rru3   = 15365   ( local)
    Symbol cabpop = 23664   ( local)
    Symbol airp7a = 17535   ( local)
    Symbol rchk   = 22721   ( local)
    Symbol minus1 = 15211   ( local)
    Symbol numsl5 = 15573   ( local)
    Symbol gsyl1a = 16724   ( local)
    Symbol mstg1  = 16336   ( local)
    Symbol avar3  = 20442   ( local)
    Symbol es2a   = 22022   ( local)
    Symbol rdrptf = 4000   ( halfkilled local)
    Symbol rr6    = 15437   ( local)
    Symbol axword = 23356   ( local)
    Symbol cpopj  = 23742   ( local)
    Symbol lsylr  = 14715   ( local)
    Symbol agtfd1 = 17260   ( local)
    Symbol %xsq   = 25643   ( local)
    Symbol gmul3  = 15277   ( local)
    Symbol adefin = 16757   ( local)
    Symbol pwrd   = 22526   ( local)
    Symbol a.ln1  = 23435   ( local)
    Symbol typr1a = 23621   ( local)
    Symbol %qsq   = 25562   ( local)
    Symbol mrch2b = 16157   ( local)
    Symbol getfd6 = 15147   ( local)
    Symbol savwld = 16042   ( local)
    Symbol colon  = 17656   ( local)
    Symbol const3 = 20742   ( local)
    Symbol scom2  = 20670   ( local)
    Symbol savwd1 = 16040   ( local)
    Symbol gtsl1  = 15411   ( local)
    Symbol ccomp  = 24605   ( local)
    Symbol eblk4  = 22512   ( local)
    Symbol a.by3  = 24724   ( local)
    Symbol lnktz  = 15077   ( local)
    Symbol dtb    = 21711   ( local)
    Symbol cptmk  = 20752   ( local)
    Symbol stgws  = 24475   ( local)
    Symbol fldcnt = 14716   ( local)
    Symbol linkl  = 14750   ( local)
    Symbol lssth1 = 20354   ( local)
    Symbol eql1cb = 21351   ( local)
    Symbol rdwrda = 16236   ( local)
    Symbol vsm2   = 22042   ( local)
    Symbol error  = 23472   ( local)
    Symbol %psq   = 25553   ( local)
    Symbol def    = 10   ( halfkilled local)
    Symbol cirpct = 15076   ( local)
    Symbol eprstt = 15055   ( local)
    Symbol defnd  = 17001   ( local)
    Symbol atit2  = 23675   ( local)
    Symbol ploglo = 21703   ( local)
    Symbol %ysq   = 25652   ( local)
    Symbol topp   = 15010   ( local)
    Symbol rrlm2  = 15402   ( local)
    Symbol mac1a  = 16600   ( local)
    Symbol tssyms = 1   ( halfkilled local)
    Symbol lsyl   = 14714   ( local)
    Symbol rdwr5  = 16255   ( local)
    Symbol vsm2lv = 22040   ( local)
    Symbol getwrd = 22147   ( local)
    Symbol a.form = 22137   ( local)
    Symbol ipsyms = 200000   ( halfkilled local)
    Symbol avar1  = 20470   ( local)
    Symbol mstg1b = 16342   ( local)
    Symbol cnstda = 20125   ( local)
    Symbol byset  = 24714   ( local)
    Symbol gtvle  = 21647   ( local)
    Symbol rchcnt = 17372   ( local)
    Symbol patch  = 25162   ( local)
  Header: mactap (014702002457)
    Symbol a      = 4   ( local)
    Symbol b      = 5   ( local)
    Symbol c      = 6   ( local)
    Symbol d      = 7   ( local)
    Symbol apret1 = 2472   ( local)
    Symbol aprsv  = 2474   ( local)
    Symbol apret  = 2507   ( local)
    Symbol aprsv1 = 2511   ( local)
    Symbol tape   = 2512   ( local)
    Symbol utp1   = 2513   ( local)
    Symbol utp3   = 2517   ( local)
    Symbol pipos  = 2523   ( local)
    Symbol utape  = 2527   ( local)
    Symbol utblk  = 2532   ( local)
    Symbol utape1 = 2534   ( local)
    Symbol utape3 = 2551   ( local)
    Symbol utape5 = 2552   ( local)
    Symbol tapins = 2554   ( local)
    Symbol tapcnt = 2555   ( local)
    Symbol tap1   = 2556   ( local)
    Symbol tap2   = 2557   ( local)
    Symbol utape2 = 2560   ( local)
    Symbol utape4 = 2561   ( local)
    Symbol pipos2 = 2564   ( local)
    Symbol tap4   = 2600   ( local)
    Symbol tap3   = 2603   ( local)
    Symbol tapfor = 2606   ( local)
    Symbol uterr2 = 2613   ( local)
    Symbol uter2a = 2617   ( local)
    Symbol popret = 2627   ( local)
    Symbol jdbrk1 = 2640   ( local)
    Symbol jdbrk  = 2642   ( local)
    Symbol gobble = 2652   ( local)
    Symbol utcntr = 2653   ( local)
    Symbol tstart = 2665   ( local)
    Symbol tstar1 = 2667   ( local)
    Symbol jdbrk2 = 2703   ( local)
    Symbol rcheck = 2707   ( local)
    Symbol red    = 2713   ( local)
    Symbol red2   = 2717   ( local)
    Symbol red4   = 2721   ( local)
    Symbol redrst = 2723   ( local)
    Symbol wr     = 2737   ( local)
    Symbol wr2    = 2746   ( local)
    Symbol wrst   = 2750   ( local)
    Symbol eof    = 2755   ( local)
    Symbol rdatas = 2757   ( local)
    Symbol rpntr  = 2760   ( local)
    Symbol rcntr  = 2761   ( local)
    Symbol rbyts  = 2762   ( local)
    Symbol rbytp  = 2763   ( local)
    Symbol wrful  = 2766   ( local)
    Symbol wdatas = 2770   ( local)
    Symbol wpntr  = 2771   ( local)
    Symbol wcntr  = 2772   ( local)
    Symbol wbyts  = 2773   ( local)
    Symbol wbytp  = 2774   ( local)
    Symbol utrld  = 2775   ( local)
    Symbol aprbk5 = 3007   ( local)
    Symbol itab   = 3012   ( local)
    Symbol itab1  = 3015   ( local)
    Symbol bytdec = 3016   ( local)
    Symbol load   = 3025   ( local)
    Symbol rload  = 3034   ( local)
    Symbol lup1   = 3050   ( local)
    Symbol out4   = 3073   ( local)
    Symbol out3   = 3113   ( local)
    Symbol loadst = 3120   ( local)
    Symbol outt   = 3127   ( local)
    Symbol out2   = 3134   ( local)
    Symbol ldred  = 3140   ( local)
    Symbol ldrd2  = 3146   ( local)
    Symbol setupr = 3150   ( local)
    Symbol look   = 3161   ( local)
    Symbol look1  = 3175   ( local)
    Symbol popj1a = 3200   ( local)
    Symbol savac0 = 3224   ( local)
    Symbol savac  = 3225   ( local)
    Symbol err2   = 3231   ( local)
    Symbol err1   = 3232   ( local)
    Symbol restor = 3233   ( local)
    Symbol popj1  = 3235   ( local)
    Symbol cpopj  = 3236   ( local)
    Symbol .bc2   = 3237   ( local)
    Symbol .bc1   = 3240   ( local)
    Symbol file1  = 3251   ( local)
    Symbol c141   = 3251   ( local)
    Symbol file1b = 3257   ( local)
    Symbol file3  = 3264   ( local)
    Symbol file4  = 3267   ( local)
    Symbol file5  = 3300   ( local)
    Symbol file7  = 3303   ( local)
    Symbol file6  = 3317   ( local)
    Symbol filer  = 3336   ( local)
    Symbol winit1 = 3352   ( local)
    Symbol tpful  = 3361   ( local)
    Symbol clstp  = 3365   ( local)
    Symbol opntp1 = 3367   ( local)
    Symbol .wsb   = 3370   ( local)
    Symbol opntp3 = 3416   ( local)
    Symbol cresto = 3443   ( local)
    Symbol err3   = 3464   ( local)
    Symbol err4   = 3465   ( local)
    Symbol dele   = 3467   ( local)
    Symbol dele2  = 3471   ( local)
    Symbol filesl = 3504   ( local)
    Symbol ured1  = 3524   ( local)
    Symbol c141a  = 3527   ( local)
    Symbol ured3  = 3550   ( local)
    Symbol urede  = 3555   ( local)
    Symbol ured2  = 3561   ( local)
    Symbol rloadf = 3602   ( local)
    Symbol coast  = 3603   ( local)
    Symbol lstp   = 3604   ( local)
    Symbol forw   = 3605   ( local)
    Symbol write  = 3606   ( local)
    Symbol utenb  = 3607   ( local)
    Symbol uruntm = 3610   ( local)
    Symbol tem1   = 3611   ( local)
    Symbol lstfil = 3612   ( local)
    Symbol sdly   = 3613   ( local)
    Symbol lossct = 3614   ( local)
    Symbol wrasm  = 3615   ( local)
    Symbol uwrp   = 3620   ( local)
    Symbol fpntr  = 3621   ( local)
    Symbol $    0 = 3624   ( local)
    Symbol acblk  = 3642   ( local)
    Symbol uac    = 3646   ( local)
    Symbol rbegb  = 3656   ( local)
    Symbol loss2  = 3670   ( local)
    Symbol loss4  = 3673   ( local)
    Symbol loss1  = 3717   ( local)
    Symbol loss3  = 3720   ( local)
    Symbol rendb  = 7676   ( local)
    Symbol wbegb  = 7676   ( local)
    Symbol dirtab = 13676   ( local)
    Symbol movtab = 13702   ( local)
    Symbol $    2 = 14702   ( local)
    Symbol acsiz  = 4   ( local)
    Symbol lipdl  = 20   ( local)
    Symbol uwait1 = 2461   ( local)
  Header: displa (002457001631)
    Symbol b      = 5   ( local)
    Symbol chcnts = 2243   ( local)
    Symbol chcnt  = 2244   ( local)
    Symbol disful = 2272   ( local)
    Symbol disad7 = 2302   ( local)
    Symbol disad5 = 2305   ( local)
    Symbol disad6 = 2306   ( local)
    Symbol popaj  = 2312   ( local)
    Symbol disad1 = 2315   ( local)
    Symbol disad2 = 2332   ( local)
    Symbol disad4 = 2337   ( local)
    Symbol disad9 = 2343   ( local)
    Symbol disad3 = 2351   ( local)
    Symbol dsd3a  = 2355   ( local)
    Symbol disad8 = 2360   ( local)
    Symbol blobs  = 2362   ( local)
    Symbol lines  = 2370   ( local)
    Symbol dsad5a = 2371   ( local)
    Symbol dsad6a = 2373   ( local)
    Symbol disblb = 2375   ( local)
    Symbol disbb1 = 2413   ( local)
    Symbol disbb2 = 2421   ( local)
    Symbol cpba   = 2450   ( local)
    Symbol dislcr = 2452   ( local)
    Symbol $    0 = 2453   ( local)
    Symbol disbuf = 1642   ( local)
    Symbol .zz    = 1631   ( halfkilled local)
    Symbol blkopr = 1641   ( local)
  Header: assemb (001631000100)
    Symbol ecmd   = 266   ( local)
    Symbol outp   = 264   ( local)
    Symbol cbuf   = 1610   ( local)
    Symbol frd1   = 1235   ( local)
    Symbol typra3 = 75000000000   ( local)
    Symbol rbrk   = 475   ( local)
    Symbol frd    = 1232   ( local)
    Symbol dsply  = 1   ( halfkilled local)
    Symbol maccr  = 777777   ( local)
    Symbol punop  = 1227   ( local)
    Symbol crind  = 712   ( local)
    Symbol ret    = 151   ( local)
    Symbol blkps  = 1630   ( local)
    Symbol aassem = 320   ( local)
    Symbol tibe   = 1047   ( local)
    Symbol aprbk3 = 543   ( local)
    Symbol tiop   = 1011   ( local)
    Symbol ticc   = 1012   ( local)
    Symbol iowat  = 424   ( local)
    Symbol ppb4   = 464   ( local)
    Symbol cd1    = 151   ( local)
    Symbol tyob6  = 452   ( local)
    Symbol tibo   = 1015   ( local)
    Symbol tobo   = 1047   ( local)
    Symbol typof  = 431   ( local)
    Symbol decdmp = 777401   ( local)
    Symbol rcc    = 1163   ( local)
    Symbol cptr   = 1437   ( local)
    Symbol rch    = 244   ( local)
    Symbol lptchn = 3   ( local)
    Symbol d      = 7   ( local)
    Symbol cd2    = 163   ( local)
    Symbol cd     = 145   ( local)
    Symbol tyob1  = 416   ( local)
    Symbol ren1   = 1404   ( local)
    Symbol inchr  = 250   ( local)
    Symbol tobe   = 1107   ( local)
    Symbol c      = 6   ( local)
    Symbol ilmem  = 556   ( local)
    Symbol rdchar = 120   ( local)
    Symbol pipun  = 1166   ( local)
    Symbol stopf  = 710   ( local)
    Symbol typ5   = 774   ( local)
    Symbol tyob   = 345   ( local)
    Symbol pitel2 = 663   ( local)
    Symbol arg    = 1440   ( local)
    Symbol .file  = 1426   ( local)
    Symbol rbrk3  = 515   ( local)
    Symbol outu   = 262   ( local)
    Symbol crr    = 1420   ( local)
    Symbol typr   = 1352   ( local)
    Symbol cd3    = 153   ( local)
    Symbol lif    = 1107   ( local)
    Symbol time   = 567   ( local)
    Symbol ppb3   = 473   ( local)
    Symbol rdchn  = 4   ( local)
    Symbol aasem1 = 341   ( local)
    Symbol spccc  = 1111   ( local)
    Symbol typr1  = 74000000000   ( local)
    Symbol lstf3  = 1343   ( local)
    Symbol rbend  = 1537   ( local)
    Symbol torm   = 1007   ( local)
    Symbol b      = 5   ( local)
    Symbol pibufc = 1140   ( local)
    Symbol dols   = 1444   ( local)
    Symbol rbrk2  = 520   ( local)
    Symbol listf1 = 1331   ( local)
    Symbol t      = 10   ( local)
    Symbol bsup   = 740000   ( local)
    Symbol tem    = 1445   ( local)
    Symbol jret   = 212   ( local)
    Symbol aa     = 3   ( local)
    Symbol .opnrd = 1255   ( local)
    Symbol pitele = 634   ( local)
    Symbol cfil3  = 1435   ( local)
    Symbol typ1   = 716   ( local)
    Symbol punip  = 1226   ( local)
    Symbol .opnr1 = 1262   ( local)
    Symbol styo   = 631   ( local)
    Symbol tyo2   = 607   ( local)
    Symbol midres = 1247   ( local)
    Symbol punbe  = 1516   ( local)
    Symbol num1   = 1443   ( local)
    Symbol tyob3  = 437   ( local)
    Symbol ppb    = 460   ( local)
    Symbol lossag = 24   ( local)
    Symbol num    = 1442   ( local)
    Symbol fshflg = 1004   ( local)
    Symbol typon  = 445   ( local)
    Symbol outchr = 262   ( local)
    Symbol echocc = 1014   ( local)
    Symbol winit  = 1410   ( local)
    Symbol typr2  = 1360   ( local)
    Symbol tobs   = 240   ( local)
    Symbol pirpa3 = 1112   ( local)
    Symbol pbrk1  = 1206   ( local)
    Symbol aprbk7 = 534   ( local)
    Symbol toop   = 1006   ( local)
    Symbol rbuf   = 1517   ( local)
    Symbol pilpt  = 1230   ( local)
    Symbol frd2   = 1231   ( local)
    Symbol punbo  = 1446   ( local)
    Symbol foo    = 100   ( local)
    Symbol gox    = 112   ( local)
    Symbol tyob5  = 455   ( local)
    Symbol fnf    = 1265   ( local)
    Symbol cfil4  = 1436   ( local)
    Symbol err    = 234   ( local)
    Symbol typ4   = 751   ( local)
    Symbol htyi   = 713   ( local)
    Symbol toip   = 1005   ( local)
    Symbol listf2 = 1276   ( local)
    Symbol tt     = 11   ( local)
    Symbol renam  = 1373   ( local)
    Symbol ttychn = 6   ( local)
    Symbol feed   = 420   ( local)
    Symbol echop  = 1013   ( local)
    Symbol pirpa  = 1117   ( local)
    Symbol comma  = 226   ( local)
    Symbol pbrk   = 1203   ( local)
    Symbol outpb  = 462   ( local)
    Symbol tpful  = 1433   ( local)
    Symbol ding   = 670   ( local)
    Symbol typ6   = 765   ( local)
    Symbol tiip   = 1010   ( local)
    Symbol oftape = 1164   ( local)
    Symbol ecmd1  = 274   ( local)
    Symbol sym    = 12   ( local)
    Symbol inchr1 = 256   ( local)
    Symbol spunch = 1200   ( local)
    Symbol tyoa   = 617   ( local)
    Symbol puncc  = 1225   ( local)
    Symbol outlpt = 265   ( local)
    Symbol arg2   = 1441   ( local)
    Symbol rdop   = 1161   ( local)
    Symbol lstf4  = 1370   ( local)
    Symbol f      = 14   ( local)
    Symbol link   = 13   ( local)
    Symbol dele   = 1424   ( local)
    Symbol tyob4  = 444   ( local)
    Symbol iaprbr = 526   ( local)
    Symbol typ3   = 741   ( local)
    Symbol pirpa4 = 1133   ( local)
    Symbol go     = 100   ( local)
    Symbol outub  = 460   ( local)
    Symbol ttyret = 554   ( local)
    Symbol dingf  = 1110   ( local)
    Symbol pchchn = 3   ( local)
    Symbol rchtt  = 240   ( local)
    Symbol rdst   = 1151   ( local)
    Symbol ppb2   = 463   ( local)
    Symbol rdip   = 1162   ( local)
    Symbol listf3 = 1311   ( local)
    Symbol cpopj  = 246   ( local)
    Symbol punstp = 1222   ( local)
    Symbol tyo1   = 776   ( local)
    Symbol rdrun  = 1165   ( local)
    Symbol pitel1 = 673   ( local)
    Symbol tstptm = 711   ( local)
    Symbol go1    = 132   ( local)
    Symbol rubout = 215   ( local)
    Symbol tmd    = 343   ( local)
    Symbol listf  = 1267   ( local)
    Symbol rdtem  = 523   ( local)
    Symbol typ31  = 746   ( local)
    Symbol clear  = 400000000000   ( global)
    Symbol cleari = 401000000000   ( global)
    Symbol clearm = 402000000000   ( global)
    Symbol clearb = 403000000000   ( global)
    Symbol consz  = 700300000000   ( global)
    Symbol conso  = 700340000000   ( global)
    Symbol datai  = 700040000000   ( global)
    Symbol datao  = 700140000000   ( global)
    Symbol blki   = 700000000000   ( global)
    Symbol blko   = 700100000000   ( global)
    Symbol coni   = 700240000000   ( global)
    Symbol cono   = 700200000000   ( global)
    Symbol pi     = 400000000   ( global)
    Symbol ptp    = 10000000000   ( global)
    Symbol ptr    = 10400000000   ( global)
    Symbol cr     = 11400000000   ( global)
    Symbol tty    = 12000000000   ( global)
    Symbol lpt    = 12400000000   ( global)
    Symbol dis    = 13000000000   ( global)
    Symbol dc     = 20000000000   ( global)
    Symbol utc    = 21000000000   ( global)
    Symbol uts    = 21400000000   ( global)
    Symbol dcsa   = 30000000000   ( global)
    Symbol dcsb   = 30400000000   ( global)
    Symbol twx    = 31000000000   ( global)
    Symbol $m     = 776631   ( global)
    Symbol $i     = 776626   ( global)
  Header: ddt    (000000000000)
    Symbol ddt    = 774000   ( global)
    Symbol $1b    = 776632   ( global)
    Symbol $2b    = 776635   ( global)
    Symbol $3b    = 776640   ( global)
    Symbol $4b    = 776643   ( global)
    Symbol $5b    = 776646   ( global)
    Symbol $6b    = 776651   ( global)
    Symbol $7b    = 776654   ( global)
    Symbol $8b    = 776657   ( global)

Disassembly:

nuwbuf:
000020:  710600000060  cono     ptr, 60         ;"Y&   P"
000021:  710740000010  conso    ptr, t          ;"Y'@  ("
000022:  254000000021  jrst     21              ;"5@   1"
000023:  710440000026  datai    ptr, 26         ;"Y$@  6"
lossag:
000024:  710740000010  conso    ptr, t          ;"Y'@  ("
000025:  254000000024  jrst     lossag          ;"5@   4"
000026:  254000000001  jrst     p               ;"5@   !"
000027:  254000000021  jrst     21              ;"5@   1"
000030:  710740000010  conso    ptr, t          ;"Y'@  ("
000031:  254000000030  jrst     30              ;"5@   8"
000032:  254014000000  jrst     (f)             ;"5@,   "
000033:  710440000016  datai    ptr, ch2        ;"Y$@  ."
000034:  316640000016  camn     ch1, ch2        ;"9V@  ."
000035:  324000000001  jumpa    ff, p           ;":@   !"
000036:  254200000000  halt     ff              ;"5B    "
bsize:
000037:  000000037577                           ;"   #]_"
tpchna:
000040:  000000000000                           ;"      "
zz:
000041:  264000023472  jsr      error           ;"6@ "<Z"
000044:  264000002512  jsr      tape            ;"6@  5*"
000045:  264000002512  jsr      tape            ;"6@  5*"
000046:  264000001203  jsr      pbrk            ;"6@  *#"
000047:  000000000000                           ;"      "
000050:  264000000475  jsr      rbrk            ;"6@  $]"
000054:  264000000526  jsr      iaprbr          ;"6@  %6"
000055:  000000000000                           ;"      "
000056:  713100001640  blko     130, blkop      ;"Y9  .@"
000057:  254200000057  halt     57              ;"5B   O"
foo:
000100:  700200633556  cono     apr, 633556     ;"X" S=N"
000101:  700600012233  cono     pi, 12233       ;"X& !2;"
000102:  200040001540  move     p, 1540         ;"0 @ -@"
000103:  721200000000  cono     210, ff         ;"Z*    " "t(\0\0\0"
000104:  720200000000  cono     mrsw, ff        ;"Z"    "
000105:  710600000020  cono     ptr, nuwbuf     ;"Y&   0"
000106:  710600000000  cono     ptr, ff         ;"Y&    "
000107:  712600001000  cono     124, nprc       ;"Y6  ( "
000110:  712200000006  cono     tty, c          ;"Y2   &"
000111:  260040002246  pushj    p, disini       ;"6 @ 2F"
gox:
000112:  476000001004  setom    fshflg          ;"GP  ($"
000113:  402000000710  setzm    stopf           ;"@0  '("
000114:  712200000016  cono     tty, ch2        ;"Y2   ."
000115:  337000001012  skipg    ticc            ;";X  (*"
000116:  254000000121  jrst     121             ;"5@  !1"
000117:  260040000570  pushj    p, tyi          ;"6 @ %X"
rdchar:
000120:  254000000115  jrst     115             ;"5@  !-"
000121:  402000001004  setzm    fshflg          ;"@0  ($"
go2:
000122:  331000001004  skipl    fshflg          ;";(  ($"
000123:  335000000710  skipge   stopf           ;";H  '("
000124:  254000000112  jrst     gox             ;"5@  !*"
000125:  260040001420  pushj    p, crr          ;"6 @ ,0"
000126:  200200001541  move     a, 1541         ;"0"  -A"
000127:  202200001437  movem    a, cptr         ;"02  ,?"
000130:  201200000141  movei    a, 141          ;"0*  !A"
000131:  136200001437  idpb     a, cptr         ;"+R  ,?"
go1:
000132:  476000001444  setom    dols            ;"GP  ,D"
000133:  260040000570  pushj    p, tyi          ;"6 @ %X"
000134:  136200001437  idpb     a, cptr         ;"+R  ,?"
000135:  306200000177  cain     a, 177          ;"8R  !_"
000136:  254000000215  jrst     rubout          ;"5@  "-"
000137:  302200000044  caie     a, 44           ;"82   D"
000140:  254000000132  jrst     go1             ;"5@  !:"
000141:  357000001444  aosg     dols            ;"=X  ,D"
000142:  254000000133  jrst     133             ;"5@  !;"
000143:  201200000141  movei    a, 141          ;"0*  !A"
000144:  136200001437  idpb     a, cptr         ;"+R  ,?"
cd:
000145:  260040001420  pushj    p, crr          ;"6 @ ,0"
000146:  200200001542  move     a, 1542         ;"0"  -B"
000147:  202200001437  movem    a, cptr         ;"02  ,?"
000150:  402000001442  setzm    num             ;"@0  ,B"
ret:
000151:  476000001440  setom    arg             ;"GP  ,@"
000152:  402000001441  setzm    arg2            ;"@0  ,A"
cd3:
000153:  260040000244  pushj    p, rch          ;"6 @ "D"
000154:  301200000060  cail     a, 60           ;"8*   P"
000155:  301200000072  cail     a, 72           ;"8*   Z"
000156:  254000000163  jrst     cd2             ;"5@  !S"
000157:  275200000060  subi     a, 60           ;"7J   P"
000160:  202200001442  movem    a, num          ;"02  ,B"
000161:  402000001440  setzm    arg             ;"@0  ,@"
000162:  254000000153  jrst     cd3             ;"5@  !K"
cd2:
000163:  200240001442  move     b, num          ;"0"@ ,B"
000164:  200300001443  move     c, num1         ;"0#  ,C"
000165:  306200000105  cain     a, 105          ;"8R  !%"
000166:  254000000266  jrst     ecmd            ;"5@  "V"
000167:  306200000054  cain     a, 54           ;"8R   L"
000170:  254000000226  jrst     comma           ;"5@  "6"
000171:  306200000044  cain     a, 44           ;"8R   D"
000172:  254000000122  jrst     go2             ;"5@  !2"
000173:  306200000101  cain     a, 101          ;"8R  !!"
000174:  254000000320  jrst     aassem          ;"5@  #0"
000175:  201340000000  movei    d, ff           ;"0+@   " " .\0\0\0"
000176:  306200000111  cain     a, 111          ;"8R  !)"
000177:  201340020763  movei    d, init         ;"0+@"'S"
mrsw:
000200:  306200000117  cain     a, 117          ;"8R  !/"
000201:  201340023652  movei    d, ps1          ;"0+@">J"
000202:  306200000124  cain     a, 124          ;"8R  !4"
000203:  201340023141  movei    d, ps2          ;"0+@"9A"
000204:  306200000123  cain     a, 123          ;"8R  !3"
000205:  201340023175  movei    d, plod         ;"0+@"9]"
000206:  306200000114  cain     a, 114          ;"8R  !,"
000207:  201340021135  movei    d, psyms        ;"0+@")="
000210:  326340000341  jumpn    d, aasem1       ;":S@ #A"
000211:  302200000104  caie     a, 104          ;"82  !$"
jret:
000212:  254000000151  jrst     ret             ;"5@  !I"
000213:  260040000424  pushj    p, iowat        ;"6 @ $4"
000214:  254000777701  jrst     777701          ;"5@ __!"
rubout:
000215:  133000001437  ibp      cptr            ;"+8  ,?"
000216:  133000001437  ibp      cptr            ;"+8  ,?"
000217:  133000001437  ibp      cptr            ;"+8  ,?"
000220:  370240001437  sos      b, cptr         ;"?"@ ,?"
000221:  134200000005  ildb     a, b            ;"+B   %"
000222:  306200000141  cain     a, 141          ;"8R  !A"
000223:  254000000122  jrst     go2             ;"5@  !2"
000224:  260040000610  pushj    p, tyo          ;"6 @ &("
000225:  254000000132  jrst     go1             ;"5@  !:"
comma:
000226:  352000001440  aose     arg             ;"=0  ,@"
000227:  476000001441  setom    arg2            ;"GP  ,A"
000230:  200200001442  move     a, num          ;"0"  ,B"
000231:  202200001443  movem    a, num1         ;"02  ,C"
000232:  402000001442  setzm    num             ;"@0  ,B"
000233:  254000000153  jrst     cd3             ;"5@  !K"
err:
000234:  000000000000                           ;"      "
000235:  201200000077  movei    a, 77           ;"0*   _"
000236:  260040000610  pushj    p, tyo          ;"6 @ &("
000237:  254000000122  jrst     go2             ;"5@  !2"
tobs:
000240:  134440001437  ildb     tt, cptr        ;"+D@ ,?"
000241:  302440000141  caie     tt, 141         ;"84@ !A"
000242:  263040000000  popj     p,              ;"68@   " ",b\0\0\0"
000243:  254000000122  jrst     go2             ;"5@  !2"
rch:
000244:  134200001437  ildb     a, cptr         ;"+B  ,?"
000245:  302200000141  caie     a, 141          ;"82  !A"
cpopj:
000246:  263040000000  popj     p,              ;"68@   " ",b\0\0\0"
000247:  254000000122  jrst     go2             ;"5@  !2"
rpa:
000250:  254000000256  jrst     inchr1          ;"5@  "N"
000251:  302200000141  caie     a, 141          ;"82  !A"
000252:  263040000000  popj     p,              ;"68@   " ",b\0\0\0"
inchr3:
000253:  260040003531  pushj    p, uredt        ;"6 @ =9"
000254:  000000564544                           ;"   NED"
000255:  263040000000  popj     p,              ;"68@   " ",b\0\0\0"
inchr1:
000256:  260040001117  pushj    p, pirpa        ;"6 @ )/"
000257:  626200000200  trzn     a, mrsw         ;"RR  " "
000260:  263040000000  popj     p,              ;"68@   " ",b\0\0\0"
000261:  254000000570  jrst     tyi             ;"5@  %X"
outu:
000262:  334000000000  skipa                    ;";@    " "7\0\0\0\0"
000263:  254000001433  jrst     tpful           ;"5@  ,;"
outp:
000264:  260040001166  pushj    p, pipun        ;"6 @ )V"
outlpt:
000265:  254000000246  jrst     cpopj           ;"5@  "F"
ecmd:
000266:  261040000212  push     p, jret         ;"6(@ "*"
000267:  335000001440  skipge   arg             ;";H  ,@"
000270:  254000000274  jrst     ecmd1           ;"5@  "\"
000271:  200200000005  move     a, b            ;"0"   %"
000272:  260040003444  pushj    p, filest       ;"6 @ <D"
000273:  254000000343  jrst     tmd             ;"5@  #C"
ecmd1:
000274:  260040000240  pushj    p, tobs         ;"6 @ "@"
000275:  306440000114  cain     tt, 114         ;"8T@ !,"
000276:  254000001267  jrst     listf           ;"5@  *W"
000277:  306440000122  cain     tt, go2         ;"8T@ !2"
000300:  254000001255  jrst     .opnrd          ;"5@  *M"
000301:  306440000103  cain     tt, 103         ;"8T@ !#"
000302:  254000003363  jrst     uclstp          ;"5@  ;S"
000303:  306440000106  cain     tt, 106         ;"8T@ !&"
000304:  254000001426  jrst     .file           ;"5@  ,6"
000305:  306440000104  cain     tt, 104         ;"8T@ !$"
000306:  254000001424  jrst     dele            ;"5@  ,4"
000307:  306440000116  cain     tt, 116         ;"8T@ !."
000310:  254000001373  jrst     renam           ;"5@  +["
000311:  306440000111  cain     tt, 111         ;"8T@ !)"
000312:  254000001410  jrst     winit           ;"5@  ,("
000313:  306440000113  cain     tt, 113         ;"8T@ !+"
000314:  254000003433  jrst     tapkil          ;"5@  <;"
000315:  306440000124  cain     tt, 124         ;"8T@ !4"
000316:  263040000000  popj     p,              ;"68@   " ",b\0\0\0"
000317:  264000000234  jsr      err             ;"6@  "<"
aassem:
000320:  265200020763  jsp      a, init         ;"6J "'S"
000321:  265200023652  jsp      a, ps1          ;"6J ">J"
000322:  550200000250  hrrz     a, rpa          ;"M"  "H"
000323:  606000040000  trnn     ff, vot         ;"PP $  "
000324:  254000000327  jrst     327             ;"5@  #7"
000325:  306200003617  cain     a, uredp        ;"8R  >/"
000326:  260040001247  pushj    p, midres       ;"6 @ *G"
000327:  260040001140  pushj    p, pibufc       ;"6 @ )@"
000330:  265200023175  jsp      a, plod         ;"6J "9]"
000331:  265200023141  jsp      a, ps2          ;"6J "9A"
000332:  265200021135  jsp      a, psyms        ;"6J ")="
000333:  201240000454  movei    b, 454          ;"0*@ $L"
000334:  260040000420  pushj    p, tfeed        ;"6 @ $0"
000335:  550200016151  hrrz     a, typctl       ;"M" !QI"
000336:  306200002277  cain     a, disad        ;"8R  2_"
000337:  260040002427  pushj    p, disclg       ;"6 @ 47"
000340:  254000000151  jrst     ret             ;"5@  !I"
aasem1:
000341:  265207000000  jsp      a, (d)          ;"6J'   " "-(8\0\0"
000342:  254000000151  jrst     ret             ;"5@  !I"
tmd:
000343:  074000001543                           ;"'@  -C"
000344:  254000000122  jrst     go2             ;"5@  !2"
tyob:
000345:  261040000005  push     p, b            ;"6(@  %"
000346:  306200000021  cain     a, 21           ;"8R   1"
000347:  254000000437  jrst     tyob3           ;"5@  $?"
000350:  306200000023  cain     a, 23           ;"8R   3"
000351:  254000000455  jrst     tyob5           ;"5@  $M"
000352:  201240001166  movei    b, pipun        ;"0*@ )V"
000353:  306200000022  cain     a, 22           ;"8R   2"
000354:  542240000264  hrrm     b, outp         ;"L2@ "T"
000355:  201240000246  movei    b, cpopj        ;"0*@ "F"
000356:  306200000024  cain     a, lossag       ;"8R   4"
000357:  542240000264  hrrm     b, outp         ;"L2@ "T"
000360:  306200000002  cain     a, i            ;"8R   ""
000361:  542240000265  hrrm     b, outlpt       ;"L2@ "U"
000362:  200240001550  move     b, 1550         ;"0"@ -H"
000363:  306200000022  cain     a, 22           ;"8R   2"
000364:  202240000462  movem    b, outpb        ;"02@ $R"
000365:  205240263040  movsi    b, 263040       ;"0J@68@"
000366:  306200000024  cain     a, lossag       ;"8R   4"
000367:  202240000462  movem    b, outpb        ;"02@ $R"
000370:  205240334000  movsi    b, 334000       ;"0J@;@ "
000371:  306200000026  cain     a, 26           ;"8R   6"
000372:  202240000262  movem    b, outu         ;"02@ "R"
000373:  306200000026  cain     a, 26           ;"8R   6"
000374:  202240000460  movem    b, tppb         ;"02@ $P"
000375:  201240001230  movei    b, pilpt        ;"0*@ *8"
000376:  306200000005  cain     a, b            ;"8R   %"
000377:  542240000265  hrrm     b, outlpt       ;"L2@ "U"
disize:
000400:  200240001551  move     b, 1551         ;"0"@ -I"
000401:  306200000027  cain     a, 27           ;"8R   7"
000402:  202240000262  movem    b, outu         ;"02@ "R"
000403:  200240001552  move     b, 1552         ;"0"@ -J"
000404:  306200000027  cain     a, 27           ;"8R   7"
000405:  202240000460  movem    b, tppb         ;"02@ $P"
000406:  306200000007  cain     a, d            ;"8R   '"
000407:  254400000122  jrst     t, go2          ;"5D  !2"
000410:  306200000001  cain     a, p            ;"8R   !"
000411:  254000000445  jrst     typon           ;"5@  $E"
000412:  306200000003  cain     a, aa           ;"8R   #"
000413:  254000000431  jrst     typof           ;"5@  $9"
000414:  306200000004  cain     a, a            ;"8R   $"
000415:  254000000444  jrst     tyob4           ;"5@  $D"
tyob1:
000416:  262040000005  pop      p, b            ;"60@  %"
000417:  263040000000  popj     p,              ;"68@   " ",b\0\0\0"
tfeed:
000420:  201200000000  movei    a, ff           ;"0*    " " (\0\0\0"
000421:  260060000264  pushj    p, @outp        ;"6 P "T"
000422:  367240000420  sojg     b, tfeed        ;">Z@ $0"
000423:  263040000000  popj     p,              ;"68@   " ",b\0\0\0"
iowat:
000424:  260040002457  pushj    p, uwait        ;"6 @ 4O"
000425:  710340000007  conso    ptp, d          ;"Y#@  '"
000426:  712300000030  consz    tty, 30         ;"Y3   8"
000427:  254000000425  jrst     425             ;"5@  $5"
000430:  263040000000  popj     p,              ;"68@   " ",b\0\0\0"
typof:
000431:  205240263040  movsi    b, 263040       ;"0J@68@"
000432:  202240016151  movem    b, typctl       ;"02@!QI"
000433:  621000040000  tlz      ff, vot         ;"R( $  "
000434:  200240001553  move     b, 1553         ;"0"@ -K"
000435:  202240015471  movem    b, rrr1         ;"02@!LY"
000436:  254000000416  jrst     tyob1           ;"5@  $."
tyob3:
000437:  200240001554  move     b, 1554         ;"0"@ -L"
000440:  202240000250  movem    b, rpa          ;"02@ "H"
000441:  607000040000  tlnn     ff, vot         ;"PX $  "
000442:  202240015461  movem    b, rrl1         ;"02@!LQ"
000443:  254000000416  jrst     tyob1           ;"5@  $."
tyob4:
000444:  334240001555  skipa    b, 1555         ;";B@ -M"
typon:
000445:  200240001556  move     b, 1556         ;"0"@ -N"
000446:  202240016151  movem    b, typctl       ;"02@!QI"
000447:  205240255000  movsi    b, 255000       ;"0J@5H "
000450:  202240015471  movem    b, rrr1         ;"02@!LY"
000451:  661000040000  tlo      ff, vot         ;"V( $  "
tyob6:
000452:  200240001557  move     b, 1557         ;"0"@ -O"
000453:  202240015461  movem    b, rrl1         ;"02@!LQ"
000454:  254000000416  jrst     tyob1           ;"5@  $."
tyob5:
000455:  200240001560  move     b, 1560         ;"0"@ -P"
000456:  202240000250  movem    b, rpa          ;"02@ "H"
000457:  254000000452  jrst     tyob6           ;"5@  $J"
tppb:
000460:  334000000000  skipa                    ;";@    " "7\0\0\0\0"
000461:  254000001433  jrst     tpful           ;"5@  ,;"
outpb:
000462:  261040000005  push     p, b            ;"6(@  %"
ppb2:
000463:  201240000006  movei    b, c            ;"0*@  &"
ppb4:
000464:  241200000006  rot      a, c            ;"4*   &"
000465:  261040000004  push     p, a            ;"6(@  $"
000466:  405200000077  andi     a, 77           ;"@J   _"
000467:  660200000200  tro      a, mrsw         ;"V"  " "
000470:  260040001166  pushj    p, pipun        ;"6 @ )V"
000471:  262040000004  pop      p, a            ;"60@  $"
000472:  367240000464  sojg     b, ppb4         ;">Z@ $T"
ppb3:
000473:  262040000005  pop      p, b            ;"60@  %"
000474:  263040000000  popj     p,              ;"68@   " ",b\0\0\0"
rbrk:
000475:  000000000000                           ;"      "
000476:  264000000523  jsr      rdtem           ;"6@  %3"
000477:  250240000523  exch     b, rdtem        ;"5"@ %3"
000500:  261040000004  push     p, a            ;"6(@  $"
000501:  211200000010  movni    a, t            ;"1*   ("
000502:  202200001165  movem    a, rdrun        ;"02  )U"
000503:  136240001162  idpb     b, rdip         ;"+R@ )R"
000504:  550200001162  hrrz     a, rdip         ;"M"  )R"
000505:  306200001536  cain     a, 1536         ;"8R  ->"
000506:  201200001517  movei    a, rbuf         ;"0*  -/"
000507:  542200001162  hrrm     a, rdip         ;"L2  )R"
000510:  350200001163  aos      a, rcc          ;"="  )S"
000511:  303200000024  caile    a, lossag       ;"8:   4"
000512:  302240000214  caie     b, 214          ;"82@ ","
000513:  301200000070  cail     a, 70           ;"8*   X"
000514:  254000000520  jrst     rbrk2           ;"5@  %0"
rbrk3:
000515:  262040000004  pop      p, a            ;"60@  $"
000516:  200240000523  move     b, rdtem        ;"0"@ %3"
000517:  254520000475  jen      @rbrk           ;"5E0 $]"
rbrk2:
000520:  201200264000  movei    a, 264000       ;"0* 6@ "
000521:  506200000476  hrlm     a, 476          ;"HR  $^"
000522:  254000000515  jrst     rbrk3           ;"5@  %-"
rdtem:
000523:  000000000000                           ;"      "
000524:  710600000004  cono     ptr, a          ;"Y&   $"
000525:  254520000475  jen      @rbrk           ;"5E0 $]"
iaprbr:
000526:  000000000000                           ;"      "
000527:  261040000004  push     p, a            ;"6(@  $"
000530:  700340001200  conso    apr, spunch     ;"X#@ * "
000531:  254000000634  jrst     pitele          ;"5@  &<"
000532:  700200001446  cono     apr, punbo      ;"X"  ,F"
000533:  264000002467  jsr      aprbrk          ;"6@  4W"
aprbk7:
000534:  335000000476  skipge   476             ;";H  $^"
000535:  357000001165  aosg     rdrun           ;"=X  )U"
000536:  254000000543  jrst     aprbk3          ;"5@  %C"
000537:  201200264000  movei    a, 264000       ;"0* 6@ "
000540:  506200000476  hrlm     a, 476          ;"HR  $^"
000541:  476000001164  setom    oftape          ;"GP  )T"
000542:  710600000000  cono     ptr, ff         ;"Y&    "
aprbk3:
000543:  350000000567  aos      time            ;"=   %W"
000544:  713340000077  conso    130, 77         ;"Y;@  _"
000545:  254000000554  jrst     ttyret          ;"5@  %L"
000546:  200200001640  move     a, blkop        ;"0"  .@"
000547:  250200001630  exch     a, blkps        ;"5"  .8"
000550:  312200001630  came     a, blkps        ;"92  .8"
000551:  254000000554  jrst     ttyret          ;"5@  %L"
000552:  713200000130  cono     130, 130        ;"Y:  !8"
000553:  713140001561  datao    130, 1561       ;"Y9@ -Q"
ttyret:
000554:  262040000004  pop      p, a            ;"60@  $"
000555:  254520000526  jen      @iaprbr         ;"5E0 %6"
ilmem:
000556:  201240604345  movei    b, 604345       ;"0*@PCE"
000557:  700340200000  conso    apr, dfld       ;"X#@0  "
000560:  201240515455  movei    b, 515455       ;"0*@ILM"
000561:  700200433556  cono     apr, 433556     ;"X" C=N"
000562:  201040066107  movei    p, pdl          ;"0(@&Q'"
000563:  202240000040  movem    b, tpchna       ;"02@  @"
000564:  200240000526  move     b, iaprbr       ;"0"@ %6"
000565:  254400000566  jrst     t, 566          ;"5D  %V"
000566:  266260000041  jsa      b, @zz          ;"6RP  A"
time:
000567:  000000000000                           ;"      "
tyi:
000570:  134200777777  ildb     a, maccr        ;"+B ___"
000571:  326200000713  jumpn    a, htyi         ;":R  '+"
000572:  402000777777  setzm    maccr           ;"@0 ___"
000573:  260040001200  pushj    p, spunch       ;"6 @ * "
000574:  335000000710  skipge   stopf           ;";H  '("
000575:  254000000112  jrst     gox             ;"5@  !*"
000576:  337000001012  skipg    ticc            ;";X  (*"
000577:  254000000574  jrst     574             ;"5@  %\"
000600:  200200001011  move     a, tiop         ;"0"  ()"
000601:  316200001562  camn     a, 1562         ;"9R  -R"
000602:  201200001014  movei    a, echocc       ;"0*  (,"
000603:  542200001011  hrrm     a, tiop         ;"L2  ()"
000604:  134200001011  ildb     a, tiop         ;"+B  ()"
000605:  370000001012  sos      ticc            ;"?   (*"
000606:  263040000000  popj     p,              ;"68@   " ",b\0\0\0"
tab:
000607:  201200000011  movei    a, tt           ;"0*   )"
tyo:
000610:  356000000712  aosn     crind           ;"=P  '*"
000611:  306200000012  cain     a, sym          ;"8R   *"
000612:  254000000617  jrst     tyoa            ;"5@  &/"
000613:  261040000004  push     p, a            ;"6(@  $"
000614:  201200000012  movei    a, sym          ;"0*   *"
000615:  260040000610  pushj    p, tyo          ;"6 @ &("
000616:  262040000004  pop      p, a            ;"60@  $"
tyoa:
000617:  337000001007  skipg    torm            ;";X  ('"
000620:  254000000617  jrst     tyoa            ;"5@  &/"
000621:  136200001005  idpb     a, toip         ;"+R  (%"
000622:  370000001007  sos      torm            ;"?   ('"
000623:  250200001005  exch     a, toip         ;"5"  (%"
000624:  316200001563  camn     a, 1563         ;"9R  -S"
000625:  541200001046  hrri     a, 1046         ;"L*  (F"
000626:  250200001005  exch     a, toip         ;"5"  (%"
000627:  306200000015  cain     a, ch1          ;"8R   -"
000630:  476000000712  setom    crind           ;"GP  '*"
styo:
000631:  712340000030  conso    tty, 30         ;"Y3@  8"
000632:  712200000016  cono     tty, ch2        ;"Y2   ."
000633:  263040000000  popj     p,              ;"68@   " ",b\0\0\0"
pitele:
000634:  712300000010  consz    tty, t          ;"Y3   ("
000635:  254000000716  jrst     typ1            ;"5@  '."
000636:  712340000040  conso    tty, tpchna     ;"Y3@  @"
000637:  254000000556  jrst     ilmem           ;"5@  %N"
000640:  712040000004  datai    tty, a          ;"Y0@  $"
000641:  620200000200  trz      a, mrsw         ;"R"  " "
000642:  302200000033  caie     a, 33           ;"82   ;"
000643:  306200000176  cain     a, 176          ;"8R  !^"
000644:  201200000175  movei    a, 175          ;"0*  !]"
000645:  306200000175  cain     a, 175          ;"8R  !]"
000646:  201200000044  movei    a, 44           ;"0*   D"
000647:  260040000345  pushj    p, tyob         ;"6 @ #E"
000650:  261040000005  push     p, b            ;"6(@  %"
000651:  200240001014  move     b, echocc       ;"0"@ (,"
000652:  270240001012  add      b, ticc         ;"7"@ (*"
000653:  301240000200  cail     b, mrsw         ;"8*@ " "
000654:  661200400000  tlo      a, ppss         ;"V* @  "
000655:  262040000005  pop      p, b            ;"60@  %"
000656:  321200000670  jumpl    a, ding         ;":*  &X"
000657:  136200001010  idpb     a, tiip         ;"+R  (("
000660:  465200000177  orcmi    a, 177          ;"FJ  !_"
000661:  342200000673  aoje     a, pitel1       ;"<2  &["
000662:  402000000710  setzm    stopf           ;"@0  '("
pitel2:
000663:  200200001010  move     a, tiip         ;"0"  (("
000664:  316200001562  camn     a, 1562         ;"9R  -R"
000665:  201200001014  movei    a, echocc       ;"0*  (,"
000666:  542200001010  hrrm     a, tiip         ;"L2  (("
000667:  354000001014  aosa     echocc          ;"=@  (,"
ding:
000670:  476000001110  setom    dingf           ;"GP  )("
000671:  260040000631  pushj    p, styo         ;"6 @ &9"
000672:  254000000554  jrst     ttyret          ;"5@  %L"
pitel1:
000673:  200200000567  move     a, time         ;"0"  %W"
000674:  336000000710  skipn    stopf           ;";P  '("
000675:  202200000711  movem    a, tstptm       ;"02  ')"
000676:  350200000710  aos      a, stopf        ;"="  '("
000677:  302200000003  caie     a, aa           ;"82   #"
000700:  254000000663  jrst     pitel2          ;"5@  &S"
000701:  200200000567  move     a, time         ;"0"  %W"
000702:  274200000711  sub      a, tstptm       ;"7B  ')"
000703:  301200000031  cail     a, 31           ;"8*   9"
000704:  254000000662  jrst     662             ;"5@  &R"
000705:  563000000710  hrros    ff, stopf       ;"N8  '("
000706:  476000001004  setom    fshflg          ;"GP  ($"
000707:  254000000663  jrst     pitel2          ;"5@  &S"
htyi:
000713:  306200000175  cain     a, 175          ;"8R  !]"
000714:  201200000044  movei    a, 44           ;"0*   D"
000715:  254000000345  jrst     tyob            ;"5@  #E"
typ1:
000716:  201200000012  movei    a, sym          ;"0*   *"
000717:  356000001107  aosn     tobe            ;"=P  )'"
000720:  254000000741  jrst     typ3            ;"5@  'A"
000721:  201200000007  movei    a, d            ;"0*   '"
000722:  356000001110  aosn     dingf           ;"=P  )("
000723:  254000000741  jrst     typ3            ;"5@  'A"
000724:  201200000040  movei    a, tpchna       ;"0*   @"
000725:  357000001111  aosg     spccc           ;"=X  ))"
000726:  254000000741  jrst     typ3            ;"5@  'A"
000727:  200200001007  move     a, torm         ;"0"  ('"
000730:  301200000240  cail     a, tobs         ;"8*  "@"
000731:  254000000751  jrst     typ4            ;"5@  'I"
000732:  200200001006  move     a, toop         ;"0"  (&"
000733:  316200001563  camn     a, 1563         ;"9R  -S"
000734:  201200001046  movei    a, 1046         ;"0*  (F"
000735:  542200001006  hrrm     a, toop         ;"L2  (&"
000736:  134200001006  ildb     a, toop         ;"+B  (&"
000737:  350000001007  aos      torm            ;"=   ('"
000740:  260040000345  pushj    p, tyob         ;"6 @ #E"
typ3:
000741:  302200000011  caie     a, tt           ;"82   )"
000742:  254000000746  jrst     typ31           ;"5@  'F"
000743:  211200000003  movni    a, aa           ;"1*   #"
000744:  202200001111  movem    a, spccc        ;"02  ))"
000745:  254000000554  jrst     ttyret          ;"5@  %L"
typ31:
000746:  331000001004  skipl    fshflg          ;";(  ($"
000747:  712140000004  datao    tty, a          ;"Y1@  $"
000750:  254000000554  jrst     ttyret          ;"5@  %L"
typ4:
000751:  337000001014  skipg    echocc          ;";X  (,"
000752:  254000000774  jrst     typ5            ;"5@  '\"
000753:  200200001013  move     a, echop        ;"0"  (+"
000754:  316200001562  camn     a, 1562         ;"9R  -R"
000755:  201200001014  movei    a, echocc       ;"0*  (,"
000756:  542200001013  hrrm     a, echop        ;"L2  (+"
000757:  201200000012  movei    a, sym          ;"0*   *"
000760:  542200000716  hrrm     a, typ1         ;"L2  '."
000761:  134200001013  ildb     a, echop        ;"+B  (+"
000762:  370000001014  sos      echocc          ;"?   (,"
000763:  350000001012  aos      ticc            ;"=   (*"
000764:  306200000015  cain     a, ch1          ;"8R   -"
typ6:
000765:  476000001107  setom    tobe            ;"GP  )'"
000766:  306200000010  cain     a, t            ;"8R   ("
000767:  254000000776  jrst     tyo1            ;"5@  '^"
000770:  303200000006  caile    a, c            ;"8:   &"
000771:  301200000016  cail     a, ch2          ;"8*   ."
000772:  254000000776  jrst     tyo1            ;"5@  '^"
000773:  254000000741  jrst     typ3            ;"5@  'A"
typ5:
000774:  712200000206  cono     tty, 206        ;"Y2  "&"
000775:  254000000554  jrst     ttyret          ;"5@  %L"
tyo1:
000776:  301200000040  cail     a, tpchna       ;"8*   @"
000777:  254000000741  jrst     typ3            ;"5@  'A"
nprc:
001000:  271200000100  addi     a, foo          ;"7*  ! "
001001:  542200000716  hrrm     a, typ1         ;"L2  '."
001002:  201200000136  movei    a, 136          ;"0*  !>"
001003:  254000000765  jrst     typ6            ;"5@  'U"
fshflg:
001004:  000000000000                           ;"      "
toip:
001005:  010700001046                           ;"!'  (F"
toop:
001006:  010700001046                           ;"!'  (F"
torm:
001007:  000000000240  tobs                     ;"    "@"
tiip:
001010:  010700001014                           ;"!'  (,"
tiop:
001011:  010700001014                           ;"!'  (,"
ticc:
001012:  000000000000                           ;"      "
echop:
001013:  010700001014                           ;"!'  (,"
pirpa3:
001112:  357000001164  aosg     oftape          ;"=X  )T"
001113:  254000001140  jrst     pibufc          ;"5@  )@"
001114:  201200000020  movei    a, nuwbuf       ;"0*   0"
001115:  331000000476  skipl    476             ;";(  $^"
001116:  260040001152  pushj    p, 1152         ;"6 @ )J"
pirpa:
001117:  337000001163  skipg    rcc             ;";X  )S"
001120:  254000001112  jrst     pirpa3          ;"5@  )*"
001121:  550200001161  hrrz     a, rdop         ;"M"  )Q"
001122:  306200001536  cain     a, 1536         ;"8R  ->"
001123:  201200001517  movei    a, rbuf         ;"0*  -/"
001124:  542200001161  hrrm     a, rdop         ;"L2  )Q"
001125:  370200001163  sos      a, rcc          ;"?"  )S"
001126:  331000001164  skipl    oftape          ;";(  )T"
001127:  301200000074  cail     a, 74           ;"8*   \"
001130:  254000001133  jrst     pirpa4          ;"5@  );"
001131:  331000000476  skipl    476             ;";(  $^"
001132:  260040001151  pushj    p, rdst         ;"6 @ )I"
pirpa4:
001133:  134200001161  ildb     a, rdop         ;"+B  )Q"
001134:  306200000177  cain     a, 177          ;"8R  !_"
001135:  254000001117  jrst     pirpa           ;"5@  )/"
001136:  322200001117  jumpe    a, pirpa        ;":2  )/"
001137:  263040000000  popj     p,              ;"68@   " ",b\0\0\0"
pibufc:
001140:  710600000000  cono     ptr, ff         ;"Y&    "
001141:  211200000010  movni    a, t            ;"1*   ("
001142:  202200001163  movem    a, rcc          ;"02  )S"
001143:  200200001162  move     a, rdip         ;"0"  )R"
001144:  202200001161  movem    a, rdop         ;"02  )Q"
001145:  201200264000  movei    a, 264000       ;"0* 6@ "
001146:  506200000476  hrlm     a, 476          ;"HR  $^"
001147:  201200000214  movei    a, 214          ;"0*  ","
001150:  263040000000  popj     p,              ;"68@   " ",b\0\0\0"
rdst:
001151:  201200000010  movei    a, t            ;"0*   ("
001152:  212200001165  movnm    a, rdrun        ;"12  )U"
001153:  710700000020  consz    ptr, nuwbuf     ;"Y'   0"
001154:  254000001153  jrst     1153            ;"5@  )K"
001155:  505200710440  hrli     a, 710440       ;"HJ Y$@"
001156:  502200000476  hllm     a, 476          ;"H2  $^"
001157:  710604000004  cono     ptr, tapac(a)   ;"Y&$  $"
001160:  263040000000  popj     p,              ;"68@   " ",b\0\0\0"
rdop:
001161:  000700001517                           ;" '  -/"
rdip:
001162:  000700001517                           ;" '  -/"
pipun:
001166:  337000001225  skipg    puncc           ;";X  *5"
001167:  254000001166  jrst     pipun           ;"5@  )V"
001170:  136200001226  idpb     a, punip        ;"+R  *6"
001171:  550200001226  hrrz     a, punip        ;"M"  *6"
001172:  306200001515  cain     a, 1515         ;"8R  --"
001173:  201200001446  movei    a, punbo        ;"0*  ,F"
001174:  542200001226  hrrm     a, punip        ;"L2  *6"
001175:  370200001225  sos      a, puncc        ;"?"  *5"
001176:  301200000154  cail     a, 154          ;"8*  !L"
001177:  263040000000  popj     p,              ;"68@   " ",b\0\0\0"
spunch:
001200:  710340000007  conso    ptp, d          ;"Y#@  '"
001201:  710200000013  cono     ptp, link       ;"Y"   +"
001202:  263040000000  popj     p,              ;"68@   " ",b\0\0\0"
pbrk:
001203:  000000000000                           ;"      "
001204:  264000002631  jsr      utcbrk          ;"6@  69"
001205:  261040000004  push     p, a            ;"6(@  $"
pbrk1:
001206:  710340000010  conso    ptp, t          ;"Y#@  ("
001207:  254000001631  jrst     .recyc          ;"5@  .9"
001210:  201200000234  movei    a, err          ;"0*  "<"
001211:  317200001225  camg     a, puncc        ;"9Z  *5"
001212:  254000001222  jrst     punstp          ;"5@  *2"
001213:  134200001227  ildb     a, punop        ;"+B  *7"
001214:  710140000004  datao    ptp, a          ;"Y!@  $"
001215:  550200001227  hrrz     a, punop        ;"M"  *7"
001216:  306200001515  cain     a, 1515         ;"8R  --"
001217:  201200001446  movei    a, punbo        ;"0*  ,F"
001220:  542200001227  hrrm     a, punop        ;"L2  *7"
001221:  354000001225  aosa     puncc           ;"=@  *5"
punstp:
001222:  710200000000  cono     ptp, ff         ;"Y"    "
popret:
001223:  262040000004  pop      p, a            ;"60@  $"
001224:  254520001203  jen      @pbrk           ;"5E0 *#"
puncc:
001225:  000000000234  err                      ;"    "<"
punip:
001226:  001000001445                           ;" (  ,E"
punop:
001227:  001000001445                           ;" (  ,E"
pilpt:
001230:  263040000000  popj     p,              ;"68@   " ",b\0\0\0"
frd2:
001231:  334200000005  skipa    a, b            ;";B   %"
frd:
001232:  205200400000  movsi    a, ppss         ;"0J @  "
001233:  205240400000  movsi    b, ppss         ;"0J@@  "
001234:  200400001564  move     t, 1564         ;"0$  -T"
frd1:
001235:  260040000240  pushj    p, tobs         ;"6 @ "@"
001236:  306440000044  cain     tt, 44          ;"8T@  D"
001237:  263040000000  popj     p,              ;"68@   " ",b\0\0\0"
001240:  640440000040  trc      tt, tpchna      ;"T$@  @"
001241:  322440001231  jumpe    tt, frd2        ;":4@ *9"
001242:  306440000077  cain     tt, 77          ;"8T@  _"
001243:  201440000000  movei    tt, ff          ;"0,@   " " 2\0\0\0"
001244:  312400001565  came     t, 1565         ;"94  -U"
001245:  136440000010  idpb     tt, t           ;"+T@  ("
001246:  254000001235  jrst     frd1            ;"5@  *="
midres:
001247:  135200001566  ldb      a, 1566         ;"+J  -V"
001250:  260040003444  pushj    p, filest       ;"6 @ <D"
001251:  264000000234  jsr      err             ;"6@  "<"
001252:  200200001435  move     a, cfil3        ;"0"  ,="
001253:  200240001436  move     b, cfil4        ;"0"@ ,>"
001254:  254000001262  jrst     .opnr1          ;"5@  *R"
.opnrd:
001255:  201200000021  movei    a, 21           ;"0*   1"
001256:  260040000345  pushj    p, tyob         ;"6 @ #E"
001257:  260040001232  pushj    p, frd          ;"6 @ *:"
001260:  202200001435  movem    a, cfil3        ;"02  ,="
001261:  202240001436  movem    b, cfil4        ;"02@ ,>"
.opnr1:
001262:  260040003201  pushj    p, opnrd        ;"6 @ :!"
001263:  254000001265  jrst     fnf             ;"5@  *U"
001264:  263040000000  popj     p,              ;"68@   " ",b\0\0\0"
fnf:
001265:  074000001567                           ;"'@  -W"
001266:  254000000122  jrst     go2             ;"5@  !2"
listf:
001267:  200300003621  move     c, ufpntr       ;"0#  >1"
001270:  200306000177  move     c, 177(c)       ;"0#& !_"
001271:  316300001573  camn     c, 1573         ;"9S  -["
001272:  254000001276  jrst     listf2          ;"5@  *^"
001273:  242300000006  lsh      c, c            ;"43   &"
001274:  260040001352  pushj    p, typr         ;"6 @ +J"
001275:  260040001420  pushj    p, crr          ;"6 @ ,0"
listf2:
001276:  200600001576  move     f, 1576         ;"0&  -^"
001277:  260040001353  pushj    p, 1353         ;"6 @ +K"
001300:  260040001353  pushj    p, 1353         ;"6 @ +K"
001301:  260040000607  pushj    p, tab          ;"6 @ &'"
001302:  205400777750  movsi    t, 777750       ;"0L __H"
001303:  201540000000  movei    link, ff        ;"0-@   " " 6\0\0\0"
001304:  200500003621  move     sym, ufpntr     ;"0%  >1"
001305:  275500000002  subi     sym, i          ;"7M   ""
001306:  254000001331  jrst     listf1          ;"5@  +9"
001307:  271500000002  addi     sym, i          ;"7-   ""
001310:  336312000000  skipn    c, (sym)        ;";S*   " "7LP\0\0"
listf3:
001311:  253400001307  aobjn    t, 1307         ;"5<  +'"
001312:  607400777777  tlnn     t, maccr        ;"P\ ___"
001313:  263040000000  popj     p,              ;"68@   " ",b\0\0\0"
001314:  270400003621  add      t, ufpntr       ;"7$  >1"
001315:  200250000055  move     b, 55(t)        ;"0"H  M"
001316:  135200001577  ldb      a, 1577         ;"+J  -_"
001317:  137240001600  dpb      b, 1600         ;"+Z@ . "
001320:  274400003621  sub      t, ufpntr       ;"7D  >1"
001321:  271200000040  addi     a, tpchna       ;"7*   @"
001322:  260040000610  pushj    p, tyo          ;"6 @ &("
001323:  201200000040  movei    a, tpchna       ;"0*   @"
001324:  260040000610  pushj    p, tyo          ;"6 @ &("
001325:  260040001351  pushj    p, 1351         ;"6 @ +I"
001326:  200312000001  move     c, dschna(sym)  ;"0#*  !"
001327:  260040001351  pushj    p, 1351         ;"6 @ +I"
001330:  550540000010  hrrz     link, t         ;"M%@  ("
listf1:
001331:  403200000003  setzb    a, aa           ;"@:   #"
001332:  200600003622  move     f, 3622         ;"0&  >2"
001333:  134440000014  ildb     tt, f           ;"+D@  ,"
001334:  306453000000  cain     tt, (link)      ;"8TK   " "1RX\0\0"
001335:  350000000003  aos      aa              ;"=    #"
001336:  302440000037  caie     tt, bsize       ;"84@  ?"
001337:  254000001333  jrst     1333            ;"5@  +;"
001340:  202340001445  movem    d, tem          ;"03@ ,E"
001341:  322540001343  jumpe    link, lstf3     ;":5@ +C"
001342:  260040003161  pushj    p, .look        ;"6 @ 9Q"
lstf3:
001343:  334240000003  skipa    b, aa           ;";B@  #"
001344:  254000001370  jrst     lstf4           ;"5@  +X"
001345:  200340001445  move     d, tem          ;"0#@ ,E"
001346:  260040001361  pushj    p, dpt          ;"6 @ +Q"
001347:  260040001420  pushj    p, crr          ;"6 @ ,0"
001350:  254000001311  jrst     listf3          ;"5@  +)"
001351:  261040001360  push     p, typr2        ;"6(@ +P"
typr:
001352:  200600001565  move     f, 1565         ;"0&  -U"
001353:  201140000006  movei    aa, c           ;"0)@  &"
001354:  134200000014  ildb     a, f            ;"+B   ,"
001355:  271200000040  addi     a, tpchna       ;"7*   @"
001356:  260040000610  pushj    p, tyo          ;"6 @ &("
001357:  367140001354  sojg     aa, 1354        ;">Y@ +L"
typr2:
001360:  263040000607  popj     p, tab          ;"68@ &'"
dpt:
001361:  231240000012  idivi    b, sym          ;"3*@  *"
001362:  506301000000  hrlm     c, (p)          ;"HS!   "
001363:  322240001365  jumpe    b, 1365         ;":2@ +U"
001364:  260040001361  pushj    p, dpt          ;"6 @ +Q"
001365:  554201000000  hlrz     a, (p)          ;"MB!   "
001366:  271200000060  addi     a, 60           ;"7*   P"
001367:  254000000610  jrst     tyo             ;"5@  &("
lstf4:
001370:  550540000006  hrrz     link, c         ;"M%@  &"
001371:  200340001445  move     d, tem          ;"0#@ ,E"
001372:  254000001332  jrst     1332            ;"5@  +:"
renam:
001373:  260040001232  pushj    p, frd          ;"6 @ *:"
001374:  260040003161  pushj    p, .look        ;"6 @ 9Q"
001375:  254000001265  jrst     fnf             ;"5@  *U"
001376:  261040000007  push     p, d            ;"6(@  '"
001377:  260040001232  pushj    p, frd          ;"6 @ *:"
001400:  260040003161  pushj    p, .look        ;"6 @ 9Q"
001401:  254000001404  jrst     ren1            ;"5@  ,$"
001402:  312341000000  came     d, (p)          ;"93A   "
001403:  074000001601                           ;"'@  .!"
ren1:
001404:  262040000007  pop      p, d            ;"60@  '"
001405:  202207000000  movem    a, (d)          ;"02'   " " H8\0\0"
001406:  202247000001  movem    b, dschna(d)    ;"02G  !"
001407:  263040000000  popj     p,              ;"68@   " ",b\0\0\0"
winit:
001410:  201200000024  movei    a, lossag       ;"0*   4"
001411:  260040000345  pushj    p, tyob         ;"6 @ #E"
001412:  201200000027  movei    a, 27           ;"0*   7"
001413:  260040000345  pushj    p, tyob         ;"6 @ #E"
001414:  200200000005  move     a, b            ;"0"   %"
001415:  260040003305  pushj    p, opnwr        ;"6 @ ;%"
001416:  264000000234  jsr      err             ;"6@  "<"
001417:  263040000000  popj     p,              ;"68@   " ",b\0\0\0"
crr:
001420:  201200000015  movei    a, ch1          ;"0*   -"
001421:  260040000610  pushj    p, tyo          ;"6 @ &("
001422:  201200000012  movei    a, sym          ;"0*   *"
001423:  254000000610  jrst     tyo             ;"5@  &("
dele:
001424:  260040001232  pushj    p, frd          ;"6 @ *:"
001425:  254000003521  jrst     udele           ;"5@  =1"
.file:
001426:  260040001232  pushj    p, frd          ;"6 @ *:"
001427:  201300000003  movei    c, aa           ;"0+   #"
001430:  332000014735  skipe    contrl          ;";0 !G="
001431:  201300000002  movei    c, i            ;"0+   ""
001432:  260040003241  pushj    p, .fileb       ;"6 @ :A"
tpful:
001433:  074000001605                           ;"'@  .%"
001434:  263040000000  popj     p,              ;"68@   " ",b\0\0\0"
001540:  773000066107  blki     730, pdl        ;"_8 &Q'"
001541:  000700001607                           ;" '  .'"
001542:  350700001610  aos      ch2, cbuf       ;"='  .("
001543:  522371720232  hllom    d, @720232(tt)  ;"J3YZ":" "TOO M"
001544:  406353120210  andm     d, 120210(link) ;"@SK*"(" "ANY D"
001545:  446450541650  eqvm     tt, 541650(t)   ;"DTHL.H" "IRECT"
001546:  476451142646  setom    tt, 142646(tt)  ;"GTI,6F" "ORIES"
001547:  064244100000                           ;"&BD(  " "\r\n!\0\0"
001550:  261040000005  push     p, b            ;"6(@  %"
001551:  260040003564  pushj    p, uwr          ;"6 @ =T"
001552:  260040002737  pushj    p, .uwr         ;"6 @ 7?"
001553:  606000010000  trnn     ff, macrch      ;"PP !  "
001554:  134200003617  ildb     a, uredp        ;"+B  >/"
001555:  254000002277  jrst     disad           ;"5@  2_"
001556:  254000000610  jrst     tyo             ;"5@  &("
001557:  260040016145  pushj    p, arch         ;"6 @!QE"
001560:  254000000256  jrst     inchr1          ;"5@  "N"
001561:  000000003000  mpdll                    ;"    8 "
001562:  010700001046                           ;"!'  (F"
001563:  010700001106                           ;"!'  )&"
001564:  000600000004                           ;" &   $"
001565:  000600000005                           ;" &   %"
001566:  270400002762  add      t, .rbyts       ;"7$  7R"
001567:  432231442500  xorm     a, @442500(tt)  ;"C29D5 " "FILE "
001570:  472372420214  orcbm    d, @420214(sym) ;"G3ZB"," "NOT F"
001571:  476531642032  setom    sym, @642032(tt);"GU9T0:" "OUND\r"
001572:  051020000000                           ;"%(0   " "\n!\0\0\0"
001573:  777777777777  conso    typ5, @maccr(tm);"______"
001574:  466245450042  orcmm    b, 450042(b)    ;"FREE B"
001575:  545743536300  hlri     tm, 536300(aa)  ;"LOCKS "
001576:  000600001573                           ;" &  -["
001577:  000110000104                           ;" !( !$"
001600:  010100000004                           ;"!!   $"
001601:  406312242602  andm     c, 242602(sym)  ;"@S*46"" "ALREA"
001602:  422624042660  andcmm   f, @42660(a)    ;"B64$6P" "DY EX"
001603:  446472451432  eqvm     tt, @451432(sym);"DTZE,:" "ISTS\r"
001604:  051020000000                           ;"%(0   " "\n!\0\0\0"
001605:  522032042500  hllom    ff, @42500(sym) ;"J0:$5 " "TAPE "
001606:  432531446032  xorm     sym, @446032(tt);"C59DP:" "FULL\r"
001607:  051020000000                           ;"%(0   " "\n!\0\0\0"
.recyc:
001631:  713340007400  conso    130, 7400       ;"Y;@ \ "
001632:  254000001223  jrst     popret          ;"5@  *3"
001633:  250200001641  exch     a, blkopr       ;"5"  .A"
001634:  202200001640  movem    a, blkop        ;"02  .@"
001635:  250200001641  exch     a, blkopr       ;"5"  .A"
001636:  713200000137  cono     130, 137        ;"Y:  !?"
001637:  254000001223  jrst     popret          ;"5@  *3"
blkop:
001640:  000000001641  blkopr                   ;"    .A"
blkopr:
001641:  000000001641  blkopr                   ;"    .A"
chsiz:
002242:  000000000020  nuwbuf                   ;"     0"
disini:
002246:  261040000004  push     p, a            ;"6(@  $"
002247:  261040000005  push     p, b            ;"6(@  %"
002250:  713200000100  cono     130, foo        ;"Y:  ! "
002251:  201200001641  movei    a, blkopr       ;"0*  .A"
002252:  201240020117  movei    b, 20117        ;"0*@"!/"
002253:  434240002242  or       b, chsiz        ;"CB@ 2B"
002254:  261200000005  push     a, b            ;"6*   %"
002255:  261200002453  push     a, $    0       ;"6*  4K"
002256:  505200000600  hrli     a, 600          ;"HJ  & "
002257:  202200002245  movem    a, dispnr       ;"02  2E"
002260:  135240002454  ldb      b, 2454         ;"+J@ 4L"
002261:  213000000005  movns    ff, b           ;"18   %"
002262:  201200000252  movei    a, 252          ;"0*  "J"
002263:  242205000000  lsh      a, (b)          ;"42%   " "(H(\0\0"
002264:  620200000007  trz      a, d            ;"R"   '"
002265:  202200002243  movem    a, chcnts       ;"02  2C"
002266:  212200002244  movnm    a, chcnt        ;"12  2D"
002267:  201200000050  movei    a, 50           ;"0*   H"
002270:  202200002370  movem    a, lines        ;"02  3X"
002271:  254000002450  jrst     cpba            ;"5@  4H"
disful:
002272:  261040000004  push     p, a            ;"6(@  $"
002273:  260040002427  pushj    p, disclg       ;"6 @ 47"
002274:  260040000570  pushj    p, tyi          ;"6 @ %X"
002275:  260040002246  pushj    p, disini       ;"6 @ 2F"
002276:  262040000004  pop      p, a            ;"60@  $"
disad:
002277:  336000002370  skipn    lines           ;";P  3X"
002300:  254000002272  jrst     disful          ;"5@  2Z"
002301:  261040000004  push     p, a            ;"6(@  $"
disad7:
002302:  301200000040  cail     a, tpchna       ;"8*   @"
002303:  303200000132  caile    a, go1          ;"8:  !:"
002304:  254000002315  jrst     disad1          ;"5@  3-"
disad5:
002305:  357000002244  aosg     chcnt           ;"=X  2D"
disad6:
002306:  136200002245  idpb     a, dispnr       ;"+R  2E"
002307:  550200002245  hrrz     a, dispnr       ;"M"  2E"
002310:  303200002237  caile    a, 2237         ;"8:  2?"
002311:  402000002370  setzm    lines           ;"@0  3X"
popaj:
002312:  262040000004  pop      p, a            ;"60@  $"
002313:  202200002452  movem    a, dislcr       ;"02  4J"
002314:  263040000000  popj     p,              ;"68@   " ",b\0\0\0"
disad1:
002315:  306200000015  cain     a, ch1          ;"8R   -"
002316:  254000002332  jrst     disad2          ;"5@  3:"
002317:  306200000012  cain     a, sym          ;"8R   *"
002320:  254000002351  jrst     disad3          ;"5@  3I"
002321:  306200000007  cain     a, d            ;"8R   '"
002322:  254000002360  jrst     disad8          ;"5@  3P"
002323:  302200000011  caie     a, tt           ;"82   )"
002324:  254000002337  jrst     disad4          ;"5@  3?"
002325:  201200000040  movei    a, tpchna       ;"0*   @"
002326:  260040002371  pushj    p, dsad5a       ;"6 @ 3Y"
002327:  135200002455  ldb      a, 2455         ;"+J  4M"
002330:  326200002325  jumpn    a, 2325         ;":R  35"
002331:  254000002312  jrst     popaj           ;"5@  3*"
disad2:
002332:  200200002243  move     a, chcnts       ;"0"  2C"
002333:  212200002244  movnm    a, chcnt        ;"12  2D"
002334:  201200000034  movei    a, 34           ;"0*   <"
002335:  260040002373  pushj    p, dsad6a       ;"6 @ 3["
002336:  254000002355  jrst     dsd3a           ;"5@  3M"
disad4:
002337:  301200000040  cail     a, tpchna       ;"8*   @"
002340:  303200000140  caile    a, 140          ;"8:  !@"
002341:  254000002375  jrst     disblb          ;"5@  3]"
002342:  204204002227  movs     a, 2227(a)      ;"0B$ 27"
disad9:
002343:  541200000036  hrri     a, 36           ;"L*   >"
002344:  136200002245  idpb     a, dispnr       ;"+R  2E"
002345:  207000000004  movss    ff, a           ;"0X   $"
002346:  136200002245  idpb     a, dispnr       ;"+R  2E"
002347:  201200000035  movei    a, 35           ;"0*   ="
002350:  254000002305  jrst     disad5          ;"5@  3%"
disad3:
002351:  250200002452  exch     a, dislcr       ;"5"  4J"
002352:  302200000015  caie     a, ch1          ;"82   -"
002353:  316200002452  camn     a, dislcr       ;"9R  4J"
002354:  254000002312  jrst     popaj           ;"5@  3*"
dsd3a:
002355:  370000002370  sos      lines           ;"?   3X"
002356:  201200000033  movei    a, 33           ;"0*   ;"
002357:  254000002306  jrst     disad6          ;"5@  3&"
disad8:
002360:  205200000063  movsi    a, 63           ;"0J   S"
002361:  254000002343  jrst     disad9          ;"5@  3C"
blobs:
002362:  000000000053                           ;"     K"
002363:  000000000052                           ;"     J"
002364:  000000000054                           ;"     L"
002365:  000000000046                           ;"     F"
002366:  000000000051                           ;"     I"
002367:  000000000050                           ;"     H"
lines:
002370:  000000000000                           ;"      "
dsad5a:
002371:  261040000004  push     p, a            ;"6(@  $"
002372:  254000002305  jrst     disad5          ;"5@  3%"
dsad6a:
002373:  261040000004  push     p, a            ;"6(@  $"
002374:  254000002306  jrst     disad6          ;"5@  3&"
disblb:
002375:  261040000004  push     p, a            ;"6(@  $"
002376:  201200000036  movei    a, 36           ;"0*   >"
002377:  136200002245  idpb     a, dispnr       ;"+R  2E"
002400:  201200000050  movei    a, 50           ;"0*   H"
002401:  136200002245  idpb     a, dispnr       ;"+R  2E"
002402:  201200000073  movei    a, 73           ;"0*   ["
002403:  136200002245  idpb     a, dispnr       ;"+R  2E"
002404:  201200000035  movei    a, 35           ;"0*   ="
002405:  136200002245  idpb     a, dispnr       ;"+R  2E"
002406:  200201000000  move     a, (p)          ;"0"!   "
002407:  305200000100  caige    a, foo          ;"8J  ! "
002410:  254000002413  jrst     disbb1          ;"5@  4+"
002411:  201200000061  movei    a, 61           ;"0*   Q"
002412:  260040002371  pushj    p, dsad5a       ;"6 @ 3Y"
disbb1:
002413:  200201000000  move     a, (p)          ;"0"!   "
002414:  405200000070  andi     a, 70           ;"@J   X"
002415:  322200002421  jumpe    a, disbb2       ;":2  41"
002416:  242200777775  lsh      a, 777775       ;"42 __]"
002417:  271200000060  addi     a, 60           ;"7*   P"
002420:  260040002371  pushj    p, dsad5a       ;"6 @ 3Y"
disbb2:
002421:  262040000004  pop      p, a            ;"60@  $"
002422:  405200000007  andi     a, d            ;"@J   '"
002423:  271200000060  addi     a, 60           ;"7*   P"
002424:  260040002371  pushj    p, dsad5a       ;"6 @ 3Y"
002425:  205200000077  movsi    a, 77           ;"0J   _"
002426:  254000002343  jrst     disad9          ;"5@  3C"
disclg:
002427:  261040000004  push     p, a            ;"6(@  $"
002430:  261040000005  push     p, b            ;"6(@  %"
002431:  200200002245  move     a, dispnr       ;"0"  2E"
002432:  201240000037  movei    b, bsize        ;"0*@  ?"
002433:  136240000004  idpb     b, a            ;"+R@  $"
002434:  603200550000  tlne     a, 550000       ;"P: M  "
002435:  254000002433  jrst     2433            ;"5@  4;"
002436:  641200002400  tlc      a, 2400         ;"T*  4 "
002437:  201240003000  movei    b, mpdll        ;"0*@ 8 "
002440:  136240000004  idpb     b, a            ;"+R@  $"
002441:  553000000004  hrrzs    ff, a           ;"M8   $"
002442:  201240000003  movei    b, aa           ;"0*@  #"
002443:  305200001666  caige    a, 1666         ;"8J  .V"
002444:  432240001642  xorm     b, disbuf       ;"C2@ .B"
002445:  700600002221  cono     pi, 2221        ;"X&  21"
002446:  713200000130  cono     130, 130        ;"Y:  !8"
002447:  713140002456  datao    130, 2456       ;"Y9@ 4N"
cpba:
002450:  262040000005  pop      p, b            ;"60@  %"
002451:  254000002312  jrst     popaj           ;"5@  3*"
dislcr:
002452:  000000000000                           ;"      "
$    0:
002453:  221700060000  imuli    ch2, 60000      ;"2/ &  "
002454:  040200002242  .iot     rdchn, chsiz    ;"$"  2B"
002455:  000300002244                           ;" #  2D"
002456:  000000003000  mpdll                    ;"    8 "
uwait:
002457:  331000003604  skipl    lstp            ;";(  >$"
002460:  254000002457  jrst     uwait           ;"5@  4O"
uwait1:
002461:  402000002467  setzm    aprbrk          ;"@0  4W"
002462:  336000002467  skipn    aprbrk          ;";P  4W"
002463:  254000002462  jrst     2462            ;"5@  4R"
002464:  331000003603  skipl    coast           ;";(  >#"
002465:  254000002464  jrst     2464            ;"5@  4T"
002466:  263040000000  popj     p,              ;"68@   " ",b\0\0\0"
aprbrk:
002467:  000000000000                           ;"      "
002470:  331000003613  skipl    sdly            ;";(  >+"
002471:  331000003603  skipl    coast           ;";(  >#"
apret1:
002472:  254120002467  jrstf    @aprbrk         ;"5A0 4W"
002473:  261040002511  push     p, aprsv1       ;"6(@ 5)"
aprsv:
002474:  402000003602  setzm    rloadf          ;"@0  >""
002475:  261040000004  push     p, a            ;"6(@  $"
002476:  261040000005  push     p, b            ;"6(@  %"
002477:  200240003624  move     b, $    0       ;"0"@ >4"
002500:  331000003606  skipl    write           ;";(  >&"
002501:  207000000005  movss    ff, b           ;"0X   %"
002502:  260040002775  pushj    p, utrld        ;"6 @ 7]"
002503:  207000000005  movss    ff, b           ;"0X   %"
002504:  260040002775  pushj    p, utrld        ;"6 @ 7]"
002505:  376000003610  sosn     uruntm          ;"?P  >("
002506:  254000003007  jrst     aprbk5          ;"5@  8'"
apret:
002507:  262040000005  pop      p, b            ;"60@  %"
002510:  262040000004  pop      p, a            ;"60@  $"
aprsv1:
002511:  263040002472  popj     p, apret1       ;"68@ 4Z"
002514:  370000002513  sos      utp1            ;"?   5+"
002515:  355000002555  aosge    tapcnt          ;"=H  5M"
002516:  254520002512  jen      @tape           ;"5E0 5*"
utp3:
002517:  700600001040  cono     pi, 1040        ;"X&  (@"
002520:  336000003606  skipn    write           ;";P  >&"
002521:  720200000002  cono     mrsw, i         ;"Z"   ""
002522:  254520002512  jen      @tape           ;"5E0 5*"
pipos:
002523:  202200002556  movem    a, tap1         ;"02  5N"
002524:  202240002557  movem    b, tap2         ;"02@ 5O"
002525:  721700000016  consz    214, ch2        ;"Z/   ."
002526:  254000002552  jrst     utape5          ;"5@  5J"
utape:
002527:  201200000020  movei    a, nuwbuf       ;"0*   0"
002530:  720040000005  datai    mrsw, b         ;"Z @  %"
002531:  553000000005  hrrzs    ff, b           ;"M8   %"
utblk:
002532:  275240002532  subi     b, utblk        ;"7J@ 5:"
002533:  322240002564  jumpe    b, pipos2       ;":2@ 5T"
utape1:
002534:  331000003605  skipl    forw            ;";(  >%"
002535:  374000000005  sosa     b               ;"?@   %"
002536:  350000000005  aos      b               ;"=    %"
002537:  202240003607  movem    b, utenb        ;"02@ >'"
002540:  271240000003  addi     b, aa           ;"7*@  #"
002541:  321240002544  jumpl    b, 2544         ;":*@ 5D"
002542:  307240000006  caig     b, c            ;"8Z@  &"
002543:  254000002561  jrst     utape4          ;"5@  5Q"
002544:  352000003605  aose     forw            ;"=0  >%"
002545:  660200002000  tro      a, alnscn       ;"V"  0 "
002546:  303240000002  caile    b, i            ;"8:@  ""
002547:  644200012000  trca     a, 12000        ;"TB !0 "
002550:  476000003605  setom    forw            ;"GP  >%"
utape3:
002551:  721204320203  cono     210, 320203(a)  ;"Z*$:"#"
utape5:
002552:  720200004012  cono     mrsw, 4012      ;"Z"  @*"
002553:  254000002603  jrst     tap3            ;"5@  6#"
tapins:
002554:  720100000000  blko     mrsw, ff        ;"Z!    "
utape2:
002560:  660200003000  tro      a, mpdll        ;"V"  8 "
utape4:
002561:  331000003605  skipl    forw            ;";(  >%"
002562:  660200010000  tro      a, macrch       ;"V" !  "
002563:  254000002551  jrst     utape3          ;"5@  5I"
pipos2:
002564:  332000003607  skipe    utenb           ;";0  >'"
002565:  254000002560  jrst     utape2          ;"5@  5P"
002566:  200240002554  move     b, tapins       ;"0"@ 5L"
002567:  335000003606  skipge   write           ;";H  >&"
002570:  664200000400  troa     a, disize       ;"VB  $ "
002571:  621240000100  tlz      b, foo          ;"R*@ ! "
002572:  331000003605  skipl    forw            ;";(  >%"
002573:  664200010000  troa     a, macrch       ;"VB !  "
002574:  254000002606  jrst     tapfor          ;"5@  6&"
002575:  270240003625  add      b, 3625         ;"7"@ >5"
002576:  202240002513  movem    b, utp1         ;"02@ 5+"
002577:  577000002555  hlres    ff, tapcnt      ;"OX  5M"
tap4:
002600:  721204360303  cono     210, 360303(a)  ;"Z*$>##"
002601:  335000003606  skipge   write           ;";H  >&"
002602:  720200003412  cono     mrsw, 3412      ;"Z"  <*"
tap3:
002603:  200200002556  move     a, tap1         ;"0"  5N"
002604:  200240002557  move     b, tap2         ;"0"@ 5O"
002605:  254520002512  jen      @tape           ;"5E0 5*"
tapfor:
002606:  541240002555  hrri     b, tapcnt       ;"L*@ 5M"
002607:  202240000044  movem    b, 44           ;"02@  D"
002610:  201240002517  movei    b, utp3         ;"0*@ 5/"
002611:  542240002513  hrrm     b, utp1         ;"L2@ 5+"
002612:  254000002600  jrst     tap4            ;"5@  6 "
uterr2:
002613:  700740000040  conso    pi, tpchna      ;"X'@  @"
002614:  352000003614  aose     lossct          ;"=0  >,"
002615:  254000002617  jrst     uter2a          ;"5@  6/"
002616:  254000002652  jrst     gobble          ;"5@  6J"
uter2a:
002617:  721700000002  consz    214, i          ;"Z/   ""
002620:  352000003605  aose     forw            ;"=0  >%"
002621:  476000003605  setom    forw            ;"GP  >%"
002622:  550200002527  hrrz     a, utape        ;"M"  57"
002623:  331000003605  skipl    forw            ;";(  >%"
002624:  660200010000  tro      a, macrch       ;"V" !  "
002625:  721204323203  cono     210, 323203(a)  ;"Z*$::#"
002626:  260040002667  pushj    p, tstar1       ;"6 @ 6W"
popret:
002627:  262040000004  pop      p, a            ;"60@  $"
002630:  254120002631  jrstf    @utcbrk         ;"5A0 69"
utcbrk:
002631:  000000000000                           ;"      "
002632:  261040000004  push     p, a            ;"6(@  $"
002633:  721300004000  consz    210, mwrd       ;"Z+  @ "
002634:  721740000020  conso    214, nuwbuf     ;"Z/@  0"
002635:  254000002642  jrst     jdbrk           ;"5@  6B"
002636:  476000003604  setom    lstp            ;"GP  >$"
002637:  402000003613  setzm    sdly            ;"@0  >+"
jdbrk1:
002640:  721200000000  cono     210, ff         ;"Z*    " "t(\0\0\0"
002641:  254000002627  jrst     popret          ;"5@  67"
jdbrk:
002642:  721300000007  consz    210, d          ;"Z+   '"
002643:  721740000017  conso    214, tm         ;"Z/@  /"
002644:  254000002627  jrst     popret          ;"5@  67"
002645:  721340000700  conso    210, 700        ;"Z+@ ' "
002646:  254000002703  jrst     jdbrk2          ;"5@  7#"
002647:  700740000040  conso    pi, tpchna      ;"X'@  @"
002650:  721700000016  consz    214, ch2        ;"Z/   ."
002651:  254000002613  jrst     uterr2          ;"5@  6+"
gobble:
002652:  201200000200  movei    a, mrsw         ;"0*  " "
utcntr:
002653:  272200000004  addm     a, a            ;"72   $"
002654:  201200000030  movei    a, 30           ;"0*   8"
002655:  202200003610  movem    a, uruntm       ;"02  >("
002656:  721240000004  coni     210, a          ;"Z*@  $"
002657:  620200000700  trz      a, 700          ;"R"  ' "
002660:  721204000000  cono     210, (a)        ;"Z*$   " "t( \0\0"
002661:  260040002474  pushj    p, aprsv        ;"6 @ 4\"
002662:  331000003602  skipl    rloadf          ;";(  >""
002663:  476000003603  setom    coast           ;"GP  >#"
002664:  254000002627  jrst     popret          ;"5@  67"
tstart:
002665:  211200000012  movni    a, sym          ;"1*   *"
002666:  202200003614  movem    a, lossct       ;"02  >,"
tstar1:
002667:  402000003603  setzm    coast           ;"@0  >#"
002670:  205200777600  movsi    a, 777600       ;"0J _^ "
002671:  202200003607  movem    a, utenb        ;"02  >'"
002672:  540200002554  hrr      a, tapins       ;"L"  5L"
002673:  202200002555  movem    a, tapcnt       ;"02  5M"
002674:  200200000045  move     a, 45           ;"0"   E"
002675:  202200000044  movem    a, 44           ;"02   D"
002676:  200200003626  move     a, 3626         ;"0"  >6"
002677:  202200002513  movem    a, utp1         ;"02  5+"
002700:  720200004012  cono     mrsw, 4012      ;"Z"  @*"
002701:  700600002240  cono     pi, 2240        ;"X&  2@"
002702:  263040000000  popj     p,              ;"68@   " ",b\0\0\0"
jdbrk2:
002703:  476000003613  setom    sdly            ;"GP  >+"
002704:  721200005003  cono     210, 5003       ;"Z*  H#"
002705:  476000003610  setom    uruntm          ;"GP  >("
002706:  254000002627  jrst     popret          ;"5@  67"
rcheck:
002707:  331000002755  skipl    eof             ;";(  7M"
002710:  254000002713  jrst     .ured           ;"5@  7+"
002711:  336000002761  skipn    rcntr           ;";P  7Q"
002712:  263040000000  popj     p,              ;"68@   " ",b\0\0\0"
.ured:
002713:  336000002761  skipn    rcntr           ;";P  7Q"
002714:  254000002707  jrst     rcheck          ;"5@  7'"
002715:  370000002761  sos      rcntr           ;"?   7Q"
002716:  350200002760  aos      a, rpntr        ;"="  7P"
red2:
002717:  301200004056  cail     a, 4056         ;"8*  @N"
002720:  254000002723  jrst     redrst          ;"5@  73"
red4:
002721:  200204000000  move     a, (a)          ;"0"$   "
002722:  254000003235  jrst     popj1           ;"5@  :="
redrst:
002723:  201200000201  movei    a, 201          ;"0*  "!"
002724:  272200002717  addm     a, red2         ;"72  7/"
002725:  350200002760  aos      a, rpntr        ;"="  7P"
002726:  305200007676  caige    a, rendb        ;"8J  ^^"
002727:  254000002721  jrst     red4            ;"5@  71"
002730:  201200004056  movei    a, 4056         ;"0*  @N"
002731:  542200002717  hrrm     a, red2         ;"L2  7/"
002732:  201200003656  movei    a, rbegb        ;"0*  >N"
002733:  542200002760  hrrm     a, rpntr        ;"L2  7P"
002734:  254000002721  jrst     red4            ;"5@  71"
002735:  335000002766  skipge   wrful           ;";H  7V"
002736:  263040000000  popj     p,              ;"68@   " ",b\0\0\0"
.uwr:
002737:  336000002772  skipn    wcntr           ;";P  7Z"
002740:  254000002735  jrst     2735            ;"5@  7="
002741:  261040000004  push     p, a            ;"6(@  $"
002742:  370000002772  sos      wcntr           ;"?   7Z"
002743:  350200002771  aos      a, wpntr        ;"="  7Y"
002744:  301200013676  cail     a, dirtab       ;"8* !>^"
002745:  254000002750  jrst     wrst            ;"5@  7H"
wr2:
002746:  262044000000  pop      p, (a)          ;"60D   " ",B \0\0"
002747:  254000002721  jrst     red4            ;"5@  71"
wrst:
002750:  201200007676  movei    a, rendb        ;"0*  ^^"
002751:  542200002771  hrrm     a, wpntr        ;"L2  7Y"
002752:  254000002746  jrst     wr2             ;"5@  7F"
002753:  000000003655                           ;"    >M"
002754:  000000003655                           ;"    >M"
eof:
002755:  777777777777  conso    typ5, @maccr(tm);"______"
002756:  303200003600  caile    a, 3600         ;"8:  > "
rdatas:
002757:  003654007474                           ;" >L \\"
rpntr:
002760:  000000000000                           ;"      "
rcntr:
002761:  000000004000  mwrd                     ;"    @ "
002764:  000000007675                           ;"    ^]"
002765:  000000007675                           ;"    ^]"
wrful:
002766:  777777777777  conso    typ5, @maccr(tm);"______"
002767:  303200003600  caile    a, 3600         ;"8:  > "
wdatas:
002770:  007675013475                           ;" ^]!<]"
wpntr:
002771:  000000000000                           ;"      "
wcntr:
002772:  000000004000  mwrd                     ;"    @ "
wbyts:
002773:  000035000000                           ;"  =   "
wbytp:
002774:  000500013757                           ;" % !?O"
utrld:
002775:  200205000002  move     a, tpchn(b)     ;"0"%  ""
002776:  331005777776  skipl    777776(b)       ;";(%__^"
002777:  256005777777  xct      maccr(b)        ;"5P%___"
mpdll:
003000:  263040000000  popj     p,              ;"68@   " ",b\0\0\0"
003001:  262041000000  pop      p, (p)          ;"60A   "
003002:  135200003627  ldb      a, 3627         ;"+J  >7"
003003:  242200000003  lsh      a, aa           ;"42   #"
003004:  312200003604  came     a, lstp         ;"92  >$"
003005:  335000003604  skipge   lstp            ;";H  >$"
003006:  254000003025  jrst     load            ;"5@  85"
aprbk5:
003007:  476000003613  setom    sdly            ;"GP  >+"
003010:  721200005003  cono     210, 5003       ;"Z*  H#"
003011:  254000002507  jrst     apret           ;"5@  5'"
itab:
003012:  350345000003  aos      d, utcchn(b)    ;"=#E  #"
003013:  134205000004  ildb     a, tapac(b)     ;"+B%  $"
003014:  263040000000  popj     p,              ;"68@   " ",b\0\0\0"
itab1:
003015:  370345000003  sos      d, utcchn(b)    ;"?#E  #"
bytdec:
003016:  205200050000  movsi    a, 50000        ;"0J %  "
003017:  270205000004  add      a, tapac(b)     ;"7"%  $"
003020:  335000000004  skipge   a               ;";H   $"
003021:  274200003630  sub      a, 3630         ;"7B  >8"
003022:  202205000004  movem    a, tapac(b)     ;"02%  $"
003023:  135200000004  ldb      a, a            ;"+J   $"
003024:  263040000000  popj     p,              ;"68@   " ",b\0\0\0"
load:
003025:  476000003606  setom    write           ;"GP  >&"
003026:  202340003655  movem    d, 3655         ;"03@ >M"
003027:  200340003631  move     d, 3631         ;"0#@ >9"
003030:  251340003654  blt      d, 3654         ;"5+@ >L"
003031:  135200003627  ldb      a, 3627         ;"+J  >7"
003032:  261040003623  push     p, 3623         ;"6(@ >3"
003033:  260040003504  pushj    p, filesl       ;"6 @ =$"
rload:
003034:  201200003015  movei    a, itab1        ;"0*  8-"
003035:  331305000003  skipl    c, utcchn(b)    ;";+%  #"
003036:  201200003012  movei    a, itab         ;"0*  8*"
003037:  542200003050  hrrm     a, lup1         ;"L2  8H"
003040:  241300000011  rot      c, tt           ;"4+   )"
003041:  620300777740  trz      c, 777740       ;"R# __@"
003042:  201200000006  movei    a, c            ;"0*   &"
003043:  202200003611  movem    a, tem1         ;"02  >)"
003044:  606300000037  trnn     c, bsize        ;"PS   ?"
003045:  254000003050  jrst     lup1            ;"5@  8H"
003046:  402000003606  setzm    write           ;"@0  >&"
003047:  402000003611  setzm    tem1            ;"@0  >)"
lup1:
003050:  260040003012  pushj    p, itab         ;"6 @ 8*"
003051:  602340777777  trne     d, maccr        ;"P3@___"
003052:  306200000037  cain     a, bsize        ;"8R   ?"
003053:  254000003127  jrst     outt            ;"5@  97"
003054:  302206000000  caie     a, (c)          ;"82&   " "0H0\0\0"
003055:  374000003611  sosa     tem1            ;"?@  >)"
003056:  373000003611  sosle    tem1            ;"?8  >)"
003057:  254000003050  jrst     lup1            ;"5@  8H"
003060:  241300000011  rot      c, tt           ;"4+   )"
003061:  137305000004  dpb      c, tapac(b)     ;"+[%  $"
003062:  200205000003  move     a, utcchn(b)    ;"0"%  #"
003063:  542200002532  hrrm     a, utblk        ;"L2  5:"
003064:  201205000002  movei    a, tpchn(b)     ;"0*%  ""
003065:  542200002653  hrrm     a, utcntr       ;"L2  6K"
003066:  241300777776  rot      c, 777776       ;"4+ __^"
003067:  405300000070  andi     c, 70           ;"@K   X"
003070:  542300002527  hrrm     c, utape        ;"L3  57"
003071:  312300003604  came     c, lstp         ;"93  >$"
003072:  260040003120  pushj    p, loadst       ;"6 @ 90"
out4:
003073:  476000003602  setom    rloadf          ;"GP  >""
003074:  200205777774  move     a, 777774(b)    ;"0"%__\"
003075:  542200002554  hrrm     a, tapins       ;"L2  5L"
003076:  200345000000  move     d, (b)          ;"0#E   "
003077:  271200000200  addi     a, mrsw         ;"7*  " "
003100:  303207000000  caile    a, (d)          ;"8:'   " "0h8\0\0"
003101:  554200000007  hlrz     a, d            ;"MB   '"
003102:  336000003606  skipn    write           ;";P  >&"
003103:  350000000004  aos      a               ;"=    $"
003104:  202205777774  movem    a, 777774(b)    ;"02%__\"
003105:  721240000006  coni     210, c          ;"Z*@  &"
003106:  622300000700  trze     c, 700          ;"R3  ' "
003107:  254000003112  jrst     3112            ;"5@  9*"
003110:  435300000200  ori      c, mrsw         ;"CK  " "
003111:  721206000000  cono     210, (c)        ;"Z*&   " "t(0\0\0"
003112:  260040002665  pushj    p, tstart       ;"6 @ 6U"
out3:
003113:  262040000004  pop      p, a            ;"60@  $"
003114:  260040003504  pushj    p, filesl       ;"6 @ =$"
003115:  204340003631  movs     d, 3631         ;"0C@ >9"
003116:  251340000007  blt      d, d            ;"5+@  '"
003117:  254000002507  jrst     apret           ;"5@  5'"
loadst:
003120:  202300003604  movem    c, lstp         ;"03  >$"
003121:  476000003605  setom    forw            ;"GP  >%"
003122:  331005000003  skipl    utcchn(b)       ;";(%  #"
003123:  354000003605  aosa     forw            ;"=@  >%"
003124:  275300010000  subi     c, macrch       ;"7K !  "
003125:  721206333203  cono     210, 333203(c)  ;"Z*&;:#"
003126:  263040000000  popj     p,              ;"68@   " ",b\0\0\0"
outt:
003127:  336200003606  skipn    a, write        ;";R  >&"
003130:  254000003140  jrst     ldred           ;"5@  9@"
003131:  260040003336  pushj    p, filer        ;"6 @ ;>"
003132:  335000002766  skipge   wrful           ;";H  7V"
003133:  254000003113  jrst     out3            ;"5@  9+"
out2:
003134:  200240003653  move     b, 3653         ;"0"@ >K"
003135:  205200400000  movsi    a, ppss         ;"0J @  "
003136:  432205000003  xorm     a, utcchn(b)    ;"C2%  #"
003137:  254000003034  jrst     rload           ;"5@  8<"
ldred:
003140:  550240000006  hrrz     b, c            ;"M"@  &"
003141:  260040003161  pushj    p, .look        ;"6 @ 9Q"
003142:  254000003146  jrst     ldrd2           ;"5@  9F"
003143:  137300003632  dpb      c, 3632         ;"+[  >:"
003144:  137300003633  dpb      c, 3633         ;"+[  >;"
003145:  254000003134  jrst     out2            ;"5@  9<"
ldrd2:
003146:  476000002755  setom    eof             ;"GP  7M"
003147:  254000003113  jrst     out3            ;"5@  9+"
setupr:
003150:  200205777775  move     a, 777775(b)    ;"0"%__]"
003151:  202205000001  movem    a, dschna(b)    ;"02%  !"
003152:  202205777774  movem    a, 777774(b)    ;"02%__\"
003153:  205200400000  movsi    a, ppss         ;"0J @  "
003154:  412205000003  andcam   a, utcchn(b)    ;"A2%  #"
003155:  513005000003  hllzs    ff, utcchn(b)   ;"I8%  #"
003156:  200200003622  move     a, 3622         ;"0"  >2"
003157:  202205000004  movem    a, tapac(b)     ;"02%  $"
003160:  263040000000  popj     p,              ;"68@   " ",b\0\0\0"
.look:
003161:  205300777751  movsi    c, 777751       ;"0K __I"
003162:  334340003621  skipa    d, ufpntr       ;";C@ >1"
003163:  271340000002  addi     d, i            ;"7+@  ""
003164:  312207000000  came     a, (d)          ;"92'   " "2H8\0\0"
003165:  316200003634  camn     a, 3634         ;"9R  ><"
003166:  254000003170  jrst     3170            ;"5@  9X"
003167:  253300003163  aobjn    c, 3163         ;"5;  9S"
003170:  325300003175  jumpge   c, look1        ;":K  9]"
003171:  312247000001  came     b, dschna(d)    ;"92G  !"
003172:  316240003634  camn     b, 3634         ;"9R@ ><"
003173:  254000003175  jrst     look1           ;"5@  9]"
003174:  253300003163  aobjn    c, 3163         ;"5;  9S"
look1:
003175:  627300777777  tlzn     c, maccr        ;"R[ ___"
003176:  263040000000  popj     p,              ;"68@   " ",b\0\0\0"
003177:  350000000006  aos      c               ;"=    &"
popj1a:
003200:  254000003235  jrst     popj1           ;"5@  :="
opnrd:
003201:  260040003225  pushj    p, savac        ;"6 @ :5"
003202:  476000002755  setom    eof             ;"GP  7M"
003203:  260040002457  pushj    p, uwait        ;"6 @ 4O"
003204:  260040003161  pushj    p, .look        ;"6 @ 9Q"
003205:  254000003231  jrst     err2            ;"5@  :9"
003206:  200240003623  move     b, 3623         ;"0"@ >3"
003207:  242240000005  lsh      b, b            ;"42@  %"
003210:  516240002762  hrlzm    b, .rbyts       ;"IR@ 7R"
003211:  137300003632  dpb      c, 3632         ;"+[  >:"
003212:  137300003633  dpb      c, 3633         ;"+[  >;"
003213:  402000002761  setzm    rcntr           ;"@0  7Q"
003214:  201240002757  movei    b, rdatas       ;"0*@ 7O"
003215:  260040003150  pushj    p, setupr       ;"6 @ 9H"
003216:  200200003635  move     a, 3635         ;"0"  >="
003217:  202200003617  movem    a, uredp        ;"02  >/"
003220:  201200004056  movei    a, 4056         ;"0*  @N"
003221:  542200002717  hrrm     a, red2         ;"L2  7/"
003222:  402000002755  setzm    eof             ;"@0  7M"
003223:  254000003233  jrst     restor          ;"5@  :;"
savac0:
003224:  370001777777  sos      maccr(p)        ;"? !___"
savac:
003225:  202340003651  movem    d, 3651         ;"03@ >I"
003226:  200340003636  move     d, 3636         ;"0#@ >>"
003227:  251340003650  blt      d, 3650         ;"5+@ >H"
003230:  263040000000  popj     p,              ;"68@   " ",b\0\0\0"
err2:
003231:  402000003646  setzm    uac             ;"@0  >F"
err1:
003232:  370001000000  sos      (p)             ;"? !   "
restor:
003233:  204340003636  movs     d, 3636         ;"0C@ >>"
003234:  251340000007  blt      d, d            ;"5+@  '"
popj1:
003235:  350001000000  aos      (p)             ;"= !   "
cpopj:
003236:  263040000000  popj     p,              ;"68@   " ",b\0\0\0"
.bc2:
003237:  000104000055                           ;" !$  M"
.bc1:
003240:  000104000104                           ;" !$ !$"
.fileb:
003241:  260040003225  pushj    p, savac        ;"6 @ :5"
003242:  135200003637  ldb      a, 3637         ;"+J  >?"
003243:  261040003623  push     p, 3623         ;"6(@ >3"
003244:  260040003504  pushj    p, filesl       ;"6 @ =$"
003245:  200200003646  move     a, uac          ;"0"  >F"
003246:  261040000005  push     p, b            ;"6(@  %"
003247:  261040000004  push     p, a            ;"6(@  $"
003250:  260040003467  pushj    p, dele         ;"6 @ <W"
file1:
003251:  201200000141  movei    a, 141          ;"0*  !A"
003252:  201240000004  movei    b, a            ;"0*@  $"
003253:  260040003564  pushj    p, uwr          ;"6 @ =T"
003254:  255000000000  nop                      ;"5H    " "+ \0\0\0"
003255:  367240003253  sojg     b, 3253         ;">Z@ :K"
003256:  200200003640  move     a, 3640         ;"0"  >@"
file1b:
003257:  135240003641  ldb      b, 3641         ;"+J@ >A"
003260:  322240003264  jumpe    b, file3        ;":2@ :T"
003261:  260040002737  pushj    p, .uwr         ;"6 @ 7?"
003262:  254000003303  jrst     file7           ;"5@  ;#"
003263:  254000003257  jrst     file1b          ;"5@  :O"
file3:
003264:  201240004000  movei    b, mwrd         ;"0*@ @ "
003265:  312240002772  came     b, wcntr        ;"92@ 7Z"
003266:  254000003265  jrst     3265            ;"5@  :U"
file4:
003267:  260040003336  pushj    p, filer        ;"6 @ ;>"
003270:  402000000004  setzm    a               ;"@0   $"
003271:  201240000105  movei    b, 105          ;"0*@ !%"
003272:  260040003161  pushj    p, .look        ;"6 @ 9Q"
003273:  254000003231  jrst     err2            ;"5@  :9"
003274:  262047000000  pop      p, (d)          ;"60G   " ",B8\0\0"
003275:  262047000001  pop      p, dschna(d)    ;"60G  !"
003276:  260040003317  pushj    p, file6        ;"6 @ ;/"
003277:  260040003365  pushj    p, clstp        ;"6 @ ;U"
file5:
003300:  262040000004  pop      p, a            ;"60@  $"
003301:  260040003504  pushj    p, filesl       ;"6 @ =$"
003302:  254000003233  jrst     restor          ;"5@  :;"
file7:
003303:  370001777775  sos      777775(p)       ;"? !__]"
003304:  254000003267  jrst     file4           ;"5@  :W"
opnwr:
003305:  260040003225  pushj    p, savac        ;"6 @ :5"
003306:  403200000005  setzb    a, b            ;"@:   %"
003307:  260040003161  pushj    p, .look        ;"6 @ 9Q"
003310:  254000003231  jrst     err2            ;"5@  :9"
003311:  201240000105  movei    b, 105          ;"0*@ !%"
003312:  260040003467  pushj    p, dele         ;"6 @ <W"
003313:  201300000000  movei    c, ff           ;"0+    " " ,\0\0\0"
003314:  260040003352  pushj    p, winit1       ;"6 @ ;J"
003315:  260040003317  pushj    p, file6        ;"6 @ ;/"
003316:  254000003233  jrst     restor          ;"5@  :;"
file6:
003317:  201200004000  movei    a, mwrd         ;"0*  @ "
003320:  202200002772  movem    a, wcntr        ;"02  7Z"
003321:  201240002770  movei    b, wdatas       ;"0*@ 7X"
003322:  260040003150  pushj    p, setupr       ;"6 @ 9H"
003323:  200200003642  move     a, acblk        ;"0"  >B"
003324:  202200003620  movem    a, uwrp         ;"02  >0"
003325:  201200000005  movei    a, b            ;"0*   %"
003326:  202200003616  movem    a, 3616         ;"02  >."
003327:  200200003623  move     a, 3623         ;"0"  >3"
003330:  137200003637  dpb      a, 3637         ;"+Z  >?"
003331:  201200000105  movei    a, 105          ;"0*  !%"
003332:  202200003612  movem    a, lstfil       ;"02  >*"
003333:  402000003615  setzm    wrasm           ;"@0  >-"
003334:  402000002766  setzm    wrful           ;"@0  7V"
003335:  263040000000  popj     p,              ;"68@   " ",b\0\0\0"
filer:
003336:  403200000005  setzb    a, b            ;"@:   %"
003337:  260040003161  pushj    p, .look        ;"6 @ 9Q"
003340:  254000003361  jrst     tpful           ;"5@  ;Q"
003341:  200200000006  move     a, c            ;"0"   &"
003342:  250200003612  exch     a, lstfil       ;"5"  >*"
003343:  202207000001  movem    a, dschna(d)    ;"02'  !"
003344:  200200003621  move     a, ufpntr       ;"0"  >1"
003345:  270200000006  add      a, c            ;"7"   &"
003346:  200240003650  move     b, 3650         ;"0"@ >H"
003347:  137240003240  dpb      b, .bc1         ;"+Z@ :@"
003350:  242240777777  lsh      b, maccr        ;"42@___"
003351:  137240003237  dpb      b, .bc2         ;"+Z@ :?"
winit1:
003352:  200240003622  move     b, 3622         ;"0"@ >2"
003353:  134200000005  ildb     a, b            ;"+B   %"
003354:  306200000035  cain     a, 35           ;"8R   ="
003355:  137300000005  dpb      c, b            ;"+[   %"
003356:  302200000037  caie     a, bsize        ;"82   ?"
003357:  254000003353  jrst     3353            ;"5@  ;K"
003360:  263040000000  popj     p,              ;"68@   " ",b\0\0\0"
tpful:
003361:  476000002766  setom    wrful           ;"GP  7V"
003362:  263040000000  popj     p,              ;"68@   " ",b\0\0\0"
uclstp:
003363:  260040003224  pushj    p, savac0       ;"6 @ :4"
003364:  261040003443  push     p, cresto       ;"6(@ <C"
clstp:
003365:  200200003623  move     a, 3623         ;"0"  >3"
003366:  211240000001  movni    b, p            ;"1*@  !"
opntp1:
003367:  201300000100  movei    c, foo          ;"0+  ! "
.wsb:
003370:  242200000003  lsh      a, aa           ;"42   #"
003371:  260040002461  pushj    p, uwait1       ;"6 @ 4Q"
003372:  202240003606  movem    b, write        ;"02@ >&"
003373:  316200003604  camn     a, lstp         ;"9R  >$"
003374:  254000003377  jrst     3377            ;"5@  ;_"
003375:  260040002457  pushj    p, uwait        ;"6 @ 4O"
003376:  476000003605  setom    forw            ;"GP  >%"
003377:  542200002527  hrrm     a, utape        ;"L2  57"
003400:  202200003604  movem    a, lstp         ;"02  >$"
003401:  540240003621  hrr      b, ufpntr       ;"L"@ >1"
003402:  370000000005  sos      b               ;"?    %"
003403:  542240002554  hrrm     b, tapins       ;"L2@ 5L"
003404:  201240003611  movei    b, tem1         ;"0*@ >)"
003405:  542240002653  hrrm     b, utcntr       ;"L2@ 6K"
003406:  542300002532  hrrm     c, utblk        ;"L3  5:"
003407:  331000003605  skipl    forw            ;";(  >%"
003410:  660200010000  tro      a, macrch       ;"V" !  "
003411:  721204322203  cono     210, 322203(a)  ;"Z*$:2#"
003412:  260040002665  pushj    p, tstart       ;"6 @ 6U"
003413:  201200352300  movei    a, 352300       ;"0* =3 "
003414:  205240777600  movsi    b, 777600       ;"0J@_^ "
003415:  331000003606  skipl    write           ;";(  >&"
opntp3:
003416:  335000003603  skipge   coast           ;";H  >#"
003417:  263040000000  popj     p,              ;"68@   " ",b\0\0\0"
003420:  316240003607  camn     b, utenb        ;"9R@ >'"
003421:  365200003416  sojge    a, opntp3       ;">J  <."
003422:  325200003416  jumpge   a, opntp3       ;":J  <."
003423:  476000003613  setom    sdly            ;"GP  >+"
003424:  721200005003  cono     210, 5003       ;"Z*  H#"
003425:  476000003603  setom    coast           ;"GP  >#"
003426:  200200003623  move     a, 3623         ;"0"  >3"
003427:  260040003504  pushj    p, filesl       ;"6 @ =$"
003430:  402006013676  setzm    dirtab(c)       ;"@0&!>^"
003431:  211200000002  movni    a, i            ;"1*   ""
003432:  263040000000  popj     p,              ;"68@   " ",b\0\0\0"
tapkil:
003433:  260040003224  pushj    p, savac0       ;"6 @ :4"
003434:  261040003623  push     p, 3623         ;"6(@ >3"
003435:  405200000007  andi     a, d            ;"@J   '"
003436:  260040003504  pushj    p, filesl       ;"6 @ =$"
003437:  321300003441  jumpl    c, 3441         ;":+  <A"
003440:  402006013676  setzm    dirtab(c)       ;"@0&!>^"
003441:  262040000004  pop      p, a            ;"60@  $"
003442:  260040003504  pushj    p, filesl       ;"6 @ =$"
cresto:
003443:  254000003233  jrst     restor          ;"5@  :;"
filest:
003444:  254000003656  jrst     rbegb           ;"5@  >N"
003445:  260040003225  pushj    p, savac        ;"6 @ :5"
003446:  260040003504  pushj    p, filesl       ;"6 @ =$"
003447:  325300003233  jumpge   c, restor       ;":K  :;"
003450:  403200000005  setzb    a, b            ;"@:   %"
003451:  260040003504  pushj    p, filesl       ;"6 @ =$"
003452:  321300003231  jumpl    c, err2         ;":+  :9"
003453:  200200003646  move     a, uac          ;"0"  >F"
003454:  202206013676  movem    a, dirtab(c)    ;"02&!>^"
003455:  202200003623  movem    a, 3623         ;"02  >3"
003456:  260040003367  pushj    p, opntp1       ;"6 @ ;W"
003457:  321200003465  jumpl    a, err4         ;":*  <U"
003460:  200300003621  move     c, ufpntr       ;"0#  >1"
003461:  135300003643  ldb      c, 3643         ;"+K  >C"
003462:  306300000037  cain     c, bsize        ;"8S   ?"
003463:  254000003233  jrst     restor          ;"5@  :;"
err3:
003464:  211200000001  movni    a, p            ;"1*   !"
err4:
003465:  202200003646  movem    a, uac          ;"02  >F"
003466:  254000003232  jrst     err1            ;"5@  ::"
dele:
003467:  260040003161  pushj    p, .look        ;"6 @ 9Q"
003470:  263040000000  popj     p,              ;"68@   " ",b\0\0\0"
dele2:
003471:  402007000001  setzm    dschna(d)       ;"@0'  !"
003472:  403347000000  setzb    d, (d)          ;"@;G   " "@n8\0\0"
003473:  200240003622  move     b, 3622         ;"0"@ >2"
003474:  134200000005  ildb     a, b            ;"+B   %"
003475:  316200000006  camn     a, c            ;"9R   &"
003476:  137340000005  dpb      d, b            ;"+[@  %"
003477:  302200000037  caie     a, bsize        ;"82   ?"
003500:  254000003474  jrst     3474            ;"5@  <\"
003501:  402000000004  setzm    a               ;"@0   $"
003502:  200240000006  move     b, c            ;"0"@  &"
003503:  254000003467  jrst     dele            ;"5@  <W"
filesl:
003504:  205300777774  movsi    c, 777774       ;"0K __\"
003505:  312206013676  came     a, dirtab(c)    ;"92&!>^"
003506:  253300003505  aobjn    c, 3505         ;"5;  =%"
003507:  667300777777  tlon     c, maccr        ;"V[ ___"
003510:  263040000000  popj     p,              ;"68@   " ",b\0\0\0"
003511:  553340000006  hrrzs    d, c            ;"M;@  &"
003512:  221340000200  imuli    d, mrsw         ;"2+@ " "
003513:  271340013702  addi     d, movtab       ;"7+@!?""
003514:  202340003621  movem    d, ufpntr       ;"03@ >1"
003515:  271340000055  addi     d, 55           ;"7+@  M"
003516:  542340003622  hrrm     d, 3622         ;"L3@ >2"
003517:  202200003623  movem    a, 3623         ;"02  >3"
003520:  263040000000  popj     p,              ;"68@   " ",b\0\0\0"
udele:
003521:  260040003224  pushj    p, savac0       ;"6 @ :4"
003522:  260040003467  pushj    p, dele         ;"6 @ <W"
003523:  254000003233  jrst     restor          ;"5@  :;"
ured1:
003524:  336000002761  skipn    rcntr           ;";P  7Q"
003525:  254000003555  jrst     urede           ;"5@  =M"
ured:
003526:  134200003617  ildb     a, uredp        ;"+B  >/"
c141a:
003527:  302200000141  caie     a, 141          ;"82  !A"
003530:  254000003235  jrst     popj1           ;"5@  :="
uredt:
003531:  550200003617  hrrz     a, uredp        ;"M"  >/"
003532:  306200003251  cain     a, file1        ;"8R  :I"
003533:  254000003561  jrst     ured2           ;"5@  =Q"
003534:  275200000201  subi     a, 201          ;"7J  "!"
003535:  312200002760  came     a, rpntr        ;"92  7P"
003536:  254000003555  jrst     urede           ;"5@  =M"
003537:  271200000202  addi     a, 202          ;"7*  """
003540:  301200007676  cail     a, rendb        ;"8*  ^^"
003541:  201200003656  movei    a, rbegb        ;"0*  >N"
003542:  505200440700  hrli     a, 440700       ;"HJ D' "
003543:  202200003617  movem    a, uredp        ;"02  >/"
003544:  370000000004  sos      a               ;"?    $"
003545:  542200002760  hrrm     a, rpntr        ;"L2  7P"
003546:  211200000200  movni    a, mrsw         ;"1*  " "
003547:  272200002761  addm     a, rcntr        ;"72  7Q"
ured3:
003550:  335000002755  skipge   eof             ;";H  7M"
003551:  254000003524  jrst     ured1           ;"5@  =4"
003552:  336000002761  skipn    rcntr           ;";P  7Q"
003553:  254000003550  jrst     ured3           ;"5@  =H"
003554:  254000003526  jrst     ured            ;"5@  =6"
urede:
003555:  200200003644  move     a, 3644         ;"0"  >D"
003556:  202200003617  movem    a, uredp        ;"02  >/"
003557:  201200000014  movei    a, f            ;"0*   ,"
003560:  263040000000  popj     p,              ;"68@   " ",b\0\0\0"
ured2:
003561:  200200003645  move     a, 3645         ;"0"  >E"
003562:  202200003617  movem    a, uredp        ;"02  >/"
003563:  254000003550  jrst     ured3           ;"5@  =H"
uwr:
003564:  136200003620  idpb     a, uwrp         ;"+R  >0"
003565:  373000003616  sosle    3616            ;"?8  >."
003566:  254000003235  jrst     popj1           ;"5@  :="
003567:  202200003646  movem    a, uac          ;"02  >F"
003570:  201200000005  movei    a, b            ;"0*   %"
003571:  202200003616  movem    a, 3616         ;"02  >."
003572:  200200003642  move     a, acblk        ;"0"  >B"
003573:  202200003620  movem    a, uwrp         ;"02  >0"
003574:  200200003615  move     a, wrasm        ;"0"  >-"
003575:  260040002737  pushj    p, .uwr         ;"6 @ 7?"
003576:  263040000000  popj     p,              ;"68@   " ",b\0\0\0"
003577:  402000003615  setzm    wrasm           ;"@0  >-"
003600:  200200003646  move     a, uac          ;"0"  >F"
003601:  254000003235  jrst     popj1           ;"5@  :="
rloadf:
003602:  000000000000                           ;"      "
coast:
003603:  777777777777  conso    typ5, @maccr(tm);"______"
lstp:
003604:  777777777777  conso    typ5, @maccr(tm);"______"
003616:  000000000005  b                        ;"     %"
uredp:
003617:  070700003251                           ;"''  :I"
uwrp:
003620:  010700003614                           ;"!'  >,"
ufpntr:
003621:  000000013702  movtab                   ;"   !?""
003622:  000500013757                           ;" % !?O"
003623:  000000000002  i                        ;"     ""
$    0:
003624:  002757002770                           ;" 7O 7X"
003625:  000040000200                           ;"  @ " "
003626:  254000002523  jrst     pipos           ;"5@  53"
003627:  270405000003  add      t, utcchn(b)    ;"7$%  #"
003630:  430000000001  xor      ff, p           ;"C    !"
003631:  000004003652                           ;"  $ >J"
003632:  220500002762  imul     sym, .rbyts     ;"2%  7R"
003633:  330500002762  skip     sym, .rbyts     ;";%  7R"
003634:  120000000000                           ;"*     "
003635:  070700003251                           ;"''  :I"
003636:  000004003646                           ;"  $ >F"
003637:  270400002773  add      t, wbyts        ;"7$  7["
003640:  604000000001  trna     ff, p           ;"P@   !"
003641:  000700002772                           ;" '  7Z"
acblk:
003642:  010700003614                           ;"!'  >,"
003643:  370506000177  sos      sym, 177(c)     ;"?%& !_"
003644:  070700003527                           ;"''  =7"
003645:  440700003656  andcb    ch2, rbegb      ;"D'  >N"
rbegb:
003656:  261040000004  push     p, a            ;"6(@  $"
003657:  261040000005  push     p, b            ;"6(@  %"
003660:  200200003717  move     a, loss1        ;"0"  ?/"
003661:  202200003444  movem    a, filest       ;"02  <D"
003662:  205200604000  movsi    a, 604000       ;"0J P@ "
003663:  201240000020  movei    b, nuwbuf       ;"0*@  0"
003664:  323240003670  jumple   b, loss2        ;"::@ >X"
003665:  512204004056  hllzm    a, 4056(a)      ;"I2$ @N"
003666:  271200000201  addi     a, 201          ;"7*  "!"
003667:  367240003665  sojg     b, 3665         ;">Z@ >U"
loss2:
003670:  261040000006  push     p, c            ;"6(@  &"
003671:  201200000004  movei    a, a            ;"0*   $"
003672:  201240000000  movei    b, ff           ;"0*@   " " *\0\0\0"
loss4:
003673:  505240777722  hrli     b, 777722       ;"HJ@__2"
003674:  402005013702  setzm    movtab(b)       ;"@0%!?""
003675:  253240003674  aobjn    b, 3674         ;"5:@ >\"
003676:  200300003720  move     c, loss3        ;"0#  ?0"
003677:  202305013702  movem    c, movtab(b)    ;"03%!?""
003700:  505240777770  hrli     b, 777770       ;"HJ@__X"
003701:  402005013703  setzm    13703(b)        ;"@0%!?#"
003702:  253240003701  aobjn    b, 3701         ;"5:@ ?!"
003703:  205300660000  movsi    c, 660000       ;"0K V  "
003704:  202305013703  movem    c, 13703(b)     ;"03%!?#"
003705:  505240777671  hrli     b, 777671       ;"HJ@_^Y"
003706:  402005013704  setzm    13704(b)        ;"@0%!?$"
003707:  253240003706  aobjn    b, 3706         ;"5:@ ?&"
003710:  476005013704  setom    13704(b)        ;"GP%!?$"
003711:  271240000003  addi     b, aa           ;"7*@  #"
003712:  367200003673  sojg     a, loss4        ;">Z  >["
003713:  262040000006  pop      p, c            ;"60@  &"
003714:  262040000005  pop      p, b            ;"60@  %"
003715:  262040000004  pop      p, a            ;"60@  $"
003716:  254000003444  jrst     filest          ;"5@  <D"
loss1:
003717:  405200000007  andi     a, d            ;"@J   '"
loss3:
003720:  757367573674  conso    tyi, @573674(d) ;"][WO>\" "{o=w^"
getcnr:
014763:  000000000105                           ;"    !%"
isymf:
014764:  777777777777  conso    typ5, @maccr(tm);"______"
bytwp:
015004:  000000015005  bytw                     ;"   !H%"
ptab:
015012:  341015026023  aojl     ff, mactab(ch1) ;"<(-"P3"
015013:  241015026023  rot      ff, mactab(ch1) ;"4(-"P3"
015014:  141015026023                           ;",(-"P3"
015015:  041015026023  .open    ff, mactab(ch1) ;"$(-"P3"
015016:  341015026024  aojl     ff, init1(ch1)  ;"<(-"P4" "8 h,\n"
ptab1:
015017:  341000026023  aojl     ff, mactab      ;"<( "P3"
015020:  241000026023  rot      ff, mactab      ;"4( "P3"
015021:  141000026023                           ;",( "P3"
015022:  041000026023  .open    ff, mactab      ;"$( "P3"
cptrb:
015030:  777777777777  conso    typ5, @maccr(tm);"______"
rdwrdp:
015031:  000000336171  dstg                     ;"   ;QY"
prcalp:
015035:  000000015045  prcal                    ;"   !HE"
crptct:
015075:  777777777777  conso    typ5, @maccr(tm);"______"
cirpct:
015076:  777777777777  conso    typ5, @maccr(tm);"______"
lnktz:
015077:  634300000006  tdza     c, c            ;"SC   &"
lnktc1:
015100:  200400014705  move     t, glsp2        ;"0$ !G%"
linktc:
015101:  311400014704  caml     t, glsp1        ;"9, !G$"
015102:  263040000000  popj     p,              ;"68@   " ",b\0\0\0"
015103:  331010000001  skipl    dschna(t)       ;";((  !"
015104:  432250000001  xorm     b, dschna(t)    ;"C2H  !"
015105:  331010000001  skipl    dschna(t)       ;";((  !"
015106:  436310000001  orm      c, dschna(t)    ;"CS(  !"
015107:  344400015101  aoja     t, linktc       ;"<D !I!"
hfwdad:
015110:  542200015111  hrrm     a, 15111        ;"L2 !I)"
015111:  541205000000  hrri     a, (b)          ;"L*%   " "X((\0\0"
015112:  207000000005  movss    ff, b           ;"0X   %"
015113:  546200015114  hlrm     a, 15114        ;"LR !I,"
015114:  505205000000  hrli     a, (b)          ;"HJ%   " "Q((\0\0"
015115:  263040000000  popj     p,              ;"68@   " ",b\0\0\0"
sgtsy:
015116:  261040000002  push     p, i            ;"6(@  ""
015117:  261040000003  push     p, aa           ;"6(@  #"
015120:  261040000004  push     p, a            ;"6(@  $"
015121:  261040000005  push     p, b            ;"6(@  %"
015122:  260053000000  pushj    p, (link)       ;"6 K   "
sgtsy1:
015123:  661100000010  tlo      i, t            ;"V)   ("
015124:  662100000100  troe     i, foo          ;"V1  ! "
015125:  660100000004  tro      i, a            ;"V!   $"
015126:  270507026014  add      sym, %.sq(d)    ;"7%'"P,"
015127:  660100000002  tro      i, i            ;"V!   ""
015130:  365340015420  sojge    d, rrl2         ;">K@!L0"
015131:  344340015420  aoja     d, rrl2         ;"<C@!L0"
getfld:
015132:  261040014705  push     p, glsp2        ;"6(@!G%"
015133:  261040014705  push     p, glsp2        ;"6(@!G%"
015134:  261040014703  push     p, pprime       ;"6(@!G#"
015135:  261040014766  push     p, globt        ;"6(@!GV"
015136:  200200014704  move     a, glsp1        ;"0" !G$"
015137:  202200014766  movem    a, globt        ;"02 !GV"
015140:  202040014703  movem    p, pprime       ;"00@!G#"
015141:  620100200001  trz      i, 200001       ;"R! 0 !"
getfd1:
015142:  603100004000  tlne     i, mwrd         ;"P9  @ "
015143:  254000015146  jrst     15146           ;"5@ !IF"
015144:  260040015410  pushj    p, getsyl       ;"6 @!L("
015145:  602100000004  trne     i, a            ;"P1   $"
015146:  260040021457  pushj    p, getval       ;"6 @",O"
getfd6:
015147:  200300014702  move     c, cdisp        ;"0# !G""
015150:  603300200000  tlne     c, dfld         ;"P; 0  "
015151:  254006000000  jrst     (c)             ;"5@&   "
getfd:
015152:  201440000000  movei    tt, ff          ;"0,@   " " 2\0\0\0"
015153:  602100000002  trne     i, i            ;"P1   ""
015154:  660100000001  tro      i, p            ;"V!   !"
015155:  265540015166  jsp      link, getfd2    ;"6M@!IV"
015156:  274040025012  sub      p, $    0       ;"7@@"H*"
015157:  262040014766  pop      p, globt        ;"60@!GV"
015160:  262040014703  pop      p, pprime       ;"60@!G#"
015161:  274040025013  sub      p, 25013        ;"7@@"H+"
015162:  263040000000  popj     p,              ;"68@   " ",b\0\0\0"
getfda:
015163:  660100200001  tro      i, 200001       ;"V! 0 !"
015164:  606100000002  trnn     i, i            ;"PQ   ""
015165:  350440014763  aos      tt, getcnr      ;"=$@!GS"
getfd2:
015166:  316040014703  camn     p, pprime       ;"9P@!G#"
015167:  254000015177  jrst     getfd3          ;"5@ !I_"
015170:  554401000000  hlrz     t, (p)          ;"MD!   "
015171:  313440000010  camle    tt, t           ;"9<@  ("
015172:  254000015177  jrst     getfd3          ;"5@ !I_"
015173:  550401000000  hrrz     t, (p)          ;"M$!   "
015174:  254010000000  jrst     (t)             ;"5@(   "
getfd4:
015175:  274040025012  sub      p, $    0       ;"7@@"H*"
015176:  254000015166  jrst     getfd2          ;"5@ !IV"
getfd3:
015177:  261040014704  push     p, glsp1        ;"6(@!G$"
015200:  261040000005  push     p, b            ;"6(@  %"
015201:  261040000004  push     p, a            ;"6(@  $"
015202:  504300000011  hrl      c, tt           ;"HC   )"
015203:  261040000006  push     p, c            ;"6(@  &"
015204:  254013000000  jrst     (link)          ;"5@+   "
pls:
015205:  201300015224  movei    c, pls1         ;"0+ !J4"
015206:  201440000010  movei    tt, t           ;"0,@  ("
015207:  265540015163  jsp      link, getfda    ;"6M@!IS"
015210:  254000015142  jrst     getfd1          ;"5@ !IB"
minus1:
015211:  213000000004  movns    ff, a           ;"18   $"
015212:  445240000000  eqvi     b, ff           ;"DJ@   " "I*\0\0\0"
015213:  270240025014  add      b, 25014        ;"7"@"H,"
015214:  541245000001  hrri     b, dschna(b)    ;"L*E  !"
015215:  200401777775  move     t, 777775(p)    ;"0$!__]"
015216:  261040000005  push     p, b            ;"6(@  %"
015217:  515240020000  hrlzi    b, pss          ;"IJ@"  "
015220:  261040000006  push     p, c            ;"6(@  &"
015221:  260040015077  pushj    p, lnktz        ;"6 @!H_"
015222:  262040000006  pop      p, c            ;"60@  &"
015223:  262040000005  pop      p, b            ;"60@  %"
pls1:
015224:  270201777777  add      a, maccr(p)     ;"7"!___"
015225:  261040000004  push     p, a            ;"6(@  $"
015226:  200201777775  move     a, 777775(p)    ;"0"!__]"
015227:  260040015110  pushj    p, hfwdad       ;"6 @!I("
015230:  200240000004  move     b, a            ;"0"@  $"
015231:  262040000004  pop      p, a            ;"60@  $"
015232:  254000015175  jrst     getfd4          ;"5@ !I]"
minus:
015233:  201300015211  movei    c, minus1       ;"0+ !J)"
015234:  254000015206  jrst     15206           ;"5@ !J&"
multp:
015235:  201300015241  movei    c, multp1       ;"0+ !JA"
015236:  201440000020  movei    tt, nuwbuf      ;"0,@  0"
cbak2:
015237:  265540015163  jsp      link, getfda    ;"6M@!IS"
015240:  254000015142  jrst     getfd1          ;"5@ !IB"
multp1:
015241:  322240015246  jumpe    b, multp3       ;":2@!JF"
015242:  332001777776  skipe    777776(p)       ;";0!__^"
015243:  254000015265  jrst     multp4          ;"5@ !JU"
015244:  200401777777  move     t, maccr(p)     ;"0$!___"
015245:  254000015250  jrst     15250           ;"5@ !JH"
multp3:
015246:  200400000004  move     t, a            ;"0$   $"
015247:  200241777776  move     b, 777776(p)    ;"0"A__^"
015250:  200341777775  move     d, 777775(p)    ;"0#A__]"
015251:  312341777771  came     d, 777771(p)    ;"93A__Y"
015252:  254000015271  jrst     gmul1           ;"5@ !JY"
015253:  312340014704  came     d, glsp1        ;"93@!G$"
015254:  254000015276  jrst     gmul2           ;"5@ !J^"
gmul4:
015255:  514340000005  hrlz     d, b            ;"IC@  %"
015256:  220340000010  imul     d, t            ;"2#@  ("
015257:  546340000005  hlrm     d, b            ;"LS@  %"
015260:  510340000005  hllz     d, b            ;"I#@  %"
015261:  220340000010  imul     d, t            ;"2#@  ("
015262:  502340000005  hllm     d, b            ;"H3@  %"
015263:  220201777777  imul     a, maccr(p)     ;"2"!___"
015264:  254000015175  jrst     getfd4          ;"5@ !I]"
multp4:
015265:  001000516254                           ;" ( IRL"
015266:  254000015175  jrst     getfd4          ;"5@ !I]"
divid:
015267:  201300015314  movei    c, divid1       ;"0+ !K,"
015270:  254000015236  jrst     15236           ;"5@ !J>"
gmul1:
015271:  603000400000  tlne     ff, ppss        ;"P8 @  "
015272:  316340014704  camn     d, glsp1        ;"9S@!G$"
015273:  334640000004  skipa    ch1, a          ;";F@  $"
015274:  001000515571                           ;" ( IMY"
015275:  334341777771  skipa    d, 777771(p)    ;";CA__Y"
gmul2:
015276:  200641777777  move     ch1, maccr(p)   ;"0&A___"
gmul3:
015277:  311340014704  caml     d, glsp1        ;"9+@!G$"
015300:  254000015255  jrst     gmul4           ;"5@ !JM"
015301:  335007000001  skipge   dschna(d)       ;";H'  !"
015302:  344340015277  aoja     d, gmul3        ;"<C@!J_"
015303:  322640015312  jumpe    ch1, gmul5      ;":6@!K*"
015304:  135700025015  ldb      ch2, 25015      ;"+O "H-"
015305:  336000000016  skipn    ch2             ;";P   ."
015306:  201700000001  movei    ch2, p          ;"0/   !"
015307:  220700000015  imul     ch2, ch1        ;"2'   -"
015310:  137700025015  dpb      ch2, 25015      ;"+_ "H-"
015311:  344340015277  aoja     d, gmul3        ;"<C@!J_"
gmul5:
015312:  402007000001  setzm    dschna(d)       ;"@0'  !"
015313:  344340015277  aoja     d, gmul3        ;"<C@!J_"
divid1:
015314:  326240015265  jumpn    b, multp4       ;":R@!JU"
015315:  332001777776  skipe    777776(p)       ;";0!__^"
015316:  254000015265  jrst     multp4          ;"5@ !JU"
015317:  250201777777  exch     a, maccr(p)     ;"5"!___"
015320:  230201777777  idiv     a, maccr(p)     ;"3"!___"
015321:  201240000000  movei    b, ff           ;"0*@   " " *\0\0\0"
015322:  325000015175  jumpge   ff, getfd4      ;":H !I]"
015323:  200341777771  move     d, 777771(p)    ;"0#A__Y"
015324:  312340014704  came     d, glsp1        ;"93@!G$"
015325:  001000514466                           ;" ( IDV"
015326:  254000015175  jrst     getfd4          ;"5@ !I]"
iorf:
015327:  201300015341  movei    c, iorf1        ;"0+ !KA"
015330:  201440000030  movei    tt, 30          ;"0,@  8"
logic:
015331:  254000015237  jrst     cbak2           ;"5@ !J?"
xorf:
015332:  201300015337  movei    c, xorf1        ;"0+ !K?"
015333:  254000015330  jrst     15330           ;"5@ !K8"
andf:
015334:  201300015343  movei    c, andf1        ;"0+ !KC"
015335:  201440000040  movei    tt, tpchna      ;"0,@  @"
015336:  254000015331  jrst     logic           ;"5@ !K9"
xorf1:
015337:  201340430201  movei    d, 430201       ;"0+@C"!"
015340:  254000015344  jrst     logic1          ;"5@ !KD"
iorf1:
015341:  201340434201  movei    d, 434201       ;"0+@CB!"
015342:  254000015344  jrst     logic1          ;"5@ !KD"
andf1:
015343:  201340404201  movei    d, 404201       ;"0+@@B!"
logic1:
015344:  506340015350  hrlm     d, logic2       ;"HS@!KH"
015345:  326240015265  jumpn    b, multp4       ;":R@!JU"
015346:  332001777776  skipe    777776(p)       ;";0!__^"
015347:  254000015265  jrst     multp4          ;"5@ !JU"
logic2:
015350:  000000777777  maccr                    ;"   ___"
015351:  254000015175  jrst     getfd4          ;"5@ !I]"
cbakar:
015352:  201300015355  movei    c, cbak1        ;"0+ !KM"
015353:  201440000100  movei    tt, foo         ;"0,@ ! "
015354:  254000015237  jrst     cbak2           ;"5@ !J?"
cbak1:
015355:  326240015265  jumpn    b, multp4       ;":R@!JU"
015356:  200400000004  move     t, a            ;"0$   $"
015357:  200201777777  move     a, maccr(p)     ;"0"!___"
015360:  242210000000  lsh      a, (t)          ;"42(   " "(H@\0\0"
015361:  254000015175  jrst     getfd4          ;"5@ !I]"
semic:
015362:  260040016145  pushj    p, arch         ;"6 @!QE"
015363:  302200000015  caie     a, ch1          ;"82   -"
015364:  254000015362  jrst     semic           ;"5@ !KR"
rru3:
015365:  261040025016  push     p, 25016        ;"6(@"H."
015366:  254000015403  jrst     rru1            ;"5@ !L#"
rbrak:
015367:  336000014760  skipn    condep          ;";P !GP"
015370:  254000015420  jrst     rrl2            ;"5@ !L0"
015371:  254000015427  jrst     rr10            ;"5@ !L7"
bcomp:
015372:  332640015044  skipe    ch1, cptr       ;";6@!HD"
015373:  370000000015  sos      ch1             ;"?    -"
015374:  231640000004  idivi    ch1, a          ;"3.@  $"
015375:  200716015017  move     ch2, ptab1(ch2) ;"0'.!H/"
015376:  270700000015  add      ch2, ch1        ;"7'   -"
015377:  202700015030  movem    ch2, cptrb      ;"07 !H8"
015400:  263040000000  popj     p,              ;"68@   " ",b\0\0\0"
rru:
015401:  334200014742  skipa    a, limbo1       ;";B !GB"
rrlm2:
015402:  260040016163  pushj    p, mrch2c       ;"6 @!QS"
rru1:
015403:  256000015471  xct      rrr1            ;"5P !LY"
015404:  254000015462  jrst     15462           ;"5@ !LR"
015405:  337000015030  skipg    cptrb           ;";X !H8"
015406:  260040015372  pushj    p, bcomp        ;"6 @!KZ"
015407:  254000015501  jrst     rrlm4           ;"5@ !M!"
getsyl:
015410:  634100025017  tdza     i, 25017        ;"SA "H/"
gtsl1:
015411:  630100025020  tdz      i, 25020        ;"S! "H0"
015412:  403500015542  setzb    sym, numtab     ;"@= !MB"
015413:  200140025021  move     aa, 25021       ;"0!@"H1"
015414:  356000015556  aosn     ntclf           ;"=P !MN"
015415:  251140015552  blt      aa, 15552       ;"5)@!MJ"
015416:  201340000006  movei    d, c            ;"0+@  &"
015417:  630100025022  tdz      i, 25022        ;"S! "H2"
rrl2:
015420:  260040015467  pushj    p, rr           ;"6 @!LW"
015421:  202200014742  movem    a, limbo1       ;"02 !GB"
rr4:
015422:  550204025202  hrrz     a, gdtab(a)     ;"M"$"J""
015423:  200304021651  move     c, 21651(a)     ;"0#$".I"
015424:  202300014702  movem    c, cdisp        ;"03 !G""
rr8:
015425:  603300400000  tlne     c, ppss         ;"P; @  "
015426:  254006000000  jrst     (c)             ;"5@&   "
rr10:
015427:  606100000002  trnn     i, i            ;"PQ   ""
015430:  254000023664  jrst     cabpop          ;"5@ ">T"
015431:  602100000004  trne     i, a            ;"P1   $"
015432:  263040000000  popj     p,              ;"68@   " ",b\0\0\0"
015433:  316500025023  camn     sym, 25023      ;"9U "H3"
015434:  254000015615  jrst     pt1             ;"5@ !N-"
rr5:
015435:  607100001000  tlnn     i, nprc         ;"PY  ( "
015436:  260040015557  pushj    p, numsl        ;"6 @!MO"
rr6:
015437:  607100000004  tlnn     i, a            ;"PY   $"
015440:  254000015453  jrst     rr9             ;"5@ !LK"
015441:  200200000005  move     a, b            ;"0"   %"
015442:  271200000306  addi     a, 306          ;"7*  #&"
015443:  271140000200  addi     aa, mrsw        ;"7)@ " "
015444:  325140015447  jumpge   aa, 15447       ;":I@!LG"
015445:  242140777777  lsh      aa, maccr       ;"41@___"
015446:  350000000004  aos      a               ;"=    $"
015447:  250200000003  exch     a, aa           ;"5"   #"
015450:  244140777770  ashc     aa, 777770      ;"4A@__X"
015451:  332000000003  skipe    aa              ;";0   #"
015452:  002000456057                           ;" 0 EPO"
rr9:
015453:  621100000003  tlz      i, aa           ;"R)   #"
015454:  254000023741  jrst     clbpop          ;"5@ "?A"
atsgn:
015455:  205200000020  movsi    a, nuwbuf       ;"0J   0"
015456:  436200014710  orm      a, wrd          ;"CR !G("
015457:  660100000002  tro      i, i            ;"V!   ""
015460:  254000015420  jrst     rrl2            ;"5@ !L0"
rrl1:
015461:  260040016145  pushj    p, arch         ;"6 @!QE"
015462:  256004025202  xct      gdtab(a)        ;"5P$"J"" "+@ *A"
015463:  664100000026  troa     i, 26           ;"VA   6"
015464:  660100000022  tro      i, 22           ;"V!   2"
rrl1a:
015465:  365340015461  sojge    d, rrl1         ;">K@!LQ"
015466:  344340015461  aoja     d, rrl1         ;"<C@!LQ"
rr:
015467:  623100002000  tlze     i, alnscn       ;"R9  0 "
015470:  254000015401  jrst     rru             ;"5@ !L!"
rrr1:
015471:  606000010000  trnn     ff, macrch      ;"PP !  "
015472:  254000015461  jrst     rrl1            ;"5@ !LQ"
rrlm1a:
015473:  337000015030  skipg    cptrb           ;";X !H8"
015474:  260040015372  pushj    p, bcomp        ;"6 @!KZ"
rrlm1:
015475:  134200015030  ildb     a, cptrb        ;"+B !H8"
015476:  350000015044  aos      cptr            ;"=  !HD"
015477:  622200000200  trze     a, mrsw         ;"R2  " "
015500:  254000015402  jrst     rrlm2           ;"5@ !L""
rrlm4:
015501:  256004025202  xct      gdtab(a)        ;"5P$"J"" "+@ *A"
015502:  664100000026  troa     i, 26           ;"VA   6"
015503:  660100000022  tro      i, 22           ;"V!   2"
rrlm4a:
015504:  365340015475  sojge    d, rrlm1        ;">K@!L]"
015505:  344340015475  aoja     d, rrlm1        ;"<C@!L]"
ut141:
015506:  260040000253  pushj    p, inchr3       ;"6 @ "K"
015507:  254000015403  jrst     rru1            ;"5@ !L#"
maknum:
015510:  476000015556  setom    ntclf           ;"GP !MN"
015511:  201140000002  movei    aa, i           ;"0)@  ""
015512:  335003015545  skipge   highpt(aa)      ;";H#!ME"
015513:  254000015537  jrst     maknm3          ;"5@ !M?"
015514:  200403015550  move     t, lowpt(aa)    ;"0$#!MH"
015515:  224403015553  mul      t, aradix(aa)   ;"2D#!MK"
015516:  202440000015  movem    tt, ch1         ;"04@  -"
015517:  200443015545  move     tt, highpt(aa)  ;"0$C!ME"
015520:  270640000004  add      ch1, a          ;"7&@  $"
015521:  623640400000  tlze     ch1, ppss       ;"R>@@  "
015522:  350000000010  aos      t               ;"=    ("
015523:  255740015524  jfcl     tm, 15524       ;"5O@!M4"
015524:  220443015553  imul     tt, aradix(aa)  ;"2$C!MK"
015525:  270440000010  add      tt, t           ;"7$@  ("
015526:  255400015535  jov      maknm2          ;"5L !M="
015527:  603100000004  tlne     i, a            ;"P9   $"
015530:  370003015542  sos      numtab(aa)      ;"? #!MB"
015531:  202443015545  movem    tt, highpt(aa)  ;"04C!ME"
015532:  202643015550  movem    ch1, lowpt(aa)  ;"06C!MH"
maknm4:
015533:  365140015512  sojge    aa, 15512       ;">I@!M*"
015534:  263040000000  popj     p,              ;"68@   " ",b\0\0\0"
maknm2:
015535:  205240400000  movsi    b, ppss         ;"0J@@  "
015536:  436243015545  orm      b, highpt(aa)   ;"CRC!ME"
maknm3:
015537:  607100000004  tlnn     i, a            ;"PY   $"
015540:  350003015542  aos      numtab(aa)      ;"= #!MB"
015541:  254000015533  jrst     maknm4          ;"5@ !M;"
aradix:
015553:  000000000010  t                        ;"     ("
015554:  000000000012  sym                      ;"     *"
015555:  000000000010  t                        ;"     ("
ntclf:
015556:  000000000000                           ;"      "
numsl:
015557:  403440000007  setzb    tt, d           ;"@<@  '"
015560:  260040015626  pushj    p, rdxsel       ;"6 @!N6"
015561:  200147015545  move     aa, highpt(d)   ;"0!G!ME"
015562:  200247015550  move     b, lowpt(d)     ;"0"G!MH" " \n8\0334"
015563:  200407015542  move     t, numtab(d)    ;"0$'!MB"
015564:  607100000004  tlnn     i, a            ;"PY   $"
015565:  254000015620  jrst     fix             ;"5@ !N0"
015566:  621140400000  tlz      aa, ppss        ;"R)@@  "
numc1:
015567:  326140015571  jumpn    aa, 15571       ;":Q@!MY"
015570:  322240015617  jumpe    b, 15617        ;":2@!N/"
015571:  321400015641  jumpl    t, numsl1       ;":, !NA"
015572:  322400015610  jumpe    t, numsl2       ;":4 !N("
numsl5:
015573:  224247015553  mul      b, aradix(d)    ;"2BG!MK"
015574:  224147015553  mul      aa, aradix(d)   ;"2AG!MK"
015575:  270200000005  add      a, b            ;"7"   %"
015576:  623200400000  tlze     a, ppss         ;"R: @  "
015577:  271140000001  addi     aa, p           ;"7)@  !"
015600:  200240000006  move     b, c            ;"0"@  &"
numsl3:
015601:  322140015606  jumpe    aa, numsl4      ;":1@!N&"
015602:  244200777777  ashc     a, maccr        ;"4B ___"
015603:  240200000001  ash      a, p            ;"4"   !"
015604:  244140777777  ashc     aa, maccr       ;"4A@___"
015605:  344440015601  aoja     tt, numsl3      ;"<D@!N!"
numsl4:
015606:  200140000004  move     aa, a           ;"0!@  $"
015607:  367400015573  sojg     t, numsl5       ;">\ !M["
numsl2:
015610:  334200000005  skipa    a, b            ;";B   %"
numsl7:
015611:  244140000001  ashc     aa, p           ;"4A@  !"
015612:  607140200000  tlnn     aa, dfld        ;"PY@0  "
015613:  364440015611  soja     tt, numsl7      ;">D@!N)"
015614:  334240000011  skipa    b, tt           ;";B@  )"
pt1:
015615:  660100000004  tro      i, a            ;"V!   $"
015616:  263040000000  popj     p,              ;"68@   " ",b\0\0\0"
015617:  621100000004  tlz      i, a            ;"R)   $"
fix:
015620:  246200000045  lshc     a, 45           ;"4R   E"
015621:  246140777777  lshc     aa, maccr       ;"4Q@___"
015622:  322140015624  jumpe    aa, 15624       ;":1@!N4"
015623:  002000706347                           ;" 0 XSG"
015624:  263040000000  popj     p,              ;"68@   " ",b\0\0\0"
rdxs1:
015625:  201340000000  movei    d, ff           ;"0+@   " " .\0\0\0"
rdxsel:
015626:  603100000010  tlne     i, t            ;"P9   ("
015627:  201340000001  movei    d, p            ;"0+@  !"
015630:  603100000002  tlne     i, i            ;"P9   ""
015631:  201340000002  movei    d, i            ;"0+@  ""
015632:  603100000001  tlne     i, p            ;"P9   !"
015633:  201340000000  movei    d, ff           ;"0+@   " " .\0\0\0"
015634:  263040000000  popj     p,              ;"68@   " ",b\0\0\0"
numsl8:
015635:  242240000001  lsh      b, p            ;"42@  !"
015636:  240140000001  ash      aa, p           ;"4!@  !"
015637:  623240400000  tlze     b, ppss         ;"R:@@  "
015640:  660140000001  tro      aa, p           ;"V!@  !"
numsl1:
015641:  607140200000  tlnn     aa, dfld        ;"PY@0  "
015642:  364440015635  soja     tt, numsl8      ;">D@!N="
015643:  230147015553  idiv     aa, aradix(d)   ;"3!G!MK"
015644:  270240000004  add      b, a            ;"7"@  $"
015645:  201200000000  movei    a, ff           ;"0*    " " (\0\0\0"
015646:  623240400000  tlze     b, ppss         ;"R:@@  "
015647:  201200000001  movei    a, p            ;"0*   !"
015650:  234207015553  div      a, aradix(d)    ;"3B'!MK"
015651:  200240000004  move     b, a            ;"0"@  $"
015652:  341400015641  aojl     t, numsl1       ;"<, !NA"
015653:  254000015612  jrst     15612           ;"5@ !N*"
uparr:
015654:  666100000002  tron     i, i            ;"VQ   ""
015655:  254000015774  jrst     upctrc          ;"5@ !O\"
015656:  602100000004  trne     i, a            ;"P1   $"
015657:  002000515446                           ;" 0 ILF"
015660:  260040015557  pushj    p, numsl        ;"6 @!MO"
015661:  661100000020  tlo      i, nuwbuf       ;"V)   0"
015662:  260040015701  pushj    p, ua3          ;"6 @!O!"
015663:  621100000020  tlz      i, nuwbuf       ;"R)   0"
015664:  200440000005  move     tt, b           ;"0$@  %"
015665:  200240000004  move     b, a            ;"0"@  $"
015666:  260040015625  pushj    p, rdxs1        ;"6 @!N5"
015667:  260040015567  pushj    p, numc1        ;"6 @!MW"
015670:  603100000004  tlne     i, a            ;"P9   $"
015671:  254000015676  jrst     rr7             ;"5@ !N^"
015672:  244145000000  ashc     aa, (b)         ;"4AE   "
015673:  322140015675  jumpe    aa, 15675       ;":1@!N]"
015674:  002000706347                           ;" 0 XSG"
015675:  201240000000  movei    b, ff           ;"0*@   " " *\0\0\0"
rr7:
015676:  200300014702  move     c, cdisp        ;"0# !G""
015677:  661100001000  tlo      i, nprc         ;"V)  ( "
015700:  254000015425  jrst     rr8             ;"5@ !L5"
ua3:
015701:  265540015116  jsp      link, sgtsy     ;"6M@!I."
015702:  260040016145  pushj    p, arch         ;"6 @!QE"
015703:  306200000055  cain     a, 55           ;"8R   M"
015704:  664100020000  troa     i, pss          ;"VA "  "
015705:  661100002000  tlo      i, alnscn       ;"V)  0 "
015706:  260040016145  pushj    p, arch         ;"6 @!QE"
015707:  306200000074  cain     a, 74           ;"8R   \"
015710:  254000015724  jrst     uar1            ;"5@ !O4"
015711:  661100002000  tlo      i, alnscn       ;"V)  0 "
015712:  260040015411  pushj    p, gtsl1        ;"6 @!L)"
015713:  606100000004  trnn     i, a            ;"PQ   $"
015714:  603100000004  tlne     i, a            ;"P9   $"
015715:  002000515446                           ;" 0 ILF"
uar2:
015716:  626100020000  trzn     i, pss          ;"RQ "  "
015717:  334400000004  skipa    t, a            ;";D   $"
015720:  210400000004  movn     t, a            ;"1$   $"
015721:  201440015123  movei    tt, sgtsy1      ;"0,@!I3"
015722:  265540016053  jsp      link, poplis    ;"6M@!PK"
015723:  263040000000  popj     p,              ;"68@   " ",b\0\0\0"
uar1:
015724:  661100000040  tlo      i, tpchna       ;"V)   @"
015725:  260040020305  pushj    p, lssth        ;"6 @"#%"
015726:  261040000004  push     p, a            ;"6(@  $"
015727:  260040016145  pushj    p, arch         ;"6 @!QE"
015730:  306200000041  cain     a, zz           ;"8R   A"
015731:  254000015727  jrst     15727           ;"5@ !O7"
015732:  554404025202  hlrz     t, gdtab(a)     ;"MD$"J""
015733:  302200000056  caie     a, 56           ;"82   N"
015734:  302400263040  caie     t, 263040       ;"84 68@"
015735:  002000515446                           ;" 0 ILF"
015736:  550204025202  hrrz     a, gdtab(a)     ;"M"$"J""
015737:  200204021651  move     a, 21651(a)     ;"0"$".I"
015740:  202200014702  movem    a, cdisp        ;"02 !G""
015741:  262040000004  pop      p, a            ;"60@  $"
015742:  326240022730  jumpn    b, rlcerr       ;":R@"78"
015743:  254000015716  jrst     uar2            ;"5@ !O."
bakar:
015744:  603100000020  tlne     i, nuwbuf       ;"P9   0"
015745:  254000015435  jrst     rr5             ;"5@ !L="
015746:  602100000002  trne     i, i            ;"P1   ""
015747:  602100000004  trne     i, a            ;"P1   $"
015750:  254000015765  jrst     bak1            ;"5@ !OU"
015751:  316500025023  camn     sym, 25023      ;"9U "H3"
015752:  254000015765  jrst     bak1            ;"5@ !OU"
015753:  627100001000  tlzn     i, nprc         ;"RY  ( "
015754:  260040015557  pushj    p, numsl        ;"6 @!MO"
015755:  260040015701  pushj    p, ua3          ;"6 @!O!"
015756:  270240000010  add      b, t            ;"7"@  ("
015757:  244145000000  ashc     aa, (b)         ;"4AE   "
015760:  242200000001  lsh      a, p            ;"42   !"
015761:  246140777777  lshc     aa, maccr       ;"4Q@___"
015762:  403240000003  setzb    b, aa           ;"@:@  #"
015763:  621100000004  tlz      i, a            ;"R)   $"
015764:  263040000000  popj     p,              ;"68@   " ",b\0\0\0"
bak1:
015765:  200440025024  move     tt, 25024       ;"0$@"H4"
015766:  202440014702  movem    tt, cdisp       ;"04@!G""
015767:  254000015427  jrst     rr10            ;"5@ !L7"
dquote:
015770:  666100000002  tron     i, i            ;"VQ   ""
015771:  254000015776  jrst     dq1a            ;"5@ !O^"
015772:  661100000001  tlo      i, p            ;"V)   !"
015773:  254000015420  jrst     rrl2            ;"5@ !L0"
upctrc:
015774:  260040016145  pushj    p, arch         ;"6 @!QE"
015775:  624200000100  trza     a, foo          ;"RB  ! "
dq1a:
015776:  260040016145  pushj    p, arch         ;"6 @!QE"
dq1:
015777:  261040000004  push     p, a            ;"6(@  $"
016000:  260040015410  pushj    p, getsyl       ;"6 @!L("
016001:  662100000002  troe     i, i            ;"V1   ""
016002:  002000515446                           ;" 0 ILF"
016003:  254000024315  jrst     popaj           ;"5@ "C-"
squote:
016004:  666100000002  tron     i, i            ;"VQ   ""
016005:  254000016010  jrst     16010           ;"5@ !P("
016006:  661100000002  tlo      i, i            ;"V)   ""
016007:  254000015420  jrst     rrl2            ;"5@ !L0"
016010:  260040016145  pushj    p, arch         ;"6 @!QE"
016011:  275200000040  subi     a, tpchna       ;"7J   @"
016012:  606200000100  trnn     a, foo          ;"PR  ! "
016013:  325200015777  jumpge   a, dq1          ;":J !O_"
016014:  002000562642                           ;" 0 N6B"
016015:  254000015777  jrst     dq1             ;"5@ !O_"
rr2:
016016:  275200000060  subi     a, 60           ;"7J   P"
016017:  602100000004  trne     i, a            ;"P1   $"
016020:  254000016024  jrst     rr2a            ;"5@ !P4"
016021:  622100000100  trze     i, foo          ;"R1  ! "
016022:  661100000004  tlo      i, a            ;"V)   $"
016023:  260040015510  pushj    p, maknum       ;"6 @!M("
rr2a:
016024:  256004016026  xct      nsqtb(a)        ;"5P$!P6"
016025:  254016000001  jrst     dschna(ch2)     ;"5@.  !"
nsqtb:
016026:  270507025767  add      sym, %0sq(d)    ;"7%'"OW"
016027:  270507025670  add      sym, %1sq(d)    ;"7%'"NX"
016030:  270507025677  add      sym, %2sq(d)    ;"7%'"N_"
016031:  270507025706  add      sym, %3sq(d)    ;"7%'"O&"
016032:  270507025715  add      sym, %4sq(d)    ;"7%'"O-"
016033:  270507025724  add      sym, %5sq(d)    ;"7%'"O4"
016034:  270507025733  add      sym, %6sq(d)    ;"7%'"O;"
016035:  270507025742  add      sym, %7sq(d)    ;"7%'"OB"
016036:  270507025751  add      sym, %8sq(d)    ;"7%'"OI"
016037:  270507025760  add      sym, %9sq(d)    ;"7%'"OP"
savwd1:
016040:  261040014714  push     p, lsyl         ;"6(@!G,"
016041:  261040014715  push     p, lsylr        ;"6(@!G-"
savwld:
016042:  261040014706  push     p, format       ;"6(@!G&"
016043:  261040014707  push     p, forpnr       ;"6(@!G'"
016044:  261040014716  push     p, fldcnt       ;"6(@!G."
016045:  261040014705  push     p, glsp2        ;"6(@!G%"
016046:  261040000002  push     p, i            ;"6(@  ""
016047:  261040014710  push     p, wrd          ;"6(@!G("
016050:  261040014711  push     p, wrdrlc       ;"6(@!G)"
016051:  261040000012  push     p, sym          ;"6(@  *"
016052:  260053000000  pushj    p, (link)       ;"6 K   "
poplis:
016053:  262040000014  pop      p, f            ;"60@  ,"
016054:  302454000000  caie     tt, (f)         ;"84L   " "0R`\0\0"
016055:  000000514145                           ;"   IAE"
popls1:
016056:  554611777776  hlrz     f, 777776(tt)   ;"MF)__^"
016057:  302600261040  caie     f, 261040       ;"86 6(@"
016060:  254013000000  jrst     (link)          ;"5@+   "
016061:  262071777776  pop      p, @777776(tt)  ;"60Y__^"
016062:  364440016056  soja     tt, popls1      ;">D@!PN"
usvwld:
016063:  262040000012  pop      p, sym          ;"60@  *"
016064:  553000000012  hrrzs    ff, sym         ;"M8   *"
016065:  302500016053  caie     sym, poplis     ;"85 !PK"
016066:  000000514145                           ;"   IAE"
016067:  262040000012  pop      p, sym          ;"60@  *"
016070:  262040014711  pop      p, wrdrlc       ;"60@!G)"
016071:  262040014710  pop      p, wrd          ;"60@!G("
016072:  630100025025  tdz      i, 25025        ;"S! "H5"
016073:  434101000000  or       i, (p)          ;"CA!   "
016074:  262041000001  pop      p, dschna(p)    ;"60A  !"
016075:  262040014705  pop      p, glsp2        ;"60@!G%"
016076:  262040014716  pop      p, fldcnt       ;"60@!G."
016077:  262040014707  pop      p, forpnr       ;"60@!G'"
016100:  262040014706  pop      p, format       ;"60@!G&"
016101:  254013000000  jrst     (link)          ;"5@+   "
pushem:
016102:  261040000004  push     p, a            ;"6(@  $"
016103:  261040000014  push     p, f            ;"6(@  ,"
016104:  200600015023  move     f, macp         ;"0& !H3"
016105:  540200015044  hrr      a, cptr         ;"L" !HD"
016106:  504200015011  hrl      a, bbase        ;"HB !H)"
016107:  261600000004  push     f, a            ;"6.   $"
016110:  504240014742  hrl      b, limbo1       ;"HB@!GB"
016111:  623100002000  tlze     i, alnscn       ;"R9  0 "
016112:  661240400000  tlo      b, ppss         ;"V*@@  "
016113:  662000010000  troe     ff, macrch      ;"V0 !  "
016114:  661240200000  tlo      b, dfld         ;"V*@0  "
016115:  261600000005  push     f, b            ;"6.   %"
016116:  200200025026  move     a, 25026        ;"0" "H6"
016117:  202200016147  movem    a, getchr       ;"02 !QG"
016120:  254000016141  jrst     pshm1           ;"5@ !QA"
popem:
016121:  261040000004  push     p, a            ;"6(@  $"
016122:  261040000014  push     p, f            ;"6(@  ,"
016123:  200600015023  move     f, macp         ;"0& !H3"
016124:  262600000004  pop      f, a            ;"66   $"
016125:  621100002000  tlz      i, alnscn       ;"R)  0 "
016126:  623200400000  tlze     a, ppss         ;"R: @  "
016127:  661100002000  tlo      i, alnscn       ;"V)  0 "
016130:  620000010000  trz      ff, macrch      ;"R  !  "
016131:  623200200000  tlze     a, dfld         ;"R: 0  "
016132:  660000010000  tro      ff, macrch      ;"V  !  "
016133:  556200014742  hlrzm    a, limbo1       ;"MR !GB"
016134:  200200025027  move     a, 25027        ;"0" "H7"
016135:  606000010000  trnn     ff, macrch      ;"PP !  "
016136:  202200016147  movem    a, getchr       ;"02 !QG"
016137:  262600000005  pop      f, b            ;"66   %"
016140:  542240015044  hrrm     b, cptr         ;"L2@!HD"
pshm1:
016141:  476000015030  setom    cptrb           ;"GP !H8"
016142:  202600015023  movem    f, macp         ;"06 !H3"
016143:  262040000014  pop      p, f            ;"60@  ,"
016144:  254000024315  jrst     popaj           ;"5@ "C-"
arch:
016145:  623100002000  tlze     i, alnscn       ;"R9  0 "
016146:  254000016152  jrst     rch1            ;"5@ !QJ"
getchr:
016147:  260040000250  pushj    p, rpa          ;"6 @ "H"
rch2:
016150:  202200014742  movem    a, limbo1       ;"02 !GB"
typctl:
016151:  263040000000  popj     p,              ;"68@   " ",b\0\0\0"
rch1:
016152:  200200014742  move     a, limbo1       ;"0" !GB"
016153:  263040000000  popj     p,              ;"68@   " ",b\0\0\0"
mrchr:
016154:  262040000005  pop      p, b            ;"60@  %"
mrch:
016155:  337000015030  skipg    cptrb           ;";X !H8"
016156:  260040015372  pushj    p, bcomp        ;"6 @!KZ"
mrch2b:
016157:  134200015030  ildb     a, cptrb        ;"+B !H8"
016160:  350000015044  aos      cptr            ;"=  !HD"
016161:  626200000200  trzn     a, mrsw         ;"RR  " "
016162:  254000016150  jrst     rch2            ;"5@ !QH"
mrch2c:
016163:  261040000005  push     p, b            ;"6(@  %"
016164:  306200000176  cain     a, 176          ;"8R  !^"
016165:  254000016154  jrst     mrchr           ;"5@ !QL"
016166:  302200000177  caie     a, 177          ;"82  !_"
016167:  306200000175  cain     a, 175          ;"8R  !]"
016170:  254000016202  jrst     mrch1           ;"5@ !R""
016171:  200240000004  move     b, a            ;"0"@  $"
016172:  270240015011  add      b, bbase        ;"7"@!H)"
016173:  200205000000  move     a, (b)          ;"0"%   "
016174:  201240016222  movei    b, rchsav       ;"0*@!R2"
016175:  260040016102  pushj    p, pushem       ;"6 @!Q""
016176:  542200015044  hrrm     a, cptr         ;"L2 !HD"
016177:  200200015010  move     a, topp         ;"0" !H("
016200:  202200015011  movem    a, bbase        ;"02 !H)"
016201:  254000016154  jrst     mrchr           ;"5@ !QL"
mrch1:
016202:  200240015023  move     b, macp         ;"0"@!H3"
016203:  263240000000  popj     b,              ;"6:@   " ",j\0\0\0"
rchsv1:
016204:  370000015066  sos      mdepth          ;"?  !HV"
016205:  261040000004  push     p, a            ;"6(@  $"
016206:  200240015010  move     b, topp         ;"0"@!H("
rchsv3:
016207:  317240015011  camg     b, bbase        ;"9Z@!H)"
016210:  254000016221  jrst     rchsv2          ;"5@ !R1"
016211:  554205777777  hlrz     a, maccr(b)     ;"MB%___"
016212:  270205777777  add      a, maccr(b)     ;"7"%___"
016213:  201204000001  movei    a, dschna(a)    ;"0*$  !"
016214:  312200015024  came     a, freept       ;"92 !H4"
016215:  254000016221  jrst     rchsv2          ;"5@ !R1"
016216:  550205777777  hrrz     a, maccr(b)     ;"M"%___"
016217:  202200015024  movem    a, freept       ;"02 !H4"
016220:  364240016207  soja     b, rchsv3       ;">B@!R'"
rchsv2:
016221:  262040000004  pop      p, a            ;"60@  $"
rchsav:
016222:  200240015011  move     b, bbase        ;"0"@!H)"
016223:  202240015010  movem    b, topp         ;"02@!H("
016224:  260040016121  pushj    p, popem        ;"6 @!Q1"
016225:  546240015011  hlrm     b, bbase        ;"LR@!H)"
rept6:
016226:  622000000200  trze     ff, mrsw        ;"R0  " "
016227:  263040000000  popj     p,              ;"68@   " ",b\0\0\0"
016230:  262040000005  pop      p, b            ;"60@  %"
016231:  254000016145  jrst     arch            ;"5@ !QE"
redinc:
016232:  200640000004  move     ch1, a          ;"0&@  $"
016233:  231640000004  idivi    ch1, a          ;"3.@  $"
016234:  135256015012  ldb      b, ptab(ch2)    ;"+JN!H*"
016235:  344200023742  aoja     a, cpopj        ;"<B "?B"
rdwrda:
016236:  260040016344  pushj    p, addtr1       ;"6 @!SD"
016237:  260040016145  pushj    p, arch         ;"6 @!QE"
016240:  603540002000  tlne     link, alnscn    ;"P=@ 0 "
016241:  254000016246  jrst     rdwr3           ;"5@ !RF"
016242:  306200000133  cain     a, 133          ;"8R  !;"
016243:  254000016374  jrst     rdwr1           ;"5@ !S\"
016244:  306200000134  cain     a, 134          ;"8R  !<"
016245:  325540016353  jumpge   link, rdwr6     ;":M@!SK"
rdwr3:
016246:  302200000015  caie     a, ch1          ;"82   -"
016247:  306200000012  cain     a, sym          ;"8R   *"
016250:  254000016265  jrst     rdwr2c          ;"5@ !RU"
016251:  306200000073  cain     a, 73           ;"8R   ["
016252:  325540016260  jumpge   link, rdwr2d    ;":M@!RP"
rept5:
016253:  306200000054  cain     a, 54           ;"8R   L"
016254:  325540016266  jumpge   link, rdwr2     ;":M@!RV"
rdwr5:
016255:  260040016275  pushj    p, putrel       ;"6 @!R]"
016256:  260040016145  pushj    p, arch         ;"6 @!QE"
016257:  254000016246  jrst     rdwr3           ;"5@ !RF"
rdwr2d:
016260:  661100002000  tlo      i, alnscn       ;"V)  0 "
016261:  254000016265  jrst     rdwr2c          ;"5@ !RU"
rdwr7:
016262:  200200014742  move     a, limbo1       ;"0" !GB"
016263:  302200000015  caie     a, ch1          ;"82   -"
016264:  306200000012  cain     a, sym          ;"8R   *"
rdwr2c:
016265:  661540000200  tlo      link, mrsw      ;"V-@ " "
rdwr2:
016266:  200400000004  move     t, a            ;"0$   $"
016267:  603540004000  tlne     link, mwrd      ;"P=@ @ "
016270:  263040000000  popj     p,              ;"68@   " ",b\0\0\0"
rdwr2a:
016271:  504200015067  hrl      a, putcnt       ;"HB !HW"
016272:  540200015031  hrr      a, rdwrdp       ;"L" !H9"
016273:  502204777777  hllm     a, maccr(a)     ;"H2$___"
stpwr:
016274:  201200000375  movei    a, 375          ;"0*  #]"
putrel:
016275:  200640015024  move     ch1, freept     ;"0&@!H4"
016276:  231640000004  idivi    ch1, a          ;"3.@  $"
016277:  137216015012  dpb      a, ptab(ch2)    ;"+Z.!H*"
016300:  350200015024  aos      a, freept       ;"=" !H4"
016301:  350000015067  aos      putcnt          ;"=  !HW"
016302:  305200177770  caige    a, 177770       ;"8J /_X"
016303:  263040000000  popj     p,              ;"68@   " ",b\0\0\0"
016304:  202200015072  movem    a, gchi         ;"02 !HZ"
gc:
016305:  202740345606  movem    tm, 345606      ;"07@<N&"
016306:  200740025030  move     tm, 25030       ;"0'@"H8"
016307:  251740345605  blt      tm, 345605      ;"5/@<N%"
016310:  403400015062  setzb    t, gcendf       ;"@< !HR"
016311:  201200000003  movei    a, aa           ;"0*   #"
016312:  202200015056  movem    a, redpt        ;"02 !HN"
016313:  202200015024  movem    a, freept       ;"02 !H4"
016314:  476000015030  setom    cptrb           ;"GP !H8"
016315:  200200025031  move     a, 25031        ;"0" "H9"
016316:  202200015064  movem    a, freptb       ;"02 !HT"
016317:  202200015063  movem    a, redptb       ;"02 !HS"
symmg:
016320:  205200714020  movsi    a, 714020       ;"0J Y@0"
016321:  135240025032  ldb      b, 25032        ;"+J@"H:"
016322:  306240000001  cain     b, p            ;"8R@  !"
016323:  254000016422  jrst     symmg1          ;"5@ !T2"
symmg2:
016324:  350000000004  aos      a               ;"=    $"
016325:  253200016321  aobjn    a, 16321        ;"5: !S1"
016326:  202400015055  movem    t, symstr       ;"04 !HM"
mstg:
016327:  200300015056  move     c, redpt        ;"0# !HN"
016330:  200440015024  move     tt, freept      ;"0$@!H4"
016331:  202440015061  movem    tt, frepts      ;"04@!HQ"
016332:  200440015064  move     tt, freptb      ;"0$@!HT"
016333:  202440015065  movem    tt, frptbs      ;"04@!HU"
016334:  260040016413  pushj    p, rdtrns       ;"6 @!T+"
016335:  200440000005  move     tt, b           ;"0$@  %"
mstg1:
016336:  311540015072  caml     link, gchi      ;"9-@!HZ"
016337:  254000016430  jrst     gcend           ;"5@ !T8"
016340:  306240000375  cain     b, 375          ;"8R@ #]"
016341:  254000016431  jrst     mstg2           ;"5@ !T9"
mstg1b:
016342:  260040016413  pushj    p, rdtrns       ;"6 @!T+"
016343:  254000016336  jrst     mstg1           ;"5@ !S>"
addtr1:
016344:  402000015067  setzm    putcnt          ;"@0 !HW"
addtrn:
016345:  200200015024  move     a, freept       ;"0" !H4"
addtr2:
016346:  202220015031  movem    a, @rdwrdp      ;"020!H9"
016347:  350200015031  aos      a, rdwrdp       ;"=" !H9"
016350:  301200336571  cail     a, dmyagt       ;"8* ;UY"
016351:  000000645541                           ;"   TMA"
crdwr7:
016352:  263040016262  popj     p, rdwr7        ;"68@!RR"
rdwr6:
016353:  370000015031  sos      rdwrdp          ;"?  !H9"
016354:  261040000013  push     p, link         ;"6(@  +"
016355:  260040017237  pushj    p, agetfd       ;"6 @!Z?"
016356:  001000656355                           ;" ( USM"
016357:  262040000013  pop      p, link         ;"60@  +"
016360:  200640000004  move     ch1, a          ;"0&@  $"
016361:  260040016344  pushj    p, addtr1       ;"6 @!SD"
016362:  261040016352  push     p, crdwr7       ;"6(@!SJ"
rdwr6a:
016363:  246640777735  lshc     ch1, 777735     ;"4V@__="
016364:  242700777777  lsh      ch2, maccr      ;"47 ___"
016365:  234640015553  div      ch1, aradix     ;"3F@!MK"
016366:  506701000000  hrlm     ch2, (p)        ;"HW!   "
016367:  322640016371  jumpe    ch1, 16371      ;":6@!SY"
016370:  260040016363  pushj    p, rdwr6a       ;"6 @!SS"
016371:  554201000000  hlrz     a, (p)          ;"MB!   "
016372:  271200000060  addi     a, 60           ;"7*   P"
016373:  254000016275  jrst     putrel          ;"5@ !R]"
rdwr1:
016374:  634300000006  tdza     c, c            ;"SC   &"
rdwr1a:
016375:  260040016275  pushj    p, putrel       ;"6 @!R]"
016376:  260040017372  pushj    p, rchcnt       ;"6 @![Z"
016377:  254000016375  jrst     rdwr1a          ;"5@ !S]"
016400:  603540004000  tlne     link, mwrd      ;"P=@ @ "
016401:  254000016266  jrst     rdwr2           ;"5@ !RV"
rdwr2b:
016402:  260040016145  pushj    p, arch         ;"6 @!QE"
016403:  661100002000  tlo      i, alnscn       ;"V)  0 "
016404:  302200000015  caie     a, ch1          ;"82   -"
016405:  306200000012  cain     a, sym          ;"8R   *"
016406:  661540010200  tlo      link, 10200     ;"V-@!" "
016407:  254000016266  jrst     rdwr2           ;"5@ !RV"
put1:
016410:  231640000004  idivi    ch1, a          ;"3.@  $"
016411:  137216015012  dpb      a, ptab(ch2)    ;"+Z.!H*"
016412:  263040000000  popj     p,              ;"68@   " ",b\0\0\0"
rdtrns:
016413:  134240015063  ildb     b, redptb       ;"+B@!HS"
016414:  136240015064  idpb     b, freptb       ;"+R@!HT"
016415:  350540015056  aos      link, redpt     ;"=%@!HN"
016416:  350200015024  aos      a, freept       ;"=" !H4"
016417:  303200177760  caile    a, 177760       ;"8: /_P"
016420:  000000554345                           ;"   MCE"
016421:  263040000000  popj     p,              ;"68@   " ",b\0\0\0"
symmg1:
016422:  550244073111  hrrz     b, 73111(a)     ;"M"D'9)"
016423:  302240016527  caie     b, maccl        ;"82@!U7"
016424:  254000016324  jrst     symmg2          ;"5@ !S4"
016425:  542404073111  hrrm     t, 73111(a)     ;"L4$'9)"
016426:  201404073111  movei    t, 73111(a)     ;"0,$'9)"
016427:  254000016324  jrst     symmg2          ;"5@ !S4"
gcend:
016430:  476000015062  setom    gcendf          ;"GP !HR"
mstg2:
016431:  402000015060  setzm    svf             ;"@0 !HP"
016432:  200340015056  move     d, redpt        ;"0#@!HN"
016433:  274340015024  sub      d, freept       ;"7C@!H4"
016434:  202340015057  movem    d, cofst        ;"03@!HO"
016435:  200240015056  move     b, redpt        ;"0"@!HN"
016436:  302440000374  caie     tt, 374         ;"84@ #\"
016437:  254000016453  jrst     mstg3           ;"5@ !TK"
016440:  200400015055  move     t, symstr       ;"0$ !HM"
016441:  322400016453  jumpe    t, mstg3        ;":4 !TK"
mstg5:
016442:  554450000000  hlrz     tt, (t)         ;"MDH   "
016443:  311440000006  caml     tt, c           ;"9,@  &"
016444:  311440000005  caml     tt, b           ;"9,@  %"
016445:  254000016451  jrst     mstg4           ;"5@ !TI"
016446:  476000015060  setom    svf             ;"GP !HP"
016447:  274440015057  sub      tt, cofst       ;"7D@!HO"
016450:  506450000000  hrlm     tt, (t)         ;"HTH   " "QR@\0\0"
mstg4:
016451:  550410000000  hrrz     t, (t)          ;"M$(   "
016452:  326400016442  jumpn    t, mstg5        ;":T !TB"
mstg3:
016453:  200400015010  move     t, topp         ;"0$ !H("
016454:  201640336571  movei    ch1, dmyagt     ;"0.@;UY"
016455:  260040016513  pushj    p, mscn         ;"6 @!U+"
016456:  550400015023  hrrz     t, macp         ;"M$ !H3"
016457:  561640342571  hrroi    ch1, toppp      ;"N.@<5Y"
016460:  260040016513  pushj    p, mscn         ;"6 @!U+"
016461:  550400015035  hrrz     t, prcalp       ;"M$ !H="
016462:  350000000010  aos      t               ;"=    ("
016463:  201640015037  movei    ch1, prstg      ;"0.@!H?"
016464:  260040016513  pushj    p, mscn         ;"6 @!U+"
016465:  550400015031  hrrz     t, rdwrdp       ;"M$ !H9"
016466:  201640336171  movei    ch1, dstg       ;"0.@;QY"
016467:  260040016513  pushj    p, mscn         ;"6 @!U+"
mstg13:
016470:  335000015062  skipge   gcendf          ;";H !HR"
016471:  254000016501  jrst     gcend1          ;"5@ !U!"
016472:  200440015061  move     tt, frepts      ;"0$@!HQ"
016473:  331000015060  skipl    svf             ;";( !HP"
016474:  202440015024  movem    tt, freept      ;"04@!H4"
016475:  200440015065  move     tt, frptbs      ;"0$@!HU"
016476:  331000015060  skipl    svf             ;";( !HP"
016477:  202440015064  movem    tt, freptb      ;"04@!HT"
016500:  254000016327  jrst     mstg            ;"5@ !S7"
gcend1:
016501:  200400015055  move     t, symstr       ;"0$ !HM"
016502:  201200016527  movei    a, maccl        ;"0* !U7"
016503:  322400016510  jumpe    t, usymg1       ;":4 !U("
016504:  550450000000  hrrz     tt, (t)         ;"M$H   "
016505:  542210000000  hrrm     a, (t)          ;"L2(   " "XH@\0\0"
016506:  200400000011  move     t, tt           ;"0$   )"
016507:  254000016503  jrst     16503           ;"5@ !U#"
usymg1:
016510:  204740025030  movs     tm, 25030       ;"0G@"H8"
016511:  251740000017  blt      tm, tm          ;"5/@  /"
016512:  263040000000  popj     p,              ;"68@   " ",b\0\0\0"
mscn:
016513:  307415000000  caig     t, (ch1)        ;"8\-   " "1ph\0\0"
016514:  263040000000  popj     p,              ;"68@   " ",b\0\0\0"
016515:  550450777777  hrrz     tt, maccr(t)    ;"M$H___"
016516:  311440000006  caml     tt, c           ;"9,@  &"
016517:  311440000005  caml     tt, b           ;"9,@  %"
016520:  254000016524  jrst     mscn1           ;"5@ !U4"
016521:  274440015057  sub      tt, cofst       ;"7D@!HO"
016522:  542450777777  hrrm     tt, maccr(t)    ;"L4H___"
016523:  476000015060  setom    svf             ;"GP !HP"
mscn1:
016524:  335000000015  skipge   ch1             ;";H   -"
016525:  370000000010  sos      t               ;"?    ("
016526:  364400016513  soja     t, mscn         ;">D !U+"
maccl:
016527:  205740777764  movsi    tm, 777764      ;"0O@__T"
016530:  261057000002  push     p, tpchn(tm)    ;"6(O  ""
016531:  253740016530  aobjn    tm, 16530       ;"5?@!U8"
016532:  350000015035  aos      prcalp          ;"=  !H="
016533:  350000015066  aos      mdepth          ;"=  !HV"
016534:  261040015031  push     p, rdwrdp       ;"6(@!H9"
016535:  201540000000  movei    link, ff        ;"0-@   " " 6\0\0\0"
016536:  554200000005  hlrz     a, b            ;"MB   %"
016537:  260040016232  pushj    p, redinc       ;"6 @!R:"
016540:  302240000374  caie     b, 374          ;"82@ #\"
016541:  000000514145                           ;"   IAE"
016542:  260040016232  pushj    p, redinc       ;"6 @!R:"
016543:  336000000005  skipn    b               ;";P   %"
016544:  661100002000  tlo      i, alnscn       ;"V)  0 "
016545:  202220015035  movem    a, @prcalp      ;"020!H="
016546:  200200014742  move     a, limbo1       ;"0" !GB"
016547:  302200000015  caie     a, ch1          ;"82   -"
016550:  306200000012  cain     a, sym          ;"8R   *"
016551:  254000016620  jrst     mac2a           ;"5@ !V0"
016552:  322240016565  jumpe    b, mac4         ;":2@!UU"
016553:  622240000200  trze     b, mrsw         ;"R2@ " "
016554:  661540001000  tlo      link, nprc      ;"V-@ ( "
mac3:
016555:  261040000005  push     p, b            ;"6(@  %"
016556:  603540001000  tlne     link, nprc      ;"P=@ ( "
016557:  362240016626  soje     b, mac3a        ;">2@!V6"
mac3b:
016560:  260040016236  pushj    p, rdwrda       ;"6 @!R>"
016561:  262040000005  pop      p, b            ;"60@  %"
016562:  603540000200  tlne     link, mrsw      ;"P=@ " "
016563:  364240016622  soja     b, mac2         ;">B@!V2"
016564:  367240016555  sojg     b, mac3         ;">Z@!UM"
mac4:
016565:  200220015035  move     a, @prcalp      ;"0"0!H="
mac1:
016566:  260040016232  pushj    p, redinc       ;"6 @!R:"
016567:  202220015035  movem    a, @prcalp      ;"020!H="
016570:  322240016600  jumpe    b, mac1a        ;":2@!V "
mac5:
016571:  261040000005  push     p, b            ;"6(@  %"
016572:  603540000200  tlne     link, mrsw      ;"P=@ " "
016573:  260040016630  pushj    p, gensym       ;"6 @!V8"
016574:  607540000200  tlnn     link, mrsw      ;"P]@ " "
016575:  260040016236  pushj    p, rdwrda       ;"6 @!R>"
016576:  262040000005  pop      p, b            ;"60@  %"
016577:  367240016571  sojg     b, mac5         ;">Z@!UY"
mac1a:
016600:  201240016204  movei    b, rchsv1       ;"0*@!R$"
016601:  260040016102  pushj    p, pushem       ;"6 @!Q""
016602:  200220015035  move     a, @prcalp      ;"0"0!H="
016603:  202200015044  movem    a, cptr         ;"02 !HD"
016604:  262040000004  pop      p, a            ;"60@  $"
016605:  260040016646  pushj    p, dmytrn       ;"6 @!VF"
016606:  370000015035  sos      prcalp          ;"?  !H="
macc2:
016607:  205741777765  movsi    tm, 777765(p)   ;"0OA__U"
016610:  541740000002  hrri     tm, i           ;"L/@  ""
016611:  251740000015  blt      tm, ch1         ;"5/@  -"
macc1:
016612:  274040025033  sub      p, 25033        ;"7@@"H;"
maccr:
016613:  262040000004  pop      p, a            ;"60@  $"
016614:  553000000004  hrrzs    ff, a           ;"M8   $"
016615:  302200015147  caie     a, getfd6       ;"82 !IG"
016616:  000000514145                           ;"   IAE"
016617:  254000015142  jrst     getfd1          ;"5@ !IB"
mac2a:
016620:  661540000200  tlo      link, mrsw      ;"V-@ " "
016621:  620240000200  trz      b, mrsw         ;"R"@ " "
mac2:
016622:  361240016565  sojl     b, mac4         ;">*@!UU"
016623:  201200000000  movei    a, ff           ;"0*    " " (\0\0\0"
016624:  260040016346  pushj    p, addtr2       ;"6 @!SF"
016625:  254000016622  jrst     mac2            ;"5@ !V2"
mac3a:
016626:  661540402000  tlo      link, 402000    ;"V-@@0 "
016627:  254000016560  jrst     mac3b           ;"5@ !UP"
gensym:
016630:  260040016344  pushj    p, addtr1       ;"6 @!SD"
016631:  201200000005  movei    a, b            ;"0*   %"
016632:  202200014741  movem    a, scksum       ;"02 !GA"
016633:  201200000107  movei    a, 107          ;"0*  !'"
016634:  260040016275  pushj    p, putrel       ;"6 @!R]"
016635:  261040025034  push     p, 25034        ;"6(@"H<"
016636:  350200015025  aos      a, gensm        ;"=" !H5"
016637:  231200000010  idivi    a, t            ;"3*   ("
016640:  506241000000  hrlm     b, (p)          ;"HRA   "
016641:  373000014741  sosle    scksum          ;"?8 !GA"
016642:  260040016637  pushj    p, 16637        ;"6 @!V?"
016643:  554201000000  hlrz     a, (p)          ;"MB!   "
016644:  271200000060  addi     a, 60           ;"7*   P"
016645:  254000016275  jrst     putrel          ;"5@ !R]"
dmytrn:
016646:  200240015010  move     b, topp         ;"0"@!H("
016647:  202240015011  movem    b, bbase        ;"02@!H)"
016650:  261040000004  push     p, a            ;"6(@  $"
dmytr2:
016651:  311200015031  caml     a, rdwrdp       ;"9* !H9"
016652:  254000016661  jrst     dmytr1          ;"5@ !VQ"
016653:  200244000000  move     b, (a)          ;"0"D   " " \n \0\0"
016654:  202260015010  movem    b, @topp        ;"02P!H("
016655:  350240015010  aos      b, topp         ;"="@!H("
016656:  301240342571  cail     b, toppp        ;"8*@<5Y"
016657:  000000645544                           ;"   TMD"
016660:  344200016651  aoja     a, dmytr2       ;"<B !VI"
dmytr1:
016661:  262040015031  pop      p, rdwrdp       ;"60@!H9"
016662:  263040000000  popj     p,              ;"68@   " ",b\0\0\0"
a.gsyl:
016663:  211340100000  movni    d, hfwdf        ;"1+@(  "
016664:  202340015026  movem    d, strcnt       ;"03@!H6"
016665:  634500000012  tdza     sym, sym        ;"SE   *"
gsyl:
016666:  403500015026  setzb    sym, strcnt     ;"@= !H6"
016667:  201340000006  movei    d, c            ;"0+@  &"
016670:  200400025035  move     t, 25035        ;"0$ "H="
016671:  202400015027  movem    t, strpnt       ;"04 !H7"
gsyl3:
016672:  357200015026  aosg     a, strcnt       ;"=Z !H6"
016673:  254000016707  jrst     gsyl2           ;"5@ !W'"
016674:  260040016145  pushj    p, arch         ;"6 @!QE"
016675:  136200015027  idpb     a, strpnt       ;"+R !H7"
gsyl2a:
016676:  306200000056  cain     a, 56           ;"8R   N"
016677:  254000016722  jrst     gsyl1c          ;"5@ !W2"
016700:  554644025202  hlrz     ch1, gdtab(a)   ;"MFD"J""
016701:  306640265700  cain     ch1, 265700     ;"8V@6O "
016702:  254000016724  jrst     gsyl1a          ;"5@ !W4"
016703:  260040016716  pushj    p, gsyl1b       ;"6 @!W."
016704:  550204025202  hrrz     a, gdtab(a)     ;"M"$"J""
016705:  200400014742  move     t, limbo1       ;"0$ !GB"
c%:
016706:  263040000045  popj     p, 45           ;"68@  E"
gsyl2:
016707:  134200024604  ildb     a, a.gst3       ;"+B "F$"
016710:  626200000200  trzn     a, mrsw         ;"RR  " "
016711:  254000016676  jrst     gsyl2a          ;"5@ !V^"
016712:  307200000100  caig     a, foo          ;"8Z  ! "
016713:  254000016707  jrst     gsyl2           ;"5@ !W'"
016714:  561404000000  hrroi    t, (a)          ;"N,$   " "\\0 \0\0"
016715:  263040000000  popj     p,              ;"68@   " ",b\0\0\0"
gsyl1b:
016716:  256004025202  xct      gdtab(a)        ;"5P$"J"" "+@ *A"
016717:  274040025036  sub      p, 25036        ;"7@@"H>"
gsyl1d:
016720:  365340016672  sojge    d, gsyl3        ;">K@!VZ"
016721:  344340016672  aoja     d, gsyl3        ;"<C@!VZ"
gsyl1c:
016722:  270507026014  add      sym, %.sq(d)    ;"7%'"P,"
016723:  254000016720  jrst     gsyl1d          ;"5@ !W0"
gsyl1a:
016724:  256004015746  xct      15746(a)        ;"5P$!OF" "+@ \033s"
016725:  254000016720  jrst     gsyl1d          ;"5@ !W0"
strtyp:
016726:  260040016232  pushj    p, redinc       ;"6 @!R:"
016727:  250200000005  exch     a, b            ;"5"   %"
016730:  622200000200  trze     a, mrsw         ;"R2  " "
016731:  254000016735  jrst     strtp1          ;"5@ !W="
strtp2:
016732:  260040000610  pushj    p, tyo          ;"6 @ &("
016733:  200200000005  move     a, b            ;"0"   %"
016734:  254000016726  jrst     strtyp          ;"5@ !W6"
strtp1:
016735:  261040000004  push     p, a            ;"6(@  $"
016736:  201200000052  movei    a, 52           ;"0*   J"
016737:  260040000610  pushj    p, tyo          ;"6 @ &("
016740:  262040000004  pop      p, a            ;"60@  $"
016741:  602200000100  trne     a, foo          ;"P2  ! "
016742:  254000016745  jrst     strtp3          ;"5@ !WE"
016743:  271200000260  addi     a, 260          ;"7*  "P"
016744:  254000016732  jrst     strtp2          ;"5@ !W:"
strtp3:
016745:  306200000175  cain     a, 175          ;"8R  !]"
016746:  334200016706  skipa    a, c%           ;";B !W&"
016747:  201200000057  movei    a, 57           ;"0*   O"
016750:  254000016732  jrst     strtp2          ;"5@ !W:"
wrtss:
016751:  200400025035  move     t, 25035        ;"0$ "H="
016752:  200240015026  move     b, strcnt       ;"0"@!H6"
016753:  361240023742  sojl     b, cpopj        ;">*@"?B"
016754:  134200000010  ildb     a, t            ;"+B   ("
016755:  260040016275  pushj    p, putrel       ;"6 @!R]"
016756:  254000016753  jrst     16753           ;"5@ !WK"
adefin:
016757:  201200336151  movei    a, dmydef       ;"0* ;QI"
016760:  202200015036  movem    a, dmytop       ;"02 !H>"
016761:  260040015410  pushj    p, getsyl       ;"6 @!L("
016762:  322500016761  jumpe    sym, 16761      ;":5 !WQ"
016763:  202500015033  movem    sym, macnm      ;"05 !H;"
016764:  200200015024  move     a, freept       ;"0" !H4"
016765:  202200015043  movem    a, prdef        ;"02 !HC"
016766:  403540000005  setzb    link, b         ;"@=@  %"
016767:  201200000374  movei    a, 374          ;"0*  #\"
016770:  260040016275  pushj    p, putrel       ;"6 @!R]"
016771:  200400014742  move     t, limbo1       ;"0$ !GB"
defnc:
016772:  302400000012  caie     t, sym          ;"84   *"
016773:  306400000015  cain     t, ch1          ;"8T   -"
016774:  254000017012  jrst     defna           ;"5@ !X*"
016775:  306400000134  cain     t, 134          ;"8T  !<"
016776:  254000017005  jrst     defnb           ;"5@ !X%"
016777:  306400000057  cain     t, 57           ;"8T   O"
017000:  254000017004  jrst     defne           ;"5@ !X$"
defnd:
017001:  260040017036  pushj    p, pdef         ;"6 @!X>"
017002:  322500016772  jumpe    sym, defnc      ;":5 !WZ"
017003:  344240016772  aoja     b, defnc        ;"<B@!WZ"
defne:
017004:  660240000200  tro      b, mrsw         ;"V"@ " "
defnb:
017005:  200200000005  move     a, b            ;"0"   %"
017006:  260040016275  pushj    p, putrel       ;"6 @!R]"
017007:  201240000000  movei    b, ff           ;"0*@   " " *\0\0\0"
017010:  660540000400  tro      link, disize    ;"V%@ $ "
017011:  254000017001  jrst     defnd           ;"5@ !X!"
defna:
017012:  200200000005  move     a, b            ;"0"   %"
017013:  260040016275  pushj    p, putrel       ;"6 @!R]"
017014:  201200000000  movei    a, ff           ;"0*    " " (\0\0\0"
017015:  606540000400  trnn     link, disize    ;"PU@ $ "
017016:  260040016275  pushj    p, putrel       ;"6 @!R]"
017017:  260040016145  pushj    p, arch         ;"6 @!QE"
017020:  302200000012  caie     a, sym          ;"82   *"
017021:  661100002000  tlo      i, alnscn       ;"V)  0 "
017022:  260040017046  pushj    p, wrqote       ;"6 @!XF"
017023:  260040016274  pushj    p, stpwr        ;"6 @!R\"
017024:  200500015033  move     sym, macnm      ;"0% !H;"
017025:  260040021750  pushj    p, es           ;"6 @"/H"
017026:  255000000000  nop                      ;"5H    " "+ \0\0\0"
017027:  201240016527  movei    b, maccl        ;"0*@!U7"
017030:  504240015043  hrl      b, prdef        ;"HB@!HC"
017031:  402000015043  setzm    prdef           ;"@0 !HC"
017032:  205300000077  movsi    c, 77           ;"0K   _"
017033:  205400040000  movsi    t, vot          ;"0L $  "
017034:  260040022042  pushj    p, vsm2         ;"6 @"0B"
017035:  254000021103  jrst     a.qote          ;"5@ ")#"
pdef:
017036:  260040016666  pushj    p, gsyl         ;"6 @!VV"
017037:  302400000054  caie     t, 54           ;"84   L"
017040:  322500023742  jumpe    sym, cpopj      ;":5 "?B"
017041:  202520015036  movem    sym, @dmytop    ;"050!H>"
017042:  350200015036  aos      a, dmytop       ;"=" !H>"
017043:  301200336171  cail     a, dstg         ;"8* ;QY"
017044:  000000645544                           ;"   TMD"
017045:  263040000000  popj     p,              ;"68@   " ",b\0\0\0"
wrqote:
017046:  402000015034  setzm    dcnt            ;"@0 !H<"
017047:  260040016666  pushj    p, gsyl         ;"6 @!VV"
017050:  260040021750  pushj    p, es           ;"6 @"/H"
017051:  201200000000  movei    a, ff           ;"0*    " " (\0\0\0"
017052:  200440000004  move     tt, a           ;"0$@  $"
017053:  302200000001  caie     a, p            ;"82   !"
017054:  254000017060  jrst     wrqot4          ;"5@ !XP"
017055:  553000000005  hrrzs    ff, b           ;"M8   %"
017056:  306240021103  cain     b, a.qote       ;"8R@")#"
017057:  254000017121  jrst     a.qot1          ;"5@ !Y1"
wrqot4:
017060:  322500017117  jumpe    sym, wrqot1     ;":5 !Y/"
017061:  201200336151  movei    a, dmydef       ;"0* ;QI"
017062:  311200015036  caml     a, dmytop       ;"9* !H>"
017063:  254000017106  jrst     wrqot2          ;"5@ !Y&"
017064:  312504000000  came     sym, (a)        ;"95$   " "2T \0\0"
017065:  344200017062  aoja     a, 17062        ;"<B !XR"
017066:  275200336151  subi     a, dmydef       ;"7J ;QI"
017067:  261040000004  push     p, a            ;"6(@  $"
017070:  200200015024  move     a, freept       ;"0" !H4"
017071:  370000000004  sos      a               ;"?    $"
017072:  260040016232  pushj    p, redinc       ;"6 @!R:"
017073:  302240000041  caie     b, zz           ;"82@  A"
017074:  254000017077  jrst     wrqot5          ;"5@ !X_"
017075:  370000015024  sos      freept          ;"?  !H4"
017076:  370000015067  sos      putcnt          ;"?  !HW"
wrqot5:
017077:  262040000004  pop      p, a            ;"60@  $"
017100:  660200000200  tro      a, mrsw         ;"V"  " "
017101:  260040016275  pushj    p, putrel       ;"6 @!R]"
017102:  200200000010  move     a, t            ;"0"   ("
017103:  302200000041  caie     a, zz           ;"82   A"
017104:  260040016275  pushj    p, putrel       ;"6 @!R]"
017105:  254000017047  jrst     17047           ;"5@ !XG"
wrqot2:
017106:  302440000001  caie     tt, p           ;"84@  !"
017107:  254000017117  jrst     wrqot1          ;"5@ !Y/"
017110:  302240016757  caie     b, adefin       ;"82@!WO"
017111:  306240017400  cain     b, airp         ;"8R@!\ "
017112:  350000015034  aos      dcnt            ;"=  !H<"
017113:  306240021324  cain     b, atermi       ;"8R@"+4"
017114:  371000015034  sosl     dcnt            ;"?( !H<"
017115:  254000017117  jrst     wrqot1          ;"5@ !Y/"
017116:  263040000000  popj     p,              ;"68@   " ",b\0\0\0"
wrqot1:
017117:  260040016751  pushj    p, wrtss        ;"6 @!WI"
017120:  254000017047  jrst     17047           ;"5@ !XG"
a.qot1:
017121:  200200014742  move     a, limbo1       ;"0" !GB"
017122:  306200000040  cain     a, tpchna       ;"8R   @"
017123:  260040016145  pushj    p, arch         ;"6 @!QE"
017124:  202200015073  movem    a, a.qot2       ;"02 !H["
a.qot3:
017125:  260040016145  pushj    p, arch         ;"6 @!QE"
017126:  316200015073  camn     a, a.qot2       ;"9R !H["
017127:  254000017047  jrst     17047           ;"5@ !XG"
017130:  260040016275  pushj    p, putrel       ;"6 @!R]"
017131:  254000017125  jrst     a.qot3          ;"5@ !Y5"
arepea:
017132:  200200015024  move     a, freept       ;"0" !H4"
017133:  202200015041  movem    a, prrept       ;"02 !HA"
017134:  201200000373  movei    a, 373          ;"0*  #["
017135:  260040016275  pushj    p, putrel       ;"6 @!R]"
017136:  260040017237  pushj    p, agetfd       ;"6 @!Z?"
017137:  001000656362                           ;" ( USR"
017140:  335000000004  skipge   a               ;";H   $"
017141:  201200000000  movei    a, ff           ;"0*    " " (\0\0\0"
017142:  261040000004  push     p, a            ;"6(@  $"
017143:  205540404000  movsi    link, 404000    ;"0M@@@ "
017144:  260040016237  pushj    p, 16237        ;"6 @!R?"
017145:  201200000015  movei    a, ch1          ;"0*   -"
017146:  302400000135  caie     t, 135          ;"84  !="
017147:  260040016275  pushj    p, putrel       ;"6 @!R]"
017150:  260040016274  pushj    p, stpwr        ;"6 @!R\"
017151:  262040000005  pop      p, b            ;"60@  %"
017152:  260040016102  pushj    p, pushem       ;"6 @!Q""
017153:  201240017171  movei    b, rept1        ;"0*@!YY"
017154:  260040016102  pushj    p, pushem       ;"6 @!Q""
017155:  200200015041  move     a, prrept       ;"0" !HA"
017156:  402000015041  setzm    prrept          ;"@0 !HA"
017157:  200240015023  move     b, macp         ;"0"@!H3"
017160:  542205777777  hrrm     a, maccr(b)     ;"L2%___"
017161:  550200015075  hrrz     a, crptct       ;"M" !H]"
017162:  506205777777  hrlm     a, maccr(b)     ;"HR%___"
017163:  476000015075  setom    crptct          ;"GP !H]"
017164:  402000015044  setzm    cptr            ;"@0 !HD"
017165:  254000016613  jrst     maccr           ;"5@ !V+"
a.irpc:
017166:  334200015076  skipa    a, cirpct       ;";B !H^"
a.rpcn:
017167:  200200015075  move     a, crptct       ;"0" !H]"
017170:  254000023741  jrst     clbpop          ;"5@ "?A"
rept1:
017171:  261040000004  push     p, a            ;"6(@  $"
017172:  261040000006  push     p, c            ;"6(@  &"
017173:  550205000000  hrrz     a, (b)          ;"M"%   "
017174:  202200017222  movem    a, repttm       ;"02 !Z2"
017175:  260040016232  pushj    p, redinc       ;"6 @!R:"
017176:  302240000373  caie     b, 373          ;"82@ #["
017177:  000000514145                           ;"   IAE"
017200:  550300015023  hrrz     c, macp         ;"M# !H3"
017201:  550246777776  hrrz     b, 777776(c)    ;"M"F__^"
017202:  361240017223  sojl     b, rept2        ;">*@!Z3"
017203:  350000015075  aos      crptct          ;"=  !H]"
017204:  202200015044  movem    a, cptr         ;"02 !HD"
017205:  476000015030  setom    cptrb           ;"GP !H8"
017206:  542246777776  hrrm     b, 777776(c)    ;"L2F__^"
rept3:
017207:  262040000006  pop      p, c            ;"60@  &"
017210:  262040000004  pop      p, a            ;"60@  $"
017211:  254000016226  jrst     rept6           ;"5@ !R6"
a.stop:
017212:  550200015023  hrrz     a, macp         ;"M" !H3"
017213:  321240017217  jumpl    b, a.stp1       ;":*@!Z/"
017214:  550244000000  hrrz     b, (a)          ;"M"D   " "Z\n \0\0"
017215:  306240017470  cain     b, airp4        ;"8R@!\X"
017216:  553004777777  hrrzs    ff, maccr(a)    ;"M8$___"
a.stp1:
017217:  402000015044  setzm    cptr            ;"@0 !HD"
017220:  476000015030  setom    cptrb           ;"GP !H8"
017221:  254000021103  jrst     a.qote          ;"5@ ")#"
repttm:
017222:  000000000000                           ;"      "
rept2:
017223:  200240017222  move     b, repttm       ;"0"@!Z2"
017224:  200200015044  move     a, cptr         ;"0" !HD"
017225:  331000015075  skipl    crptct          ;";( !H]"
017226:  316200015024  camn     a, freept       ;"9R !H4"
017227:  202240015024  movem    b, freept       ;"02@!H4"
017230:  200200025037  move     a, 25037        ;"0" "H?"
017231:  273200015023  addb     a, macp         ;"7: !H3"
017232:  554204000001  hlrz     a, dschna(a)    ;"MB$  !"
017233:  202200015075  movem    a, crptct       ;"02 !H]"
rept4:
017234:  260040016121  pushj    p, popem        ;"6 @!Q1"
017235:  254000017207  jrst     rept3           ;"5@ !Z'"
bgetfd:
017236:  476000014716  setom    fldcnt          ;"GP !G."
agetfd:
017237:  200661000000  move     ch1, @(p)       ;"0&Q   "
017240:  202640021701  movem    ch1, gtver      ;"06@"/!"
017241:  261040000002  push     p, i            ;"6(@  ""
017242:  660100004000  tro      i, mwrd         ;"V!  @ "
agtfd3:
017243:  260040015132  pushj    p, getfld       ;"6 @!I:"
017244:  200640014742  move     ch1, limbo1     ;"0&@!GB"
017245:  302640000012  caie     ch1, sym        ;"86@  *"
017246:  306640000015  cain     ch1, ch1        ;"8V@  -"
017247:  254000017252  jrst     17252           ;"5@ !ZJ"
017250:  606100000001  trnn     i, p            ;"PQ   !"
017251:  254000017243  jrst     agtfd3          ;"5@ !ZC"
017252:  603100004000  tlne     i, mwrd         ;"P9  @ "
017253:  254000017260  jrst     agtfd1          ;"5@ !ZP"
agtfd2:
017254:  202100015007  movem    i, isav         ;"01 !H'"
017255:  262040000002  pop      p, i            ;"60@  ""
017256:  350001000000  aos      (p)             ;"= !   "
017257:  263040000000  popj     p,              ;"68@   " ",b\0\0\0"
agtfd1:
017260:  261040000004  push     p, a            ;"6(@  $"
017261:  260040015132  pushj    p, getfld       ;"6 @!I:"
017262:  603100004000  tlne     i, mwrd         ;"P9  @ "
017263:  254000017261  jrst     17261           ;"5@ !ZQ"
017264:  262040000004  pop      p, a            ;"60@  $"
017265:  254000017254  jrst     agtfd2          ;"5@ !ZL"
cond:
017266:  541240017310  hrri     b, cond2        ;"L*@![("
017267:  261040000005  push     p, b            ;"6(@  %"
017270:  260040017237  pushj    p, agetfd       ;"6 @!Z?"
017271:  001000654344                           ;" ( UCD"
017272:  262040000010  pop      p, t            ;"60@  ("
017273:  256000000010  xct      t               ;"5P   ("
cond4:
017274:  260040016145  pushj    p, arch         ;"6 @!QE"
017275:  306200000133  cain     a, 133          ;"8R  !;"
017276:  254000017304  jrst     cond3           ;"5@ ![$"
anull:
017277:  661100002000  tlo      i, alnscn       ;"V)  0 "
017300:  260040016145  pushj    p, arch         ;"6 @!QE"
017301:  302200000015  caie     a, ch1          ;"82   -"
017302:  254000017300  jrst     17300           ;"5@ ![ "
017303:  254000017312  jrst     anull1          ;"5@ ![*"
cond3:
017304:  201300000000  movei    c, ff           ;"0+    " " ,\0\0\0"
017305:  260040017372  pushj    p, rchcnt       ;"6 @![Z"
017306:  254000017305  jrst     17305           ;"5@ ![%"
017307:  254000016613  jrst     maccr           ;"5@ !V+"
cond2:
017310:  260040016145  pushj    p, arch         ;"6 @!QE"
017311:  302200000133  caie     a, 133          ;"82  !;"
anull1:
017312:  661100002000  tlo      i, alnscn       ;"V)  0 "
017313:  254000016613  jrst     maccr           ;"5@ !V+"
cond1:
017314:  541240020000  hrri     b, pss          ;"L*@"  "
017315:  256000000005  xct      b               ;"5P   %"
017316:  254000017274  jrst     cond4           ;"5@ !Z\"
017317:  254000017310  jrst     cond2           ;"5@ ![("
scond:
017320:  200200015024  move     a, freept       ;"0" !H4"
017321:  202200015037  movem    a, prstg        ;"02 !H?"
017322:  202200015040  movem    a, prscn1       ;"02 !H@"
017323:  541240014771  hrri     b, scondf       ;"L*@!GY"
017324:  202240014770  movem    b, scinst       ;"02@!GX"
017325:  201540000000  movei    link, ff        ;"0-@   " " 6\0\0\0"
017326:  260040016237  pushj    p, 16237        ;"6 @!R?"
017327:  477300014771  setob    c, scondf       ;"G[ !GY"
017330:  260040016145  pushj    p, arch         ;"6 @!QE"
017331:  306200000133  cain     a, 133          ;"8R  !;"
017332:  201300000000  movei    c, ff           ;"0+    " " ,\0\0\0"
017333:  336000000006  skipn    c               ;";P   &"
scnd2a:
017334:  260040016145  pushj    p, arch         ;"6 @!QE"
scond2:
017335:  325300017364  jumpge   c, scond1       ;":K ![T"
017336:  306200000054  cain     a, 54           ;"8R   L"
017337:  254000017352  jrst     scond3          ;"5@ ![J"
scond6:
017340:  250200015037  exch     a, prstg        ;"5" !H?"
017341:  260040016232  pushj    p, redinc       ;"6 @!R:"
017342:  250200015037  exch     a, prstg        ;"5" !H?"
017343:  316240000004  camn     b, a            ;"9R@  $"
017344:  254000017334  jrst     scnd2a          ;"5@ ![<"
scond4:
017345:  402000014771  setzm    scondf          ;"@0 !GY"
017346:  260040016145  pushj    p, arch         ;"6 @!QE"
017347:  325300017367  jumpge   c, scond7       ;":K ![W"
017350:  302200000054  caie     a, 54           ;"82   L"
017351:  254000017346  jrst     17346           ;"5@ ![F"
scond3:
017352:  403200000006  setzb    a, c            ;"@:   &"
017353:  250300015040  exch     c, prscn1       ;"5# !H@"
017354:  202300015024  movem    c, freept       ;"03 !H4"
017355:  250200015037  exch     a, prstg        ;"5" !H?"
017356:  260040016232  pushj    p, redinc       ;"6 @!R:"
017357:  302240000375  caie     b, 375          ;"82@ #]"
017360:  402000014771  setzm    scondf          ;"@0 !GY"
017361:  256000014770  xct      scinst          ;"5P !GX"
017362:  254000017274  jrst     cond4           ;"5@ !Z\"
017363:  254000017310  jrst     cond2           ;"5@ ![("
scond1:
017364:  260040017373  pushj    p, qscnt        ;"6 @![["
017365:  254000017340  jrst     scond6          ;"5@ ![@"
017366:  254000017352  jrst     scond3          ;"5@ ![J"
scond7:
017367:  260040017373  pushj    p, qscnt        ;"6 @![["
017370:  254000017346  jrst     17346           ;"5@ ![F"
017371:  254000017352  jrst     scond3          ;"5@ ![J"
rchcnt:
017372:  260040016145  pushj    p, arch         ;"6 @!QE"
qscnt:
017373:  306200000133  cain     a, 133          ;"8R  !;"
017374:  350000000006  aos      c               ;"=    &"
017375:  306200000135  cain     a, 135          ;"8R  !="
017376:  361300022030  sojl     c, popj1        ;">+ "08"
017377:  263040000000  popj     p,              ;"68@   " ",b\0\0\0"
airp:
017400:  205740777764  movsi    tm, 777764      ;"0O@__T"
017401:  261057000002  push     p, tpchn(tm)    ;"6(O  ""
017402:  253740017401  aobjn    tm, 17401       ;"5?@!\!"
017403:  261040015031  push     p, rdwrdp       ;"6(@!H9"
017404:  512240015070  hllzm    b, airpt        ;"I2@!HX"
017405:  403540015071  setzb    link, irpcr     ;"@=@!HY"
017406:  201200336151  movei    a, dmydef       ;"0* ;QI"
017407:  202200015036  movem    a, dmytop       ;"02 !H>"
airp1:
017410:  260040017036  pushj    p, pdef         ;"6 @!X>"
017411:  302400000054  caie     t, 54           ;"84   L"
017412:  322500017436  jumpe    sym, airp2      ;":5 !\>"
017413:  260040017036  pushj    p, pdef         ;"6 @!X>"
017414:  201200000377  movei    a, 377          ;"0*  #_"
017415:  205440200000  movsi    tt, dfld        ;"0L@0  "
017416:  612440015070  tdne     tt, airpt       ;"Q4@!HX"
017417:  260040016275  pushj    p, putrel       ;"6 @!R]"
airps6:
017420:  260040016345  pushj    p, addtrn       ;"6 @!SE"
017421:  201200000377  movei    a, 377          ;"0*  #_"
017422:  260040016275  pushj    p, putrel       ;"6 @!R]"
017423:  260040016236  pushj    p, rdwrda       ;"6 @!R>"
017424:  200200015031  move     a, rdwrdp       ;"0" !H9"
017425:  370004777777  sos      maccr(a)        ;"? $___"
017426:  205440200000  movsi    tt, dfld        ;"0L@0  "
017427:  612440015070  tdne     tt, airpt       ;"Q4@!HX"
017430:  370004777777  sos      maccr(a)        ;"? $___"
017431:  350000015071  aos      irpcr           ;"=  !HY"
017432:  607540000200  tlnn     link, mrsw      ;"P]@ " "
017433:  254000017410  jrst     airp1           ;"5@ !\("
017434:  603540010000  tlne     link, macrch    ;"P=@!  "
017435:  621100002000  tlz      i, alnscn       ;"R)  0 "
airp2:
017436:  200200015024  move     a, freept       ;"0" !H4"
017437:  202200015042  movem    a, prirp        ;"02 !HB"
017440:  260040016145  pushj    p, arch         ;"6 @!QE"
017441:  302200000012  caie     a, sym          ;"82   *"
017442:  661100002000  tlo      i, alnscn       ;"V)  0 "
017443:  260040017046  pushj    p, wrqote       ;"6 @!XF"
017444:  260040016274  pushj    p, stpwr        ;"6 @!R\"
017445:  260040016102  pushj    p, pushem       ;"6 @!Q""
017446:  262040000004  pop      p, a            ;"60@  $"
017447:  261040015010  push     p, topp         ;"6(@!H("
017450:  260040016646  pushj    p, dmytrn       ;"6 @!VF"
017451:  200240015023  move     b, macp         ;"0"@!H3"
017452:  200200015076  move     a, cirpct       ;"0" !H^"
017453:  542205000000  hrrm     a, (b)          ;"L2%   " "XH(\0\0"
017454:  476000015076  setom    cirpct          ;"GP !H^"
017455:  204200015071  movs     a, irpcr        ;"0B !HY"
017456:  540200015042  hrr      a, prirp        ;"L" !HB"
017457:  434200015070  or       a, airpt        ;"CB !HX"
017460:  261240000004  push     b, a            ;"6*@  $"
017461:  262040000004  pop      p, a            ;"60@  $"
017462:  507000000004  hrls     ff, a           ;"HX   $"
017463:  541200017470  hrri     a, airp4        ;"L* !\X"
017464:  261240000004  push     b, a            ;"6*@  $"
017465:  202240015023  movem    b, macp         ;"02@!H3"
017466:  402000015044  setzm    cptr            ;"@0 !HD"
017467:  254000016607  jrst     macc2           ;"5@ !V'"
airp4:
017470:  261040000004  push     p, a            ;"6(@  $"
017471:  261040000006  push     p, c            ;"6(@  &"
017472:  261040000010  push     p, t            ;"6(@  ("
017473:  261040000011  push     p, tt           ;"6(@  )"
017474:  350000015076  aos      cirpct          ;"=  !H^"
017475:  550205000000  hrrz     a, (b)          ;"M"%   "
017476:  202200015044  movem    a, cptr         ;"02 !HD"
017477:  476000015030  setom    cptrb           ;"GP !H8"
017500:  476000015070  setom    airpt           ;"GP !HX"
017501:  602000000200  trne     ff, mrsw        ;"P0  " "
017502:  254000017560  jrst     airp9           ;"5@ !]P"
017503:  554405000001  hlrz     t, dschna(b)    ;"MD%  !"
017504:  135300025040  ldb      c, 25040        ;"+K "H@"
017505:  322300017560  jumpe    c, airp9        ;":3 !]P"
017506:  335445000000  skipge   tt, (b)         ;";LE   " "72(\0\0"
017507:  254000017626  jrst     aairpc          ;"5@ !^6"
airp6:
017510:  476000015074  setom    airpt1          ;"GP !H\"
017511:  550210000000  hrrz     a, (t)          ;"M"(   "
airp6a:
017512:  260040016232  pushj    p, redinc       ;"6 @!R:"
017513:  306240000375  cain     b, 375          ;"8R@ #]"
017514:  254000017623  jrst     airp10          ;"5@ !^3"
017515:  302240000377  caie     b, 377          ;"82@ #_"
017516:  254000017512  jrst     airp6a          ;"5@ !]*"
017517:  476000014773  setom    airpt2          ;"GP !G["
airp7e:
017520:  202210000000  movem    a, (t)          ;"02(   " " H@\0\0"
airp7:
017521:  260040016232  pushj    p, redinc       ;"6 @!R:"
017522:  306240000375  cain     b, 375          ;"8R@ #]"
017523:  254000017624  jrst     airp5           ;"5@ !^4"
017524:  603440200000  tlne     tt, dfld        ;"P<@0  "
017525:  254000017573  jrst     airps2          ;"5@ !]["
017526:  402000015070  setzm    airpt           ;"@0 !HX"
017527:  306240000133  cain     b, 133          ;"8R@ !;"
017530:  352000014773  aose     airpt2          ;"=0 !G["
017531:  254000017535  jrst     airp7a          ;"5@ !]="
airp7c:
017532:  201240000376  movei    b, 376          ;"0*@ #^"
017533:  137256015012  dpb      b, ptab(ch2)    ;"+ZN!H*"
017534:  254000017521  jrst     airp7           ;"5@ !]1"
airp7a:
017535:  331000014773  skipl    airpt2          ;";( !G["
017536:  302240000135  caie     b, 135          ;"82@ !="
017537:  254000017542  jrst     airp7b          ;"5@ !]B"
017540:  375000014773  sosge    airpt2          ;"?H !G["
017541:  254000017532  jrst     airp7c          ;"5@ !]:"
airp7b:
017542:  306240000015  cain     b, ch1          ;"8R@  -"
017543:  254000017620  jrst     airp7d          ;"5@ !^0"
017544:  302240000012  caie     b, sym          ;"82@  *"
017545:  306240000054  cain     b, 54           ;"8R@  L"
017546:  331000014773  skipl    airpt2          ;";( !G["
017547:  254000017521  jrst     airp7           ;"5@ !]1"
airps1:
017550:  201644777777  movei    ch1, maccr(a)   ;"0.D___"
017551:  231640000004  idivi    ch1, a          ;"3.@  $"
017552:  201240000377  movei    b, 377          ;"0*@ #_"
017553:  137256015012  dpb      b, ptab(ch2)    ;"+ZN!H*"
017554:  607440200000  tlnn     tt, dfld        ;"P\@0  "
017555:  202210000001  movem    a, dschna(t)    ;"02(  !"
airp8:
017556:  271400000002  addi     t, i            ;"7,   ""
017557:  367300017510  sojg     c, airp6        ;">[ !]("
airp9:
017560:  262040000011  pop      p, tt           ;"60@  )"
017561:  262040000010  pop      p, t            ;"60@  ("
017562:  331000015070  skipl    airpt           ;";( !HX"
017563:  254000017207  jrst     rept3           ;"5@ !Z'"
017564:  200200025037  move     a, 25037        ;"0" "H?"
017565:  273200015023  addb     a, macp         ;"7: !H3"
017566:  550204000000  hrrz     a, (a)          ;"M"$   "
017567:  202200015076  movem    a, cirpct       ;"02 !H^"
017570:  262040000006  pop      p, c            ;"60@  &"
017571:  262040000004  pop      p, a            ;"60@  $"
017572:  254000016222  jrst     rchsav          ;"5@ !R2"
airps2:
017573:  301240000101  cail     b, 101          ;"8*@ !!"
017574:  303240000132  caile    b, go1          ;"8:@ !:"
017575:  254000017601  jrst     airps3          ;"5@ !^!"
airps4:
017576:  402000015070  setzm    airpt           ;"@0 !HX"
017577:  402000015074  setzm    airpt1          ;"@0 !H\"
017600:  254000017521  jrst     airp7           ;"5@ !]1"
airps3:
017601:  307240000071  caig     b, 71           ;"8Z@  Y"
017602:  305240000060  caige    b, 60           ;"8J@  P"
017603:  306240000044  cain     b, 44           ;"8R@  D"
017604:  254000017576  jrst     airps4          ;"5@ !]^"
017605:  302240000045  caie     b, 45           ;"82@  E"
017606:  306240000056  cain     b, 56           ;"8R@  N"
017607:  254000017576  jrst     airps4          ;"5@ !]^"
017610:  306240000041  cain     b, zz           ;"8R@  A"
017611:  254000017576  jrst     airps4          ;"5@ !]^"
017612:  335000015074  skipge   airpt1          ;";H !H\"
017613:  254000017520  jrst     airp7e          ;"5@ !]0"
017614:  550650000001  hrrz     ch1, dschna(t)  ;"M&H  !"
017615:  231640000004  idivi    ch1, a          ;"3.@  $"
017616:  137256015012  dpb      b, ptab(ch2)    ;"+ZN!H*"
017617:  254000017550  jrst     airps1          ;"5@ !]H"
airp7d:
017620:  331000014773  skipl    airpt2          ;";( !G["
017621:  254000017521  jrst     airp7           ;"5@ !]1"
017622:  254000017532  jrst     airp7c          ;"5@ !]:"
airp10:
017623:  402010000000  setzm    (t)             ;"@0(   " "@@@\0\0"
airp5:
017624:  402010000001  setzm    dschna(t)       ;"@0(  !"
017625:  254000017556  jrst     airp8           ;"5@ !]N"
aairpc:
017626:  200210000000  move     a, (t)          ;"0"(   "
017627:  260040016232  pushj    p, redinc       ;"6 @!R:"
017630:  306240000375  cain     b, 375          ;"8R@ #]"
017631:  254000017653  jrst     airpc3          ;"5@ !^K"
017632:  302240000377  caie     b, 377          ;"82@ #_"
017633:  254000017627  jrst     17627           ;"5@ !^7"
017634:  202210000001  movem    a, dschna(t)    ;"02(  !"
017635:  260040016232  pushj    p, redinc       ;"6 @!R:"
017636:  306240000375  cain     b, 375          ;"8R@ #]"
017637:  254000017653  jrst     airpc3          ;"5@ !^K"
017640:  402000015070  setzm    airpt           ;"@0 !HX"
017641:  201644777776  movei    ch1, 777776(a)  ;"0.D__^"
017642:  202650000000  movem    ch1, (t)        ;"06H   " " Z@\0\0"
017643:  231640000004  idivi    ch1, a          ;"3.@  $"
017644:  137256015012  dpb      b, ptab(ch2)    ;"+ZN!H*"
017645:  201240000377  movei    b, 377          ;"0*@ #_"
017646:  137256015013  dpb      b, 15013(ch2)   ;"+ZN!H+"
017647:  350010000001  aos      dschna(t)       ;"= (  !"
017650:  271400000002  addi     t, i            ;"7,   ""
airpc2:
017651:  367300017626  sojg     c, aairpc       ;">[ !^6"
017652:  254000017560  jrst     airp9           ;"5@ !]P"
airpc3:
017653:  402010000000  setzm    (t)             ;"@0(   " "@@@\0\0"
airpc1:
017654:  402010000001  setzm    dschna(t)       ;"@0(  !"
017655:  254000017650  jrst     17650           ;"5@ !^H"
colon:
017656:  607100000400  tlnn     i, disize       ;"PY  $ "
017657:  606100000002  trnn     i, i            ;"PQ   ""
017660:  005000515446                           ;" H ILF"
017661:  606100204000  trnn     i, 204000       ;"PQ 0@ "
017662:  606100000004  trnn     i, a            ;"PQ   $"
017663:  005000515464                           ;" H ILT"
017664:  603000200000  tlne     ff, dfld        ;"P8 0  "
017665:  005000435451                           ;" H CLI"
017666:  200400014723  move     t, cloc         ;"0$ !G3"
017667:  335000015000  skipge   bytm            ;";H !H "
017670:  500400015004  hll      t, bytwp        ;"H$ !H$"
017671:  270400014725  add      t, ofloc        ;"7$ !G5"
017672:  202400014710  movem    t, wrd          ;"04 !G("
017673:  250400014754  exch     t, syloc        ;"5$ !GL"
017674:  202400014756  movem    t, syloc1       ;"04 !GN"
017675:  250500014755  exch     sym, sysym      ;"5% !GM"
017676:  202500014757  movem    sym, sysym1     ;"05 !GO"
017677:  200500014755  move     sym, sysym      ;"0% !GM"
017700:  200200014724  move     a, crloc        ;"0" !G4"
017701:  270200014726  add      a, ofrloc       ;"7" !G6"
017702:  552200014711  hrrzm    a, wrdrlc       ;"M2 !G)"
017703:  402000014775  setzm    parbit          ;"@0 !G]"
017704:  336000014774  skipn    ldccc           ;";P !G\"
017705:  602000001000  trne     ff, nprc        ;"P0  ( "
017706:  254000017746  jrst     gcol1           ;"5@ !_F"
017707:  260040021750  pushj    p, es           ;"6 @"/H"
017710:  254000021451  jrst     eql1a           ;"5@ ",I"
017711:  261040000006  push     p, c            ;"6(@  &"
017712:  621300777700  tlz      c, 777700       ;"R+ __ "
017713:  322300017743  jumpe    c, colon5       ;":3 !_C"
017714:  312300025041  came     c, 25041        ;"93 "HA"
017715:  316300014736  camn     c, lev          ;"9S !G>"
017716:  254000017720  jrst     colon1          ;"5@ !_0"
017717:  254000021412  jrst     colon2          ;"5@ ",*"
colon1:
017720:  262040000006  pop      p, c            ;"60@  &"
017721:  254004017722  jrst     17722(a)        ;"5@$!_2"
017722:  005000554464                           ;" H MDT"
017723:  005000624563                           ;" H RES"
017724:  254000017734  jrst     colon4          ;"5@ !_<"
017725:  254000021344  jrst     eql1c           ;"5@ "+D"
017726:  005000554464                           ;" H MDT"
017727:  005000554464                           ;" H MDT"
017730:  005000554464                           ;" H MDT"
017731:  005000554464                           ;" H MDT"
017732:  254000021306  jrst     eql1e           ;"5@ "+&"
017733:  254000021306  jrst     eql1e           ;"5@ "+&"
colon4:
017734:  312240014710  came     b, wrd          ;"92@!G("
017735:  254000017741  jrst     col4e           ;"5@ !_A"
017736:  260040022721  pushj    p, rchk         ;"6 @"71"
017737:  326300017741  jumpn    c, col4e        ;":S !_A"
017740:  312240014711  came     b, wrdrlc       ;"92@!G)"
col4e:
017741:  005000554464                           ;" H MDT"
cassm1:
017742:  254000021103  jrst     a.qote          ;"5@ ")#"
colon5:
017743:  302200000002  caie     a, i            ;"82   ""
017744:  254000017720  jrst     colon1          ;"5@ !_0"
017745:  254000021412  jrst     colon2          ;"5@ ",*"
gcol1:
017746:  260040021750  pushj    p, es           ;"6 @"/H"
017747:  254000017776  jrst     c1asse          ;"5@ !_^"
017750:  261040000004  push     p, a            ;"6(@  $"
017751:  302200000000  caie     a, ff           ;"82    " "0H\0\0\0"
017752:  603100000001  tlne     i, p            ;"P9   !"
017753:  661500040000  tlo      sym, vot        ;"V- $  "
017754:  260040021244  pushj    p, lkpnro       ;"6 @"*D"
017755:  621500040000  tlz      sym, vot        ;"R- $  "
017756:  262040000004  pop      p, a            ;"60@  $"
017757:  302200000010  caie     a, t            ;"82   ("
017760:  306200000011  cain     a, tt           ;"8R   )"
017761:  254000017765  jrst     gcol3           ;"5@ !_U"
017762:  607100000001  tlnn     i, p            ;"PY   !"
017763:  254000017767  jrst     gcol4           ;"5@ !_W"
017764:  260040021703  pushj    p, ploglo       ;"6 @"/#"
gcol3:
017765:  205400400000  movsi    t, ppss         ;"0L @  "
017766:  665500040000  tloa     sym, vot        ;"VM $  "
gcol4:
017767:  205400140000  movsi    t, lcudf        ;"0L ,  "
gcol5:
017770:  260040022040  pushj    p, vsm2lv       ;"6 @"0@"
017771:  261040017776  push     p, c1asse       ;"6(@!_^"
pdefpt:
017772:  260040021364  pushj    p, pbits7       ;"6 @"+T"
017773:  201200000006  movei    a, c            ;"0*   &"
017774:  260040022411  pushj    p, pbits        ;"6 @"4)"
017775:  254000022422  jrst     outsm           ;"5@ "42"
c1asse:
017776:  401240021103  setzi    b, a.qote       ;"@*@")#"
017777:  200300014736  move     c, lev          ;"0# !G>"
pss:
020000:  607100000001  tlnn     i, p            ;"PY   !"
020001:  254000017767  jrst     gcol4           ;"5@ !_W"
020002:  205300000077  movsi    c, 77           ;"0K   _"
020003:  254000017765  jrst     gcol3           ;"5@ !_U"
cnstnt:
020004:  261040017742  push     p, cassm1       ;"6(@!_B"
020005:  375000014751  sosge    concnt          ;"?H !GI"
020006:  000000644341                           ;"   TCA"
020007:  200240014723  move     b, cloc         ;"0"@!G3"
020010:  270240014725  add      b, ofloc        ;"7"@!G5"
020011:  550400014744  hrrz     t, pbcon        ;"M$ !GD"
020012:  602000020000  trne     ff, pss         ;"P0 "  "
020013:  254000020064  jrst     cnst2           ;"5@ " T"
020014:  542250000001  hrrm     b, dschna(t)    ;"L2H  !"
020015:  201340000000  movei    d, ff           ;"0+@   " " .\0\0\0"
020016:  200200014724  move     a, crloc        ;"0" !G4"
020017:  270200014726  add      a, ofrloc       ;"7" !G6"
020020:  332000000004  skipe    a               ;";0   $"
020021:  661340200000  tlo      d, dfld         ;"V+@0  "
020022:  602000001000  trne     ff, nprc        ;"P0  ( "
020023:  661340100000  tlo      d, hfwdf        ;"V+@(  "
020024:  436350000002  orm      d, tpchn(t)     ;"CSH  ""
cnst1:
020025:  200510000000  move     sym, (t)        ;"0%(   "
020026:  602000001000  trne     ff, nprc        ;"P0  ( "
020027:  260040017772  pushj    p, pdefpt       ;"6 @!_Z"
cnst1b:
020030:  201200276351  movei    a, contab       ;"0* 7SI"
cnsth:
020031:  311200014745  caml     a, plim         ;"9* !GE"
020032:  254000020106  jrst     cnsta           ;"5@ "!&"
020033:  200444000000  move     tt, (a)         ;"0$D   "
020034:  202440014710  movem    tt, wrd         ;"04@!G("
020035:  260040020752  pushj    p, cptmk        ;"6 @"'J"
020036:  135600000006  ldb      f, c            ;"+N   &"
020037:  622600000002  trze     f, i            ;"R6   ""
020040:  661600000001  tlo      f, p            ;"V.   !"
020041:  202600014711  movem    f, wrdrlc       ;"06 !G)"
020042:  201340066067  movei    d, glotb        ;"0+@&PW"
020043:  202340014705  movem    d, glsp2        ;"03@!G%"
020044:  201300327651  movei    c, conglo       ;"0+ :^I"
cnstc:
020045:  311300014752  caml     c, congol       ;"9+ !GJ"
020046:  254000020056  jrst     cnstb           ;"5@ " N"
020047:  312206000001  came     a, dschna(c)    ;"92&  !"
020050:  254000020054  jrst     20054           ;"5@ " L"
020051:  350000000007  aos      d               ;"=    '"
020052:  200246000000  move     b, (c)          ;"0"F   " " \n0\0\0"
020053:  202247000000  movem    b, (d)          ;"02G   " " J8\0\0"
020054:  350000000006  aos      c               ;"=    &"
020055:  344300020045  aoja     c, cnstc        ;"<C " E"
cnstb:
020056:  202340014704  movem    d, glsp1        ;"03@!G$"
020057:  261040000004  push     p, a            ;"6(@  $"
020060:  260040022526  pushj    p, pwrd         ;"6 @"56"
020061:  350000014723  aos      cloc            ;"=  !G3"
020062:  262040000004  pop      p, a            ;"60@  $"
020063:  344200020031  aoja     a, cnsth        ;"<B " 9"
cnst2:
020064:  205200100000  movsi    a, hfwdf        ;"0J (  "
020065:  630210000002  tdz      a, tpchn(t)     ;"S"(  ""
020066:  602000001000  trne     ff, nprc        ;"P0  ( "
020067:  641200100000  tlc      a, hfwdf        ;"T* (  "
020070:  336000000004  skipn    a               ;";P   $"
020071:  000000436644                           ;"   CVD"
020072:  550250000001  hrrz     b, dschna(t)    ;"M"H  !"
020073:  274240014725  sub      b, ofloc        ;"7B@!G5"
020074:  553000000005  hrrzs    ff, b           ;"M8   %"
020075:  312240014723  came     b, cloc         ;"92@!G3"
020076:  000000435444                           ;"   CLD"
020077:  200250000002  move     b, tpchn(t)     ;"0"H  ""
020100:  241240000002  rot      b, i            ;"4*@  ""
020101:  430240014724  xor      b, crloc        ;"C"@!G4"
020102:  430240014726  xor      b, ofrloc       ;"C"@!G6"
020103:  602240000001  trne     b, p            ;"P2@  !"
020104:  000000436244                           ;"   CRD"
020105:  254000020025  jrst     cnst1           ;"5@ " 5"
cnsta:
020106:  550400014744  hrrz     t, pbcon        ;"M$ !GD"
020107:  602000001000  trne     ff, nprc        ;"P0  ( "
020110:  254000020127  jrst     cnstd           ;"5@ "!7"
020111:  606000040000  trnn     ff, vot         ;"PP $  "
020112:  335010000002  skipge   tpchn(t)        ;";H(  ""
020113:  254000020125  jrst     cnstda          ;"5@ "!5"
020114:  660100001000  tro      i, nprc         ;"V!  ( "
020115:  260040021362  pushj    p, p70          ;"6 @"+R"
020116:  200210000000  move     a, (t)          ;"0"(   "
020117:  332000014724  skipe    crloc           ;";0 !G4"
020120:  661200100000  tlo      a, hfwdf        ;"V* (  "
020121:  260040022424  pushj    p, output       ;"6 @"44"
020122:  550210000001  hrrz     a, dschna(t)    ;"M"(  !"
020123:  260040022424  pushj    p, output       ;"6 @"44"
020124:  620100001000  trz      i, nprc         ;"R!  ( "
cnstda:
020125:  205200400000  movsi    a, ppss         ;"0J @  "
020126:  436210000002  orm      a, tpchn(t)     ;"CR(  ""
cnstd:
020127:  602000020000  trne     ff, pss         ;"P0 "  "
020130:  254000020146  jrst     cnst3           ;"5@ "!F"
020131:  200200014723  move     a, cloc         ;"0" !G3"
020132:  506210000001  hrlm     a, dschna(t)    ;"HR(  !"
cnste:
020133:  201200276351  movei    a, contab       ;"0* 7SI"
020134:  202200014745  movem    a, plim         ;"02 !GE"
020135:  201200327651  movei    a, conglo       ;"0* :^I"
020136:  202200014752  movem    a, congol       ;"02 !GJ"
020137:  201400000003  movei    t, aa           ;"0,   #"
020140:  273400014744  addb     t, pbcon        ;"7< !GD"
020141:  311400014746  caml     t, pbconl       ;"9, !GF"
020142:  202400014746  movem    t, pbconl       ;"04 !GF"
020143:  350200014747  aos      a, csqz         ;"=" !GG"
020144:  202210000000  movem    a, (t)          ;"02(   " " H@\0\0"
020145:  263040000000  popj     p,              ;"68@   " ",b\0\0\0"
cnst3:
020146:  260040022443  pushj    p, eblk         ;"6 @"4C"
020147:  554210000001  hlrz     a, dschna(t)    ;"MB(  !"
020150:  202200014723  movem    a, cloc         ;"02 !G3"
020151:  254000020133  jrst     cnste           ;"5@ "!;"
conbug:
020152:  201200327651  movei    a, conglo       ;"0* :^I"
020153:  261040000010  push     p, t            ;"6(@  ("
020154:  261040000006  push     p, c            ;"6(@  &"
conbg2:
020155:  200301000000  move     c, (p)          ;"0#!   "
020156:  311200014752  caml     a, congol       ;"9* !GJ"
020157:  254000020240  jrst     conbg1          ;"5@ ""@"
020160:  550604000000  hrrz     f, (a)          ;"M&$   "
020161:  302607073110  caie     f, st(d)        ;"86''9(" "0X8v$"
020162:  344200020237  aoja     a, conbg6       ;"<B ""?"
020163:  261040000005  push     p, b            ;"6(@  %"
020164:  200404000000  move     t, (a)          ;"0$$   "
020165:  135700025042  ldb      ch2, 25042      ;"+O "HB"
020166:  332000000016  skipe    ch2             ;";0   ."
020167:  220240000016  imul     b, ch2          ;"2"@  ."
020170:  603400020000  tlne     t, pss          ;"P< "  "
020171:  213000000005  movns    ff, b           ;"18   %"
020172:  603400100000  tlne     t, hfwdf        ;"P< (  "
020173:  553000000005  hrrzs    ff, b           ;"M8   %"
020174:  603400040000  tlne     t, vot          ;"P< $  "
020175:  405240000017  andi     b, tm           ;"@J@  /"
020176:  603400200000  tlne     t, dfld         ;"P< 0  "
020177:  207000000005  movss    ff, b           ;"0X   %"
020200:  603400040000  tlne     t, vot          ;"P< $  "
020201:  242240000005  lsh      b, b            ;"42@  %"
020202:  270264000001  add      b, @dschna(a)   ;"7"T  !"
020203:  607400200000  tlnn     t, dfld         ;"P\ 0  "
020204:  542264000001  hrrm     b, @dschna(a)   ;"L2T  !"
020205:  603400200000  tlne     t, dfld         ;"P< 0  "
020206:  502264000001  hllm     b, @dschna(a)   ;"H2T  !"
020207:  607400100000  tlnn     t, hfwdf        ;"P\ (  "
020210:  202264000001  movem    b, @dschna(a)   ;"02T  !"
020211:  135640025043  ldb      ch1, 25043      ;"+N@"HC"
020212:  603400100000  tlne     t, hfwdf        ;"P< (  "
020213:  620640000002  trz      ch1, i          ;"R&@  ""
020214:  603400200000  tlne     t, dfld         ;"P< 0  "
020215:  242640000001  lsh      ch1, p          ;"46@  !"
020216:  622640000004  trze     ch1, a          ;"R6@  $"
020217:  660640000001  tro      ch1, p          ;"V&@  !"
020220:  261040000004  push     p, a            ;"6(@  $"
020221:  550204000001  hrrz     a, dschna(a)    ;"M"$  !"
020222:  260040020752  pushj    p, cptmk        ;"6 @"'J"
020223:  135240000006  ldb      b, c            ;"+J@  &"
020224:  603400020000  tlne     t, pss          ;"P< "  "
020225:  254000020262  jrst     conbg8          ;"5@ ""R"
020226:  602255000000  trne     b, (ch1)        ;"P2M   " "`Jh\0\0"
020227:  005000436251                           ;" H CRI"
020230:  434240000015  or       b, ch1          ;"CB@  -"
conb8a:
020231:  137240000006  dpb      b, c            ;"+Z@  &"
020232:  262040000004  pop      p, a            ;"60@  $"
020233:  402004000000  setzm    (a)             ;"@0$   " "@@ \0\0"
020234:  402004000001  setzm    dschna(a)       ;"@0$  !"
020235:  262040000005  pop      p, b            ;"60@  %"
020236:  350000000004  aos      a               ;"=    $"
conbg6:
020237:  344200020155  aoja     a, conbg2       ;"<B "!M"
conbg1:
020240:  201200327651  movei    a, conglo       ;"0* :^I"
020241:  261040000005  push     p, b            ;"6(@  %"
020242:  201240327651  movei    b, conglo       ;"0*@:^I"
conbg7:
020243:  311200014752  caml     a, congol       ;"9* !GJ"
020244:  254000020255  jrst     conbg3          ;"5@ ""M"
020245:  336304000000  skipn    c, (a)          ;";S$   " "7L \0\0"
conbg5:
020246:  344200020254  aoja     a, conbg4       ;"<B ""L"
020247:  202305000000  movem    c, (b)          ;"03%   " " L(\0\0"
020250:  200304000001  move     c, dschna(a)    ;"0#$  !"
020251:  202305000001  movem    c, dschna(b)    ;"03%  !"
020252:  350000000005  aos      b               ;"=    %"
020253:  344240020246  aoja     b, conbg5       ;"<B@""F"
conbg4:
020254:  344200020243  aoja     a, conbg7       ;"<B ""C"
conbg3:
020255:  202240014752  movem    b, congol       ;"02@!GJ"
020256:  262040000005  pop      p, b            ;"60@  %"
020257:  262040000006  pop      p, c            ;"60@  &"
020260:  262040000010  pop      p, t            ;"60@  ("
020261:  263040000000  popj     p,              ;"68@   " ",b\0\0\0"
conbg8:
020262:  431240000003  xori     b, aa           ;"C*@  #"
020263:  602255000000  trne     b, (ch1)        ;"P2M   " "`Jh\0\0"
020264:  005000436251                           ;" H CRI"
020265:  440240000015  andcb    b, ch1          ;"D"@  -"
020266:  254000020231  jrst     conb8a          ;"5@ ""9"
open:
020267:  202200014714  movem    a, lsyl         ;"02 !G,"
020270:  202240014715  movem    b, lsylr        ;"02@!G-"
020271:  261040000007  push     p, d            ;"6(@  '"
020272:  260040022147  pushj    p, getwrd       ;"6 @"1G"
020273:  262040000007  pop      p, d            ;"60@  '"
020274:  312340014742  came     d, limbo1       ;"93@!GB"
020275:  603100004000  tlne     i, mwrd         ;"P9  @ "
020276:  263040000000  popj     p,              ;"68@   " ",b\0\0\0"
020277:  200340014742  move     d, limbo1       ;"0#@!GB"
020300:  302340000015  caie     d, ch1          ;"83@  -"
020301:  306340000012  cain     d, sym          ;"8S@  *"
020302:  263040000000  popj     p,              ;"68@   " ",b\0\0\0"
020303:  002000515443                           ;" 0 ILC"
020304:  263040000000  popj     p,              ;"68@   " ",b\0\0\0"
lssth:
020305:  201340000076  movei    d, 76           ;"0+@  ^"
020306:  265540016040  jsp      link, savwd1    ;"6M@!P@"
020307:  260040020267  pushj    p, open         ;"6 @""W"
020310:  603100004000  tlne     i, mwrd         ;"P9  @ "
020311:  260040024310  pushj    p, igtxt        ;"6 @"C("
lssth3:
020312:  265540016063  jsp      link, usvwld    ;"6M@!PS"
020313:  623100000040  tlze     i, tpchna       ;"R9   @"
020314:  254000020367  jrst     lssthr          ;"5@ "#W"
lssth2:
020315:  272200014714  addm     a, lsyl         ;"72 !G,"
020316:  200200014715  move     a, lsylr        ;"0" !G-"
020317:  260040015110  pushj    p, hfwdad       ;"6 @!I("
020320:  202200014715  movem    a, lsylr        ;"02 !G-"
lssth5:
020321:  200200014742  move     a, limbo1       ;"0" !GB"
020322:  302200000015  caie     a, ch1          ;"82   -"
020323:  306200000012  cain     a, sym          ;"8R   *"
020324:  254000020346  jrst     lssth6          ;"5@ "#F"
020325:  260040016145  pushj    p, arch         ;"6 @!QE"
020326:  306200000041  cain     a, zz           ;"8R   A"
020327:  254000020325  jrst     20325           ;"5@ "#5"
020330:  661100002000  tlo      i, alnscn       ;"V)  0 "
020331:  554644025202  hlrz     ch1, gdtab(a)   ;"MFD"J""
020332:  302200000137  caie     a, 137          ;"82  !?"
020333:  306200000135  cain     a, 135          ;"8R  !="
020334:  254000020345  jrst     lssth7          ;"5@ "#E"
020335:  302640263040  caie     ch1, 263040     ;"86@68@"
020336:  254000020361  jrst     lssth4          ;"5@ "#Q"
020337:  550644025202  hrrz     ch1, gdtab(a)   ;"M&D"J""
020340:  200655021651  move     ch1, 21651(ch1) ;"0&M".I"
020341:  306200000073  cain     a, 73           ;"8R   ["
020342:  254000020345  jrst     lssth7          ;"5@ "#E"
020343:  603640400000  tlne     ch1, ppss       ;"P>@@  "
020344:  254000020361  jrst     lssth4          ;"5@ "#Q"
lssth7:
020345:  260040015410  pushj    p, getsyl       ;"6 @!L("
lssth6:
020346:  660100000002  tro      i, i            ;"V!   ""
020347:  200200014714  move     a, lsyl         ;"0" !G,"
020350:  200240014715  move     b, lsylr        ;"0"@!G-"
020351:  262040014715  pop      p, lsylr        ;"60@!G-"
020352:  262040014714  pop      p, lsyl         ;"60@!G,"
020353:  254000015147  jrst     getfd6          ;"5@ !IG"
lssth1:
020354:  272200014710  addm     a, wrd          ;"72 !G("
020355:  200200014711  move     a, wrdrlc       ;"0" !G)"
020356:  260040015110  pushj    p, hfwdad       ;"6 @!I("
020357:  202200014711  movem    a, wrdrlc       ;"02 !G)"
020360:  254000020321  jrst     lssth5          ;"5@ "#1"
lssth4:
020361:  336000014714  skipn    lsyl            ;";P !G,"
020362:  332000014715  skipe    lsylr           ;";0 !G-"
020363:  002000565763                           ;" 0 NOS"
020364:  262040014715  pop      p, lsylr        ;"60@!G-"
020365:  262040014714  pop      p, lsyl         ;"60@!G,"
020366:  254000015142  jrst     getfd1          ;"5@ !IB"
lssthr:
020367:  262040014715  pop      p, lsylr        ;"60@!G-"
020370:  262040014714  pop      p, lsyl         ;"60@!G,"
020371:  263040000000  popj     p,              ;"68@   " ",b\0\0\0"
avaria:
020372:  261040017742  push     p, cassm1       ;"6(@!_B"
020373:  377000014762  sosg     varcnr          ;"?X !GR"
020374:  000000646641                           ;"   TVA"
020375:  205340714020  movsi    d, 714020       ;"0K@Y@0"
020376:  200400014723  move     t, cloc         ;"0$ !G3"
020377:  202400014777  movem    t, vcloc        ;"04 !G_"
020400:  270400014725  add      t, ofloc        ;"7$ !G5"
020401:  200300014724  move     c, crloc        ;"0# !G4"
020402:  270300014726  add      c, ofrloc       ;"7# !G6"
020403:  602000020000  trne     ff, pss         ;"P0 "  "
020404:  254000020470  jrst     avar1           ;"5@ "$X"
020405:  504400014740  hrl      t, varcnt       ;"HD !G@"
020406:  332000000006  skipe    c               ;";0   &"
020407:  661400400000  tlo      t, ppss         ;"V, @  "
020410:  202420014761  movem    t, @varpnt      ;"040!GQ"
avar2:
020411:  550740000007  hrrz     tm, d           ;"M'@  '"
020412:  241740777776  rot      tm, 777776      ;"4/@__^"
020413:  510317243050  hllz     c, 3rdwrd(tm)   ;"I#/48H"
020414:  335000000017  skipge   tm              ;";H   /"
020415:  514317243050  hrlz     c, 3rdwrd(tm)   ;"IC/48H"
020416:  200247073111  move     b, 73111(d)     ;"0"G'9)"
020417:  200507073110  move     sym, st(d)      ;"0%''9("
020420:  621500740000  tlz      sym, bsup       ;"R- \  "
020421:  135540025044  ldb      link, 25044     ;"+M@"HD"
020422:  302540000005  caie     link, b         ;"85@  %"
020423:  306540000007  cain     link, d         ;"8U@  '"
020424:  254000020442  jrst     avar3           ;"5@ "$B"
020425:  302540000006  caie     link, c         ;"85@  &"
020426:  306540000004  cain     link, a         ;"8U@  $"
020427:  254000020502  jrst     avar4           ;"5@ "%""
avar2a:
020430:  350000000007  aos      d               ;"=    '"
020431:  253340020411  aobjn    d, avar2        ;"5;@"$)"
020432:  554220014761  hlrz     a, @varpnt      ;"MB0!GQ"
020433:  620200400000  trz      a, ppss         ;"R" @  "
020434:  270200014777  add      a, vcloc        ;"7" !G_"
020435:  202200014723  movem    a, cloc         ;"02 !G3"
020436:  260040022443  pushj    p, eblk         ;"6 @"4C"
020437:  402000014740  setzm    varcnt          ;"@0 !G@"
020440:  350000014761  aos      varpnt          ;"=  !GQ"
020441:  263040000000  popj     p,              ;"68@   " ",b\0\0\0"
avar3:
020442:  306540000007  cain     link, d         ;"8U@  '"
020443:  661500040000  tlo      sym, vot        ;"V- $  "
020444:  260040021244  pushj    p, lkpnro       ;"6 @"*D"
020445:  205400200000  movsi    t, dfld         ;"0L 0  "
020446:  306540000007  cain     link, d         ;"8U@  '"
020447:  205400300000  movsi    t, defgvr       ;"0L 8  "
020450:  602000001000  trne     ff, nprc        ;"P0  ( "
020451:  254000020513  jrst     avar3a          ;"5@ "%+"
020452:  201245777777  movei    b, maccr(b)     ;"0*E___"
020453:  270240014777  add      b, vcloc        ;"7"@!G_"
020454:  270240014725  add      b, ofloc        ;"7"@!G5"
020455:  200440014724  move     tt, crloc       ;"0$@!G4"
020456:  270440014726  add      tt, ofrloc      ;"7$@!G6"
020457:  332000000011  skipe    tt              ;";0   )"
020460:  661300200000  tlo      c, dfld         ;"V+ 0  "
020461:  302540000007  caie     link, d         ;"85@  '"
020462:  627300001000  tlzn     c, nprc         ;"R[  ( "
020463:  334000000000  skipa                    ;";@    " "7\0\0\0\0"
020464:  260040020152  pushj    p, conbug       ;"6 @"!J"
020465:  260040022042  pushj    p, vsm2         ;"6 @"0B"
avar4b:
020466:  260040021325  pushj    p, outde2       ;"6 @"+5"
020467:  254000020430  jrst     avar2a          ;"5@ "$8"
avar1:
020470:  550220014761  hrrz     a, @varpnt      ;"M"0!GQ"
020471:  302210000000  caie     a, (t)          ;"82(   " "0H@\0\0"
020472:  000000665444                           ;"   VLD"
020473:  554220014761  hlrz     a, @varpnt      ;"MB0!GQ"
020474:  622200400000  trze     a, ppss         ;"R2 @  "
020475:  431300000001  xori     c, p            ;"C+   !"
020476:  326300025045  jumpn    c, 25045        ;":S "HE"
020477:  332000014740  skipe    varcnt          ;";0 !G@"
020500:  000000665644                           ;"   VND"
020501:  254000020411  jrst     avar2           ;"5@ "$)"
avar4:
020502:  607300002000  tlnn     c, alnscn       ;"P[  0 "
020503:  254000020430  jrst     avar2a          ;"5@ "$8"
020504:  663300020000  tloe     c, pss          ;"V; "  "
020505:  254000020517  jrst     avar2b          ;"5@ "%/"
020506:  306540000006  cain     link, c         ;"8U@  &"
020507:  661500040000  tlo      sym, vot        ;"V- $  "
020510:  260040021244  pushj    p, lkpnro       ;"6 @"*D"
020511:  606000001000  trnn     ff, nprc        ;"PP  ( "
020512:  254000020522  jrst     avar4a          ;"5@ "%2"
avar3a:
020513:  260040022040  pushj    p, vsm2lv       ;"6 @"0@"
020514:  260040017772  pushj    p, pdefpt       ;"6 @!_Z"
020515:  260040021363  pushj    p, pbitsz       ;"6 @"+S"
020516:  260040022424  pushj    p, output       ;"6 @"44"
avar2b:
020517:  602000001000  trne     ff, nprc        ;"P0  ( "
020520:  350000014723  aos      cloc            ;"=  !G3"
020521:  254000020430  jrst     avar2a          ;"5@ "$8"
avar4a:
020522:  306540000006  cain     link, c         ;"8U@  &"
020523:  254000020466  jrst     avar4b          ;"5@ "$V"
020524:  550740000007  hrrz     tm, d           ;"M'@  '"
020525:  241740777776  rot      tm, 777776      ;"4/@__^"
020526:  335000000017  skipge   tm              ;";H   /"
020527:  546317243050  hlrm     c, 3rdwrd(tm)   ;"LS/48H"
020530:  331000000017  skipl    tm              ;";(   /"
020531:  502317243050  hllm     c, 3rdwrd(tm)   ;"H3/48H"
020532:  254000020430  jrst     avar2a          ;"5@ "$8"
leftp:
020533:  201340000051  movei    d, 51           ;"0+@  I"
020534:  265540016040  jsp      link, savwd1    ;"6M@!P@"
020535:  201300000000  movei    c, ff           ;"0+    " " ,\0\0\0"
020536:  602100200000  trne     i, dfld         ;"P1 0  "
020537:  602100000002  trne     i, i            ;"P1   ""
020540:  661300400000  tlo      c, ppss         ;"V+ @  "
020541:  261040000006  push     p, c            ;"6(@  &"
020542:  260040020267  pushj    p, open         ;"6 @""W"
020543:  262040000006  pop      p, c            ;"60@  &"
020544:  206200014712  movsm    a, t1           ;"0R !G*"
020545:  206240014713  movsm    b, t2           ;"0R@!G+"
020546:  205240200000  movsi    b, dfld         ;"0J@0  "
020547:  260040015100  pushj    p, lnktc1       ;"6 @!I "
020550:  603100004000  tlne     i, mwrd         ;"P9  @ "
020551:  260040024310  pushj    p, igtxt        ;"6 @"C("
020552:  265540016063  jsp      link, usvwld    ;"6M@!PS"
020553:  200200014712  move     a, t1           ;"0" !G*"
020554:  200240014713  move     b, t2           ;"0"@!G+"
020555:  321300020354  jumpl    c, lssth1       ;":+ "#L"
020556:  254000020315  jrst     lssth2          ;"5@ "#-"
lbrak:
020557:  660100000001  tro      i, p            ;"V!   !"
020560:  265540016040  jsp      link, savwd1    ;"6M@!P@"
lbrak1:
020561:  350000014760  aos      condep          ;"=  !GP"
020562:  201340000135  movei    d, 135          ;"0+@ !="
020563:  260040020267  pushj    p, open         ;"6 @""W"
lbrak3:
020564:  370000014760  sos      condep          ;"?  !GP"
lbrak2:
020565:  200600014704  move     f, glsp1        ;"0& !G$"
020566:  274600014705  sub      f, glsp2        ;"7F !G%"
020567:  322600020603  jumpe    f, scon         ;":6 "&#"
020570:  201254777777  movei    b, maccr(f)     ;"0*L___"
020571:  210440000005  movn     tt, b           ;"1$@  %"
020572:  322240020603  jumpe    b, scon         ;":2@"&#"
lsort:
020573:  504400000011  hrl      t, tt           ;"HD   )"
020574:  540400014705  hrr      t, glsp2        ;"L$ !G%"
020575:  200210000001  move     a, dschna(t)    ;"0"(  !"
020576:  311210000002  caml     a, tpchn(t)     ;"9*(  ""
020577:  250210000002  exch     a, tpchn(t)     ;"5"(  ""
020600:  202210000001  movem    a, dschna(t)    ;"02(  !"
020601:  253400020575  aobjn    t, 20575        ;"5< "%]"
020602:  367240020573  sojg     b, lsort        ;">Z@"%["
scon:
020603:  260040021455  pushj    p, rchkmv       ;"6 @",M"
020604:  241400000002  rot      t, i            ;"4,   ""
020605:  603100024000  tlne     i, 24000        ;"P9 "@ "
020606:  254000020702  jrst     nocon           ;"5@ "'""
020607:  201200276351  movei    a, contab       ;"0* 7SI"
scon1:
020610:  311200014745  caml     a, plim         ;"9* !GE"
020611:  254000020702  jrst     nocon           ;"5@ "'""
020612:  200240014710  move     b, wrd          ;"0"@!G("
020613:  312244000000  came     b, (a)          ;"92D   " "2J \0\0"
scon2:
020614:  344200020610  aoja     a, scon1        ;"<B "&("
020615:  260040020752  pushj    p, cptmk        ;"6 @"'J"
020616:  135600000006  ldb      f, c            ;"+N   &"
020617:  312600000010  came     f, t            ;"96   ("
020620:  254000020614  jrst     scon2           ;"5@ "&,"
020621:  201240327651  movei    b, conglo       ;"0*@:^I"
020622:  334300014705  skipa    c, glsp2        ;";C !G%"
020623:  350000000005  aos      b               ;"=    %"
020624:  311240014752  caml     b, congol       ;"9*@!GJ"
020625:  254000020634  jrst     scon3           ;"5@ "&<"
020626:  312205000001  came     a, dschna(b)    ;"92%  !"
scon7:
020627:  344240020623  aoja     b, 20623        ;"<B@"&3"
020630:  200345000000  move     d, (b)          ;"0#E   "
020631:  312346000001  came     d, dschna(c)    ;"93F  !"
020632:  254000020614  jrst     scon2           ;"5@ "&,"
020633:  344300020627  aoja     c, scon7        ;"<C "&7"
scon3:
020634:  312300014704  came     c, glsp1        ;"93 !G$"
020635:  254000020614  jrst     scon2           ;"5@ "&,"
nocon4:
020636:  200300014705  move     c, glsp2        ;"0# !G%"
020637:  200240014744  move     b, pbcon        ;"0"@!GD"
020640:  331005000002  skipl    tpchn(b)        ;";(%  ""
020641:  344300020647  aoja     c, scon4        ;"<C "&G"
020642:  202300014704  movem    c, glsp1        ;"03 !G$"
020643:  200305000001  move     c, dschna(b)    ;"0#%  !"
020644:  271206000000  addi     a, (c)          ;"7*&   " ".(0\0\0"
020645:  135240025046  ldb      b, 25046        ;"+J@"HF"
020646:  254000020656  jrst     scon6           ;"5@ "&N"
scon4:
020647:  603100004000  tlne     i, mwrd         ;"P9  @ "
020650:  607100020000  tlnn     i, pss          ;"PY "  "
020651:  254000020653  jrst     20653           ;"5@ "&K"
020652:  254000020655  jrst     scon6a          ;"5@ "&M"
020653:  202300014704  movem    c, glsp1        ;"03 !G$"
020654:  202246000000  movem    b, (c)          ;"02F   " " J0\0\0"
scon6a:
020655:  201240000000  movei    b, ff           ;"0*@   " " *\0\0\0"
scon6:
020656:  275200276351  subi     a, contab       ;"7J 7SI"
020657:  623100020000  tlze     i, pss          ;"R9 "  "
020660:  254000020675  jrst     scom1           ;"5@ "&]"
020661:  607100004000  tlnn     i, mwrd         ;"PY  @ "
020662:  254000020312  jrst     lssth3          ;"5@ "#*"
020663:  261040000004  push     p, a            ;"6(@  $"
020664:  261040000005  push     p, b            ;"6(@  %"
020665:  261040014704  push     p, glsp1        ;"6(@!G$"
020666:  261040014705  push     p, glsp2        ;"6(@!G%"
020667:  260040020670  pushj    p, scom2        ;"6 @"&X"
scom2:
020670:  661100020000  tlo      i, pss          ;"V) "  "
020671:  201340000135  movei    d, 135          ;"0+@ !="
020672:  350000014760  aos      condep          ;"=  !GP"
020673:  260040020271  pushj    p, 20271        ;"6 @""Y"
020674:  254000020564  jrst     lbrak3          ;"5@ "%T"
scom1:
020675:  603100004000  tlne     i, mwrd         ;"P9  @ "
020676:  254000020670  jrst     scom2           ;"5@ "&X"
020677:  201440020670  movei    tt, scom2       ;"0,@"&X"
020700:  265540016053  jsp      link, poplis    ;"6M@!PK"
020701:  254000020312  jrst     lssth3          ;"5@ "#*"
nocon:
020702:  350200014745  aos      a, plim         ;"=" !GE"
020703:  301200327352  cail     a, 327352       ;"8* :[J"
020704:  000000645543                           ;"   TMC"
nocon2:
020705:  200140014710  move     aa, wrd         ;"0!@!G("
020706:  202144777777  movem    aa, maccr(a)    ;"01D___"
020707:  370000000004  sos      a               ;"?    $"
020710:  260040020752  pushj    p, cptmk        ;"6 @"'J"
020711:  137400000006  dpb      t, c            ;"+\   &"
020712:  200240014705  move     b, glsp2        ;"0"@!G%"
nocon3:
020713:  311240014704  caml     b, glsp1        ;"9*@!G$"
020714:  254000020636  jrst     nocon4          ;"5@ "&>"
020715:  200305000001  move     c, dschna(b)    ;"0#%  !"
020716:  202320014752  movem    c, @congol      ;"030!GJ"
020717:  553000000006  hrrzs    ff, c           ;"M8   &"
020720:  260040020746  pushj    p, nocon5       ;"6 @"'F"
020721:  201746704670  movei    tm, 704670(c)   ;"0/FXFX" " >7\t\\"
020722:  241740777776  rot      tm, 777776      ;"4/@__^"
020723:  510357243050  hllz     d, 3rdwrd(tm)   ;"I#O48H"
020724:  335000000017  skipge   tm              ;";H   /"
020725:  514357243050  hrlz     d, 3rdwrd(tm)   ;"ICO48H"
020726:  661340001000  tlo      d, nprc         ;"V+@ ( "
020727:  202220014752  movem    a, @congol      ;"020!GJ"
020730:  260040020746  pushj    p, nocon5       ;"6 @"'F"
020731:  301300276351  cail     c, contab       ;"8+ 7SI"
020732:  344240020713  aoja     b, nocon3       ;"<B@"'+"
020733:  201746704670  movei    tm, 704670(c)   ;"0/FXFX" " >7\t\\"
020734:  241740777776  rot      tm, 777776      ;"4/@__^"
020735:  335000000017  skipge   tm              ;";H   /"
020736:  546357243050  hlrm     d, 3rdwrd(tm)   ;"LSO48H"
020737:  331000000017  skipl    tm              ;";(   /"
020740:  502357243050  hllm     d, 3rdwrd(tm)   ;"H3O48H"
020741:  344240020713  aoja     b, nocon3       ;"<B@"'+"
const3:
020742:  260040022443  pushj    p, eblk         ;"6 @"4C"
020743:  554210000001  hlrz     a, dschna(t)    ;"MB(  !"
020744:  202200014723  movem    a, cloc         ;"02 !G3"
020745:  254000020133  jrst     cnste           ;"5@ "!;"
nocon5:
020746:  350140014752  aos      aa, congol      ;"=!@!GJ"
020747:  301140335651  cail     aa, vartab      ;"8)@;NI"
020750:  000000645543                           ;"   TMC"
020751:  263040000000  popj     p,              ;"68@   " ",b\0\0\0"
cptmk:
020752:  261040000004  push     p, a            ;"6(@  $"
020753:  275200276351  subi     a, contab       ;"7J 7SI"
020754:  261040000005  push     p, b            ;"6(@  %"
020755:  231200000022  idivi    a, 22           ;"3*   2"
020756:  201304275041  movei    c, conbit(a)    ;"0+$7HA"
020757:  137240025047  dpb      b, 25047        ;"+Z@"HG"
020760:  661300000200  tlo      c, mrsw         ;"V+  " "
020761:  262040000005  pop      p, b            ;"60@  %"
020762:  254000024315  jrst     popaj           ;"5@ "C-"
init:
020763:  542200021141  hrrm     a, return       ;"L2 ")A"
020764:  335000014764  skipge   isymf           ;";H !GT"
020765:  254000026024  jrst     init1           ;"5@ "P4"
020766:  205200714020  movsi    a, 714020       ;"0J Y@0"
init4:
020767:  336244073110  skipn    b, st(a)        ;";RD'9(" "7J v$"
020770:  254000021000  jrst     init2           ;"5@ "( "
020771:  550740000004  hrrz     tm, a           ;"M'@  $"
020772:  241740777776  rot      tm, 777776      ;"4/@__^"
020773:  510317243050  hllz     c, 3rdwrd(tm)   ;"I#/48H"
020774:  335000000017  skipge   tm              ;";H   /"
020775:  514317243050  hrlz     c, 3rdwrd(tm)   ;"IC/48H"
020776:  607300040000  tlnn     c, vot          ;"P[ $  "
020777:  402004073110  setzm    st(a)           ;"@0$'9(" "@@ v$"
init2:
021000:  350000000004  aos      a               ;"=    $"
021001:  253200020767  aobjn    a, init4        ;"5: "'W"
021002:  205200745171  movsi    a, 745171       ;"0J \IY"
021003:  402004275041  setzm    conbit(a)       ;"@0$7HA"
021004:  253200021003  aobjn    a, 21003        ;"5: "(#"
sp4:
021005:  261040021102  push     p, cretn        ;"6(@")""
p1ini:
021006:  403100014774  setzb    i, ldccc        ;"@9 !G\"
021007:  402000066023  setzm    bkbuf           ;"@0 &P3"
021010:  402000014776  setzm    stgsw           ;"@0 !G^"
021011:  630000025050  tdz      ff, 25050       ;"S  "HH"
021012:  402000014764  setzm    isymf           ;"@0 !GT"
021013:  402000015066  setzm    mdepth          ;"@0 !HV"
021014:  201200336571  movei    a, dmyagt       ;"0* ;UY"
021015:  202200015010  movem    a, topp         ;"02 !H("
021016:  202200015011  movem    a, bbase        ;"02 !H)"
021017:  200200025051  move     a, 25051        ;"0" "HI"
021020:  202200015023  movem    a, macp         ;"02 !H3"
021021:  201200000003  movei    a, aa           ;"0*   #"
021022:  202200015024  movem    a, freept       ;"02 !H4"
021023:  201200327651  movei    a, conglo       ;"0* :^I"
021024:  202200014752  movem    a, congol       ;"02 !GJ"
021025:  201200327351  movei    a, pcntb        ;"0* :[I"
021026:  202200014746  movem    a, pbconl       ;"02 !GF"
021027:  205200000002  movsi    a, i            ;"0J   ""
021030:  202200014736  movem    a, lev          ;"02 !G>"
021031:  200200025052  move     a, 25052        ;"0" "HJ"
021032:  202200014765  movem    a, prgnm        ;"02 !GU"
021033:  200200025027  move     a, 25027        ;"0" "H7"
021034:  202200016147  movem    a, getchr       ;"02 !QG"
p2ini:
021035:  621000200000  tlz      ff, dfld        ;"R( 0  "
021036:  402000015025  setzm    gensm           ;"@0 !H5"
021037:  201200000100  movei    a, foo          ;"0*  ! "
021040:  202200014751  movem    a, concnt       ;"02 !GI"
021041:  201200335651  movei    a, vartab       ;"0* ;NI"
021042:  202200014761  movem    a, varpnt       ;"02 !GQ"
021043:  201200000100  movei    a, foo          ;"0*  ! "
021044:  202200014762  movem    a, varcnr       ;"02 !GR"
021045:  402000014725  setzm    ofloc           ;"@0 !G5"
021046:  402000014726  setzm    ofrloc          ;"@0 !G6"
021047:  402000014740  setzm    varcnt          ;"@0 !G@"
021050:  402000014720  setzm    pbits2          ;"@0 !G0"
021051:  200200025053  move     a, 25053        ;"0" "HK"
021052:  202200014767  movem    a, bitp         ;"02 !GW"
021053:  201200014721  movei    a, pbits4       ;"0* !G1"
021054:  552200014721  hrrzm    a, pbits4       ;"M2 !G1"
021055:  403100014717  setzb    i, pbits1       ;"@9 !G/"
021056:  201200276351  movei    a, contab       ;"0* 7SI"
021057:  202200014745  movem    a, plim         ;"02 !GE"
021060:  201200327351  movei    a, pcntb        ;"0* :[I"
021061:  202200014744  movem    a, pbcon        ;"02 !GD"
021062:  200200025054  move     a, 25054        ;"0" "HL"
021063:  202200327351  movem    a, pcntb        ;"02 :[I"
021064:  350000000004  aos      a               ;"=    $"
021065:  202200014747  movem    a, csqz         ;"02 !GG"
021066:  201200000010  movei    a, t            ;"0*   ("
021067:  202200015553  movem    a, aradix       ;"02 !MK"
021070:  201200000100  movei    a, foo          ;"0*  ! "
021071:  202200014723  movem    a, cloc         ;"02 !G3"
021072:  402000014724  setzm    crloc           ;"@0 !G4"
021073:  201200066024  movei    a, 66024        ;"0* &P4"
021074:  202200014727  movem    a, opt1         ;"02 !G7"
021075:  660000600000  tro      ff, 3rel        ;"V  P  "
021076:  402000014754  setzm    syloc           ;"@0 !GL"
021077:  402000014755  setzm    sysym           ;"@0 !GM"
021100:  200200025055  move     a, 25055        ;"0" "HM"
021101:  251200022136  blt      a, frtbe        ;"5* "1>"
cretn:
021102:  263040021141  popj     p, return       ;"68@")A"
a.qote:
021103:  620100225047  trz      i, 225047       ;"R! 2HG"
021104:  621100001537  tlz      i, rbend        ;"R)  -?"
021105:  660100000010  tro      i, t            ;"V!   ("
021106:  621000100000  tlz      ff, hfwdf       ;"R( (  "
021107:  200040025056  move     p, 25056        ;"0 @"HN"
021110:  552040014763  hrrzm    p, getcnr       ;"M0@!GS"
021111:  201200066067  movei    a, glotb        ;"0* &PW"
021112:  202200014704  movem    a, glsp1        ;"02 !G$"
021113:  603100004000  tlne     i, mwrd         ;"P9  @ "
021114:  254000021123  jrst     assem2          ;"5@ ")3"
021115:  260040016145  pushj    p, arch         ;"6 @!QE"
021116:  307200000040  caig     a, tpchna       ;"8Z   @"
021117:  254000021115  jrst     21115           ;"5@ ")-"
021120:  402000014775  setzm    parbit          ;"@0 !G]"
021121:  661100002000  tlo      i, alnscn       ;"V)  0 "
021122:  402000014760  setzm    condep          ;"@0 !GP"
assem2:
021123:  260040022147  pushj    p, getwrd       ;"6 @"1G"
021124:  627100000400  tlzn     i, disize       ;"RY  $ "
021125:  254000021103  jrst     a.qote          ;"5@ ")#"
021126:  332000014776  skipe    stgsw           ;";0 !G^"
021127:  001000636744                           ;" ( SWD"
021130:  335000015000  skipge   bytm            ;";H !H "
021131:  254000024764  jrst     pbyte           ;"5@ "GT"
assem3:
021132:  260040022526  pushj    p, pwrd         ;"6 @"56"
021133:  350000014723  aos      cloc            ;"=  !G3"
021134:  254000021103  jrst     a.qote          ;"5@ ")#"
psyms:
021135:  542200021141  hrrm     a, return       ;"L2 ")A"
021136:  606000200000  trnn     ff, dfld        ;"PP 0  "
021137:  254000021142  jrst     apsym1          ;"5@ ")B"
021140:  260040023743  pushj    p, symdmp       ;"6 @"?C"
return:
021141:  254000021141  jrst     return          ;"5@ ")A"
apsym1:
021142:  336000014735  skipn    contrl          ;";P !G="
021143:  260040024100  pushj    p, symda        ;"6 @"A "
021144:  254000021141  jrst     return          ;"5@ ")A"
equal:
021145:  316500025023  camn     sym, 25023      ;"9U "H3"
021146:  254000023307  jrst     aloc            ;"5@ ";'"
021147:  606100204000  trnn     i, 204000       ;"PQ 0@ "
021150:  606100000004  trnn     i, a            ;"PQ   $"
021151:  005000516041                           ;" H IPA"
021152:  261040000012  push     p, sym          ;"6(@  *"
021153:  261040000002  push     p, i            ;"6(@  ""
021154:  200200025057  move     a, 25057        ;"0" "HO"
021155:  202200021701  movem    a, gtver        ;"02 "/!"
021156:  660100004210  tro      i, 4210         ;"V!  B("
021157:  260040016145  pushj    p, arch         ;"6 @!QE"
021160:  302200000075  caie     a, 75           ;"82   ]"
021161:  665100002000  tloa     i, alnscn       ;"VI  0 "
021162:  661000100000  tlo      ff, hfwdf       ;"V( (  "
021163:  260040022147  pushj    p, getwrd       ;"6 @"1G"
021164:  201640000004  movei    ch1, a          ;"0.@  $"
021165:  202640014775  movem    ch1, parbit     ;"06@!G]"
021166:  606100000010  trnn     i, t            ;"PQ   ("
021167:  254000021322  jrst     asem1a          ;"5@ "+2"
021170:  630100025060  tdz      i, 25060        ;"S! "HP"
021171:  434101000000  or       i, (p)          ;"CA!   "
021172:  262041000000  pop      p, (p)          ;"60A   "
021173:  262040000012  pop      p, sym          ;"60@  *"
021174:  332000014774  skipe    ldccc           ;";0 !G\"
021175:  254000021201  jrst     eqg1            ;"5@ "*!"
021176:  200200014704  move     a, glsp1        ;"0" !G$"
021177:  316200014705  camn     a, glsp2        ;"9R !G%"
021200:  254000021272  jrst     eql1            ;"5@ "*Z"
eqg1:
021201:  260040021750  pushj    p, es           ;"6 @"/H"
021202:  254000021261  jrst     eql2            ;"5@ "*Q"
021203:  254004021204  jrst     21204(a)        ;"5@$"*$"
021204:  005000516041                           ;" H IPA"
021205:  005000516041                           ;" H IPA"
021206:  254000021261  jrst     eql2            ;"5@ "*Q"
021207:  254000021261  jrst     eql2            ;"5@ "*Q"
021210:  005000516041                           ;" H IPA"
021211:  005000516041                           ;" H IPA"
021212:  005000516041                           ;" H IPA"
021213:  005000516041                           ;" H IPA"
021214:  254000021217  jrst     eql7            ;"5@ "*/"
eql8:
021215:  322240021217  jumpe    b, eql7         ;":2@"*/"
021216:  260040021243  pushj    p, glkpnr       ;"6 @"*C"
eql7:
021217:  261040021264  push     p, casm1a       ;"6(@"*T"
glopra:
021220:  205400400000  movsi    t, ppss         ;"0L @  "
021221:  205300004077  movsi    c, 4077         ;"0K  @_"
021222:  201240000000  movei    b, ff           ;"0*@   " " *\0\0\0"
021223:  661500040000  tlo      sym, vot        ;"V- $  "
lopra1:
021224:  260040022042  pushj    p, vsm2         ;"6 @"0B"
021225:  325000023742  jumpge   ff, cpopj       ;":H "?B"
021226:  661300020000  tlo      c, pss          ;"V+ "  "
021227:  550740000007  hrrz     tm, d           ;"M'@  '"
021230:  241740777776  rot      tm, 777776      ;"4/@__^"
021231:  335000000017  skipge   tm              ;";H   /"
021232:  546317243050  hlrm     c, 3rdwrd(tm)   ;"LS/48H"
021233:  331000000017  skipl    tm              ;";(   /"
021234:  502317243050  hllm     c, 3rdwrd(tm)   ;"H3/48H"
021235:  260040022443  pushj    p, eblk         ;"6 @"4C"
021236:  201440000007  movei    tt, d           ;"0,@  '"
021237:  137440025061  dpb      tt, 25061       ;"+\@"HQ"
021240:  260040022422  pushj    p, outsm        ;"6 @"42"
021241:  260040022525  pushj    p, pwrda        ;"6 @"55"
021242:  254000022443  jrst     eblk            ;"5@ "4C"
glkpnr:
021243:  661500040000  tlo      sym, vot        ;"V- $  "
lkpnro:
021244:  607300100000  tlnn     c, hfwdf        ;"P[ (  "
021245:  603240777777  tlne     b, maccr        ;"P:@___"
021246:  664100001000  troa     i, nprc         ;"VA  ( "
021247:  263040000000  popj     p,              ;"68@   " ",b\0\0\0"
021250:  201200000006  movei    a, c            ;"0*   &"
021251:  260040022411  pushj    p, pbits        ;"6 @"4)"
021252:  260040022422  pushj    p, outsm        ;"6 @"42"
021253:  554200000005  hlrz     a, b            ;"MB   %"
021254:  623300100000  tlze     c, hfwdf        ;"R; (  "
021255:  661200100000  tlo      a, hfwdf        ;"V* (  "
021256:  553000000005  hrrzs    ff, b           ;"M8   %"
021257:  620100001000  trz      i, nprc         ;"R!  ( "
021260:  254000022424  jrst     output          ;"5@ "44"
eql2:
021261:  603100000001  tlne     i, p            ;"P9   !"
021262:  254000021217  jrst     eql7            ;"5@ "*/"
021263:  260040021265  pushj    p, lopra        ;"6 @"*U"
casm1a:
021264:  254000021322  jrst     asem1a          ;"5@ "+2"
lopra:
021265:  205400140000  movsi    t, lcudf        ;"0L ,  "
021266:  621300000077  tlz      c, 77           ;"R+   _"
021267:  434300014736  or       c, lev          ;"CC !G>"
021270:  661300004000  tlo      c, mwrd         ;"V+  @ "
021271:  254000021224  jrst     lopra1          ;"5@ "*4"
eql1:
021272:  260040021750  pushj    p, es           ;"6 @"/H"
021273:  254000021451  jrst     eql1a           ;"5@ ",I"
021274:  254004021275  jrst     21275(a)        ;"5@$"*]"
021275:  005000516041                           ;" H IPA"
021276:  254000021400  jrst     eql1b2          ;"5@ ", "
021277:  254000021401  jrst     eql1b           ;"5@ ",!"
021300:  254000021344  jrst     eql1c           ;"5@ "+D"
021301:  005000516041                           ;" H IPA"
021302:  005000516041                           ;" H IPA"
021303:  005000516041                           ;" H IPA"
021304:  005000516041                           ;" H IPA"
021305:  254000021307  jrst     eql1d           ;"5@ "+'"
eql1e:
021306:  260040021243  pushj    p, glkpnr       ;"6 @"*C"
eql1d:
021307:  260040022721  pushj    p, rchk         ;"6 @"71"
eqlb2:
021310:  260040022732  pushj    p, rmove        ;"6 @"7:"
021311:  661300000077  tlo      c, 77           ;"V+   _"
021312:  200240014710  move     b, wrd          ;"0"@!G("
021313:  515400400000  hrlzi    t, ppss         ;"IL @  "
021314:  332000014774  skipe    ldccc           ;";0 !G\"
021315:  661300004000  tlo      c, mwrd         ;"V+  @ "
021316:  260040022042  pushj    p, vsm2         ;"6 @"0B"
021317:  661500040000  tlo      sym, vot        ;"V- $  "
eql1ce:
021320:  325000021322  jumpge   ff, asem1a      ;":H "+2"
021321:  260040021326  pushj    p, outde1       ;"6 @"+6"
asem1a:
021322:  603100004000  tlne     i, mwrd         ;"P9  @ "
021323:  260040024310  pushj    p, igtxt        ;"6 @"C("
atermi:
021324:  254000021103  jrst     a.qote          ;"5@ ")#"
outde2:
021325:  202240014710  movem    b, wrd          ;"02@!G("
outde1:
021326:  603000400000  tlne     ff, ppss        ;"P8 @  "
outd1:
021327:  661300020000  tlo      c, pss          ;"V+ "  "
021330:  550740000007  hrrz     tm, d           ;"M'@  '"
021331:  241740777776  rot      tm, 777776      ;"4/@__^"
021332:  335000000017  skipge   tm              ;";H   /"
021333:  546317243050  hlrm     c, 3rdwrd(tm)   ;"LS/48H"
021334:  331000000017  skipl    tm              ;";(   /"
021335:  502317243050  hllm     c, 3rdwrd(tm)   ;"H3/48H"
outdef:
021336:  660100001000  tro      i, nprc         ;"V!  ( "
021337:  260040021362  pushj    p, p70          ;"6 @"+R"
021340:  260040021617  pushj    p, gtvl7b       ;"6 @"./"
eql1cc:
021341:  260040022422  pushj    p, outsm        ;"6 @"42"
021342:  620100001000  trz      i, nprc         ;"R!  ( "
021343:  254000022423  jrst     outwd           ;"5@ "43"
eql1c:
021344:  200400014736  move     t, lev          ;"0$ !G>"
021345:  312400014732  came     t, esl1         ;"94 !G:"
021346:  254000021366  jrst     eql1cd          ;"5@ "+V"
021347:  603100000001  tlne     i, p            ;"P9   !"
021350:  254000021371  jrst     eql1ca          ;"5@ "+Y"
eql1cb:
021351:  261040000006  push     p, c            ;"6(@  &"
021352:  260040021244  pushj    p, lkpnro       ;"6 @"*D"
021353:  260040021455  pushj    p, rchkmv       ;"6 @",M"
021354:  205400100000  movsi    t, hfwdf        ;"0L (  "
021355:  260040021374  pushj    p, eqa2a        ;"6 @"+\"
021356:  262040000003  pop      p, aa           ;"60@  #"
021357:  603140001000  tlne     aa, nprc        ;"P9@ ( "
021360:  260040020152  pushj    p, conbug       ;"6 @"!J"
021361:  254000021320  jrst     eql1ce          ;"5@ "+0"
p70:
021362:  260040021364  pushj    p, pbits7       ;"6 @"+T"
pbitsz:
021363:  334200014775  skipa    a, parbit       ;";B !G]"
pbits7:
021364:  201200000007  movei    a, d            ;"0*   '"
021365:  254000022411  jrst     pbits           ;"5@ "4)"
eql1cd:
021366:  607100000001  tlnn     i, p            ;"PY   !"
021367:  254000021413  jrst     eql1ba          ;"5@ ",+"
021370:  254000021306  jrst     eql1e           ;"5@ "+&"
eql1ca:
021371:  260040021703  pushj    p, ploglo       ;"6 @"/#"
021372:  254000021306  jrst     eql1e           ;"5@ "+&"
eqa2:
021373:  261040021264  push     p, casm1a       ;"6(@"*T"
eqa2a:
021374:  434300014736  or       c, lev          ;"CC !G>"
021375:  603000100000  tlne     ff, hfwdf       ;"P8 (  "
021376:  661300010000  tlo      c, macrch       ;"V+ !  "
021377:  254000022041  jrst     vsm2w           ;"5@ "0A"
eql1b2:
021400:  002000616041                           ;" 0 QPA"
eql1b:
021401:  260040022721  pushj    p, rchk         ;"6 @"71"
021402:  603100000001  tlne     i, p            ;"P9   !"
021403:  254000021310  jrst     eqlb2           ;"5@ "+("
eql1b1:
021404:  200400014736  move     t, lev          ;"0$ !G>"
021405:  312400014732  came     t, esl1         ;"94 !G:"
021406:  254000021413  jrst     eql1ba          ;"5@ ",+"
021407:  260040022732  pushj    p, rmove        ;"6 @"7:"
021410:  205400100000  movsi    t, hfwdf        ;"0L (  "
021411:  254000021373  jrst     eqa2            ;"5@ "+["
colon2:
021412:  262040000006  pop      p, c            ;"60@  &"
eql1ba:
021413:  211440063760  movni    tt, smk         ;"1,@&?P"
021414:  260040022056  pushj    p, hash         ;"6 @"0N"
021415:  200246073110  move     b, st(c)        ;"0"F'9(" " \n0v$"
021416:  621240740000  tlz      b, bsup         ;"R*@\  "
021417:  322240021427  jumpe    b, eql1bb       ;":2@",7"
021420:  316240000012  camn     b, sym          ;"9R@  *"
021421:  254000021434  jrst     eql1sm          ;"5@ ",<"
eql1sr:
021422:  271300000002  addi     c, i            ;"7+   ""
021423:  301300147740  cail     c, 147740       ;"8+ ,_@"
021424:  201300000000  movei    c, ff           ;"0+    " " ,\0\0\0"
021425:  346440021415  aojn     tt, 21415       ;"<T@",-"
021426:  000000634345                           ;"   SCE"
eql1bb:
021427:  200340000006  move     d, c            ;"0#@  &"
eql1a1:
021430:  260040021455  pushj    p, rchkmv       ;"6 @",M"
021431:  515400100000  hrlzi    t, hfwdf        ;"IL (  "
021432:  661300000400  tlo      c, disize       ;"V+  $ "
021433:  254000021373  jrst     eqa2            ;"5@ "+["
eql1sm:
021434:  550740000006  hrrz     tm, c           ;"M'@  &"
021435:  241740777776  rot      tm, 777776      ;"4/@__^"
021436:  510357243050  hllz     d, 3rdwrd(tm)   ;"I#O48H"
021437:  335000000017  skipge   tm              ;";H   /"
021440:  514357243050  hrlz     d, 3rdwrd(tm)   ;"ICO48H"
021441:  661340000400  tlo      d, disize       ;"V+@ $ "
021442:  550740000006  hrrz     tm, c           ;"M'@  &"
021443:  241740777776  rot      tm, 777776      ;"4/@__^"
021444:  335000000017  skipge   tm              ;";H   /"
021445:  546357243050  hlrm     d, 3rdwrd(tm)   ;"LSO48H"
021446:  331000000017  skipl    tm              ;";(   /"
021447:  502357243050  hllm     d, 3rdwrd(tm)   ;"H3O48H"
021450:  254000021422  jrst     eql1sr          ;"5@ ",2"
eql1a:
021451:  607100000001  tlnn     i, p            ;"PY   !"
021452:  254000021430  jrst     eql1a1          ;"5@ ",8"
eq12:
021453:  201300000000  movei    c, ff           ;"0+    " " ,\0\0\0"
021454:  254000021307  jrst     eql1d           ;"5@ "+'"
rchkmv:
021455:  260040022721  pushj    p, rchk         ;"6 @"71"
021456:  254000022732  jrst     rmove           ;"5@ "7:"
getval:
021457:  544140000002  hlr      aa, i           ;"LA@  ""
021460:  405140000003  andi     aa, aa          ;"@I@  #"
021461:  260040021750  pushj    p, es           ;"6 @"/H"
021462:  254000021510  jrst     gtvl2           ;"5@ "-("
021463:  254004021464  jrst     21464(a)        ;"5@$",T"
021464:  254000021532  jrst     gtvl1           ;"5@ "-:"
021465:  254000021527  jrst     gtvpm           ;"5@ "-7"
021466:  254000021535  jrst     gtvl3           ;"5@ "-="
021467:  254000021647  jrst     gtvle           ;"5@ ".G"
021470:  254000021567  jrst     gtvl6a          ;"5@ "-W"
021471:  254000021603  jrst     gtvl6           ;"5@ ".#"
021472:  254000021575  jrst     gtvlb           ;"5@ "-]"
021473:  254000021664  jrst     gtvle4          ;"5@ ".T"
021474:  254000021610  jrst     gtvl5           ;"5@ ".("
gtvld:
021475:  603100000002  tlne     i, i            ;"P9   ""
021476:  254000021503  jrst     gtvld1          ;"5@ "-#"
gtvld4:
021477:  350000014704  aos      glsp1           ;"=  !G$"
021500:  201407073110  movei    t, st(d)        ;"0,''9(" " 08v$"
gtvd2a:
021501:  552420014704  hrrzm    t, @glsp1       ;"M40!G$"
gtvlz:
021502:  254000023664  jrst     cabpop          ;"5@ ">T"
gtvld1:
021503:  205400340000  movsi    t, udefgv       ;"0L <  "
gtvl1a:
021504:  350000014740  aos      varcnt          ;"=  !G@"
021505:  540240014740  hrr      b, varcnt       ;"L"@!G@"
gtv2c1:
021506:  661300000077  tlo      c, 77           ;"V+   _"
gtvld3:
021507:  254000021517  jrst     gtvl2d          ;"5@ "-/"
gtvl2:
021510:  200300014736  move     c, lev          ;"0# !G>"
021511:  254003021512  jrst     21512(aa)       ;"5@#"-*"
021512:  254000021523  jrst     gtvl2p          ;"5@ "-3"
021513:  254000021521  jrst     gtvl2c          ;"5@ "-1"
021514:  334400025062  skipa    t, 25062        ;";D "HR"
021515:  205400340000  movsi    t, udefgv       ;"0L <  "
021516:  350240014740  aos      b, varcnt       ;"="@!G@"
gtvl2d:
021517:  260040022042  pushj    p, vsm2         ;"6 @"0B"
021520:  254000021477  jrst     gtvld4          ;"5@ ",_"
gtvl2c:
021521:  205400440000  movsi    t, gloext       ;"0L D  "
021522:  254000021506  jrst     gtv2c1          ;"5@ "-&"
gtvl2p:
021523:  260040021666  pushj    p, getvun       ;"6 @".V"
mlcudf:
021524:  205400140000  movsi    t, lcudf        ;"0L ,  "
021525:  201240000000  movei    b, ff           ;"0*@   " " *\0\0\0"
021526:  254000021517  jrst     gtvl2d          ;"5@ "-/"
gtvpm:
021527:  623100000003  tlze     i, aa           ;"R9   #"
021530:  001000515466                           ;" ( ILV"
021531:  254005000000  jrst     (b)             ;"5@%   "
gtvl1:
021532:  660100000040  tro      i, tpchna       ;"V!   @"
021533:  550200000005  hrrz     a, b            ;"M"   %"
021534:  254000023741  jrst     clbpop          ;"5@ "?A"
gtvl3:
021535:  623100000002  tlze     i, i            ;"R9   ""
021536:  001000554466                           ;" ( MDV"
021537:  603100000001  tlne     i, p            ;"P9   !"
021540:  254000021546  jrst     gtvl7           ;"5@ "-F"
gtvl8:
021541:  200200000005  move     a, b            ;"0"   %"
021542:  135240025063  ldb      b, 25063        ;"+J@"HS"
021543:  603300400000  tlne     c, ppss         ;"P; @  "
021544:  661240000001  tlo      b, p            ;"V*@  !"
021545:  263040000000  popj     p,              ;"68@   " ",b\0\0\0"
gtvl7:
021546:  515400400000  hrlzi    t, ppss         ;"IL @  "
021547:  661300000077  tlo      c, 77           ;"V+   _"
021550:  260040022042  pushj    p, vsm2         ;"6 @"0B"
gtvl5a:
021551:  325000021561  jumpge   ff, gtvl8g      ;":H "-Q"
021552:  607300004000  tlnn     c, mwrd         ;"P[  @ "
021553:  602100004200  trne     i, 4200         ;"P1  B "
021554:  254000021561  jrst     gtvl8g          ;"5@ "-Q"
021555:  661500040000  tlo      sym, vot        ;"V- $  "
021556:  261040014710  push     p, wrd          ;"6(@!G("
021557:  260040021325  pushj    p, outde2       ;"6 @"+5"
021560:  262040014710  pop      p, wrd          ;"60@!G("
gtvl8g:
021561:  606100000200  trnn     i, mrsw         ;"PQ  " "
021562:  606100004000  trnn     i, mwrd         ;"PQ  @ "
021563:  607300600000  tlnn     c, 3rel         ;"P[ P  "
gtvl8l:
021564:  603300004000  tlne     c, mwrd         ;"P;  @ "
gtvd2:
021565:  254000021477  jrst     gtvld4          ;"5@ ",_"
021566:  254000021541  jrst     gtvl8           ;"5@ "-A"
gtvl6a:
021567:  260040021576  pushj    p, gtvb1        ;"6 @"-^"
021570:  627100000001  tlzn     i, p            ;"RY   !"
021571:  254000021564  jrst     gtvl8l          ;"5@ "-T"
gtvl6b:
021572:  260040021703  pushj    p, ploglo       ;"6 @"/#"
021573:  515400300000  hrlzi    t, defgvr       ;"IL 8  "
021574:  260040022042  pushj    p, vsm2         ;"6 @"0B"
gtvlb:
021575:  261040021565  push     p, gtvd2        ;"6(@"-U"
gtvb1:
021576:  602000020000  trne     ff, pss         ;"P0 "  "
021577:  607100000002  tlnn     i, i            ;"PY   ""
021600:  263040000000  popj     p,              ;"68@   " ",b\0\0\0"
021601:  661300002000  tlo      c, alnscn       ;"V+  0 "
021602:  254000022047  jrst     vsm3a           ;"5@ "0G"
gtvl6:
021603:  607100000001  tlnn     i, p            ;"PY   !"
021604:  254000021664  jrst     gtvle4          ;"5@ ".T"
021605:  260040021703  pushj    p, ploglo       ;"6 @"/#"
021606:  515400340000  hrlzi    t, udefgv       ;"IL <  "
021607:  254000021517  jrst     gtvl2d          ;"5@ "-/"
gtvl5:
021610:  623100000002  tlze     i, i            ;"R9   ""
021611:  001000554466                           ;" ( MDV"
021612:  603100000001  tlne     i, p            ;"P9   !"
021613:  603300020000  tlne     c, pss          ;"P; "  "
021614:  254000021561  jrst     gtvl8g          ;"5@ "-Q"
021615:  254000021551  jrst     gtvl5a          ;"5@ "-I"
gtvl7a:
021616:  661500040000  tlo      sym, vot        ;"V- $  "
gtvl7b:
021617:  603300400000  tlne     c, ppss         ;"P; @  "
021620:  661500200000  tlo      sym, dfld       ;"V- 0  "
021621:  603300200000  tlne     c, dfld         ;"P; 0  "
021622:  661500100000  tlo      sym, hfwdf      ;"V- (  "
021623:  263040000000  popj     p,              ;"68@   " ",b\0\0\0"
gtvlp:
021624:  603000200000  tlne     ff, dfld        ;"P8 0  "
021625:  254000021640  jrst     gtvlp1          ;"5@ ".@"
021626:  602000001000  trne     ff, nprc        ;"P0  ( "
021627:  254000021643  jrst     gtvlp2          ;"5@ ".C"
021630:  200240014726  move     b, ofrloc       ;"0"@!G6"
021631:  270240014724  add      b, crloc        ;"7"@!G4"
021632:  200200014723  move     a, cloc         ;"0" !G3"
021633:  270200014725  add      a, ofloc        ;"7" !G5"
021634:  621100000114  tlz      i, 114          ;"R)  !,"
021635:  335000015000  skipge   bytm            ;";H !H "
021636:  500200015004  hll      a, bytwp        ;"H" !H$"
021637:  263040000000  popj     p,              ;"68@   " ",b\0\0\0"
gtvlp1:
021640:  603000400000  tlne     ff, ppss        ;"P8 @  "
021641:  001000605651                           ;" ( PNI"
021642:  254000021502  jrst     gtvlz           ;"5@ "-""
gtvlp2:
021643:  201400021646  movei    t, $.h          ;"0, ".F"
021644:  350000014704  aos      glsp1           ;"=  !G$"
021645:  254000021501  jrst     gtvd2a          ;"5@ "-!"
$.h:
021646:  435545050000  ori      link, 50000(b)  ;"CME%  " "G6(P\0"
gtvle:
021647:  603300004000  tlne     c, mwrd         ;"P;  @ "
021650:  254000021477  jrst     gtvld4          ;"5@ ",_"
021651:  254003021652  jrst     21652(aa)       ;"5@#".J"
021652:  254000021664  jrst     gtvle4          ;"5@ ".T"
021653:  254000021662  jrst     gtvle1          ;"5@ ".R"
021654:  254000021657  jrst     gtvle2          ;"5@ ".O"
021655:  260040021703  pushj    p, ploglo       ;"6 @"/#"
021656:  254000021503  jrst     gtvld1          ;"5@ "-#"
gtvle2:
021657:  260040021666  pushj    p, getvun       ;"6 @".V"
021660:  515400240000  hrlzi    t, udeflv       ;"IL 4  "
021661:  254000021504  jrst     gtvl1a          ;"5@ "-$"
gtvle1:
021662:  260040021703  pushj    p, ploglo       ;"6 @"/#"
021663:  254000021521  jrst     gtvl2c          ;"5@ "-1"
gtvle4:
021664:  260040021666  pushj    p, getvun       ;"6 @".V"
021665:  254000021477  jrst     gtvld4          ;"5@ ",_"
getvun:
021666:  620100000010  trz      i, t            ;"R!   ("
021667:  602100004000  trne     i, mwrd         ;"P1  @ "
021670:  254000021701  jrst     gtver           ;"5@ "/!"
021671:  606000020000  trnn     ff, pss         ;"PP "  "
021672:  263040000000  popj     p,              ;"68@   " ",b\0\0\0"
021673:  336000014760  skipn    condep          ;";P !GP"
021674:  001000656367                           ;" ( USW"
021675:  332000014760  skipe    condep          ;";0 !GP"
021676:  001000656343                           ;" ( USC"
gtver1:
021677:  262041000001  pop      p, dschna(p)    ;"60A  !"
021700:  254000021502  jrst     gtvlz           ;"5@ "-""
gtver:
021701:  000000000000                           ;"      "
021702:  254000021677  jrst     gtver1          ;"5@ "._"
ploglo:
021703:  261040000004  push     p, a            ;"6(@  $"
021704:  260040021364  pushj    p, pbits7       ;"6 @"+T"
021705:  201200000002  movei    a, i            ;"0*   ""
021706:  260040022411  pushj    p, pbits        ;"6 @"4)"
021707:  260040022422  pushj    p, outsm        ;"6 @"42"
021710:  254000024315  jrst     popaj           ;"5@ "C-"
dtb:
021711:  100000022257                           ;"(  "2O"
021712:  400000015420  setz     ff, rrl2        ;"@  !L0"
021713:  400000015770  setz     ff, dquote      ;"@  !OX"
021714:  200000015332  move     ff, xorf        ;"0  !K:"
021717:  200000015334  move     ff, andf        ;"0  !K<"
021720:  400000016004  setz     ff, squote      ;"@  !P$"
021721:  200000020533  move     ff, leftp       ;"0  "%;"
021722:  000000000000                           ;"      "
021723:  200000015235  move     ff, multp       ;"0  !J="
021724:  200000015205  move     ff, pls         ;"0  !J%"
021725:  100000022224                           ;"(  "24"
021726:  200000015233  move     ff, minus       ;"0  !J;"
021727:  400000015123  setz     ff, sgtsy1      ;"@  !I3"
021730:  200000015267  move     ff, divid       ;"0  !JW"
021731:  400000017656  setz     ff, colon       ;"@  !^N"
021732:  400000015362  setz     ff, semic       ;"@  !KR"
021733:  200000020305  move     ff, lssth       ;"0  "#%"
021734:  400000021145  setz     ff, equal       ;"@  ")E"
021737:  400000015455  setz     ff, atsgn       ;"@  !LM"
021740:  200000020557  move     ff, lbrak       ;"0  "%O"
021741:  200000015327  move     ff, iorf        ;"0  !K7"
021742:  400000015367  setz     ff, rbrak       ;"@  !KW"
021743:  400000015654  setz     ff, uparr       ;"@  !NL"
021744:  400000015744  setz     ff, bakar       ;"@  !OD"
021745:  000000000000                           ;"      "
021746:  100000022257                           ;"(  "2O"
021747:  000000000000                           ;"      "
es:
021750:  211440063760  movni    tt, smk         ;"1,@&?P"
021751:  477340014732  setob    d, esl1         ;"G[@!G:"
021752:  200240000012  move     b, sym          ;"0"@  *"
021753:  621240740000  tlz      b, bsup         ;"R*@\  "
021754:  651240000005  tsc      b, b            ;"U*@  %"
021755:  217000000005  movms    ff, b           ;"1X   %"
021756:  231240063760  idivi    b, smk          ;"3*@&?P"
021757:  240300000001  ash      c, p            ;"4#   !"
es4:
021760:  336246073110  skipn    b, st(c)        ;";RF'9(" "7J0v$"
021761:  254000022020  jrst     es2             ;"5@ "00"
021762:  621240740000  tlz      b, bsup         ;"R*@\  "
021763:  312240000012  came     b, sym          ;"92@  *"
021764:  254000022005  jrst     es3             ;"5@ "0%"
021765:  550740000006  hrrz     tm, c           ;"M'@  &"
021766:  241740777776  rot      tm, 777776      ;"4/@__^"
021767:  510217243050  hllz     a, 3rdwrd(tm)   ;"I"/48H"
021770:  335000000017  skipge   tm              ;";H   /"
021771:  514217243050  hrlz     a, 3rdwrd(tm)   ;"IB/48H"
021772:  200740000004  move     tm, a           ;"0'@  $"
021773:  621200777700  tlz      a, 777700       ;"R* __ "
021774:  336000014716  skipn    fldcnt          ;";P !G."
021775:  322200022032  jumpe    a, es3b1        ;":2 "0:"
021776:  317200014732  camg     a, esl1         ;"9Z !G:"
021777:  254000022005  jrst     es3             ;"5@ "0%"
es3b:
022000:  202740014733  movem    tm, esl2        ;"07@!G;"
022001:  202200014732  movem    a, esl1         ;"02 !G:"
022002:  202300014734  movem    c, sadr         ;"03 !G<"
022003:  607740000400  tlnn     tm, disize      ;"P_@ $ "
022004:  254000022022  jrst     es2a            ;"5@ "02"
es3:
022005:  326240022010  jumpn    b, es5          ;":R@"0("
022006:  335000000007  skipge   d               ;";H   '"
022007:  200340000006  move     d, c            ;"0#@  &"
es5:
022010:  271300000002  addi     c, i            ;"7+   ""
022011:  301300147740  cail     c, 147740       ;"8+ ,_@"
022012:  201300000000  movei    c, ff           ;"0+    " " ,\0\0\0"
022013:  346440021760  aojn     tt, es4         ;"<T@"/P"
022014:  331000014732  skipl    esl1            ;";( !G:"
022015:  254000022022  jrst     es2a            ;"5@ "02"
022016:  325340022036  jumpge   d, es6a         ;":K@"0>"
022017:  000000634345                           ;"   SCE"
es2:
022020:  335000014732  skipge   esl1            ;";H !G:"
022021:  254000022034  jrst     es6             ;"5@ "0<"
es2a:
022022:  200340014734  move     d, sadr         ;"0#@!G<"
022023:  200207073110  move     a, st(d)        ;"0"''9("
022024:  241200000004  rot      a, a            ;"4*   $"
022025:  405200000017  andi     a, tm           ;"@J   /"
022026:  200247073111  move     b, 73111(d)     ;"0"G'9)"
022027:  200300014733  move     c, esl2         ;"0# !G;"
popj1:
022030:  350001000000  aos      (p)             ;"= !   "
022031:  263040000000  popj     p,              ;"68@   " ",b\0\0\0"
es3b1:
022032:  205200000100  movsi    a, foo          ;"0J  ! "
022033:  254000022000  jrst     es3b            ;"5@ "0 "
es6:
022034:  335000000007  skipge   d               ;";H   '"
022035:  200340000006  move     d, c            ;"0#@  &"
es6a:
022036:  202340014734  movem    d, sadr         ;"03@!G<"
022037:  263040000000  popj     p,              ;"68@   " ",b\0\0\0"
vsm2lv:
022040:  665300004000  tloa     c, mwrd         ;"VK  @ "
vsm2w:
022041:  200240014710  move     b, wrd          ;"0"@!G("
vsm2:
022042:  200640000012  move     ch1, sym        ;"0&@  *"
022043:  621640740000  tlz      ch1, bsup       ;"R.@\  "
022044:  434400000015  or       t, ch1          ;"CD   -"
022045:  202407073110  movem    t, st(d)        ;"04''9(" " P8v$"
vsm3:
022046:  202247073111  movem    b, 73111(d)     ;"02G'9)"
vsm3a:
022047:  550740000007  hrrz     tm, d           ;"M'@  '"
022050:  241740777776  rot      tm, 777776      ;"4/@__^"
022051:  335000000017  skipge   tm              ;";H   /"
022052:  546317243050  hlrm     c, 3rdwrd(tm)   ;"LS/48H"
022053:  331000000017  skipl    tm              ;";(   /"
022054:  502317243050  hllm     c, 3rdwrd(tm)   ;"H3/48H"
022055:  263040000000  popj     p,              ;"68@   " ",b\0\0\0"
hash:
022056:  200240000012  move     b, sym          ;"0"@  *"
022057:  621240740000  tlz      b, bsup         ;"R*@\  "
022060:  651240000005  tsc      b, b            ;"U*@  %"
022061:  217000000005  movms    ff, b           ;"1X   %"
022062:  231240063760  idivi    b, smk          ;"3*@&?P"
022063:  240300000001  ash      c, p            ;"4#   !"
022064:  263040000000  popj     p,              ;"68@   " ",b\0\0\0"
ifortb:
022065:  002200000000                           ;" 2    "
022066:  002200000000                           ;" 2    "
022072:  004400000000                           ;" D    "
022076:  002200440000                           ;" 2 D  "
022077:  002200220044                           ;" 2 2 D"
022100:  270400440000  add      t, gloext       ;"7$ D  "
022101:  002227040044                           ;" 27$ D"
022102:  004400000000                           ;" D    "
022103:  000000000000                           ;"      "
022104:  000022220000                           ;"  22  "
022105:  002200002222                           ;" 2  22"
022106:  002200440000                           ;" 2 D  "
a.form:
022137:  260040017237  pushj    p, agetfd       ;"6 @!Z?"
022140:  001000654621                           ;" ( UF1"
022141:  261040000004  push     p, a            ;"6(@  $"
022142:  260040017237  pushj    p, agetfd       ;"6 @!Z?"
022143:  001000654622                           ;" ( UF2"
022144:  262040000005  pop      p, b            ;"60@  %"
022145:  202205022077  movem    a, 22077(b)     ;"02%"0_"
022146:  254000021103  jrst     a.qote          ;"5@ ")#"
getwrd:
022147:  200400014704  move     t, glsp1        ;"0$ !G$"
022150:  202400014705  movem    t, glsp2        ;"04 !G%"
022151:  402000014706  setzm    format          ;"@0 !G&"
022152:  402000014710  setzm    wrd             ;"@0 !G("
022153:  402000014711  setzm    wrdrlc          ;"@0 !G)"
022154:  630100025064  tdz      i, 25064        ;"S! "HT"
022155:  402000014716  setzm    fldcnt          ;"@0 !G."
022156:  200400025065  move     t, 25065        ;"0$ "HU"
022157:  202400014707  movem    t, forpnr       ;"04 !G'"
gtwd1:
022160:  260040015132  pushj    p, getfld       ;"6 @!I:"
022161:  201400000001  movei    t, p            ;"0,   !"
022162:  200300014702  move     c, cdisp        ;"0# !G""
022163:  603300100000  tlne     c, hfwdf        ;"P; (  "
022164:  254006000000  jrst     (c)             ;"5@&   "
022165:  200300014704  move     c, glsp1        ;"0# !G$"
022166:  202300014750  movem    c, linkl        ;"03 !GH"
022167:  606100000001  trnn     i, p            ;"PQ   !"
022170:  254000022245  jrst     getwd2          ;"5@ "2E"
022171:  136400014707  idpb     t, forpnr       ;"+T !G'"
gtwd4a:
022172:  661100000400  tlo      i, disize       ;"V)  $ "
gtwd4:
022173:  200440014706  move     tt, format      ;"0$@!G&"
022174:  336451022077  skipn    tt, 22077(tt)   ;";TI"0_"
022175:  002000654655                           ;" 0 UFM"
022176:  202440014706  movem    tt, format      ;"04@!G&"
022177:  200400025066  move     t, 25066        ;"0$ "HV"
022200:  202400014707  movem    t, forpnr       ;"04 !G'"
gtwd3:
022201:  135400014707  ldb      t, forpnr       ;"+L !G'"
022202:  200340014716  move     d, fldcnt       ;"0#@!G."
022203:  307340000002  caig     d, i            ;"8[@  ""
022204:  133000014707  ibp      forpnr          ;"+8 !G'"
022205:  260040022275  pushj    p, intfld       ;"6 @"2]"
022206:  375000014716  sosge    fldcnt          ;"?H !G."
022207:  254000022215  jrst     gtwd5           ;"5@ "2-"
022210:  262040014705  pop      p, glsp2        ;"60@!G%"
022211:  262040014704  pop      p, glsp1        ;"60@!G$"
022212:  262040000005  pop      p, b            ;"60@  %"
022213:  262040000004  pop      p, a            ;"60@  $"
022214:  254000022201  jrst     gtwd3           ;"5@ "2!"
gtwd5:
022215:  200200014710  move     a, wrd          ;"0" !G("
022216:  200240014711  move     b, wrdrlc       ;"0"@!G)"
022217:  200300014750  move     c, linkl        ;"0# !GH"
022220:  202300014704  movem    c, glsp1        ;"03 !G$"
022221:  620100000400  trz      i, disize       ;"R!  $ "
022222:  263040000000  popj     p,              ;"68@   " ",b\0\0\0"
space2:
022223:  262040000004  pop      p, a            ;"60@  $"
comma:
022224:  606100000001  trnn     i, p            ;"PQ   !"
022225:  254000022255  jrst     comma1          ;"5@ "2M"
022226:  136400014707  idpb     t, forpnr       ;"+T !G'"
comma4:
022227:  136400014707  idpb     t, forpnr       ;"+T !G'"
pushfd:
022230:  261040000004  push     p, a            ;"6(@  $"
022231:  261040000005  push     p, b            ;"6(@  %"
022232:  261040014704  push     p, glsp1        ;"6(@!G$"
022233:  261040014705  push     p, glsp2        ;"6(@!G%"
popfd1:
022234:  350000014716  aos      fldcnt          ;"=  !G."
022235:  200440014704  move     tt, glsp1       ;"0$@!G$"
022236:  202440014705  movem    tt, glsp2       ;"04@!G%"
022237:  550400014707  hrrz     t, forpnr       ;"M$ !G'"
022240:  306400014706  cain     t, format       ;"8T !G&"
022241:  254000022160  jrst     gtwd1           ;"5@ "1P"
gtwd6:
022242:  515400440000  hrlzi    t, gloext       ;"IL D  "
022243:  502400014707  hllm     t, forpnr       ;"H4 !G'"
022244:  254000022160  jrst     gtwd1           ;"5@ "1P"
getwd2:
022245:  336000014706  skipn    format          ;";P !G&"
022246:  263040000000  popj     p,              ;"68@   " ",b\0\0\0"
022247:  370000014716  sos      fldcnt          ;"?  !G."
022250:  262040014705  pop      p, glsp2        ;"60@!G%"
022251:  262040014704  pop      p, glsp1        ;"60@!G$"
022252:  262040000005  pop      p, b            ;"60@  %"
022253:  262040000004  pop      p, a            ;"60@  $"
022254:  254000022172  jrst     gtwd4a          ;"5@ "1Z"
comma1:
022255:  133000014707  ibp      forpnr          ;"+8 !G'"
022256:  254000022227  jrst     comma4          ;"5@ "27"
space:
022257:  261040000004  push     p, a            ;"6(@  $"
022260:  260040016145  pushj    p, arch         ;"6 @!QE"
022261:  302200000011  caie     a, tt           ;"82   )"
022262:  306200000040  cain     a, tpchna       ;"8R   @"
022263:  254000022260  jrst     22260           ;"5@ "2P"
022264:  306200000054  cain     a, 54           ;"8R   L"
022265:  254000022223  jrst     space2          ;"5@ "23"
022266:  262040000004  pop      p, a            ;"60@  $"
022267:  661100002000  tlo      i, alnscn       ;"V)  0 "
022270:  606100000001  trnn     i, p            ;"PQ   !"
022271:  254000022160  jrst     gtwd1           ;"5@ "1P"
022272:  136400014707  idpb     t, forpnr       ;"+T !G'"
022273:  133000014707  ibp      forpnr          ;"+8 !G'"
022274:  254000022230  jrst     pushfd          ;"5@ "28"
intfld:
022275:  602100000400  trne     i, disize       ;"P1  $ "
022276:  254000022302  jrst     22302           ;"5@ "3""
022277:  200440014705  move     tt, glsp2       ;"0$@!G%"
022300:  316440014704  camn     tt, glsp1       ;"9T@!G$"
022301:  322240022321  jumpe    b, intfd1       ;":2@"31"
022302:  306400002222  cain     t, 2222         ;"8T  22"
022303:  254000022340  jrst     intl            ;"5@ "3@"
022304:  306400000022  cain     t, 22           ;"8T   2"
022305:  254000022355  jrst     intr            ;"5@ "3M"
022306:  306400000044  cain     t, 44           ;"8T   D"
022307:  254000022347  jrst     intw            ;"5@ "3G"
022310:  332000000005  skipe    b               ;";0   %"
022311:  002000516254                           ;" 0 IRL"
022312:  306400002704  cain     t, 2704         ;"8T  7$"
022313:  254000022361  jrst     intach          ;"5@ "3Q"
022314:  306400000504  cain     t, 504          ;"8T  %$"
022315:  254000022360  jrst     intacl          ;"5@ "3P"
022316:  325000022321  jumpge   ff, intfd1      ;":H "31"
022317:  312440014704  came     tt, glsp1       ;"94@!G$"
022320:  002000514763                           ;" 0 IGS"
intfd1:
022321:  201440060000  movei    tt, 60000       ;"0,@&  "
022322:  245400777764  rotc     t, 777764       ;"4L __T"
022323:  201300000000  movei    c, ff           ;"0+    " " ,\0\0\0"
022324:  137200000011  dpb      a, tt           ;"+Z   )"
022325:  200200000006  move     a, c            ;"0"   &"
022326:  316440025067  camn     tt, 25067       ;"9T@"HW"
022327:  254000022335  jrst     intfd2          ;"5@ "3="
022330:  272200014710  addm     a, wrd          ;"72 !G("
intfd3:
022331:  200200014711  move     a, wrdrlc       ;"0" !G)"
022332:  260040015110  pushj    p, hfwdad       ;"6 @!I("
022333:  202200014711  movem    a, wrdrlc       ;"02 !G)"
022334:  263040000000  popj     p,              ;"68@   " ",b\0\0\0"
intfd2:
022335:  270200014710  add      a, wrd          ;"7" !G("
022336:  542200014710  hrrm     a, wrd          ;"L2 !G("
022337:  254000022331  jrst     intfd3          ;"5@ "39"
intl:
022340:  514340000005  hrlz     d, b            ;"IC@  %"
022341:  515240200000  hrlzi    b, dfld         ;"IJ@0  "
intr1:
022342:  261040000010  push     p, t            ;"6(@  ("
022343:  515300100000  hrlzi    c, hfwdf        ;"IK (  "
022344:  260040015100  pushj    p, lnktc1       ;"6 @!I "
prtcl:
022345:  200240000007  move     b, d            ;"0"@  '"
022346:  262040000010  pop      p, t            ;"60@  ("
intw:
022347:  200340014705  move     d, glsp2        ;"0#@!G%"
022350:  525540377777  hrloi    link, 377777    ;"JM@?__"
022351:  311340014704  caml     d, glsp1        ;"9+@!G$"
022352:  254000022321  jrst     intfd1          ;"5@ "31"
022353:  406547000001  andm     link, dschna(d) ;"@UG  !"
022354:  344340022351  aoja     d, 22351        ;"<C@"3I"
intr:
022355:  550340000005  hrrz     d, b            ;"M#@  %"
022356:  201240000000  movei    b, ff           ;"0*@   " " *\0\0\0"
022357:  254000022342  jrst     intr1           ;"5@ "3B"
intacl:
022360:  634240000005  tdza     b, b            ;"SB@  %"
intach:
022361:  515240200000  hrlzi    b, dfld         ;"IJ@0  "
intac1:
022362:  602100000400  trne     i, disize       ;"P1  $ "
022363:  242200000001  lsh      a, p            ;"42   !"
022364:  602100000400  trne     i, disize       ;"P1  $ "
022365:  271400000006  addi     t, c            ;"7,   &"
022366:  515300040000  hrlzi    c, vot          ;"IK $  "
022367:  261040000010  push     p, t            ;"6(@  ("
022370:  260040015100  pushj    p, lnktc1       ;"6 @!I "
022371:  201240000000  movei    b, ff           ;"0*@   " " *\0\0\0"
022372:  254000022346  jrst     22346           ;"5@ "3F"
pbits3:
022373:  261040000004  push     p, a            ;"6(@  $"
022374:  201200000014  movei    a, f            ;"0*   ,"
022375:  202200014720  movem    a, pbits2       ;"02 !G0"
022376:  200200025053  move     a, 25053        ;"0" "HK"
022377:  202200014767  movem    a, bitp         ;"02 !GW"
022400:  200200014717  move     a, pbits1       ;"0" !G/"
022401:  202220014721  movem    a, @pbits4      ;"020!G1"
022402:  350200014727  aos      a, opt1         ;"=" !G7"
022403:  606000000400  trnn     ff, disize      ;"PP  $ "
022404:  374000000004  sosa     a               ;"?@   $"
022405:  660000004000  tro      ff, mwrd        ;"V   @ "
022406:  552200014721  hrrzm    a, pbits4       ;"M2 !G1"
022407:  262040000004  pop      p, a            ;"60@  $"
022410:  402000014717  setzm    pbits1          ;"@0 !G/"
pbits:
022411:  332000014735  skipe    contrl          ;";0 !G="
022412:  263040000000  popj     p,              ;"68@   " ",b\0\0\0"
022413:  375000014720  sosge    pbits2          ;"?H !G0"
022414:  254000022373  jrst     pbits3          ;"5@ "3["
022415:  620000000400  trz      ff, disize      ;"R   $ "
022416:  306200000007  cain     a, d            ;"8R   '"
022417:  660000000400  tro      ff, disize      ;"V   $ "
022420:  136200014767  idpb     a, bitp         ;"+R !GW"
022421:  263040000000  popj     p,              ;"68@   " ",b\0\0\0"
outsm:
022422:  334200000012  skipa    a, sym          ;";B   *"
outwd:
022423:  200200014710  move     a, wrd          ;"0" !G("
output:
022424:  332000014735  skipe    contrl          ;";0 !G="
022425:  263040000000  popj     p,              ;"68@   " ",b\0\0\0"
022426:  261040000003  push     p, aa           ;"6(@  #"
022427:  200140014727  move     aa, opt1        ;"0!@!G7"
022430:  626000004000  trzn     ff, mwrd        ;"RP  @ "
022431:  350000000003  aos      aa              ;"=    #"
022432:  202203777777  movem    a, maccr(aa)    ;"02#___"
022433:  200200014723  move     a, cloc         ;"0" !G3"
022434:  622000400000  trze     ff, ppss        ;"R0 @  "
022435:  542200066023  hrrm     a, bkbuf        ;"L2 &P3"
022436:  262040000003  pop      p, aa           ;"60@  #"
022437:  350200014727  aos      a, opt1         ;"=" !G7"
022440:  301200066062  cail     a, 66062        ;"8* &PR"
022441:  602100001000  trne     i, nprc         ;"P1  ( "
022442:  263040000000  popj     p,              ;"68@   " ",b\0\0\0"
eblk:
022443:  261040000010  push     p, t            ;"6(@  ("
022444:  261040000011  push     p, tt           ;"6(@  )"
022445:  261040000004  push     p, a            ;"6(@  $"
022446:  261040000005  push     p, b            ;"6(@  %"
022447:  200400014735  move     t, contrl       ;"0$ !G="
022450:  322400022454  jumpe    t, eblk3        ;":4 "4L"
022451:  606400000010  trnn     t, t            ;"PT   ("
022452:  254000022513  jrst     22513           ;"5@ "5+"
022453:  254000023005  jrst     esblk           ;"5@ "8%"
eblk3:
022454:  200400014717  move     t, pbits1       ;"0$ !G/"
022455:  202420014721  movem    t, @pbits4      ;"040!G1"
022456:  201400014721  movei    t, pbits4       ;"0, !G1"
022457:  202400014721  movem    t, pbits4       ;"04 !G1"
022460:  200400025053  move     t, 25053        ;"0$ "HK"
022461:  202400014767  movem    t, bitp         ;"04 !GW"
022462:  403440014720  setzb    tt, pbits2      ;"@<@!G0"
022463:  402000014717  setzm    pbits1          ;"@0 !G/"
022464:  201400066023  movei    t, bkbuf        ;"0, &P3"
022465:  200240014727  move     b, opt1         ;"0"@!G7"
022466:  275240066024  subi     b, 66024        ;"7J@&P4"
022467:  137240025070  dpb      b, 25070        ;"+Z@"HX"
022470:  602000400000  trne     ff, ppss        ;"P0 @  "
022471:  323240022512  jumple   b, eblk4        ;"::@"5*"
022472:  620000100000  trz      ff, hfwdf       ;"R  (  "
022473:  260040025006  pushj    p, feed         ;"6 @"H&"
ebk1:
022474:  311400014727  caml     t, opt1         ;"9, !G7"
022475:  254000022504  jrst     ebk2            ;"5@ "5$"
022476:  200210000000  move     a, (t)          ;"0"(   "
022477:  255200022500  jcry0    22500           ;"5J "5 "
022500:  270440000004  add      tt, a           ;"7$@  $"
022501:  255200025071  jcry0    25071           ;"5J "HY"
022502:  260040025010  pushj    p, ppb          ;"6 @"H("
022503:  344400022474  aoja     t, ebk1         ;"<D "4\"
ebk2:
022504:  460200000011  setcm    a, tt           ;"F"   )"
022505:  260040025010  pushj    p, ppb          ;"6 @"H("
022506:  200400014737  move     t, cdatbc       ;"0$ !G?"
022507:  137400025061  dpb      t, 25061        ;"+\ "HQ"
022510:  201400066024  movei    t, 66024        ;"0, &P4"
022511:  202400014727  movem    t, opt1         ;"04 !G7"
eblk4:
022512:  660000400000  tro      ff, ppss        ;"V  @  "
022513:  262040000005  pop      p, b            ;"60@  %"
022514:  262040000004  pop      p, a            ;"60@  $"
022515:  262040000011  pop      p, tt           ;"60@  )"
022516:  262040000010  pop      p, t            ;"60@  ("
022517:  263040000000  popj     p,              ;"68@   " ",b\0\0\0"
aloc3a:
022520:  336000014735  skipn    contrl          ;";P !G="
022521:  626000100000  trzn     ff, hfwdf       ;"RP (  "
022522:  263040000000  popj     p,              ;"68@   " ",b\0\0\0"
022523:  620000400000  trz      ff, ppss        ;"R  @  "
022524:  254000022443  jrst     eblk            ;"5@ "4C"
pwrda:
022525:  664000002000  troa     ff, alnscn      ;"V@  0 "
pwrd:
022526:  620000002000  trz      ff, alnscn      ;"R   0 "
022527:  325000023742  jumpge   ff, cpopj       ;":H "?B"
022530:  332540014735  skipe    link, contrl    ;";5@!G="
022531:  254000022737  jrst     pwrd1           ;"5@ "7?"
022532:  260040022721  pushj    p, rchk         ;"6 @"71"
022533:  200200014705  move     a, glsp2        ;"0" !G%"
022534:  316200014704  camn     a, glsp1        ;"9R !G$"
022535:  254000022714  jrst     pwrd2           ;"5@ "7,"
022536:  514240014710  hrlz     b, wrd          ;"IB@!G("
022537:  540240014711  hrr      b, wrdrlc       ;"L"@!G)"
022540:  326240022713  jumpn    b, pwrd3        ;":R@"7+"
022541:  201400000000  movei    t, ff           ;"0,    " " 0\0\0\0"
pwrd4:
022542:  311200014704  caml     a, glsp1        ;"9* !G$"
022543:  254000022574  jrst     pwrd5           ;"5@ "5\"
022544:  550444000001  hrrz     tt, dschna(a)   ;"M$D  !"
022545:  322440022566  jumpe    tt, pwrd7a      ;":4@"5V"
022546:  135440025072  ldb      tt, 25072       ;"+L@"HZ"
022547:  302440000006  caie     tt, c           ;"84@  &"
022550:  306440000010  cain     tt, t           ;"8T@  ("
022551:  254000022713  jrst     pwrd3           ;"5@ "7+"
022552:  554444000001  hlrz     tt, dschna(a)   ;"MDD  !"
022553:  606000003000  trnn     ff, mpdll       ;"PP  8 "
022554:  602440001777  trne     tt, 1777        ;"P4@ /_"
022555:  254000022713  jrst     pwrd3           ;"5@ "7+"
022556:  336000014774  skipn    ldccc           ;";P !G\"
022557:  602440020000  trne     tt, pss         ;"P4@"  "
022560:  254000022713  jrst     pwrd3           ;"5@ "7+"
022561:  602440100000  trne     tt, hfwdf       ;"P4@(  "
022562:  254000022567  jrst     pwrd7           ;"5@ "5W"
022563:  602440040000  trne     tt, vot         ;"P4@$  "
022564:  606440200000  trnn     tt, dfld        ;"PT@0  "
022565:  254000022713  jrst     pwrd3           ;"5@ "7+"
pwrd7a:
022566:  344200022542  aoja     a, pwrd4        ;"<B "5B"
pwrd7:
022567:  602440200000  trne     tt, dfld        ;"P4@0  "
022570:  344200022542  aoja     a, pwrd4        ;"<B "5B"
022571:  201344000001  movei    d, dschna(a)    ;"0+D  !"
022572:  350000000010  aos      t               ;"=    ("
022573:  344200022542  aoja     a, pwrd4        ;"<B "5B"
pwrd5:
022574:  366400022713  sojn     t, pwrd3        ;">T "7+"
022575:  550407000000  hrrz     t, (d)          ;"M$'   "
022576:  301400243050  cail     t, 3rdwrd       ;"8, 48H"
022577:  254000022713  jrst     pwrd3           ;"5@ "7+"
022600:  261040000010  push     p, t            ;"6(@  ("
pwrd5e:
022601:  313340014704  camle    d, glsp1        ;"9;@!G$"
022602:  254000022606  jrst     pwrd5b          ;"5@ "6&"
022603:  200207000001  move     a, dschna(d)    ;"0"'  !"
022604:  202207000000  movem    a, (d)          ;"02'   " " H8\0\0"
022605:  344340022601  aoja     d, pwrd5e       ;"<C@"6!"
pwrd5b:
022606:  370000014704  sos      glsp1           ;"?  !G$"
022607:  260040022650  pushj    p, pwrd31       ;"6 @"6H"
022610:  262040000007  pop      p, d            ;"60@  '"
022611:  201747704670  movei    tm, 704670(d)   ;"0/GXFX" " >?\t\\"
022612:  241740777776  rot      tm, 777776      ;"4/@__^"
022613:  510217243050  hllz     a, 3rdwrd(tm)   ;"I"/48H"
022614:  335000000017  skipge   tm              ;";H   /"
022615:  514217243050  hrlz     a, 3rdwrd(tm)   ;"IB/48H"
022616:  135200025073  ldb      a, 25073        ;"+J "H["
022617:  200240014711  move     b, wrdrlc       ;"0"@!G)"
022620:  603240000001  tlne     b, p            ;"P:@  !"
022621:  660200000002  tro      a, i            ;"V"   ""
022622:  260040022411  pushj    p, pbits        ;"6 @"4)"
022623:  544207000001  hlr      a, dschna(d)    ;"LB'  !"
022624:  500200014710  hll      a, wrd          ;"H" !G("
022625:  260040022424  pushj    p, output       ;"6 @"44"
022626:  200200014723  move     a, cloc         ;"0" !G3"
022627:  506207000001  hrlm     a, dschna(d)    ;"HR'  !"
022630:  200200014724  move     a, crloc        ;"0" !G4"
022631:  201747704670  movei    tm, 704670(d)   ;"0/GXFX" " >?\t\\"
022632:  241740777776  rot      tm, 777776      ;"4/@__^"
022633:  510257243050  hllz     b, 3rdwrd(tm)   ;"I"O48H"
022634:  335000000017  skipge   tm              ;";H   /"
022635:  514257243050  hrlz     b, 3rdwrd(tm)   ;"IBO48H"
022636:  621240100000  tlz      b, hfwdf        ;"R*@(  "
022637:  322200022641  jumpe    a, 22641        ;":2 "6A"
022640:  661240100000  tlo      b, hfwdf        ;"V*@(  "
022641:  201747704670  movei    tm, 704670(d)   ;"0/GXFX" " >?\t\\"
022642:  241740777776  rot      tm, 777776      ;"4/@__^"
022643:  335000000017  skipge   tm              ;";H   /"
022644:  546257243050  hlrm     b, 3rdwrd(tm)   ;"LRO48H"
022645:  331000000017  skipl    tm              ;";(   /"
022646:  502257243050  hllm     b, 3rdwrd(tm)   ;"H2O48H"
022647:  263040000000  popj     p,              ;"68@   " ",b\0\0\0"
pwrd31:
022650:  200400014705  move     t, glsp2        ;"0$ !G%"
pwrd3a:
022651:  311400014704  caml     t, glsp1        ;"9, !G$"
022652:  263040000000  popj     p,              ;"68@   " ",b\0\0\0"
022653:  200250000001  move     b, dschna(t)    ;"0"H  !"
022654:  606240777777  trnn     b, maccr        ;"PR@___"
022655:  344400022651  aoja     t, pwrd3a       ;"<D "6I"
022656:  603240001777  tlne     b, 1777         ;"P:@ /_"
022657:  254000022703  jrst     rpwrd           ;"5@ "7#"
rpwrd1:
022660:  135200025074  ldb      a, 25074        ;"+J "H\"
022661:  660200000004  tro      a, a            ;"V"   $"
022662:  260040022411  pushj    p, pbits        ;"6 @"4)"
022663:  200205000000  move     a, (b)          ;"0"%   "
022664:  554300000004  hlrz     c, a            ;"MC   $"
022665:  621200740000  tlz      a, bsup         ;"R* \  "
022666:  301300300000  cail     c, defgvr       ;"8+ 8  "
022667:  661200040000  tlo      a, vot          ;"V* $  "
pwrd3d:
022670:  603240200000  tlne     b, dfld         ;"P:@0  "
022671:  661200400000  tlo      a, ppss         ;"V* @  "
022672:  603240040000  tlne     b, vot          ;"P:@$  "
022673:  254000022711  jrst     pwrd3e          ;"5@ "7)"
022674:  607240100000  tlnn     b, hfwdf        ;"PZ@(  "
022675:  254000022701  jrst     pwrd3f          ;"5@ "7!"
022676:  661200100000  tlo      a, hfwdf        ;"V* (  "
022677:  603240200000  tlne     b, dfld         ;"P:@0  "
022700:  641200300000  tlc      a, defgvr       ;"T* 8  "
pwrd3f:
022701:  260040022424  pushj    p, output       ;"6 @"44"
022702:  344400022651  aoja     t, pwrd3a       ;"<D "6I"
rpwrd:
022703:  260040021364  pushj    p, pbits7       ;"6 @"+T"
022704:  201200000005  movei    a, b            ;"0*   %"
022705:  260040022411  pushj    p, pbits        ;"6 @"4)"
022706:  135200025075  ldb      a, 25075        ;"+J "H]"
022707:  260040022424  pushj    p, output       ;"6 @"44"
022710:  254000022660  jrst     rpwrd1          ;"5@ "6P"
pwrd3e:
022711:  661200300000  tlo      a, defgvr       ;"V* 8  "
022712:  254000022701  jrst     pwrd3f          ;"5@ "7!"
pwrd3:
022713:  260040022650  pushj    p, pwrd31       ;"6 @"6H"
pwrd2:
022714:  260040022721  pushj    p, rchk         ;"6 @"71"
022715:  550200000005  hrrz     a, b            ;"M"   %"
022716:  137300025076  dpb      c, 25076        ;"+[ "H^"
022717:  260040022411  pushj    p, pbits        ;"6 @"4)"
022720:  254000022423  jrst     outwd           ;"5@ "43"
rchk:
022721:  550240014711  hrrz     b, wrdrlc       ;"M"@!G)"
022722:  554300014711  hlrz     c, wrdrlc       ;"MC !G)"
022723:  302240000001  caie     b, p            ;"82@  !"
022724:  326240022730  jumpn    b, rlcerr       ;":R@"78"
022725:  302300000001  caie     c, p            ;"83   !"
022726:  326300022730  jumpn    c, rlcerr       ;":S "78"
022727:  263040000000  popj     p,              ;"68@   " ",b\0\0\0"
rlcerr:
022730:  001000516243                           ;" ( IRC"
022731:  263040000000  popj     p,              ;"68@   " ",b\0\0\0"
rmove:
022732:  201400000000  movei    t, ff           ;"0,    " " 0\0\0\0"
022733:  137300025077  dpb      c, 25077        ;"+[ "H_"
022734:  137240025100  dpb      b, 25100        ;"+Z@"I "
022735:  200300000010  move     c, t            ;"0#   ("
022736:  263040000000  popj     p,              ;"68@   " ",b\0\0\0"
pwrd1:
022737:  200200014704  move     a, glsp1        ;"0" !G$"
022740:  312200014705  came     a, glsp2        ;"92 !G%"
022741:  002000515441                           ;" 0 ILA"
022742:  332000014711  skipe    wrdrlc          ;";0 !G)"
022743:  002000516241                           ;" 0 IRA"
022744:  602540000002  trne     link, i         ;"P5@  ""
022745:  254000023010  jrst     prim            ;"5@ "8("
022746:  602540000004  trne     link, a         ;"P5@  $"
022747:  254000023015  jrst     prim1           ;"5@ "8-"
sblks1:
022750:  200200014710  move     a, wrd          ;"0" !G("
022751:  202220014727  movem    a, @opt1        ;"020!G7"
022752:  200200014723  move     a, cloc         ;"0" !G3"
022753:  622000400000  trze     ff, ppss        ;"R0 @  "
022754:  202200066023  movem    a, bkbuf        ;"02 &P3"
022755:  350200014727  aos      a, opt1         ;"=" !G7"
022756:  305200066062  caige    a, 66062        ;"8J &PR"
022757:  263040000000  popj     p,              ;"68@   " ",b\0\0\0"
sblks2:
022760:  275200066024  subi     a, 66024        ;"7J &P4"
022761:  322200023742  jumpe    a, cpopj        ;":2 "?B"
022762:  213000000004  movns    ff, a           ;"18   $"
022763:  506200066023  hrlm     a, bkbuf        ;"HR &P3"
022764:  260040025006  pushj    p, feed         ;"6 @"H&"
022765:  201400066023  movei    t, bkbuf        ;"0, &P3"
022766:  402000014741  setzm    scksum          ;"@0 !GA"
sblk1:
022767:  311400014727  caml     t, opt1         ;"9, !G7"
022770:  254000023000  jrst     sblk2           ;"5@ "8 "
022771:  200200014741  move     a, scksum       ;"0" !GA"
022772:  241200000001  rot      a, p            ;"4*   !"
022773:  270210000000  add      a, (t)          ;"7"(   "
022774:  202200014741  movem    a, scksum       ;"02 !GA"
022775:  200210000000  move     a, (t)          ;"0"(   "
022776:  260040025010  pushj    p, ppb          ;"6 @"H("
022777:  344400022767  aoja     t, sblk1        ;"<D "7W"
sblk2:
023000:  660000400000  tro      ff, ppss        ;"V  @  "
023001:  201200066024  movei    a, 66024        ;"0* &P4"
023002:  202200014727  movem    a, opt1         ;"02 !G7"
023003:  200200014741  move     a, scksum       ;"0" !GA"
023004:  254000025010  jrst     ppb             ;"5@ "H("
esblk:
023005:  200200014727  move     a, opt1         ;"0" !G7"
023006:  260040022760  pushj    p, sblks2       ;"6 @"7P"
023007:  254000022512  jrst     eblk4           ;"5@ "5*"
prim:
023010:  205200710440  movsi    a, 710440       ;"0J Y$@"
023011:  540200014723  hrr      a, cloc         ;"L" !G3"
023012:  260040025010  pushj    p, ppb          ;"6 @"H("
023013:  200200014710  move     a, wrd          ;"0" !G("
023014:  254000025010  jrst     ppb             ;"5@ "H("
prim1:
023015:  205200541740  movsi    a, 541740       ;"0J L/@"
023016:  540200014710  hrr      a, wrd          ;"L" !G("
023017:  260040025010  pushj    p, ppb          ;"6 @"H("
023020:  205200542740  movsi    a, 542740       ;"0J L7@"
023021:  540200014723  hrr      a, cloc         ;"L" !G3"
023022:  260040025010  pushj    p, ppb          ;"6 @"H("
023023:  205200541740  movsi    a, 541740       ;"0J L/@"
023024:  544200014710  hlr      a, wrd          ;"LB !G("
023025:  260040025010  pushj    p, ppb          ;"6 @"H("
023026:  205200506740  movsi    a, 506740       ;"0J HW@"
023027:  540200014723  hrr      a, cloc         ;"L" !G3"
023030:  254000025010  jrst     ppb             ;"5@ "H("
a.lifs:
023031:  334200025101  skipa    a, 25101        ;";B "I!"
a.lib:
023032:  201200000005  movei    a, b            ;"0*   %"
023033:  542200023063  hrrm     a, lib3         ;"L2 "8S"
lib4:
023034:  402000023071  setzm    libop           ;"@0 "8Y"
023035:  260040022443  pushj    p, eblk         ;"6 @"4C"
lib1:
023036:  260040015410  pushj    p, getsyl       ;"6 @!L("
023037:  606100000002  trnn     i, i            ;"PQ   ""
023040:  254000023046  jrst     lib2            ;"5@ "8F"
023041:  434500023071  or       sym, libop      ;"CE "8Y"
023042:  661500040000  tlo      sym, vot        ;"V- $  "
023043:  260040022422  pushj    p, outsm        ;"6 @"42"
023044:  205200400000  movsi    a, ppss         ;"0J @  "
023045:  412200023071  andcam   a, libop        ;"A2 "8Y"
lib2:
023046:  200240014742  move     b, limbo1       ;"0"@!GB"
023047:  302240000012  caie     b, sym          ;"82@  *"
023050:  306240000015  cain     b, ch1          ;"8R@  -"
023051:  254000023063  jrst     lib3            ;"5@ "8S"
023052:  200200023071  move     a, libop        ;"0" "8Y"
023053:  306240000054  cain     b, 54           ;"8R@  L"
023054:  205200400000  movsi    a, ppss         ;"0J @  "
023055:  306240000053  cain     b, 53           ;"8R@  K"
023056:  621200200000  tlz      a, dfld         ;"R* 0  "
023057:  306240000055  cain     b, 55           ;"8R@  M"
023060:  661200200000  tlo      a, dfld         ;"V* 0  "
023061:  202200023071  movem    a, libop        ;"02 "8Y"
023062:  254000023036  jrst     lib1            ;"5@ "8>"
lib3:
023063:  201200000005  movei    a, b            ;"0*   %"
023064:  137200025061  dpb      a, 25061        ;"+Z "HQ"
023065:  260040022443  pushj    p, eblk         ;"6 @"4C"
023066:  302200000011  caie     a, tt           ;"82   )"
023067:  254000024360  jrst     areloc          ;"5@ "CP"
023070:  254000023117  jrst     lib5            ;"5@ "9/"
libop:
023071:  000000000000                           ;"      "
a.eldc:
023072:  260040022443  pushj    p, eblk         ;"6 @"4C"
023073:  201200000012  movei    a, sym          ;"0*   *"
023074:  137200025061  dpb      a, 25061        ;"+Z "HQ"
023075:  620000400000  trz      ff, ppss        ;"R  @  "
023076:  260040022443  pushj    p, eblk         ;"6 @"4C"
023077:  375000014774  sosge    ldccc           ;"?H !G\"
023100:  402000014774  setzm    ldccc           ;"@0 !G\"
023101:  254000021103  jrst     a.qote          ;"5@ ")#"
a.ldcv:
023102:  242240777745  lsh      b, 777745       ;"42@__E"
023103:  261040000005  push     p, b            ;"6(@  %"
023104:  260040022443  pushj    p, eblk         ;"6 @"4C"
023105:  200200025102  move     a, 25102        ;"0" "I""
023106:  202200021701  movem    a, gtver        ;"02 "/!"
023107:  660100004000  tro      i, mwrd         ;"V!  @ "
023110:  260040022147  pushj    p, getwrd       ;"6 @"1G"
023111:  262040000005  pop      p, b            ;"60@  %"
023112:  137240025103  dpb      b, 25103        ;"+Z@"I#"
023113:  201200000005  movei    a, b            ;"0*   %"
023114:  260040023167  pushj    p, pldcm        ;"6 @"9W"
023115:  201200000000  movei    a, ff           ;"0*    " " (\0\0\0"
023116:  137200025103  dpb      a, 25103        ;"+Z "I#"
lib5:
023117:  350000014774  aos      ldccc           ;"=  !G\"
ccasm1:
023120:  254000021103  jrst     a.qote          ;"5@ ")#"
aend:
023121:  260040020373  pushj    p, 20373        ;"6 @"#["
023122:  260040020005  pushj    p, 20005        ;"6 @" %"
023123:  336200014735  skipn    a, contrl       ;";R !G="
023124:  260040023244  pushj    p, aend5        ;"6 @":D"
aend5d:
023125:  606000020000  trnn     ff, pss         ;"PP "  "
023126:  606000040000  trnn     ff, vot         ;"PP $  "
023127:  254000023224  jrst     aend1           ;"5@ ":4"
aend4:
023130:  260040022147  pushj    p, getwrd       ;"6 @"1G"
023131:  254000021141  jrst     return          ;"5@ ")A"
aend3:
023132:  550200014723  hrrz     a, cloc         ;"M" !G3"
023133:  542200066023  hrrm     a, bkbuf        ;"L2 &P3"
023134:  620000400000  trz      ff, ppss        ;"R  @  "
023135:  260040022443  pushj    p, eblk         ;"6 @"4C"
023136:  201200000001  movei    a, p            ;"0*   !"
023137:  260040023167  pushj    p, pldcm        ;"6 @"9W"
023140:  254000023241  jrst     aend2           ;"5@ ":A"
ps2:
023141:  542200021141  hrrm     a, return       ;"L2 ")A"
023142:  321000023147  jumpl    ff, pa2a        ;":( "9G"
023143:  670000025104  tdo      ff, 25104       ;"W  "I$"
023144:  620000001000  trz      ff, nprc        ;"R   ( "
023145:  260040021035  pushj    p, p2ini        ;"6 @"(="
023146:  254000021103  jrst     a.qote          ;"5@ ")#"
pa2a:
023147:  205200714020  movsi    a, 714020       ;"0J Y@0"
pa2c:
023150:  200504073110  move     sym, st(a)      ;"0%$'9("
023151:  135240025105  ldb      b, 25105        ;"+J@"I%"
023152:  302240000003  caie     b, aa           ;"82@  #"
023153:  254000023164  jrst     pa2b            ;"5@ "9T"
023154:  550740000004  hrrz     tm, a           ;"M'@  $"
023155:  241740777776  rot      tm, 777776      ;"4/@__^"
023156:  510317243050  hllz     c, 3rdwrd(tm)   ;"I#/48H"
023157:  335000000017  skipge   tm              ;";H   /"
023160:  514317243050  hrlz     c, 3rdwrd(tm)   ;"IC/48H"
023161:  621500740000  tlz      sym, bsup       ;"R- \  "
023162:  607300004000  tlnn     c, mwrd         ;"P[  @ "
023163:  001000656367                           ;" ( USW"
pa2b:
023164:  350000000004  aos      a               ;"=    $"
023165:  253200023150  aobjn    a, pa2c         ;"5: "9H"
023166:  254000021141  jrst     return          ;"5@ ")A"
pldcm:
023167:  620000400000  trz      ff, ppss        ;"R  @  "
023170:  542200066023  hrrm     a, bkbuf        ;"L2 &P3"
023171:  201200000001  movei    a, p            ;"0*   !"
023172:  137200025061  dpb      a, 25061        ;"+Z "HQ"
023173:  260040022525  pushj    p, pwrda        ;"6 @"55"
023174:  254000022443  jrst     eblk            ;"5@ "4C"
plod:
023175:  542200021141  hrrm     a, return       ;"L2 ")A"
023176:  260040023200  pushj    p, plod1        ;"6 @": "
023177:  254000021141  jrst     return          ;"5@ ")A"
plod1:
023200:  260040025005  pushj    p, feed1        ;"6 @"H%"
023201:  200240014735  move     b, contrl       ;"0"@!G="
023202:  606240000010  trnn     b, t            ;"PR@  ("
023203:  263040000000  popj     p,              ;"68@   " ",b\0\0\0"
plod1a:
023204:  205240777755  movsi    b, 777755       ;"0J@__M"
023205:  205300710440  movsi    c, 710440       ;"0K Y$@"
pload1:
023206:  200200000006  move     a, c            ;"0"   &"
023207:  260040025011  pushj    p, ppba         ;"6 @"H)"
023210:  316300025106  camn     c, 25106        ;"9S "I&"
023211:  541300000027  hrri     c, 27           ;"L+   7"
023212:  200205024411  move     a, sload(b)     ;"0"%"D)"
023213:  260040025011  pushj    p, ppba         ;"6 @"H)"
023214:  350000000006  aos      c               ;"=    &"
023215:  253240023206  aobjn    b, pload1       ;"5:@":&"
023216:  200200025107  move     a, 25107        ;"0" "I'"
023217:  260040025011  pushj    p, ppba         ;"6 @"H)"
023220:  254000025005  jrst     feed1           ;"5@ "H%"
a.sldr:
023221:  260040025005  pushj    p, feed1        ;"6 @"H%"
023222:  260040023204  pushj    p, plod1a       ;"6 @":$"
023223:  254000023653  jrst     simblk          ;"5@ ">K"
aend1:
023224:  260040022443  pushj    p, eblk         ;"6 @"4C"
023225:  660100004010  tro      i, 4010         ;"V!  @("
023226:  200200025110  move     a, 25110        ;"0" "I("
023227:  202200021701  movem    a, gtver        ;"02 "/!"
023230:  260040022147  pushj    p, getwrd       ;"6 @"1G"
023231:  336000014735  skipn    contrl          ;";P !G="
023232:  254000023132  jrst     aend3           ;"5@ "9:"
023233:  607200777000  tlnn     a, 777000       ;"PZ _X "
023234:  270200025111  add      a, 25111        ;"7" "I)"
023235:  327200023237  jumpg    a, 23237        ;":Z ":?"
023236:  002000456756                           ;" 0 EWN"
023237:  260040025010  pushj    p, ppb          ;"6 @"H("
023240:  260040025005  pushj    p, feed1        ;"6 @"H%"
aend2:
023241:  260040024052  pushj    p, cnartp       ;"6 @"@J"
023242:  254000021141  jrst     return          ;"5@ ")A"
a.lnko:
023243:  261040023120  push     p, ccasm1       ;"6(@"90"
aend5:
023244:  325000023742  jumpge   ff, cpopj       ;":H "?B"
023245:  205340714020  movsi    d, 714020       ;"0K@Y@0"
aend5a:
023246:  200507073110  move     sym, st(d)      ;"0%''9("
023247:  135400025105  ldb      t, 25105        ;"+L "I%"
023250:  302400000004  caie     t, a            ;"84   $"
023251:  306400000006  cain     t, c            ;"8T   &"
023252:  254000023261  jrst     aend5e          ;"5@ ":Q"
023253:  302400000003  caie     t, aa           ;"84   #"
023254:  306400000011  cain     t, tt           ;"8T   )"
023255:  254000023270  jrst     aend5b          ;"5@ ":X"
aend5c:
023256:  350000000007  aos      d               ;"=    '"
023257:  253340023246  aobjn    d, aend5a       ;"5;@":F"
023260:  263040000000  popj     p,              ;"68@   " ",b\0\0\0"
aend5e:
023261:  550740000007  hrrz     tm, d           ;"M'@  '"
023262:  241740777776  rot      tm, 777776      ;"4/@__^"
023263:  510317243050  hllz     c, 3rdwrd(tm)   ;"I#/48H"
023264:  335000000017  skipge   tm              ;";H   /"
023265:  514317243050  hrlz     c, 3rdwrd(tm)   ;"IC/48H"
023266:  607300004000  tlnn     c, mwrd         ;"P[  @ "
023267:  254000023256  jrst     aend5c          ;"5@ ":N"
aend5b:
023270:  510247073111  hllz     b, 73111(d)     ;"I"G'9)"
023271:  550740000007  hrrz     tm, d           ;"M'@  '"
023272:  241740777776  rot      tm, 777776      ;"4/@__^"
023273:  510317243050  hllz     c, 3rdwrd(tm)   ;"I#/48H"
023274:  335000000017  skipge   tm              ;";H   /"
023275:  514317243050  hrlz     c, 3rdwrd(tm)   ;"IC/48H"
023276:  607300100000  tlnn     c, hfwdf        ;"P[ (  "
023277:  322240023256  jumpe    b, aend5c       ;":2@":N"
023300:  621500740000  tlz      sym, bsup       ;"R- \  "
023301:  302400000003  caie     t, aa           ;"84   #"
023302:  306400000004  cain     t, a            ;"8T   $"
023303:  334000000000  skipa                    ;";@    " "7\0\0\0\0"
023304:  661500040000  tlo      sym, vot        ;"V- $  "
023305:  260040021244  pushj    p, lkpnro       ;"6 @"*D"
023306:  254000023256  jrst     aend5c          ;"5@ ":N"
aloc:
023307:  402000014772  setzm    blockf          ;"@0 !GZ"
023310:  621000200000  tlz      ff, dfld        ;"R( 0  "
023311:  660100004010  tro      i, 4010         ;"V!  @("
023312:  260040022443  pushj    p, eblk         ;"6 @"4C"
023313:  200200025112  move     a, 25112        ;"0" "I*"
ablk1:
023314:  202200021701  movem    a, gtver        ;"02 "/!"
023315:  201200000054  movei    a, 54           ;"0*   L"
023316:  202200014742  movem    a, limbo1       ;"02 !GB"
023317:  661100002000  tlo      i, alnscn       ;"V)  0 "
023320:  260040022147  pushj    p, getwrd       ;"6 @"1G"
023321:  332000014772  skipe    blockf          ;";0 !GZ"
023322:  254000023443  jrst     ablk2           ;"5@ "<C"
023323:  402000014754  setzm    syloc           ;"@0 !GL"
023324:  402000014755  setzm    sysym           ;"@0 !GM"
ablk3:
023325:  606100000010  trnn     i, t            ;"PQ   ("
023326:  254000023346  jrst     aloc1           ;"5@ ";F"
023327:  200400014705  move     t, glsp2        ;"0$ !G%"
023330:  312400014704  came     t, glsp1        ;"94 !G$"
023331:  254000023404  jrst     aloc3           ;"5@ "<$"
023332:  622000001000  trze     ff, nprc        ;"R0  ( "
023333:  254000023415  jrst     aloc5           ;"5@ "<-"
aloc2:
023334:  660000100000  tro      ff, hfwdf       ;"V  (  "
023335:  552200014723  hrrzm    a, cloc         ;"M2 !G3"
023336:  552200066023  hrrzm    a, bkbuf        ;"M2 &P3"
023337:  612240025113  tdne     b, 25113        ;"Q2@"I+"
023340:  002000544151                           ;" 0 LAI"
023341:  552240014724  hrrzm    b, crloc        ;"M2@!G4"
023342:  201205000002  movei    a, tpchn(b)     ;"0*%  ""
aloc4:
023343:  137200025061  dpb      a, 25061        ;"+Z "HQ"
023344:  202200014737  movem    a, cdatbc       ;"02 !G?"
023345:  254000021103  jrst     a.qote          ;"5@ ")#"
aloc1:
023346:  661000200000  tlo      ff, dfld        ;"V( 0  "
023347:  200200025114  move     a, 25114        ;"0" "I,"
023350:  202200014755  movem    a, sysym        ;"02 !GM"
023351:  200200014723  move     a, cloc         ;"0" !G3"
023352:  202200014754  movem    a, syloc        ;"02 !GL"
023353:  603000400000  tlne     ff, ppss        ;"P8 @  "
023354:  001000656354                           ;" ( USL"
023355:  254000021103  jrst     a.qote          ;"5@ ")#"
axword:
023356:  260040015132  pushj    p, getfld       ;"6 @!I:"
023357:  200300014702  move     c, cdisp        ;"0# !G""
023360:  306300022224  cain     c, comma        ;"8S "24"
023361:  254000023364  jrst     23364           ;"5@ ";T"
023362:  606100000001  trnn     i, p            ;"PQ   !"
023363:  254000023356  jrst     axword          ;"5@ ";N"
023364:  506200014710  hrlm     a, wrd          ;"HR !G("
023365:  506240014711  hrlm     b, wrdrlc       ;"HR@!G)"
023366:  205300100000  movsi    c, hfwdf        ;"0K (  "
023367:  205240200000  movsi    b, dfld         ;"0J@0  "
023370:  260040015100  pushj    p, lnktc1       ;"6 @!I "
023371:  261040014704  push     p, glsp1        ;"6(@!G$"
023372:  260040015132  pushj    p, getfld       ;"6 @!I:"
023373:  606100000001  trnn     i, p            ;"PQ   !"
023374:  254000023372  jrst     23372           ;"5@ ";Z"
023375:  542200014710  hrrm     a, wrd          ;"L2 !G("
023376:  542240014711  hrrm     b, wrdrlc       ;"L2@!G)"
023377:  205300100000  movsi    c, hfwdf        ;"0K (  "
023400:  201240000000  movei    b, ff           ;"0*@   " " *\0\0\0"
023401:  262040000010  pop      p, t            ;"60@  ("
023402:  260040015101  pushj    p, linktc       ;"6 @!I!"
023403:  254000023664  jrst     cabpop          ;"5@ ">T"
aloc3:
023404:  260040022520  pushj    p, aloc3a       ;"6 @"50"
023405:  201200000002  movei    a, i            ;"0*   ""
023406:  260040023167  pushj    p, pldcm        ;"6 @"9W"
023407:  402000014723  setzm    cloc            ;"@0 !G3"
023410:  201400000001  movei    t, p            ;"0,   !"
023411:  202400014724  movem    t, crloc        ;"04 !G4"
023412:  660000001000  tro      ff, nprc        ;"V   ( "
arel1:
023413:  201200000003  movei    a, aa           ;"0*   #"
023414:  254000023343  jrst     aloc4           ;"5@ ";C"
aloc5:
023415:  261040000004  push     p, a            ;"6(@  $"
023416:  620000400000  trz      ff, ppss        ;"R  @  "
023417:  201200000004  movei    a, a            ;"0*   $"
023420:  260040023167  pushj    p, pldcm        ;"6 @"9W"
023421:  262040000004  pop      p, a            ;"60@  $"
023422:  254000023334  jrst     aloc2           ;"5@ ";<"
a.leng:
023423:  200200014742  move     a, limbo1       ;"0" !GB"
023424:  306200000040  cain     a, tpchna       ;"8R   @"
023425:  260040016145  pushj    p, arch         ;"6 @!QE"
023426:  202200023435  movem    a, a.ln1        ;"02 "<="
023427:  201240000000  movei    b, ff           ;"0*@   " " *\0\0\0"
023430:  260040016145  pushj    p, arch         ;"6 @!QE"
023431:  312200023435  came     a, a.ln1        ;"92 "<="
023432:  344240023430  aoja     b, 23430        ;"<B@"<8"
023433:  200200000005  move     a, b            ;"0"   %"
023434:  254000024254  jrst     valret          ;"5@ "BL"
a.ln1:
023435:  000000000000                           ;"      "
ablock:
023436:  660100004010  tro      i, 4010         ;"V!  @("
023437:  260040022443  pushj    p, eblk         ;"6 @"4C"
023440:  200200025115  move     a, 25115        ;"0" "I-"
023441:  476000014772  setom    blockf          ;"GP !GZ"
023442:  254000023314  jrst     ablk1           ;"5@ ";,"
ablk2:
023443:  602000001000  trne     ff, nprc        ;"P0  ( "
023444:  254000023452  jrst     ablk4           ;"5@ "<J"
ablk5b:
023445:  200200014723  move     a, cloc         ;"0" !G3"
023446:  273200014710  addb     a, wrd          ;"7: !G("
023447:  200240014724  move     b, crloc        ;"0"@!G4"
023450:  273240014711  addb     b, wrdrlc       ;"7:@!G)"
023451:  254000023325  jrst     ablk3           ;"5@ ";5"
ablk4:
023452:  201400021646  movei    t, $.h          ;"0, ".F"
023453:  350000014704  aos      glsp1           ;"=  !G$"
023454:  552420014704  hrrzm    t, @glsp1       ;"M40!G$"
023455:  254000023325  jrst     ablk3           ;"5@ ";5"
anosym:
023456:  620000200000  trz      ff, dfld        ;"R  0  "
023457:  254000021103  jrst     a.qote          ;"5@ ")#"
aexpun:
023460:  260040015410  pushj    p, getsyl       ;"6 @!L("
023461:  260040021750  pushj    p, es           ;"6 @"/H"
023462:  254000023465  jrst     23465           ;"5@ "<U"
023463:  515200400000  hrlzi    a, ppss         ;"IJ @  "
023464:  202207073110  movem    a, st(d)        ;"02''9(" " H8v$"
023465:  200200014742  move     a, limbo1       ;"0" !GB"
023466:  302200000015  caie     a, ch1          ;"82   -"
023467:  306200000012  cain     a, sym          ;"8R   *"
023470:  254000021103  jrst     a.qote          ;"5@ ")#"
023471:  254000023460  jrst     aexpun          ;"5@ "<P"
error:
023472:  000000000000                           ;"      "
023473:  261040000010  push     p, t            ;"6(@  ("
023474:  135400025116  ldb      t, 25116        ;"+L "I."
023475:  465400000077  orcmi    t, 77           ;"FL   _"
023476:  342400023643  aoje     t, typr1        ;"<4 ">C"
023477:  261040000005  push     p, b            ;"6(@  %"
023500:  261040000004  push     p, a            ;"6(@  $"
023501:  550400000040  hrrz     t, tpchna       ;"M$   @"
023502:  302400554464  caie     t, 554464       ;"84 MDT"
023503:  306400624563  cain     t, 624563       ;"8T RES"
023504:  334400014757  skipa    t, sysym1       ;";D !GO"
023505:  254000023511  jrst     23511           ;"5@ "=)"
023506:  202400014755  movem    t, sysym        ;"04 !GM"
023507:  200400014756  move     t, syloc1       ;"0$ !GN"
023510:  202400014754  movem    t, syloc        ;"04 !GL"
023511:  200200014755  move     a, sysym        ;"0" !GM"
023512:  322200023522  jumpe    a, err1         ;":2 "=2"
023513:  260040023553  pushj    p, symtyp       ;"6 @"=K"
023514:  200240014723  move     b, cloc         ;"0"@!G3"
023515:  274240014754  sub      b, syloc        ;"7B@!GL"
023516:  322240023522  jumpe    b, err1         ;":2@"=2"
023517:  201200000053  movei    a, 53           ;"0*   K"
023520:  260040000610  pushj    p, tyo          ;"6 @ &("
023521:  260040023574  pushj    p, octpnt       ;"6 @"=\"
err1:
023522:  260040000607  pushj    p, tab          ;"6 @ &'"
023523:  261040023472  push     p, error        ;"6(@"<Z"
023524:  261040000040  push     p, tpchna       ;"6(@  @"
023525:  602000001000  trne     ff, nprc        ;"P0  ( "
023526:  077000025117                           ;"'X "I/"
023527:  262040000040  pop      p, tpchna       ;"60@  @"
023530:  262040023472  pop      p, error        ;"60@"<Z"
023531:  200240014723  move     b, cloc         ;"0"@!G3"
023532:  260040023574  pushj    p, octpnt       ;"6 @"=\"
023533:  260040000607  pushj    p, tab          ;"6 @ &'"
023534:  200240015066  move     b, mdepth       ;"0"@!HV"
023535:  260040023574  pushj    p, octpnt       ;"6 @"=\"
023536:  260040000607  pushj    p, tab          ;"6 @ &'"
023537:  255000000000  nop                      ;"5H    " "+ \0\0\0"
023540:  135200025116  ldb      a, 25116        ;"+J "I."
023541:  305200000007  caige    a, d            ;"8J   '"
023542:  254004023543  jrst     23543(a)        ;"5@$"=C"
023543:  254000023635  jrst     iae             ;"5@ ">="
023544:  254000023611  jrst     err2            ;"5@ ">)"
023545:  254000023614  jrst     err3            ;"5@ ">,"
023546:  254200023546  halt     23546           ;"5B "=F"
023547:  254000023604  jrst     err4            ;"5@ ">$"
023550:  254000023607  jrst     err5            ;"5@ ">'"
023551:  321000023611  jumpl    ff, err2        ;":( ">)"
023552:  254000023617  jrst     23617           ;"5@ ">/"
symtyp:
023553:  231200000050  idivi    a, 50           ;"3*   H"
023554:  506241000000  hrlm     b, (p)          ;"HRA   "
023555:  322200023557  jumpe    a, 23557        ;":2 "=O"
023556:  260040023553  pushj    p, symtyp       ;"6 @"=K"
023557:  554201000000  hlrz     a, (p)          ;"MB!   "
023560:  322200023742  jumpe    a, cpopj        ;":2 "?B"
023561:  301200000045  cail     a, 45           ;"8*   E"
023562:  254000023567  jrst     symtp1          ;"5@ "=W"
023563:  301200000013  cail     a, link         ;"8*   +"
023564:  271200000007  addi     a, d            ;"7*   '"
023565:  271200000257  addi     a, 257          ;"7*  "O"
023566:  254000000610  jrst     tyo             ;"5@  &("
symtp1:
023567:  200204023524  move     a, 23524(a)     ;"0"$"=4"
023570:  254000000610  jrst     tyo             ;"5@  &("
sytb:
023571:  000000000056                           ;"     N"
023572:  000000000044                           ;"     D"
023573:  000000000045                           ;"     E"
octpnt:
023574:  550200000005  hrrz     a, b            ;"M"   %"
023575:  231200000010  idivi    a, t            ;"3*   ("
023576:  506241000000  hrlm     b, (p)          ;"HRA   "
023577:  322200023601  jumpe    a, 23601        ;":2 ">!"
023600:  260040023575  pushj    p, 23575        ;"6 @"=]"
023601:  554201000000  hlrz     a, (p)          ;"MB!   "
023602:  271200000260  addi     a, 260          ;"7*  "P"
023603:  254000000610  jrst     tyo             ;"5@  &("
err4:
023604:  260040016145  pushj    p, arch         ;"6 @!QE"
023605:  302200000012  caie     a, sym          ;"82   *"
023606:  254000023604  jrst     err4            ;"5@ ">$"
err5:
023607:  201200021103  movei    a, a.qote       ;"0* ")#"
023610:  202200023472  movem    a, error        ;"02 "<Z"
err2:
023611:  200200000012  move     a, sym          ;"0"   *"
023612:  260040023553  pushj    p, symtyp       ;"6 @"=K"
023613:  260040000607  pushj    p, tab          ;"6 @ &'"
err3:
023614:  514240000040  hrlz     b, tpchna       ;"IB@  @"
023615:  260040023623  pushj    p, sixtyo       ;"6 @">3"
errret:
023616:  260040023631  pushj    p, crr          ;"6 @">9"
023617:  262040000004  pop      p, a            ;"60@  $"
023620:  262040000005  pop      p, b            ;"60@  %"
typr1a:
023621:  262040000010  pop      p, t            ;"60@  ("
023622:  254120023472  jrstf    @error          ;"5A0"<Z"
sixtyo:
023623:  322240023742  jumpe    b, cpopj        ;":2@"?B"
023624:  201200000000  movei    a, ff           ;"0*    " " (\0\0\0"
023625:  245200000006  rotc     a, c            ;"4J   &"
023626:  271200000040  addi     a, tpchna       ;"7*   @"
023627:  260040000610  pushj    p, tyo          ;"6 @ &("
023630:  254000023623  jrst     sixtyo          ;"5@ ">3"
crr:
023631:  201200000015  movei    a, ch1          ;"0*   -"
023632:  260040000610  pushj    p, tyo          ;"6 @ &("
023633:  201200000012  movei    a, sym          ;"0*   *"
023634:  254000000610  jrst     tyo             ;"5@  &("
iae:
023635:  514240000040  hrlz     b, tpchna       ;"IB@  @"
023636:  260040023623  pushj    p, sixtyo       ;"6 @">3"
023637:  260040000607  pushj    p, tab          ;"6 @ &'"
023640:  200240023472  move     b, error        ;"0"@"<Z"
023641:  260040023574  pushj    p, octpnt       ;"6 @"=\"
023642:  254000000122  jrst     go2             ;"5@  !2"
typr1:
023643:  515240440700  hrlzi    b, 440700       ;"IJ@D' "
023644:  540240000040  hrr      b, tpchna       ;"L"@  @"
023645:  134200000005  ildb     a, b            ;"+B   %"
023646:  306200000041  cain     a, zz           ;"8R   A"
023647:  254000023621  jrst     typr1a          ;"5@ ">1"
023650:  260040000610  pushj    p, tyo          ;"6 @ &("
023651:  254000023645  jrst     23645           ;"5@ ">E"
ps1:
023652:  542200021141  hrrm     a, return       ;"L2 ")A"
simblk:
023653:  334200025123  skipa    a, 25123        ;";B "I3"
srim1:
023654:  201200000004  movei    a, a            ;"0*   $"
023655:  660000040000  tro      ff, vot         ;"V  $  "
023656:  661200400000  tlo      a, ppss         ;"V* @  "
023657:  202200014735  movem    a, contrl       ;"02 !G="
023660:  254000021103  jrst     a.qote          ;"5@ ")#"
srim:
023661:  201200000002  movei    a, i            ;"0*   ""
023662:  254000023655  jrst     23655           ;"5@ ">M"
aexp:
023663:  620100000006  trz      i, c            ;"R!   &"
cabpop:
023664:  403200000005  setzb    a, b            ;"@:   %"
023665:  263040000000  popj     p,              ;"68@   " ",b\0\0\0"
atitle:
023666:  201200000015  movei    a, ch1          ;"0*   -"
023667:  606000020000  trnn     ff, pss         ;"PP "  "
023670:  260040000610  pushj    p, tyo          ;"6 @ &("
023671:  260040016666  pushj    p, gsyl         ;"6 @!VV"
023672:  332000000012  skipe    sym             ;";0   *"
023673:  202500014765  movem    sym, prgnm      ;"05 !GU"
023674:  200400025035  move     t, 25035        ;"0$ "H="
atit2:
023675:  375000015026  sosge    strcnt          ;"?H !H6"
023676:  254000023702  jrst     atit1           ;"5@ "?""
023677:  134200000010  ildb     a, t            ;"+B   ("
023700:  260040000610  pushj    p, tyo          ;"6 @ &("
023701:  254000023675  jrst     atit2           ;"5@ ">]"
atit1:
023702:  306200000012  cain     a, sym          ;"8R   *"
023703:  254000021103  jrst     a.qote          ;"5@ ")#"
023704:  260040016145  pushj    p, arch         ;"6 @!QE"
023705:  260040000610  pushj    p, tyo          ;"6 @ &("
023706:  254000023702  jrst     atit1           ;"5@ "?""
asbeg:
023707:  515200000001  hrlzi    a, p            ;"IJ   !"
023710:  272200014736  addm     a, lev          ;"72 !G>"
023711:  254000021103  jrst     a.qote          ;"5@ ")#"
asend:
023712:  205440400000  movsi    tt, ppss        ;"0L@@  "
023713:  515400714020  hrlzi    t, 714020       ;"IL Y@0"
asend2:
023714:  332250073110  skipe    b, st(t)        ;";2H'9(" "6J@v$"
023715:  616240025124  tdnn     b, 25124        ;"QR@"I4"
023716:  254000023731  jrst     asend1          ;"5@ "?9"
023717:  550740000010  hrrz     tm, t           ;"M'@  ("
023720:  241740777776  rot      tm, 777776      ;"4/@__^"
023721:  510257243050  hllz     b, 3rdwrd(tm)   ;"I"O48H"
023722:  335000000017  skipge   tm              ;";H   /"
023723:  514257243050  hrlz     b, 3rdwrd(tm)   ;"IBO48H"
023724:  621240777700  tlz      b, 777700       ;"R*@__ "
023725:  306240000077  cain     b, 77           ;"8R@  _"
023726:  254000023731  jrst     asend1          ;"5@ "?9"
023727:  316240014736  camn     b, lev          ;"9R@!G>"
023730:  202450073110  movem    tt, st(t)       ;"04H'9(" " R@v$"
asend1:
023731:  350000000010  aos      t               ;"=    ("
023732:  253400023714  aobjn    t, asend2       ;"5< "?,"
023733:  515200777777  hrlzi    a, maccr        ;"IJ ___"
023734:  272200014736  addm     a, lev          ;"72 !G>"
023735:  254000021103  jrst     a.qote          ;"5@ ")#"
ioinst:
023736:  510200000005  hllz     a, b            ;"I"   %"
023737:  336000014716  skipn    fldcnt          ;";P !G."
023740:  660100000400  tro      i, disize       ;"V!  $ "
clbpop:
023741:  201240000000  movei    b, ff           ;"0*@   " " *\0\0\0"
cpopj:
023742:  263040000000  popj     p,              ;"68@   " ",b\0\0\0"
symdmp:
023743:  620100001000  trz      i, nprc         ;"R!  ( "
023744:  402000014704  setzm    glsp1           ;"@0 !G$"
023745:  402000014705  setzm    glsp2           ;"@0 !G%"
023746:  402000014711  setzm    wrdrlc          ;"@0 !G)"
023747:  200400014735  move     t, contrl       ;"0$ !G="
023750:  201200066024  movei    a, 66024        ;"0* &P4"
023751:  202200014727  movem    a, opt1         ;"02 !G7"
023752:  205140714020  movsi    aa, 714020      ;"0I@Y@0"
symd5:
023753:  402000014723  setzm    cloc            ;"@0 !G3"
023754:  402000066023  setzm    bkbuf           ;"@0 &P3"
023755:  326400023761  jumpn    t, symd4        ;":T "?Q"
023756:  201240000010  movei    b, t            ;"0*@  ("
023757:  137240025061  dpb      b, 25061        ;"+Z@"HQ"
023760:  202240014737  movem    b, cdatbc       ;"02@!G?"
symd4:
023761:  332243073110  skipe    b, st(aa)       ;";2C'9("
023762:  616240025124  tdnn     b, 25124        ;"QR@"I4"
023763:  254000024024  jrst     symd1           ;"5@ "@4"
023764:  201300000000  movei    c, ff           ;"0+    " " ,\0\0\0"
023765:  245240000004  rotc     b, a            ;"4J@  $"
023766:  200343073111  move     d, 73111(aa)    ;"0#C'9)"
023767:  550740000003  hrrz     tm, aa          ;"M'@  #"
023770:  241740777776  rot      tm, 777776      ;"4/@__^"
023771:  510657243050  hllz     ch1, 3rdwrd(tm) ;"I&O48H"
023772:  335000000017  skipge   tm              ;";H   /"
023773:  514657243050  hrlz     ch1, 3rdwrd(tm) ;"IFO48H"
023774:  254006023775  jrst     23775(c)        ;"5@&"?]"
023775:  254000024024  jrst     symd1           ;"5@ "@4"
023776:  254000024024  jrst     symd1           ;"5@ "@4"
023777:  254000024047  jrst     symd6           ;"5@ "@G"
024000:  254000024024  jrst     symd1           ;"5@ "@4"
024001:  254000024010  jrst     symd3           ;"5@ "@("
024002:  254000024024  jrst     symd1           ;"5@ "@4"
024003:  254000024007  jrst     symd3a          ;"5@ "@'"
024004:  254000024024  jrst     symd1           ;"5@ "@4"
024005:  254000024032  jrst     symd2a          ;"5@ "@:"
024006:  254000024024  jrst     symd1           ;"5@ "@4"
symd3a:
024007:  322400024024  jumpe    t, symd1        ;":4 "@4"
symd3:
024010:  553000000007  hrrzs    ff, d           ;"M8   '"
symd2:
024011:  603640004000  tlne     ch1, mwrd       ;"P>@ @ "
024012:  254000024024  jrst     symd1           ;"5@ "@4"
024013:  241240777774  rot      b, 777774       ;"4*@__\"
024014:  322400024034  jumpe    t, symd2b       ;":4 "@<"
024015:  661240040000  tlo      b, vot          ;"V*@$  "
024016:  603640010000  tlne     ch1, macrch     ;"P>@!  "
024017:  661240400000  tlo      b, ppss         ;"V*@@  "
024020:  202240014710  movem    b, wrd          ;"02@!G("
024021:  260040022526  pushj    p, pwrd         ;"6 @"56"
024022:  202340014710  movem    d, wrd          ;"03@!G("
024023:  260040022526  pushj    p, pwrd         ;"6 @"56"
symd1:
024024:  350000000003  aos      aa              ;"=    #"
024025:  253140023761  aobjn    aa, symd4       ;"59@"?Q"
024026:  260040022443  pushj    p, eblk         ;"6 @"4C"
024027:  322400024100  jumpe    t, symda        ;":4 "A "
024030:  205200254000  movsi    a, 254000       ;"0J 5@ "
024031:  254000025010  jrst     ppb             ;"5@ "H("
symd2a:
024032:  326400024011  jumpn    t, symd2        ;":T "@)"
024033:  254000024024  jrst     symd1           ;"5@ "@4"
symd2b:
024034:  603640400000  tlne     ch1, ppss       ;"P>@@  "
024035:  661240200000  tlo      b, dfld         ;"V*@0  "
024036:  603640200000  tlne     ch1, dfld       ;"P>@0  "
024037:  661240100000  tlo      b, hfwdf        ;"V*@(  "
024040:  603640010000  tlne     ch1, macrch     ;"P>@!  "
024041:  661240400000  tlo      b, ppss         ;"V*@@  "
024042:  200200000005  move     a, b            ;"0"   %"
024043:  260040022424  pushj    p, output       ;"6 @"44"
024044:  200200000007  move     a, d            ;"0"   '"
024045:  260040022424  pushj    p, output       ;"6 @"44"
024046:  254000024024  jrst     symd1           ;"5@ "@4"
symd6:
024047:  607640000077  tlnn     ch1, 77         ;"P^@  _"
024050:  254000024024  jrst     symd1           ;"5@ "@4"
024051:  254000024011  jrst     symd2           ;"5@ "@)"
cnartp:
024052:  211340000001  movni    d, p            ;"1+@  !"
cntp1:
024053:  201440327351  movei    tt, pcntb       ;"0,@:[I"
024054:  311440014746  caml     tt, pbconl      ;"9,@!GF"
024055:  263040000000  popj     p,              ;"68@   " ",b\0\0\0"
024056:  550251000001  hrrz     b, dschna(tt)   ;"M"I  !"
024057:  554211000001  hlrz     a, dschna(tt)   ;"MB)  !"
024060:  316200000005  camn     a, b            ;"9R   %"
024061:  254000024076  jrst     cntp2           ;"5@ "@^"
024062:  356000000007  aosn     d               ;"=P   '"
024063:  077000025125                           ;"'X "I5"
024064:  135240025135  ldb      b, 25135        ;"+J@"I="
024065:  332000000005  skipe    b               ;";0   %"
024066:  077000025136                           ;"'X "I>"
024067:  550251000001  hrrz     b, dschna(tt)   ;"M"I  !"
024070:  260040023574  pushj    p, octpnt       ;"6 @"=\"
024071:  260040000607  pushj    p, tab          ;"6 @ &'"
024072:  554251000001  hlrz     b, dschna(tt)   ;"MBI  !"
024073:  370000000005  sos      b               ;"?    %"
024074:  260040023574  pushj    p, octpnt       ;"6 @"=\"
024075:  260040023631  pushj    p, crr          ;"6 @">9"
cntp2:
024076:  271440000003  addi     tt, aa          ;"7,@  #"
024077:  254000024054  jrst     24054           ;"5@ "@L"
symda:
024100:  201200000004  movei    a, a            ;"0*   $"
024101:  137200025061  dpb      a, 25061        ;"+Z "HQ"
024102:  200200014765  move     a, prgnm        ;"0" !GU"
024103:  661200040000  tlo      a, vot          ;"V* $  "
024104:  260040022424  pushj    p, output       ;"6 @"44"
024105:  260040022424  pushj    p, output       ;"6 @"44"
024106:  254000022443  jrst     eblk            ;"5@ "4C"
a.op:
024107:  260040017237  pushj    p, agetfd       ;"6 @!Z?"
024110:  001000651620                           ;" ( U.0"
024111:  261040000004  push     p, a            ;"6(@  $"
024112:  260040017237  pushj    p, agetfd       ;"6 @!Z?"
024113:  001000651621                           ;" ( U.1"
024114:  261040000004  push     p, a            ;"6(@  $"
024115:  260040017237  pushj    p, agetfd       ;"6 @!Z?"
024116:  001000651622                           ;" ( U.2"
024117:  262040000005  pop      p, b            ;"60@  %"
024120:  250200000005  exch     a, b            ;"5"   %"
024121:  262040000010  pop      p, t            ;"60@  ("
024122:  616400025140  tdnn     t, 25140        ;"QT "I@"
024123:  434400025141  or       t, 25141        ;"CD "IA"
024124:  256000000010  xct      t               ;"5P   ("
024125:  254000024254  jrst     valret          ;"5@ "BL"
aasciz:
024126:  634400000010  tdza     t, t            ;"SD   ("
a.asci:
024127:  201400000001  movei    t, p            ;"0,   !"
024130:  202400024276  movem    t, aascf1       ;"04 "B^"
024131:  200340025142  move     d, 25142        ;"0#@"IB"
024132:  254000024136  jrst     aasc1           ;"5@ "A>"
asixbi:
024133:  334340025143  skipa    d, 25143        ;";C@"IC"
aascii:
024134:  200340025142  move     d, 25142        ;"0#@"IB"
024135:  476000024276  setom    aascf1          ;"GP "B^"
aasc1:
024136:  201400000000  movei    t, ff           ;"0,    " " 0\0\0\0"
024137:  623100004000  tlze     i, mwrd         ;"R9  @ "
024140:  254000024270  jrst     text2           ;"5@ "BX"
024141:  200200014742  move     a, limbo1       ;"0" !GB"
024142:  306200000040  cain     a, tpchna       ;"8R   @"
024143:  260040016145  pushj    p, arch         ;"6 @!QE"
024144:  202200024300  movem    a, text4        ;"02 "C "
text7:
024145:  260040016145  pushj    p, arch         ;"6 @!QE"
aasc8:
024146:  316200024300  camn     a, text4        ;"9R "C "
024147:  254000024163  jrst     aasc1a          ;"5@ "AS"
024150:  607340760000  tlnn     d, 760000       ;"P[@^  "
024151:  254000024245  jrst     text6           ;"5@ "BE"
text9:
024152:  603340000100  tlne     d, foo          ;"P;@ ! "
024153:  254000024170  jrst     aasc2           ;"5@ "AX"
024154:  275200000040  subi     a, tpchna       ;"7J   @"
024155:  307200000077  caig     a, 77           ;"8Z   _"
024156:  325200024160  jumpge   a, aasc3        ;":J "AP"
024157:  002000562642                           ;" 0 N6B"
aasc3:
024160:  136200000007  idpb     a, d            ;"+R   '"
024161:  660100000002  tro      i, i            ;"V!   ""
024162:  254000024145  jrst     text7           ;"5@ "AE"
aasc1a:
024163:  607340760000  tlnn     d, 760000       ;"P[@^  "
024164:  335000024276  skipge   aascf1          ;";H "B^"
024165:  254000024261  jrst     text5           ;"5@ "BQ"
024166:  201640000001  movei    ch1, p          ;"0.@  !"
024167:  254000024246  jrst     aasc1b          ;"5@ "BF"
aasc2:
024170:  306200000041  cain     a, zz           ;"8R   A"
024171:  337000024276  skipg    aascf1          ;";X "B^"
024172:  254000024160  jrst     aasc3           ;"5@ "AP"
024173:  261040000010  push     p, t            ;"6(@  ("
024174:  261040000007  push     p, d            ;"6(@  '"
024175:  261040000012  push     p, sym          ;"6(@  *"
024176:  200340025144  move     d, 25144        ;"0#@"ID"
024177:  606000020000  trnn     ff, pss         ;"PP "  "
024200:  606000040000  trnn     ff, vot         ;"PP $  "
024201:  200340025145  move     d, 25145        ;"0#@"IE"
024202:  202340024205  movem    d, aasm1        ;"03@"B%"
024203:  402000024307  setzm    asuds1          ;"@0 "C'"
024204:  260040017237  pushj    p, agetfd       ;"6 @!Z?"
aasm1:
024205:  000000024205  aasm1                    ;"   "B%"
024206:  262040000012  pop      p, sym          ;"60@  *"
024207:  262040000007  pop      p, d            ;"60@  '"
024210:  262040000010  pop      p, t            ;"60@  ("
024211:  335000024307  skipge   asuds1          ;";H "C'"
024212:  211200000001  movni    a, p            ;"1*   !"
024213:  200640025146  move     ch1, 25146      ;"0&@"IF"
024214:  202640024302  movem    ch1, asbp1      ;"06@"C""
024215:  202640024303  movem    ch1, asbp2      ;"06@"C#"
024216:  261040025147  push     p, 25147        ;"6(@"IG"
024217:  200640000004  move     ch1, a          ;"0&@  $"
aasc6:
024220:  246640777735  lshc     ch1, 777735     ;"4V@__="
024221:  242700777777  lsh      ch2, maccr      ;"47 ___"
024222:  235640000010  divi     ch1, t          ;"3N@  ("
024223:  506701000000  hrlm     ch2, (p)        ;"HW!   "
024224:  322640024226  jumpe    ch1, 24226      ;":6@"B6"
024225:  260040024220  pushj    p, aasc6        ;"6 @"B0"
024226:  554201000000  hlrz     a, (p)          ;"MB!   "
024227:  271200000060  addi     a, 60           ;"7*   P"
024230:  136200024302  idpb     a, asbp1        ;"+R "C""
024231:  263040000000  popj     p,              ;"68@   " ",b\0\0\0"
aasc5:
024232:  201200000000  movei    a, ff           ;"0*    " " (\0\0\0"
024233:  136200024302  idpb     a, asbp1        ;"+R "C""
aasc8a:
024234:  607340760000  tlnn     d, 760000       ;"P[@^  "
024235:  254000024244  jrst     aasc7           ;"5@ "BD"
024236:  134200024303  ildb     a, asbp2        ;"+B "C#"
024237:  322200024242  jumpe    a, aasc9        ;":2 "BB"
024240:  136200000007  idpb     a, d            ;"+R   '"
024241:  254000024234  jrst     aasc8a          ;"5@ "B<"
aasc9:
024242:  200200014742  move     a, limbo1       ;"0" !GB"
024243:  254000024146  jrst     aasc8           ;"5@ "AF"
aasc7:
024244:  634640000015  tdza     ch1, ch1        ;"SF@  -"
text6:
024245:  211640000001  movni    ch1, p          ;"1.@  !"
aasc1b:
024246:  202640024277  movem    ch1, aascf2     ;"06@"B_"
024247:  402000014702  setzm    cdisp           ;"@0 !G""
024250:  202200024301  movem    a, text8        ;"02 "C!"
024251:  661100004000  tlo      i, mwrd         ;"V)  @ "
024252:  200200000010  move     a, t            ;"0"   ("
024253:  254000023741  jrst     clbpop          ;"5@ "?A"
valret:
024254:  200400000004  move     t, a            ;"0$   $"
024255:  200240014742  move     b, limbo1       ;"0"@!GB"
024256:  302240000015  caie     b, ch1          ;"82@  -"
024257:  306240000012  cain     b, sym          ;"8R@  *"
024260:  254000024266  jrst     valr1           ;"5@ "BV"
text5:
024261:  261040000010  push     p, t            ;"6(@  ("
024262:  260040015410  pushj    p, getsyl       ;"6 @!L("
024263:  602100000002  trne     i, i            ;"P1   ""
024264:  002000565763                           ;" 0 NOS"
024265:  262040000004  pop      p, a            ;"60@  $"
valr1:
024266:  660100000002  tro      i, i            ;"V!   ""
text10:
024267:  254000023741  jrst     clbpop          ;"5@ "?A"
text2:
024270:  200200024301  move     a, text8        ;"0" "C!"
024271:  660100000001  tro      i, p            ;"V!   !"
024272:  335240024277  skipge   b, aascf2       ;";J@"B_"
024273:  254000024152  jrst     text9           ;"5@ "AJ"
024274:  322240024234  jumpe    b, aasc8a       ;":2@"B<"
024275:  254000024261  jrst     text5           ;"5@ "BQ"
igtxt:
024310:  261040000004  push     p, a            ;"6(@  $"
024311:  260040016145  pushj    p, arch         ;"6 @!QE"
024312:  312200024300  came     a, text4        ;"92 "C "
024313:  254000024311  jrst     24311           ;"5@ "C)"
024314:  621100004000  tlz      i, mwrd         ;"R)  @ "
popaj:
024315:  262040000004  pop      p, a            ;"60@  $"
024316:  263040000000  popj     p,              ;"68@   " ",b\0\0\0"
ardix:
024317:  260040022147  pushj    p, getwrd       ;"6 @"1G"
024320:  202200015553  movem    a, aradix       ;"02 !MK"
024321:  254000021103  jrst     a.qote          ;"5@ ")#"
aequal:
024322:  260040015410  pushj    p, getsyl       ;"6 @!L("
024323:  260040021750  pushj    p, es           ;"6 @"/H"
024324:  202507073110  movem    sym, st(d)      ;"05''9(" " T8v$"
024325:  261040014734  push     p, sadr         ;"6(@!G<"
024326:  260040015410  pushj    p, getsyl       ;"6 @!L("
024327:  260040021750  pushj    p, es           ;"6 @"/H"
024330:  005000514561                           ;" H IEQ"
024331:  262040000010  pop      p, t            ;"60@  ("
024332:  137200025150  dpb      a, 25150        ;"+Z "IH"
024333:  202250073111  movem    b, 73111(t)     ;"02H'9)"
024334:  550740000010  hrrz     tm, t           ;"M'@  ("
024335:  241740777776  rot      tm, 777776      ;"4/@__^"
024336:  510257243050  hllz     b, 3rdwrd(tm)   ;"I"O48H"
024337:  335000000017  skipge   tm              ;";H   /"
024340:  514257243050  hrlz     b, 3rdwrd(tm)   ;"IBO48H"
024341:  603240000400  tlne     b, disize       ;"P:@ $ "
024342:  661300000400  tlo      c, disize       ;"V+  $ "
024343:  550740000010  hrrz     tm, t           ;"M'@  ("
024344:  241740777776  rot      tm, 777776      ;"4/@__^"
024345:  335000000017  skipge   tm              ;";H   /"
024346:  546317243050  hlrm     c, 3rdwrd(tm)   ;"LS/48H"
024347:  331000000017  skipl    tm              ;";(   /"
024350:  502317243050  hllm     c, 3rdwrd(tm)   ;"H3/48H"
024351:  254000021103  jrst     a.qote          ;"5@ ")#"
aword:
024352:  260040022443  pushj    p, eblk         ;"6 @"4C"
024353:  260040022147  pushj    p, getwrd       ;"6 @"1G"
024354:  260040025010  pushj    p, ppb          ;"6 @"H("
024355:  254000021103  jrst     a.qote          ;"5@ ")#"
a1pass:
024356:  661000400000  tlo      ff, ppss        ;"V( @  "
024357:  620000040000  trz      ff, vot         ;"R  $  "
areloc:
024360:  402000014723  setzm    cloc            ;"@0 !G3"
024361:  201200000001  movei    a, p            ;"0*   !"
024362:  202200014724  movem    a, crloc        ;"02 !G4"
024363:  402000014735  setzm    contrl          ;"@0 !G="
024364:  254000023413  jrst     arel1           ;"5@ "<+"
aoffse:
024365:  660100004010  tro      i, 4010         ;"V!  @("
024366:  200200025151  move     a, 25151        ;"0" "II"
024367:  202200021701  movem    a, gtver        ;"02 "/!"
024370:  260040022147  pushj    p, getwrd       ;"6 @"1G"
024371:  606100000010  trnn     i, t            ;"PQ   ("
024372:  254000023346  jrst     aloc1           ;"5@ ";F"
024373:  202200014725  movem    a, ofloc        ;"02 !G5"
024374:  202240014726  movem    b, ofrloc       ;"02@!G6"
024375:  254000021103  jrst     a.qote          ;"5@ ")#"
aprntx:
024376:  200200014742  move     a, limbo1       ;"0" !GB"
024377:  306200000040  cain     a, tpchna       ;"8R   @"
024400:  260040016145  pushj    p, arch         ;"6 @!QE"
aprtx1:
024401:  200400000004  move     t, a            ;"0$   $"
024402:  260040016145  pushj    p, arch         ;"6 @!QE"
024403:  306200000041  cain     a, zz           ;"8R   A"
024404:  325240024402  jumpge   b, 24402        ;":J@"D""
024405:  316200000010  camn     a, t            ;"9R   ("
024406:  254000021103  jrst     a.qote          ;"5@ ")#"
024407:  260040000610  pushj    p, tyo          ;"6 @ &("
024410:  254000024402  jrst     24402           ;"5@ "D""
sload:
024411:  710600000060  cono     ptr, 60         ;"Y&   P"
024412:  265600000030  jsp      f, 30           ;"6N   8"
024413:  710440000016  datai    ptr, ch2        ;"Y$@  ."
024414:  200640000016  move     ch1, ch2        ;"0&@  ."
024415:  325700000016  jumpge   ch2, ch2        ;":O   ."
024416:  265600000030  jsp      f, 30           ;"6N   8"
024417:  710456000000  datai    ptr, (ch2)      ;"Y$N   "
024420:  241640000001  rot      ch1, p          ;"4.@  !"
024421:  270656000000  add      ch1, (ch2)      ;"7&N   "
024422:  253700000005  aobjn    ch2, b          ;"5?   %"
024423:  201600000033  movei    f, 33           ;"0.   ;"
024424:  254000000030  jrst     30              ;"5@   8"
024425:  710740000010  conso    ptr, t          ;"Y'@  ("
024426:  254000000030  jrst     30              ;"5@   8"
024427:  254014000000  jrst     (f)             ;"5@,   "
024430:  710440000016  datai    ptr, ch2        ;"Y$@  ."
024431:  316640000016  camn     ch1, ch2        ;"9V@  ."
024432:  324000000001  jumpa    ff, p           ;":@   !"
024433:  254200000000  halt     ff              ;"5B    "
sloadp:
024434:  260040017237  pushj    p, agetfd       ;"6 @!Z?"
024435:  002000656363                           ;" 0 USS"
024436:  242200000036  lsh      a, 36           ;"42   >"
024437:  261040000004  push     p, a            ;"6(@  $"
024440:  260040015410  pushj    p, getsyl       ;"6 @!L("
024441:  621500740000  tlz      sym, bsup       ;"R- \  "
024442:  262040000004  pop      p, a            ;"60@  $"
024443:  270200000012  add      a, sym          ;"7"   *"
024444:  661100002000  tlo      i, alnscn       ;"V)  0 "
024445:  254000024254  jrst     valret          ;"5@ "BL"
a.lop:
024446:  332000014735  skipe    contrl          ;";0 !G="
024447:  005000515457                           ;" H ILO"
024450:  260040022443  pushj    p, eblk         ;"6 @"4C"
024451:  260040015132  pushj    p, getfld       ;"6 @!I:"
024452:  202200014710  movem    a, wrd          ;"02 !G("
024453:  202240014711  movem    b, wrdrlc       ;"02@!G)"
024454:  260040022525  pushj    p, pwrda        ;"6 @"55"
024455:  201200066067  movei    a, glotb        ;"0* &PW"
024456:  202200014704  movem    a, glsp1        ;"02 !G$"
024457:  202200014705  movem    a, glsp2        ;"02 !G%"
024460:  260040015132  pushj    p, getfld       ;"6 @!I:"
024461:  202200014710  movem    a, wrd          ;"02 !G("
024462:  202240014711  movem    b, wrdrlc       ;"02@!G)"
024463:  260040022525  pushj    p, pwrda        ;"6 @"55"
024464:  201200066067  movei    a, glotb        ;"0* &PW"
024465:  202200014704  movem    a, glsp1        ;"02 !G$"
024466:  202200014705  movem    a, glsp2        ;"02 !G%"
024467:  260040015132  pushj    p, getfld       ;"6 @!I:"
024470:  202200014710  movem    a, wrd          ;"02 !G("
024471:  202240014711  movem    b, wrdrlc       ;"02@!G)"
024472:  201200000007  movei    a, d            ;"0*   '"
024473:  260040023167  pushj    p, pldcm        ;"6 @"9W"
024474:  254000021103  jrst     a.qote          ;"5@ ")#"
stgws:
024475:  512240014776  hllzm    b, stgsw        ;"I2@!G^"
024476:  254000021103  jrst     a.qote          ;"5@ ")#"
a.libr:
024477:  260040015410  pushj    p, getsyl       ;"6 @!L("
024500:  606100000002  trnn     i, i            ;"PQ   ""
024501:  254000021103  jrst     a.qote          ;"5@ ")#"
024502:  260040021364  pushj    p, pbits7       ;"6 @"+T"
024503:  201200000003  movei    a, aa           ;"0*   #"
024504:  260040022411  pushj    p, pbits        ;"6 @"4)"
024505:  661500040000  tlo      sym, vot        ;"V- $  "
024506:  260040022422  pushj    p, outsm        ;"6 @"42"
024507:  254000024477  jrst     a.libr          ;"5@ "D_"
a.glob:
024510:  201200066067  movei    a, glotb        ;"0* &PW"
024511:  202200014704  movem    a, glsp1        ;"02 !G$"
024512:  476000014716  setom    fldcnt          ;"GP !G."
024513:  260040015410  pushj    p, getsyl       ;"6 @!L("
024514:  606100000002  trnn     i, i            ;"PQ   ""
024515:  254000021103  jrst     a.qote          ;"5@ ")#"
024516:  661100000001  tlo      i, p            ;"V)   !"
024517:  260040021457  pushj    p, getval       ;"6 @",O"
024520:  254000024510  jrst     a.glob          ;"5@ "E("
a.gsse:
024521:  260040017237  pushj    p, agetfd       ;"6 @!Z?"
024522:  001000656347                           ;" ( USG"
024523:  202200015025  movem    a, gensm        ;"02 !H5"
024524:  254000021103  jrst     a.qote          ;"5@ ")#"
a.type:
024525:  260040015410  pushj    p, getsyl       ;"6 @!L("
024526:  260040021750  pushj    p, es           ;"6 @"/H"
024527:  201200000017  movei    a, tm           ;"0*   /"
024530:  254000024254  jrst     valret          ;"5@ "BL"
a.gst:
024531:  260040024615  pushj    p, bcompa       ;"6 @"F-"
024532:  202700024604  movem    ch2, a.gst3     ;"07 "F$"
a.gst1:
024533:  134240024604  ildb     b, a.gst3       ;"+B@"F$"
024534:  301240000300  cail     b, 300          ;"8*@ # "
024535:  263040000000  popj     p,              ;"68@   " ",b\0\0\0"
024536:  302240000056  caie     b, 56           ;"82@  N"
024537:  254000024533  jrst     a.gst1          ;"5@ "E;"
024540:  260040016663  pushj    p, a.gsyl       ;"6 @!VS"
024541:  321400023742  jumpl    t, cpopj        ;":, "?B"
024542:  312500025152  came     sym, 25152      ;"95 "IJ"
024543:  254000024533  jrst     a.gst1          ;"5@ "E;"
024544:  260040016663  pushj    p, a.gsyl       ;"6 @!VS"
024545:  321400023742  jumpl    t, cpopj        ;":, "?B"
024546:  312500024603  came     sym, a.gst4     ;"95 "F#"
024547:  254000024533  jrst     a.gst1          ;"5@ "E;"
024550:  200700024604  move     ch2, a.gst3     ;"0' "F$"
024551:  260040024605  pushj    p, ccomp        ;"6 @"F%"
024552:  254000022030  jrst     popj1           ;"5@ "08"
ag.sp:
024553:  246200777776  lshc     a, 777776       ;"4R __^"
024554:  135640025153  ldb      ch1, 25153      ;"+N@"IK"
024555:  200244026023  move     b, mactab(a)    ;"0"D"P3"
024556:  221640777776  imuli    ch1, 777776     ;"2.@__^"
024557:  430240025154  xor      b, 25154        ;"C"@"IL"
024560:  254015024571  jrst     ag.sp2(ch1)     ;"5@-"EY"
ag.sp3:
024561:  200244026023  move     b, mactab(a)    ;"0"D"P3"
024562:  430240025154  xor      b, 25154        ;"C"@"IL"
024563:  606240006000  trnn     b, lcnglo       ;"PR@ P "
024564:  265640024574  jsp      ch1, ag.sf      ;"6N@"E\"
024565:  607240000003  tlnn     b, aa           ;"PZ@  #"
024566:  265640024574  jsp      ch1, ag.sf      ;"6N@"E\"
024567:  607240001400  tlnn     b, 1400         ;"PZ@ , "
024570:  265640024574  jsp      ch1, ag.sf      ;"6N@"E\"
ag.sp2:
024571:  607240600000  tlnn     b, 3rel         ;"PZ@P  "
024572:  265640024574  jsp      ch1, ag.sf      ;"6N@"E\"
ag.sp1:
024573:  364200024561  soja     a, ag.sp3       ;">B "EQ"
ag.sf:
024574:  211655000000  movni    ch1, (ch1)      ;"1.M   " "\":h\0\0"
024575:  271640024573  addi     ch1, ag.sp1     ;"7.@"E["
024576:  242640777777  lsh      ch1, maccr      ;"46@___"
024577:  242200000002  lsh      a, i            ;"42   ""
024600:  271215000000  addi     a, (ch1)        ;"7*-   " ".(h\0\0"
024601:  553000000004  hrrzs    ff, a           ;"M8   $"
024602:  263040000000  popj     p,              ;"68@   " ",b\0\0\0"
ccomp:
024605:  634200000004  tdza     a, a            ;"SB   $"
ccomp1:
024606:  133000000016  ibp      ch2             ;"+8   ."
024607:  603700700000  tlne     ch2, 700000     ;"P? X  "
024610:  364200024606  soja     a, ccomp1       ;">B "F&"
024611:  275700026023  subi     ch2, mactab     ;"7O "P3"
024612:  242700000002  lsh      ch2, i          ;"47   ""
024613:  271216000004  addi     a, tapac(ch2)   ;"7*.  $"
024614:  263040000000  popj     p,              ;"68@   " ",b\0\0\0"
bcompa:
024615:  332640000004  skipe    ch1, a          ;";6@  $"
024616:  370000000015  sos      ch1             ;"?    -"
024617:  231640000004  idivi    ch1, a          ;"3.@  $"
024620:  200716015012  move     ch2, ptab(ch2)  ;"0'.!H*"
024621:  270700000015  add      ch2, ch1        ;"7'   -"
024622:  621700000017  tlz      ch2, tm         ;"R/   /"
024623:  263040000000  popj     p,              ;"68@   " ",b\0\0\0"
a.tag:
024624:  260040016666  pushj    p, gsyl         ;"6 @!VV"
024625:  254000021103  jrst     a.qote          ;"5@ ")#"
a.go:
024626:  260040016666  pushj    p, gsyl         ;"6 @!VV"
024627:  202500024603  movem    sym, a.gst4     ;"05 "F#"
a.go1:
024630:  606000010000  trnn     ff, macrch      ;"PP !  "
024631:  254000021103  jrst     a.qote          ;"5@ ")#"
024632:  200200015044  move     a, cptr         ;"0" !HD"
024633:  260040024553  pushj    p, ag.sp        ;"6 @"EK"
024634:  260040016232  pushj    p, redinc       ;"6 @!R:"
024635:  306240000374  cain     b, 374          ;"8R@ #\"
024636:  271200000002  addi     a, i            ;"7*   ""
024637:  260040024531  pushj    p, a.gst        ;"6 @"E9"
024640:  254000024644  jrst     a.go2           ;"5@ "FD"
024641:  202200015044  movem    a, cptr         ;"02 !HD"
024642:  476000015030  setom    cptrb           ;"GP !H8"
024643:  254000021103  jrst     a.qote          ;"5@ ")#"
a.go2:
024644:  260040024646  pushj    p, pmacp        ;"6 @"FF"
024645:  254000024630  jrst     a.go1           ;"5@ "F8"
pmacp:
024646:  200240015023  move     b, macp         ;"0"@!H3"
024647:  550205000000  hrrz     a, (b)          ;"M"%   "
024650:  274240025036  sub      b, 25036        ;"7B@"H>"
024651:  306200017470  cain     a, airp4        ;"8R !\X"
024652:  254000024662  jrst     a.go6           ;"5@ "FR"
024653:  306200017171  cain     a, rept1        ;"8R !YY"
024654:  254000024661  jrst     a.go4           ;"5@ "FQ"
024655:  302200016204  caie     a, rchsv1       ;"82 !R$"
024656:  306200016222  cain     a, rchsav       ;"8R !R2"
024657:  254000024662  jrst     a.go6           ;"5@ "FR"
024660:  000000654360                           ;"   UCP"
a.go4:
024661:  553005777776  hrrzs    ff, 777776(b)   ;"M8%__^"
a.go6:
024662:  660000000200  tro      ff, mrsw        ;"V   " "
024663:  254004000000  jrst     (a)             ;"5@$   "
a.byte:
024664:  402000015006  setzm    nbyts           ;"@0 !H&"
024665:  402000015003  setzm    bytmt           ;"@0 !H#"
024666:  200200025155  move     a, 25155        ;"0" "IM"
024667:  202200015002  movem    a, bytmp        ;"02 !H""
a.by1:
024670:  260040017237  pushj    p, agetfd       ;"6 @!Z?"
024671:  001000654263                           ;" ( UBS"
024672:  200300015007  move     c, isav         ;"0# !H'"
024673:  606300000001  trnn     c, p            ;"PS   !"
024674:  254000024702  jrst     a.by2           ;"5@ "G""
024675:  214240000004  movm     b, a            ;"1B@  $"
024676:  335000000004  skipge   a               ;";H   $"
024677:  660240000100  tro      b, foo          ;"V"@ ! "
024700:  136240015002  idpb     b, bytmp        ;"+R@!H""
024701:  350000015003  aos      bytmt           ;"=  !H#"
a.by2:
024702:  302640000015  caie     ch1, ch1        ;"86@  -"
024703:  306640000012  cain     ch1, sym        ;"8V@  *"
024704:  254000024706  jrst     24706           ;"5@ "G&"
024705:  254000024670  jrst     a.by1           ;"5@ "FX"
024706:  336000015003  skipn    bytmt           ;";P !H#"
024707:  254000024724  jrst     a.by3           ;"5@ "G4"
024710:  476000015000  setom    bytm            ;"GP !H "
024711:  260040024714  pushj    p, byset        ;"6 @"G,"
024712:  402000015005  setzm    bytw            ;"@0 !H%"
024713:  254000021103  jrst     a.qote          ;"5@ ")#"
byset:
024714:  402000015001  setzm    bytmc           ;"@0 !H!"
024715:  200200025155  move     a, 25155        ;"0" "IM"
024716:  202200015002  movem    a, bytmp        ;"02 !H""
024717:  134200015002  ildb     a, bytmp        ;"+B !H""
024720:  350000015001  aos      bytmc           ;"=  !H!"
024721:  660200004400  tro      a, 4400         ;"V"  D "
024722:  137200025156  dpb      a, 25156        ;"+Z "IN"
024723:  263040000000  popj     p,              ;"68@   " ",b\0\0\0"
a.by3:
024724:  402000015000  setzm    bytm            ;"@0 !H "
a.walg:
024725:  135200025157  ldb      a, 25157        ;"+J "IO"
024726:  306200000044  cain     a, 44           ;"8R   D"
024727:  254000021103  jrst     a.qote          ;"5@ ")#"
024730:  260040024714  pushj    p, byset        ;"6 @"G,"
024731:  402000014712  setzm    t1              ;"@0 !G*"
024732:  254000024750  jrst     pby1            ;"5@ "GH"
bytin1:
024733:  402000015001  setzm    bytmc           ;"@0 !H!"
024734:  200200025155  move     a, 25155        ;"0" "IM"
024735:  202200015002  movem    a, bytmp        ;"02 !H""
bytinc:
024736:  350200015001  aos      a, bytmc        ;"=" !H!"
024737:  313200015003  camle    a, bytmt        ;"9: !H#"
024740:  254000024733  jrst     bytin1          ;"5@ "G;"
024741:  134200015002  ildb     a, bytmp        ;"+B !H""
024742:  137200025160  dpb      a, 25160        ;"+Z "IP"
024743:  202200014712  movem    a, t1           ;"02 !G*"
024744:  510200015004  hllz     a, bytwp        ;"I" !H$"
024745:  133000000004  ibp      a               ;"+8   $"
024746:  606200777777  trnn     a, maccr        ;"PR ___"
024747:  254000024757  jrst     bytinr          ;"5@ "GO"
pby1:
024750:  200200015005  move     a, bytw         ;"0" !H%"
024751:  202200014710  movem    a, wrd          ;"02 !G("
024752:  402000015005  setzm    bytw            ;"@0 !H%"
024753:  201200000044  movei    a, 44           ;"0*   D"
024754:  137200025157  dpb      a, 25157        ;"+Z "IO"
024755:  260040022526  pushj    p, pwrd         ;"6 @"56"
024756:  350000014723  aos      cloc            ;"=  !G3"
bytinr:
024757:  200200014712  move     a, t1           ;"0" !G*"
024760:  606200000100  trnn     a, foo          ;"PR  ! "
024761:  254000021103  jrst     a.qote          ;"5@ ")#"
024762:  201200000000  movei    a, ff           ;"0*    " " (\0\0\0"
024763:  254000024766  jrst     pby2            ;"5@ "GV"
pbyte:
024764:  350000015006  aos      nbyts           ;"=  !H&"
024765:  200200014710  move     a, wrd          ;"0" !G("
pby2:
024766:  136200015004  idpb     a, bytwp        ;"+R !H$"
024767:  325000024736  jumpge   ff, bytinc      ;":H "G>"
024770:  332000014711  skipe    wrdrlc          ;";0 !G)"
024771:  001000625142                           ;" ( RIB"
024772:  200200014704  move     a, glsp1        ;"0" !G$"
024773:  312200014705  came     a, glsp2        ;"92 !G%"
024774:  001000475142                           ;" ( GIB"
024775:  254000024736  jrst     bytinc          ;"5@ "G>"
a.bytc:
025003:  200200015006  move     a, nbyts        ;"0" !H&"
025004:  254000023741  jrst     clbpop          ;"5@ "?A"
feed1:
025005:  334240025161  skipa    b, 25161        ;";B@"IQ"
feed:
025006:  201240000005  movei    b, b            ;"0*@  %"
025007:  254000000420  jrst     tfeed           ;"5@  $0"
ppb:
025010:  325000023742  jumpge   ff, cpopj       ;":H "?B"
ppba:
025011:  254000000460  jrst     tppb            ;"5@  $P"
$    0:
025012:  000004000004                           ;"  $  $"
025013:  000002000002                           ;"  "  ""
025014:  000001000000                           ;"  !   "
025015:  221207000001  imuli    a, dschna(d)    ;"2*'  !"
025016:  000000015421                           ;"   !L1"
025017:  001030000100                           ;" (8 ! "
025020:  000010000100                           ;"  ( ! "
025021:  015542015543                           ;"!MB!MC"
025022:  000047000006                           ;"  G  &"
025023:  034165100000                           ;"#AU(  "
025024:  200000015352  move     ff, cbakar      ;"0  !KJ"
025025:  777377777777  conso    770, @maccr(tm) ;"_[____"
025026:  254000016155  jrst     mrch            ;"5@ !QM"
025027:  260040000250  pushj    p, rpa          ;"6 @ "H"
025030:  000002345571                           ;"  "<MY"
025031:  141000026023                           ;",( "P3"
025032:  400404073110  setz     t, st(a)        ;"@$$'9("
025033:  000014000014                           ;"  ,  ,"
025034:  000000016271  rdwr2a                   ;"   !RY"
025035:  440700335751  andcb    ch2, strsto     ;"D' ;OI"
025036:  000001000001                           ;"  !  !"
025037:  777775777776  conso    typ5, @777776(ch1);"__]__^"
025040:  220605000000  imul     f, (b)          ;"2&%   "
025041:  000077000000                           ;"  _   "
025042:  221200000010  imuli    a, t            ;"2*   ("
025043:  420201777777  andcm    a, maccr(p)     ;"B"!___"
025044:  400407073110  setz     t, st(d)        ;"@$''9("
025045:  000000666244                           ;"   VRD"
025046:  420105000002  andcm    i, tpchn(b)     ;"B!%  ""
025047:  370500000006  sos      sym, c          ;"?%   &"
025050:  717777777777  conso    174, @maccr(tm) ;"Y_____"
025051:  775000342571  blki     750, toppp      ;"_H <5Y"
025052:  034530424200                           ;"#E8BB "
025053:  440300014717  andcb    c, pbits1       ;"D# !G/"
025054:  034773600001                           ;"#G[P !"
025055:  022065022112                           ;""0U"1*"
025056:  773000066107  blki     730, pdl        ;"_8 &Q'"
025057:  001000656360                           ;" ( USP"
025060:  773777777777  conso    734, @maccr(tm) ;"_?____"
025061:  310700066023  cam      ch2, bkbuf      ;"9' &P3"
025062:  240000000000  ash      ff, ff          ;"4     " "(\0\0\0\0"
025063:  420100000006  andcm    i, c            ;"B!   &"
025064:  000400000400                           ;" $  $ "
025065:  050100014706                           ;"%! !G&"
025066:  301400014706  cail     t, format       ;"8, !G&"
025067:  002200000006                           ;" 2   &"
025070:  220700066023  imul     ch2, bkbuf      ;"2' &P3"
025071:  344440022502  aoja     tt, 22502       ;"<D@"5""
025072:  400411000000  setz     t, (tt)         ;"@$)   "
025073:  410100000004  andca    i, a            ;"A!   $"
025074:  370100000005  sos      i, b            ;"?!   %"
025075:  221200000005  imuli    a, b            ;"2*   %"
025076:  010100000004                           ;"!!   $"
025077:  430100000010  xor      i, t            ;"C!   ("
025100:  420100000010  andcm    i, t            ;"B!   ("
025101:  000000000011  tt                       ;"     )"
025102:  001000655443                           ;" ( ULC"
025103:  400300066023  setz     c, bkbuf        ;"@# &P3"
025104:  400000020000  setz     ff, pss         ;"@  "  "
025105:  400400000012  setz     t, sym          ;"@$   *"
025106:  710440000013  datai    ptr, link       ;"Y$@  +"
025107:  254000000001  jrst     p               ;"5@   !"
025110:  001000656345                           ;" ( USE"
025111:  254000000000  jrst     ff              ;"5@    " "+\0\0\0\0"
025112:  001000656354                           ;" ( USL"
025113:  777777777776  conso    typ5, @777776(tm);"_____^"
025114:  016753606120                           ;"!WKPQ0"
025115:  001000656342                           ;" ( USB"
025116:  331100000040  skipl    i, tpchna       ;";)   @"
025117:  436311741202  orm      c, 741202(tt)   ;"CS)\*"" "GLOBA"
025120:  461264100000  setcmi   b, @hfwdf(a)    ;"F*T(  " "L+!\0\0"
025121:  777777777777  conso    typ5, @maccr(tm);"______"
025122:  400017025121  setz     ff, 25121(tm)   ;"@ /"I1"
025123:  000000000010  t                        ;"     ("
025124:  037777777777                           ;"#_____"
025125:  416371651650  setmm    d, @651650(tt)  ;"ASYU.H" "CONST"
025126:  406352451500  andm     d, 451500(sym)  ;"@SJE- " "ANTS "
025127:  406450540500  andm     tt, 540500(t)   ;"@THL% " "AREA "
025130:  446350346252  eqvm     d, 346252(t)    ;"DSH<RJ" "INCLU"
025131:  516232642432  hrlzm    a, @642432(sym) ;"IR:T4:" "SIVE\r"
025132:  052152247632                           ;"%1J4^:" "\nFROM"
025133:  201004052236  movei    ff, 52236(a)    ;"0($%2>" "   TO"
025134:  064244100000                           ;"&BD(  " "\r\n!\0\0"
025135:  410111000002  andca    i, tpchn(tt)    ;"A!)  ""
025136:  436311741202  orm      c, 741202(tt)   ;"CS)\*"" "GLOBA"
025137:  461264100000  setcmi   b, @hfwdf(a)    ;"F*T(  " "L+!\0\0"
025140:  000757777777                           ;" 'O___"
025141:  000200000005                           ;" "   %"
025142:  440700000010  andcb    ch2, t          ;"D'   ("
025143:  440600000010  andcb    f, t            ;"D&   ("
025144:  476000024307  setom    asuds1          ;"GP "C'"
025145:  002000656341                           ;" 0 USA"
025146:  440700024304  andcb    ch2, aasbf      ;"D' "C$"
025147:  000000024232  aasc5                    ;"   "B:"
025150:  400410073110  setz     t, st(t)        ;"@$('9("
025151:  001000656357                           ;" ( USO"
025152:  027066245000                           ;""XV4H "
025153:  420200000005  andcm    a, b            ;"B"   %"
025154:  601403006000  tln      t, lcnglo(aa)   ;"P,# P "
025155:  440700024776  andcb    ch2, bybyt      ;"D' "G^"
025156:  301400015004  cail     t, bytwp        ;"8, !H$"
025157:  360600015004  soj      f, bytwp        ;">& !H$"
025160:  300600015004  cai      f, bytwp        ;"8& !H$"
025161:  000000000040  tpchna                   ;"     @"
gdtab:
025202:  263040000076  popj     p, 76           ;"68@  ^"
025203:  263040000076  popj     p, 76           ;"68@  ^"
025204:  263040000076  popj     p, 76           ;"68@  ^"
025205:  254000015506  jrst     ut141           ;"5@ !M&"
025206:  263040000076  popj     p, 76           ;"68@  ^"
025207:  263040000076  popj     p, 76           ;"68@  ^"
025210:  263040000076  popj     p, 76           ;"68@  ^"
025211:  263040000076  popj     p, 76           ;"68@  ^"
025212:  263040000076  popj     p, 76           ;"68@  ^"
025213:  263040000075  popj     p, 75           ;"68@  ]"
025214:  263040000074  popj     p, 74           ;"68@  \"
025215:  263040000076  popj     p, 76           ;"68@  ^"
025216:  263040000076  popj     p, 76           ;"68@  ^"
025217:  263040000074  popj     p, 74           ;"68@  \"
025220:  263040000076  popj     p, 76           ;"68@  ^"
025221:  263040000076  popj     p, 76           ;"68@  ^"
025222:  263040000076  popj     p, 76           ;"68@  ^"
025223:  263040000076  popj     p, 76           ;"68@  ^"
025224:  263040000076  popj     p, 76           ;"68@  ^"
025225:  263040000076  popj     p, 76           ;"68@  ^"
025226:  263040000076  popj     p, 76           ;"68@  ^"
025227:  263040000076  popj     p, 76           ;"68@  ^"
025230:  263040000076  popj     p, 76           ;"68@  ^"
025231:  263040000076  popj     p, 76           ;"68@  ^"
025232:  263040000076  popj     p, 76           ;"68@  ^"
025233:  263040000076  popj     p, 76           ;"68@  ^"
025234:  263040000076  popj     p, 76           ;"68@  ^"
025235:  263040000076  popj     p, 76           ;"68@  ^"
025236:  263040000076  popj     p, 76           ;"68@  ^"
025237:  263040000076  popj     p, 76           ;"68@  ^"
025240:  263040000076  popj     p, 76           ;"68@  ^"
025241:  263040000076  popj     p, 76           ;"68@  ^"
025242:  263040000040  popj     p, tpchna       ;"68@  @"
025243:  263040000041  popj     p, zz           ;"68@  A"
025244:  263040000042  popj     p, 42           ;"68@  B"
025245:  263040000043  popj     p, 43           ;"68@  C"
025246:  270507025776  add      sym, %$sq(d)    ;"7%'"O^"
025247:  270507026005  add      sym, %%sq(d)    ;"7%'"P%"
025250:  263040000046  popj     p, 46           ;"68@  F"
025251:  263040000047  popj     p, 47           ;"68@  G"
025252:  263040000050  popj     p, 50           ;"68@  H"
025253:  263040000051  popj     p, 51           ;"68@  I"
025254:  263040000052  popj     p, 52           ;"68@  J"
025255:  263040000053  popj     p, 53           ;"68@  K"
025256:  263040000054  popj     p, 54           ;"68@  L"
025257:  263040000055  popj     p, 55           ;"68@  M"
025260:  263040000056  popj     p, 56           ;"68@  N"
025261:  263040000057  popj     p, 57           ;"68@  O"
025262:  265700016016  jsp      ch2, rr2        ;"6O !P."
025263:  265700016016  jsp      ch2, rr2        ;"6O !P."
025264:  265700016016  jsp      ch2, rr2        ;"6O !P."
025265:  265700016016  jsp      ch2, rr2        ;"6O !P."
025266:  265700016016  jsp      ch2, rr2        ;"6O !P."
025267:  265700016016  jsp      ch2, rr2        ;"6O !P."
025270:  265700016016  jsp      ch2, rr2        ;"6O !P."
025271:  265700016016  jsp      ch2, rr2        ;"6O !P."
025272:  265700016016  jsp      ch2, rr2        ;"6O !P."
025273:  265700016016  jsp      ch2, rr2        ;"6O !P."
025274:  263040000060  popj     p, 60           ;"68@  P"
025275:  263040000061  popj     p, 61           ;"68@  Q"
025276:  263040000062  popj     p, 62           ;"68@  R"
025277:  263040000063  popj     p, 63           ;"68@  S"
025300:  263040000064  popj     p, 64           ;"68@  T"
025301:  263040000065  popj     p, 65           ;"68@  U"
025302:  263040000066  popj     p, 66           ;"68@  V"
025303:  270507025402  add      sym, %asq(d)    ;"7%'"L""
025304:  270507025411  add      sym, %bsq(d)    ;"7%'"L)"
025305:  270507025420  add      sym, %csq(d)    ;"7%'"L0"
025306:  270507025427  add      sym, %dsq(d)    ;"7%'"L7"
025307:  270507025436  add      sym, %esq(d)    ;"7%'"L>"
025310:  270507025445  add      sym, %fsq(d)    ;"7%'"LE"
025311:  270507025454  add      sym, %gsq(d)    ;"7%'"LL"
025312:  270507025463  add      sym, %hsq(d)    ;"7%'"LS"
025313:  270507025472  add      sym, %isq(d)    ;"7%'"LZ"
025314:  270507025501  add      sym, %jsq(d)    ;"7%'"M!"
025315:  270507025510  add      sym, %ksq(d)    ;"7%'"M("
025316:  270507025517  add      sym, %lsq(d)    ;"7%'"M/"
025317:  270507025526  add      sym, %msq(d)    ;"7%'"M6"
025320:  270507025535  add      sym, %nsq(d)    ;"7%'"M="
025321:  270507025544  add      sym, %osq(d)    ;"7%'"MD"
025322:  270507025553  add      sym, %psq(d)    ;"7%'"MK"
025323:  270507025562  add      sym, %qsq(d)    ;"7%'"MR"
025324:  270507025571  add      sym, %rsq(d)    ;"7%'"MY"
025325:  270507025600  add      sym, %ssq(d)    ;"7%'"N "
025326:  270507025607  add      sym, %tsq(d)    ;"7%'"N'"
025327:  270507025616  add      sym, %usq(d)    ;"7%'"N."
025330:  270507025625  add      sym, %vsq(d)    ;"7%'"N5"
025331:  270507025634  add      sym, %wsq(d)    ;"7%'"N<"
025332:  270507025643  add      sym, %xsq(d)    ;"7%'"NC"
025333:  270507025652  add      sym, %ysq(d)    ;"7%'"NJ"
025334:  270507025661  add      sym, %zsq(d)    ;"7%'"NQ"
025335:  263040000067  popj     p, 67           ;"68@  W"
025336:  263040000070  popj     p, 70           ;"68@  X"
025337:  263040000071  popj     p, 71           ;"68@  Y"
025340:  263040000072  popj     p, 72           ;"68@  Z"
025341:  263040000073  popj     p, 73           ;"68@  ["
025342:  263040000076  popj     p, 76           ;"68@  ^"
025343:  254000015506  jrst     ut141           ;"5@ !M&"
025344:  263040000076  popj     p, 76           ;"68@  ^"
025345:  263040000076  popj     p, 76           ;"68@  ^"
025346:  263040000076  popj     p, 76           ;"68@  ^"
025347:  263040000076  popj     p, 76           ;"68@  ^"
025350:  263040000076  popj     p, 76           ;"68@  ^"
025351:  263040000076  popj     p, 76           ;"68@  ^"
025352:  263040000076  popj     p, 76           ;"68@  ^"
025353:  263040000076  popj     p, 76           ;"68@  ^"
025354:  263040000076  popj     p, 76           ;"68@  ^"
025355:  263040000076  popj     p, 76           ;"68@  ^"
025356:  263040000076  popj     p, 76           ;"68@  ^"
025357:  263040000076  popj     p, 76           ;"68@  ^"
025360:  263040000076  popj     p, 76           ;"68@  ^"
025361:  263040000076  popj     p, 76           ;"68@  ^"
025362:  263040000076  popj     p, 76           ;"68@  ^"
025363:  263040000076  popj     p, 76           ;"68@  ^"
025364:  263040000076  popj     p, 76           ;"68@  ^"
025365:  263040000076  popj     p, 76           ;"68@  ^"
025366:  263040000076  popj     p, 76           ;"68@  ^"
025367:  263040000076  popj     p, 76           ;"68@  ^"
025370:  263040000076  popj     p, 76           ;"68@  ^"
025371:  263040000076  popj     p, 76           ;"68@  ^"
025372:  263040000076  popj     p, 76           ;"68@  ^"
025373:  263040000076  popj     p, 76           ;"68@  ^"
025374:  263040000076  popj     p, 76           ;"68@  ^"
025375:  263040000076  popj     p, 76           ;"68@  ^"
025376:  263040000076  popj     p, 76           ;"68@  ^"
025377:  263040000076  popj     p, 76           ;"68@  ^"
025400:  263040000076  popj     p, 76           ;"68@  ^"
025401:  263040000076  popj     p, 76           ;"68@  ^"
%asq:
025402:  000000000000                           ;"      "
025403:  000000000013  link                     ;"     +"
025404:  000000000670  ding                     ;"    &X"
025405:  000000042300                           ;"   $3 "
025406:  000002537000                           ;"  "KX "
025407:  000153330000                           ;" !K;  "
025410:  010310700000                           ;"!#(X  "
%bsq:
025411:  000000000000                           ;"      "
025412:  000000000014  f                        ;"     ,"
025413:  000000000740                           ;"    '@"
025414:  000000045400                           ;"   $L "
025415:  000002734000                           ;"  "[@ "
025416:  000165140000                           ;" !U,  "
025417:  011117400000                           ;"!)/@  "
%csq:
025420:  000000000000                           ;"      "
025421:  000000000015  ch1                      ;"     -"
025422:  000000001010  tiip                     ;"    (("
025423:  000000050500                           ;"   %% "
025424:  000003131000                           ;"  #+( "
025425:  000176750000                           ;" !^]  "
025426:  011726100000                           ;"!/6(  "
%dsq:
025427:  000000000000                           ;"      "
025430:  000000000016  ch2                      ;"     ."
025431:  000000001060                           ;"    (P"
025432:  000000053600                           ;"   %> "
025433:  000003326000                           ;"  #:P "
025434:  000210560000                           ;" "(N  "
025435:  012534600000                           ;"!5<P  "
%esq:
025436:  000000000000                           ;"      "
025437:  000000000017  tm                       ;"     /"
025440:  000000001130                           ;"    )8"
025441:  000000056700                           ;"   %W "
025442:  000003523000                           ;"  #J8 "
025443:  000222370000                           ;" "2?  "
025444:  013343300000                           ;"!;C8  "
%fsq:
025445:  000000000000                           ;"      "
025446:  000000000020  nuwbuf                   ;"     0"
025447:  000000001200  spunch                   ;"    * "
025450:  000000062000                           ;"   &0 "
025451:  000003720000                           ;"  #Z  "
025452:  000234200000                           ;" "<0  "
025453:  014152000000                           ;"!AJ   "
%gsq:
025454:  000000000000                           ;"      "
025455:  000000000021                           ;"     1"
025456:  000000001250                           ;"    *H"
025457:  000000065100                           ;"   &I "
025460:  000004115000                           ;"  $)H "
025461:  000246010000                           ;" "F!  "
025462:  014760500000                           ;"!GPH  "
%hsq:
025463:  000000000000                           ;"      "
025464:  000000000022                           ;"     2"
025465:  000000001320                           ;"    +0"
025466:  000000070200                           ;"   '" "
025467:  000004312000                           ;"  $90 "
025470:  000257620000                           ;" "OR  "
025471:  015567200000                           ;"!MW0  "
%isq:
025472:  000000000000                           ;"      "
025473:  000000000023                           ;"     3"
025474:  000000001370  lstf4                    ;"    +X"
025475:  000000073300                           ;"   '; "
025476:  000004507000                           ;"  $HX "
025477:  000271430000                           ;" "YC  "
025500:  016375700000                           ;"!S]X  "
%jsq:
025501:  000000000000                           ;"      "
025502:  000000000024  lossag                   ;"     4"
025503:  000000001440  arg                      ;"    ,@"
025504:  000000076400                           ;"   'T "
025505:  000004704000                           ;"  $X@ "
025506:  000303240000                           ;" ##4  "
025507:  017204400000                           ;"!Z$@  "
%ksq:
025510:  000000000000                           ;"      "
025511:  000000000025                           ;"     5"
025512:  000000001510                           ;"    -("
025513:  000000101500                           ;"   (- "
025514:  000005101000                           ;"  %(( "
025515:  000315050000                           ;" #-%  "
025516:  020013100000                           ;"" +(  "
%lsq:
025517:  000000000000                           ;"      "
025520:  000000000026                           ;"     6"
025521:  000000001560                           ;"    -P"
025522:  000000104600                           ;"   (F "
025523:  000005276000                           ;"  %7P "
025524:  000326660000                           ;" #6V  "
025525:  020621600000                           ;""&1P  "
%msq:
025526:  000000000000                           ;"      "
025527:  000000000027                           ;"     7"
025530:  000000001630  blkps                    ;"    .8"
025531:  000000107700                           ;"   (_ "
025532:  000005473000                           ;"  %G8 "
025533:  000340470000                           ;" #@G  "
025534:  021430300000                           ;"",88  "
%nsq:
025535:  000000000000                           ;"      "
025536:  000000000030                           ;"     8"
025537:  000000001700                           ;"    / "
025540:  000000113000                           ;"   )8 "
025541:  000005670000                           ;"  %W  "
025542:  000352300000                           ;" #J8  "
025543:  022237000000                           ;""2?   "
%osq:
025544:  000000000000                           ;"      "
025545:  000000000031                           ;"     9"
025546:  000000001750                           ;"    /H"
025547:  000000116100                           ;"   )Q "
025550:  000006065000                           ;"  &&H "
025551:  000364110000                           ;" #T)  "
025552:  023045500000                           ;""8EH  "
%psq:
025553:  000000000000                           ;"      "
025554:  000000000032                           ;"     :"
025555:  000000002020                           ;"    00"
025556:  000000121200                           ;"   ** "
025557:  000006262000                           ;"  &60 "
025560:  000375720000                           ;" #]Z  "
025561:  023654200000                           ;"">L0  "
%qsq:
025562:  000000000000                           ;"      "
025563:  000000000033                           ;"     ;"
025564:  000000002070                           ;"    0X"
025565:  000000124300                           ;"   *C "
025566:  000006457000                           ;"  &EX "
025567:  000407530000                           ;" $'K  "
025570:  024462700000                           ;""DRX  "
%rsq:
025571:  000000000000                           ;"      "
025572:  000000000034                           ;"     <"
025573:  000000002140                           ;"    1@"
025574:  000000127400                           ;"   *\ "
025575:  000006654000                           ;"  &U@ "
025576:  000421340000                           ;" $1<  "
025577:  025271400000                           ;""JY@  "
%ssq:
025600:  000000000000                           ;"      "
025601:  000000000035                           ;"     ="
025602:  000000002210                           ;"    2("
025603:  000000132500                           ;"   +5 "
025604:  000007051000                           ;"  '%( "
025605:  000433150000                           ;" $;-  "
025606:  026100100000                           ;""Q (  "
%tsq:
025607:  000000000000                           ;"      "
025610:  000000000036                           ;"     >"
025611:  000000002260                           ;"    2P"
025612:  000000135600                           ;"   +N "
025613:  000007246000                           ;"  '4P "
025614:  000444760000                           ;" $D^  "
025615:  026706600000                           ;""W&P  "
%usq:
025616:  000000000000                           ;"      "
025617:  000000000037  bsize                    ;"     ?"
025620:  000000002330                           ;"    38"
025621:  000000140700                           ;"   ,' "
025622:  000007443000                           ;"  'D8 "
025623:  000456570000                           ;" $NO  "
025624:  027515300000                           ;""]-8  "
%vsq:
025625:  000000000000                           ;"      "
025626:  000000000040  tpchna                   ;"     @"
025627:  000000002400                           ;"    4 "
025630:  000000144000                           ;"   ,@ "
025631:  000007640000                           ;"  'T  "
025632:  000470400000                           ;" $X@  "
025633:  030324000000                           ;"##4   "
%wsq:
025634:  000000000000                           ;"      "
025635:  000000000041  zz                       ;"     A"
025636:  000000002450  cpba                     ;"    4H"
025637:  000000147100                           ;"   ,Y "
025640:  000010035000                           ;"  (#H "
025641:  000502210000                           ;" %"1  "
025642:  031132500000                           ;"#):H  "
%xsq:
025643:  000000000000                           ;"      "
025644:  000000000042                           ;"     B"
025645:  000000002520                           ;"    50"
025646:  000000152200                           ;"   -2 "
025647:  000010232000                           ;"  (30 "
025650:  000514020000                           ;" %,"  "
025651:  031741200000                           ;"#/A0  "
%ysq:
025652:  000000000000                           ;"      "
025653:  000000000043                           ;"     C"
025654:  000000002570                           ;"    5X"
025655:  000000155300                           ;"   -K "
025656:  000010427000                           ;"  (BX "
025657:  000525630000                           ;" %5S  "
025660:  032547700000                           ;"#5GX  "
%zsq:
025661:  000000000000                           ;"      "
025662:  000000000044                           ;"     D"
025663:  000000002640  jdbrk1                   ;"    6@"
025664:  000000160400                           ;"   .$ "
025665:  000010624000                           ;"  (R@ "
025666:  000537440000                           ;" %?D  "
025667:  033356400000                           ;"#;N@  "
%1sq:
025670:  000000000000                           ;"      "
025671:  000000000002  i                        ;"     ""
025672:  000000000120  rdchar                   ;"    !0"
025673:  000000006200                           ;"    R "
025674:  000000372000                           ;"   ?0 "
025675:  000023420000                           ;"  3B  "
025676:  001415200000                           ;" ,-0  "
%2sq:
025677:  000000000000                           ;"      "
025700:  000000000003  aa                       ;"     #"
025701:  000000000170                           ;"    !X"
025702:  000000011300                           ;"   !+ "
025703:  000000567000                           ;"   NX "
025704:  000035230000                           ;"  =3  "
025705:  002223700000                           ;" 23X  "
%3sq:
025706:  000000000000                           ;"      "
025707:  000000000004  a                        ;"     $"
025710:  000000000240  tobs                     ;"    "@"
025711:  000000014400                           ;"   !D "
025712:  000000764000                           ;"   ^@ "
025713:  000047040000                           ;"  G$  "
025714:  003032400000                           ;" 8:@  "
%4sq:
025715:  000000000000                           ;"      "
025716:  000000000005  b                        ;"     %"
025717:  000000000310                           ;"    #("
025720:  000000017500                           ;"   !] "
025721:  000001161000                           ;"  !.( "
025722:  000060650000                           ;"  PU  "
025723:  003641100000                           ;" >A(  "
%5sq:
025724:  000000000000                           ;"      "
025725:  000000000006  c                        ;"     &"
025726:  000000000360                           ;"    #P"
025727:  000000022600                           ;"   "6 "
025730:  000001356000                           ;"  !=P "
025731:  000072460000                           ;"  ZF  "
025732:  004447600000                           ;" DGP  "
%6sq:
025733:  000000000000                           ;"      "
025734:  000000000007  d                        ;"     '"
025735:  000000000430                           ;"    $8"
025736:  000000025700                           ;"   "O "
025737:  000001553000                           ;"  !M8 "
025740:  000104270000                           ;" !$7  "
025741:  005256300000                           ;" JN8  "
%7sq:
025742:  000000000000                           ;"      "
025743:  000000000010  t                        ;"     ("
025744:  000000000500                           ;"    % "
025745:  000000031000  lcontb                   ;"   #( "
025746:  000001750000                           ;"  !]  "
025747:  000116100000                           ;" !.(  "
025750:  006065000000                           ;" PU   "
%8sq:
025751:  000000000000                           ;"      "
025752:  000000000011  tt                       ;"     )"
025753:  000000000550                           ;"    %H"
025754:  000000034100                           ;"   #A "
025755:  000002145000                           ;"  ",H "
025756:  000127710000                           ;" !7Y  "
025757:  006673500000                           ;" V[H  "
%9sq:
025760:  000000000000                           ;"      "
025761:  000000000012  sym                      ;"     *"
025762:  000000000620                           ;"    &0"
025763:  000000037200                           ;"   #Z "
025764:  000002342000                           ;"  "<0 "
025765:  000141520000                           ;" !AJ  "
025766:  007502200000                           ;" ]"0  "
%0sq:
025767:  000000000000                           ;"      "
025770:  000000000001  p                        ;"     !"
025771:  000000000050                           ;"     H"
025772:  000000003100                           ;"    9 "
025773:  000000175000                           ;"   /H "
025774:  000011610000                           ;"  )Q  "
025775:  000606500000                           ;" &&H  "
%$sq:
025776:  000000000000                           ;"      "
025777:  000000000046                           ;"     F"
026000:  000000002760  rpntr                    ;"    7P"
026001:  000000166600                           ;"   .V "
026002:  000011216000                           ;"  )1P "
026003:  000563060000                           ;" %S&  "
026004:  034773600000                           ;"#G[P  "
%%sq:
026005:  000000000000                           ;"      "
026006:  000000000047                           ;"     G"
026007:  000000003030                           ;"    88"
026010:  000000171700                           ;"   // "
026011:  000011413000                           ;"  )A8 "
026012:  000574670000                           ;" %\W  "
026013:  035602300000                           ;"#N"8  "
%.sq:
026014:  000000000000                           ;"      "
026015:  000000000045                           ;"     E"
026016:  000000002710                           ;"    7("
026017:  000000163500                           ;"   .= "
026020:  000011021000                           ;"  )"( "
026021:  000551250000                           ;" %I5  "
026022:  034165100000                           ;"#AU(  "
mactab:
026023:  773767750000  conso    734, @750000(d) ;"_?W]  "
init1:
026024:  515200535241  hrlzi    a, 535241       ;"IJ KJA"
026025:  402004073110  setzm    st(a)           ;"@0$'9(" "@@ v$"
026026:  253200026025  aobjn    a, 26025        ;"5: "P5"
spread:
026027:  201140026063  movei    aa, isymtb      ;"0)@"PS"
026030:  201600132000  movei    f, 132000       ;"0. +0 "
sp3:
026031:  301140026631  cail     aa, eisym1      ;"8)@"V9"
026032:  254000026044  jrst     sp1             ;"5@ "PD"
026033:  200503000000  move     sym, (aa)       ;"0%#   "
026034:  322500026042  jumpe    sym, sp2        ;":5 "PB"
026035:  260040021750  pushj    p, es           ;"6 @"/H"
026036:  515400100000  hrlzi    t, hfwdf        ;"IL (  "
026037:  514240000014  hrlz     b, f            ;"IB@  ,"
026040:  205300040000  movsi    c, vot          ;"0K $  "
026041:  260040022042  pushj    p, vsm2         ;"6 @"0B"
sp2:
026042:  271600001000  addi     f, nprc         ;"7.  ( "
026043:  344140026031  aoja     aa, sp3         ;"<A@"P9"
sp1:
026044:  301140027203  cail     aa, eisymt      ;"8)@"Z#"
026045:  254000021005  jrst     sp4             ;"5@ "(%"
026046:  200503000000  move     sym, (aa)       ;"0%#   "
026047:  135400026061  ldb      t, $    2       ;"+L "PQ"
026050:  241400777774  rot      t, 777774       ;"4, __\"
026051:  260040021750  pushj    p, es           ;"6 @"/H"
026052:  200243000001  move     b, dschna(aa)   ;"0"C  !"
026053:  205300040000  movsi    c, vot          ;"0K $  "
026054:  316400026062  camn     t, 26062        ;"9T "PR"
026055:  661300004000  tlo      c, mwrd         ;"V+  @ "
026056:  260040022042  pushj    p, vsm2         ;"6 @"0B"
026057:  350000000003  aos      aa              ;"=    #"
026060:  344140026044  aoja     aa, sp1         ;"<A@"PD"
$    2:
026061:  400400000012  setz     t, sym          ;"@$   *"
026062:  440000000000  andcb    ff, ff          ;"D     " "H\0\0\0\0"
isymtb:
026063:  114610301000                           ;")F(8( "
026064:  116571322000                           ;")UY:0 "
026065:  116730153400                           ;")W8-< "
026066:  121035314000                           ;"*(=9@ "
026067:  116615007400                           ;")V- \ "
026070:  113135454000                           ;")9=E@ "
026071:  114330656000                           ;")C8UP "
026072:  114330762600                           ;")C8^6 "
026073:  114330765700                           ;")C8^O "
026074:  114330723400                           ;")C8Z< "
026075:  114331005400                           ;")C9 L "
026076:  114331007160                           ;")C9 YP"
026077:  114331007230                           ;")C9 Z8"
026100:  114331006340                           ;")C9 S@"
026101:  114610104000                           ;")F((@ "
026102:  114610210600                           ;")F(1& "
026103:  114610213700                           ;")F(1? "
026104:  114610151400                           ;")F(-, "
026105:  114610233400                           ;")F(3< "
026106:  114610235160                           ;")F(3IP"
026107:  114610235230                           ;")F(3J8"
026110:  114610234340                           ;")F(3C@"
026111:  114520752000                           ;")E0]0 "
026112:  114521056600                           ;")E1%V "
026113:  114521061700                           ;")E1&/ "
026114:  114521017400                           ;")E1!\ "
026115:  114521101400                           ;")E1(, "
026116:  114521103160                           ;")E1(9P"
026117:  114521103230                           ;")E1(:8"
026120:  114521102340                           ;")E1(3@"
026121:  114372420000                           ;")CZB  "
026122:  114372524600                           ;")CZJF "
026123:  114372527700                           ;")CZJ_ "
026124:  114372465400                           ;")CZFL "
026125:  114372547400                           ;")CZL\ "
026126:  114372551160                           ;")CZM)P"
026127:  114372551230                           ;")CZM*8"
026130:  114372550340                           ;")CZM#@"
026131:  122024326700                           ;"*04:W "
026132:  122024330270                           ;"*04;"X"
026133:  122024330530                           ;"*04;%8"
026134:  122024331110                           ;"*04;)("
026135:  122024402500                           ;"*04@5 "
026136:  122024404070                           ;"*04@@X"
026137:  122024404330                           ;"*04@C8"
026140:  122024404710                           ;"*04@G("
026141:  122024363000                           ;"*04>8 "
026142:  122024364370                           ;"*04>CX"
026143:  122024364630                           ;"*04>F8"
026144:  122024365210                           ;"*04>J("
026145:  122024357700                           ;"*04=_ "
026146:  122024361270                           ;"*04>*X"
026147:  122024361530                           ;"*04>-8"
026150:  122024362110                           ;"*04>1("
026151:  116746137600                           ;")WF+^ "
026152:  116746141170                           ;")WF,)X"
026153:  116746141430                           ;")WF,,8"
026154:  116746140540                           ;")WF,%@"
026155:  122114366000                           ;"*1,>P "
026156:  122114461300                           ;"*1,F+ "
026157:  122114475700                           ;"*1,GO "
026160:  122114433400                           ;"*1,C< "
026161:  116613333000                           ;")V+;8 "
026162:  116613334370                           ;")V+;CX"
026163:  116613334630                           ;")V+;F8"
026164:  116613333740                           ;")V+;?@"
026165:  113036070000                           ;")8>'  "
026166:  113036163300                           ;")8>.; "
026167:  113036177700                           ;")8>/_ "
026170:  113036135400                           ;")8>+L "
026171:  110750362000                           ;")'H>0 "
026172:  125664756000                           ;"*NT]P "
026173:  121261262000                           ;"**Q60 "
026174:  000000000000                           ;"      "
026175:  110750432500                           ;")'HC5 "
026176:  125665026500                           ;"*NU"U "
026177:  121261332500                           ;"**Q;5 "
026200:  000000000000                           ;"      "
026201:  114062541200                           ;")@RL* "
026202:  111455526000                           ;"),MJP "
026203:  110700044420                           ;")' $D0"
026204:  110700044300                           ;")' $C "
026205:  117635146600                           ;")^=,V "
026206:  117444035600                           ;")\D#N "
026207:  132147416000  fsc      aa, 416000(d)   ;"+1GAP "
026210:  000000000000                           ;"      "
026211:  124342132640                           ;"*CB+6@"
026212:  124342131200                           ;"*CB+* "
026213:  124246572000                           ;"*BFO0 "
026214:  124246670400                           ;"*BFW$ "
026215:  117646424000                           ;")^FB@ "
026216:  117646032000                           ;")^F#0 "
026217:  117642307000                           ;")^B8X "
026220:  117630477000                           ;")^8GX "
026221:  110525006000                           ;")%5 P "
026222:  110525101300                           ;")%5(+ "
026223:  110525115700                           ;")%5)O "
026224:  110525053400                           ;")%5%< "
026225:  126561624000                           ;"*UQR@ "
026226:  126561717300                           ;"*UQY[ "
026227:  126561733700                           ;"*UQ[? "
026230:  126561671400                           ;"*UQW, "
026231:  112106137000                           ;")1&+X "
026232:  112106243600                           ;")1&4> "
026233:  112106215700                           ;")1&1O "
026234:  112106244730                           ;")1&4G8"
026235:  112106201300                           ;")1&0+ "
026236:  112106225230                           ;")1&2J8"
026237:  112106252000                           ;")1&50 "
026240:  112106224100                           ;")1&2A "
026241:  112107123000                           ;")1'*8 "
026242:  112107227600                           ;")1'2^ "
026243:  112107201700                           ;")1'0/ "
026244:  112107230730                           ;")1'3'8"
026245:  112107165300                           ;")1'.K "
026246:  112107211230                           ;")1'1*8"
026247:  112107236000                           ;")1'3P "
026250:  112107210100                           ;")1'1! "
026251:  117671004200                           ;")^Y B "
026252:  117671005760                           ;")^Y OP"
026253:  117671005330                           ;")^Y K8"
026254:  117671005777                           ;")^Y O_"
026255:  117671005070                           ;")^Y HX"
026256:  117671005467                           ;")^Y LW"
026257:  117671006100                           ;")^Y Q "
026260:  117671005450                           ;")^Y LH"
026261:  126422000200                           ;"*T2 " "
026262:  126422001760                           ;"*T2 /P"
026263:  126422001330                           ;"*T2 +8"
026264:  126422001777                           ;"*T2 /_"
026265:  126422001070                           ;"*T2 (X"
026266:  126422001467                           ;"*T2 ,W"
026267:  126422002100                           ;"*T2 1 "
026270:  126422001450                           ;"*T2 ,H"
026271:  110701714000                           ;")'!Y@ "
026272:  110702020600                           ;")'""& "
026273:  110701772700                           ;")'!_7 "
026274:  110702021730                           ;")'""/8"
026275:  110701756300                           ;")'!]S "
026276:  110702002230                           ;")'" 28"
026277:  110702027000                           ;")'""X "
026300:  110702001100                           ;")'" ) "
026301:  110704061000                           ;")'$&( "
026302:  110704165600                           ;")'$.N "
026303:  110704137700                           ;")'$+_ "
026304:  110704166730                           ;")'$.W8"
026305:  110704123300                           ;")'$*; "
026306:  110704147230                           ;")'$,Z8"
026307:  110704174000                           ;")'$/@ "
026310:  110704146100                           ;")'$,Q "
026311:  126471114000                           ;"*TY)@ "
026312:  126471220600                           ;"*TY2& "
026313:  126471172700                           ;"*TY/7 "
026314:  126471221730                           ;"*TY2/8"
026315:  126471156300                           ;"*TY-S "
026316:  126471202230                           ;"*TY028"
026317:  126471227000                           ;"*TY2X "
026320:  126471201100                           ;"*TY0) "
026321:  126473261000                           ;"*T[6( "
026322:  126473365600                           ;"*T[>N "
026323:  126473337700                           ;"*T[;_ "
026324:  126473366730                           ;"*T[>W8"
026325:  126473323300                           ;"*T[:; "
026326:  126473347230                           ;"*T[<Z8"
026327:  126473374000                           ;"*T[?@ "
026330:  126473346100                           ;"*T[<Q "
026331:  126332116400                           ;"*S:)T "
026332:  126332117770                           ;"*S:)_X"
026333:  126332120230                           ;"*S:*"8"
026334:  126332117340                           ;"*S:)[@"
026335:  110666526000                           ;")&VJP "
026336:  110666621300                           ;")&VR+ "
026337:  110666635700                           ;")&VSO "
026340:  110666573400                           ;")&VO< "
026341:  110666577370                           ;")&VO[X"
026342:  110666577413                           ;")&VO\+"
026343:  110666577417                           ;")&VO\/"
026344:  110666577404                           ;")&VO\$"
026345:  126332045700                           ;"*S:$O "
026346:  126332047270                           ;"*S:$ZX"
026347:  126332047530                           ;"*S:$]8"
026350:  126332046640                           ;"*S:$V@"
026351:  110666600330                           ;")&VP#8"
026352:  110666600353                           ;")&VP#K"
026353:  110666600357                           ;")&VP#O"
026354:  110666600344                           ;")&VP#D"
026355:  126332000300                           ;"*S: # "
026356:  126332001670                           ;"*S: .X"
026357:  126332002130                           ;"*S: 18"
026360:  126332001240                           ;"*S: *@"
026361:  132334164000  fsc      c, @164000(f)   ;"+3<.@ "
026362:  132334257300  fsc      c, @257300(f)   ;"+3<5[ "
026363:  132334273700  fsc      c, @273700(f)   ;"+3<7? "
026364:  132334231400  fsc      c, @231400(f)   ;"+3<3, "
026365:  116770664000                           ;")WXV@ "
026366:  116770757300                           ;")WX][ "
026367:  116770773700                           ;")WX_? "
026370:  116770731400                           ;")WX[, "
026371:  110666577440                           ;")&VO\@"
026372:  110666577463                           ;")&VO\S"
026373:  110666577467                           ;")&VO\W"
026374:  110666577454                           ;")&VO\L"
026375:  113762670000                           ;")?RW  "
026376:  113762763300                           ;")?R^; "
026377:  113762777700                           ;")?R__ "
026400:  113762735400                           ;")?R[L "
026401:  126332007370                           ;"*S: [X"
026402:  126332007413                           ;"*S: \+"
026403:  126332007417                           ;"*S: \/"
026404:  126332007404                           ;"*S: \$"
026405:  123472233300                           ;"*<Z3; "
026406:  123472234670                           ;"*<Z3FX"
026407:  123472235130                           ;"*<Z3I8"
026410:  123472234240                           ;"*<Z3B@"
026411:  126332010330                           ;"*S:!#8"
026412:  126332010353                           ;"*S:!#K"
026413:  126332010357                           ;"*S:!#O"
026414:  126332010344                           ;"*S:!#D"
026415:  123472300700                           ;"*<Z8' "
026416:  123472302270                           ;"*<Z82X"
026417:  123472302530                           ;"*<Z858"
026420:  123472301640                           ;"*<Z8.@"
026421:  123472236400                           ;"*<Z3T "
026422:  123472237770                           ;"*<Z3_X"
026423:  123472240230                           ;"*<Z4"8"
026424:  123472237340                           ;"*<Z3[@"
026425:  126332054100                           ;"*S:%A "
026426:  126332055470                           ;"*S:%LX"
026427:  126332055730                           ;"*S:%O8"
026430:  126332055040                           ;"*S:%H@"
026431:  116123356000                           ;")Q3=P "
026432:  116123451300                           ;")Q3E+ "
026433:  116123465700                           ;")Q3FO "
026434:  116123510500                           ;")Q3I% "
026435:  116216036000                           ;")R.#P "
026436:  116216131300                           ;")R.++ "
026437:  116216145700                           ;")R.,O "
026440:  116216170500                           ;")R./% "
026441:  116123536400                           ;")Q3KT "
026442:  116123537770                           ;")Q3K_X"
026443:  116123540230                           ;")Q3L"8"
026444:  116123540610                           ;")Q3L&("
026445:  116216216400                           ;")R.1T "
026446:  116216217770                           ;")R.1_X"
026447:  116216220230                           ;")R.2"8"
026450:  116216220610                           ;")R.2&("
026451:  116123474100                           ;")Q3GA "
026452:  116123475470                           ;")Q3GLX"
026453:  116123475730                           ;")Q3GO8"
026454:  116123476310                           ;")Q3GS("
026455:  116216154100                           ;")R.-A "
026456:  116216155470                           ;")R.-LX"
026457:  116216155730                           ;")R.-O8"
026460:  116216156310                           ;")R.-S("
026461:  116123434700                           ;")Q3CG "
026462:  116123436270                           ;")Q3CRX"
026463:  116123436530                           ;")Q3CU8"
026464:  116123437110                           ;")Q3CY("
026465:  116216114700                           ;")R.)G "
026466:  116216116270                           ;")R.)RX"
026467:  116216116530                           ;")R.)U8"
026470:  116216117110                           ;")R.)Y("
026471:  116217414000                           ;")R/A@ "
026472:  116217507300                           ;")R/H[ "
026473:  116217523700                           ;")R/J? "
026474:  116217546500                           ;")R/LU "
026475:  116124734000                           ;")Q4[@ "
026476:  116125027300                           ;")Q5"[ "
026477:  116125043700                           ;")Q5$? "
026500:  116125066500                           ;")Q5&U "
026501:  116217574400                           ;")R/OD "
026502:  116217575770                           ;")R/OOX"
026503:  116217576230                           ;")R/OR8"
026504:  116217576610                           ;")R/OV("
026505:  116125114400                           ;")Q5)D "
026506:  116125115770                           ;")Q5)OX"
026507:  116125116230                           ;")Q5)R8"
026510:  116125116610                           ;")Q5)V("
026511:  116217532100                           ;")R/K1 "
026512:  116217533470                           ;")R/K<X"
026513:  116217533730                           ;")R/K?8"
026514:  116217534310                           ;")R/KC("
026515:  116125052100                           ;")Q5%1 "
026516:  116125053470                           ;")Q5%<X"
026517:  116125053730                           ;")Q5%?8"
026520:  116125054310                           ;")Q5%C("
026521:  116217472700                           ;")R/G7 "
026522:  116217474270                           ;")R/GBX"
026523:  116217474530                           ;")R/GE8"
026524:  116217475110                           ;")R/GI("
026525:  116125012700                           ;")Q5!7 "
026526:  116125014270                           ;")Q5!BX"
026527:  116125014530                           ;")Q5!E8"
026530:  116125015110                           ;")Q5!I("
026531:  127336030000                           ;"*[>#  "
026532:  127243350000                           ;"*ZC=  "
026533:  127336106700                           ;"*[>(W "
026534:  127243426700                           ;"*ZCBW "
026535:  127336072300                           ;"*[>'3 "
026536:  127243412300                           ;"*ZCA3 "
026537:  127336143000                           ;"*[>,8 "
026540:  127243463000                           ;"*ZCF8 "
026541:  127125250000                           ;"*Y55  "
026542:  127347640000                           ;"*[GT  "
026543:  127125326700                           ;"*Y5:W "
026544:  127347716700                           ;"*[GYW "
026545:  127125312300                           ;"*Y593 "
026546:  127347702300                           ;"*[GX3 "
026547:  127125363000                           ;"*Y5>8 "
026550:  127347753000                           ;"*[G]8 "
026551:  127340764000                           ;"*[@^@ "
026552:  127246304000                           ;"*ZF8@ "
026553:  127341042700                           ;"*[A$7 "
026554:  127246362700                           ;"*ZF>7 "
026555:  127341026300                           ;"*[A"S "
026556:  127246346300                           ;"*ZF<S "
026557:  127341077000                           ;"*[A'X "
026560:  127246417000                           ;"*ZFAX "
026561:  127130204000                           ;"*Y80@ "
026562:  127352574000                           ;"*[JO@ "
026563:  127130262700                           ;"*Y867 "
026564:  127352652700                           ;"*[JU7 "
026565:  127130246300                           ;"*Y84S "
026566:  127352636300                           ;"*[JSS "
026567:  127130317000                           ;"*Y89X "
026570:  127352707000                           ;"*[JXX "
026571:  127333271000                           ;"*[;7( "
026572:  127240611000                           ;"*Z@Q( "
026573:  127333347700                           ;"*[;<_ "
026574:  127240667700                           ;"*Z@V_ "
026575:  127333333300                           ;"*[;;; "
026576:  127240653300                           ;"*Z@U; "
026577:  127333404000                           ;"*[;@@ "
026600:  127240724000                           ;"*Z@Z@ "
026601:  127122511000                           ;"*Y2I( "
026602:  127345101000                           ;"*[E(( "
026603:  127122567700                           ;"*Y2N_ "
026604:  127345157700                           ;"*[E-_ "
026605:  127122553300                           ;"*Y2M; "
026606:  127345143300                           ;"*[E,; "
026607:  127122624000                           ;"*Y2R@ "
026610:  127345214000                           ;"*[E1@ "
026611:  127336225000                           ;"*[>2H "
026612:  127243545000                           ;"*ZCLH "
026613:  127336303700                           ;"*[>8? "
026614:  127243623700                           ;"*ZCR? "
026615:  127336267300                           ;"*[>6[ "
026616:  127243607300                           ;"*ZCP[ "
026617:  127336340000                           ;"*[><  "
026620:  127243660000                           ;"*ZCV  "
026621:  127125445000                           ;"*Y5DH "
026622:  127350035000                           ;"*[H#H "
026623:  127125523700                           ;"*Y5J? "
026624:  127350113700                           ;"*[H)? "
026625:  127125507300                           ;"*Y5H[ "
026626:  127350077300                           ;"*[H'[ "
026627:  127125560000                           ;"*Y5N  "
026630:  127350150000                           ;"*[H-  "
eisym1:
026631:  051453454300                           ;"%,KEC " "\n2\\X`"
026632:  700000023736  blki     apr, ioinst     ;"X  "?>"
026633:  052717441670                           ;"%7/D.X" "\n\\|C\\"
026634:  700040023736  datai    apr, ioinst     ;"X @"?>"
026635:  051453477100                           ;"%,KGY " "\n2\\~ "
026636:  700100023736  blko     apr, ioinst     ;"X! "?>"
026637:  052717442250                           ;"%7/D2H" "\n\\|DT"
026640:  700140023736  datao    apr, ioinst     ;"X!@"?>"
026641:  052320216100                           ;"%301Q "
026642:  700200023736  cono     apr, ioinst     ;"X" "?>"
026643:  052320173300                           ;"%30/; "
026644:  700240023736  coni     apr, ioinst     ;"X"@"?>"
026645:  052320235340                           ;"%303K@"
026646:  700300023736  consz    apr, ioinst     ;"X# "?>"
026647:  052320234450                           ;"%303DH"
026650:  700340023736  conso    apr, ioinst     ;"X#@"?>"
026651:  110715474000                           ;")'-G@ "
026652:  000000000000                           ;"      "
026653:  124145630000                           ;"*AES  "
026654:  000000000004  a                        ;"     $"
026655:  124327442000                           ;"*C7D0 "
026656:  000000000100  foo                      ;"    ! "
026657:  124330034000                           ;"*C8#@ "
026660:  000000000104                           ;"    !$"
026661:  127364207000                           ;"*[T0X "
026662:  000000000120  rdchar                   ;"    !0"
026663:  121226766000                           ;"**6^P "
026664:  000000000124                           ;"    !4"
026665:  113035301000                           ;")8=8( "
026666:  000000000130                           ;"    !8"
026667:  112733550000                           ;")7;M  "
026670:  000000000200  mrsw                     ;"    " "
026671:  130165411000                           ;"+!UA( "
026672:  000000000210                           ;"    "("
026673:  130171331000                           ;"+!Y;( "
026674:  000000000214                           ;"    ","
026675:  112742663300                           ;")7BV; "
026676:  000000000300                           ;"    # "
026677:  112742666400                           ;")7BVT "
026700:  000000000304                           ;"    #$"
026701:  121035407300                           ;"*(=@[ "
026702:  134000000000  ildb     ff, ff          ;"+@    "
026703:  113135547300                           ;")9=L[ "
026704:  136000000000  idpb     ff, ff          ;"+P    "
026705:  112260547440                           ;")2PL\@"
026706:  400000000000  setz     ff,             ;"@     " "@\0\0\0\0"
026707:  112260547463                           ;")2PL\S"
026710:  401000000000  setzi    ff,             ;"@(    " "@ \0\0\0"
026711:  112260547467                           ;")2PL\W"
026712:  402000000000  setzm    ff              ;"@0    " "@@\0\0\0"
026713:  112260547454                           ;")2PL\L"
026714:  403000000000  setzb    ff, ff          ;"@8    " "@`\0\0\0"
026715:  053721126000                           ;"%?1*P " "\n}\t,\0"
026716:  000000023121  aend                     ;"   "91"
026717:  061211041000                           ;"&*)$( " "\f(HB\0"
026720:  000000023307  aloc                     ;"   ";'"
026721:  072451625460                           ;"'4IRLP"
026722:  000000023356  axword                   ;"   ";N"
026723:  065570531200                           ;"&MXK* " "\r7E2@"
026724:  000000023654  srim1                    ;"   ">L"
026725:  066272637500                           ;"&RZS] " "\rKV? "
026726:  000000023653  simblk                   ;"   ">K"
026727:  065570523000                           ;"&MXJ8 " "\r7E&\0"
026730:  000000023661  srim                     ;"   ">Q"
026731:  067207603730                           ;"&Z'P?8"
026732:  000000023666  atitle                   ;"   ">V"
026733:  066517413757                           ;"&U/A?O"
026734:  000000024434  sloadp                   ;"   "D<"
026735:  054065602000                           ;"%@UP0 "
026736:  000000023663  aexp                     ;"   ">S"
026737:  072446736000                           ;"'4F[P "
026740:  000000023356  axword                   ;"   ";N"
026741:  074356051520                           ;"'CN%-0"
026742:  000000023707  asbeg                    ;"   "?'"
026743:  065522331626                           ;"&M2;.6"
026744:  000000017132  arepea                   ;"   !Y:"
026745:  074415433600                           ;"'D-C> "
026746:  000000023712  asend                    ;"   "?*"
026747:  063253716000                           ;"&:KYP "
026750:  000000023663  aexp                     ;"   ">S"
026751:  052320234773                           ;"%303G["
026752:  000000020004  cnstnt                   ;"   " $"
026753:  066402031026                           ;"&T"#(6"
026754:  000000024133  asixbi                   ;"   "A;"
026755:  050747275670                           ;"%'G7NX"
026756:  000000024134  aascii                   ;"   "A<"
026757:  065450354020                           ;"&LH=@0"
026760:  000000024317  ardix                    ;"   "C/"
026761:  051454417210                           ;"%,LAZ("
026762:  000000023436  ablock                   ;"   "<>"
026763:  062632340165                           ;"&6:<!U"
026764:  000000023456  anosym                   ;"   "<N"
026765:  054065744621                           ;"%@U\F1"
026766:  000000023460  aexpun                   ;"   "<P"
026767:  062723172600                           ;"&73/6 "
026770:  000000017277  anull                    ;"   !Z_"
026771:  053762537115                           ;"%?RKY-"
026772:  000000024322  aequal                   ;"   "C2"
026773:  052763205217                           ;"%7S0J/"
026774:  000000016757  adefin                   ;"   !WO"
026775:  057025522000                           ;"%X5J0 "
026776:  000000017400  airp                     ;"   !\ "
026777:  057025572500                           ;"%X5O5 "
027000:  400000017400  setz     ff, airp        ;"@  !\ "
027001:  057025654500                           ;"%X5UE "
027002:  200000017400  move     ff, airp        ;"0  !\ "
027003:  067140155320                           ;"&Y@-K0"
027004:  000000021324  atermi                   ;"   "+4"
027005:  074604413377                           ;"'F$A;_"
027006:  000000021103  a.qote                   ;"   ")#"
027007:  071525537600                           ;"'-5K^ "
027010:  000000024352  aword                    ;"   "CJ"
027011:  065521405123                           ;"&M1@I3"
027012:  000000024360  areloc                   ;"   "CP"
027013:  042016013710                           ;"$0.!?("
027014:  000000024356  a1pass                   ;"   "CN"
027015:  063305753666                           ;"&;%]>V" "\fl/W["
027016:  000000024365  aoffse                   ;"   "CU"
027017:  056636215000                           ;"%V>1H "
027020:  327200017266  jumpg    a, cond         ;":Z !ZV"
027021:  056636273700                           ;"%V>7? "
027022:  325200017266  jumpge   a, cond         ;":J !ZV"
027023:  056635623000                           ;"%V=R8 "
027024:  322200017266  jumpe    a, cond         ;":2 !ZV"
027025:  056637454700                           ;"%V?EG "
027026:  323200017266  jumple   a, cond         ;":: !ZV"
027027:  056637770000                           ;"%V?_  "
027030:  326200017266  jumpn    a, cond         ;":R !ZV"
027031:  056641227700                           ;"%VA2_ "
027032:  336000017320  skipn    scond           ;";P ![0"
027033:  056641264000                           ;"%VA6@ "
027034:  332000017320  skipe    scond           ;";0 ![0"
027035:  056632472000                           ;"%V:G0 "
027036:  602000017314  trne     ff, cond1       ;"P0 ![,"
027037:  056632667000                           ;"%V:VX "
027040:  606000017314  trnn     ff, cond1       ;"PP ![,"
027041:  056637376000                           ;"%V??P "
027042:  321200017266  jumpl    a, cond         ;":* !ZV"
027043:  064302364322                           ;"&C">C2"
027044:  000000024376  aprntx                   ;"   "C^"
027045:  064302364275                           ;"&C">B]"
027046:  400000024376  setz     ff, aprntx      ;"@  "C^"
027047:  070506300204                           ;"'%&8"$"
027050:  000000020372  avaria                   ;"   "#Z"
027051:  074520536553                           ;"'E0KUK"
027052:  000000023032  a.lib                    ;"   "8:"
027053:  074517617306                           ;"'E/Q[&"
027054:  000000023423  a.leng                   ;"   "<3"
027055:  074520553210                           ;"'E0M:("
027056:  000000023031  a.lifs                   ;"   "89"
027057:  074415042610                           ;"'D-$6("
027060:  000000023072  a.eldc                   ;"   "8Z"
027061:  074520552130                           ;"'E0M18"
027062:  322000023102  jumpe    ff, a.ldcv      ;":0 "9""
027063:  074520552700                           ;"'E0M7 "
027064:  326000023102  jumpn    ff, a.ldcv      ;":P "9""
027065:  074520552250                           ;"'E0M2H"
027066:  327000023102  jumpg    ff, a.ldcv      ;":X "9""
027067:  074520552577                           ;"'E0M5_"
027070:  323000023102  jumple   ff, a.ldcv      ;":8 "9""
027071:  074520552267                           ;"'E0M2W"
027072:  325000023102  jumpge   ff, a.ldcv      ;":H "9""
027073:  074520552560                           ;"'E0M5P"
027074:  321000023102  jumpl    ff, a.ldcv      ;":( "9""
027075:  074625623740                           ;"'F5R?@"
027076:  000000023221  a.sldr                   ;"   ":1"
027077:  074557472000                           ;"'EOG0 "
027100:  000000024107  a.op                     ;"   "A'"
027101:  074427516243                           ;"'D7IRC"
027102:  000000022137  a.form                   ;"   "1?"
027103:  074627636120                           ;"'F7SQ0"
027104:  400000017212  setz     ff, a.stop      ;"@  !Z*"
027105:  074465740602                           ;"'DU\&""
027106:  000000017212  a.stop                   ;"   !Z*"
027107:  074614774436                           ;"'F,_D>"
027110:  000000017167  a.rpcn                   ;"   !YW"
027111:  074165100000                           ;"'AU(  "
027112:  000000021624  gtvlp                    ;"   ".4"
027113:  074522166200                           ;"'E2.R "
027114:  000000024446  a.lop                    ;"   "DF"
027115:  475545050000  setoi    link, 50000(b)  ;"GME%  " "O6(P\0"
027116:  000000000000                           ;"      "
027117:  475426161000  setoi    t, @161000(c)   ;"GL6.( " "O11b\0"
027120:  000000000000                           ;"      "
027121:  474523664062  seto     sym, @664062(aa);"GE3V@R"
027122:  000000000000                           ;"      "
027123:  474523664063  seto     sym, @664063(aa);"GE3V@S"
027124:  000000000000                           ;"      "
027125:  074521753506                           ;"'E1]=&"
027126:  000000023243  a.lnko                   ;"   ":C"
027127:  074546610111                           ;"'EFQ!)"
027130:  000001024475                           ;"  !"D]"
027131:  074722140111                           ;"'G2,!)"
027132:  000000024475  stgws                    ;"   "D]"
027133:  074442314666                           ;"'DB9FV"
027134:  000000024521  a.gsse                   ;"   "E1"
027135:  074642631330                           ;"'FBS+8"
027136:  000000024525  a.type                   ;"   "E5"
027137:  074520536573                           ;"'E0KU["
027140:  000000024477  a.libr                   ;"   "D_"
027141:  074440525053                           ;"'D@JHK"
027142:  000000024510  a.glob                   ;"   "E("
027143:  074441175000                           ;"'DA/H "
027144:  000000024626  a.go                     ;"   "F6"
027145:  074634704100                           ;"'F<XA "
027146:  000000024624  a.tag                    ;"   "F4"
027147:  074347553113                           ;"'CGM9+"
027150:  000000024127  a.asci                   ;"   "A7"
027151:  050747277140                           ;"%'G7Y@"
027152:  000000024126  aasciz                   ;"   "A6"
027153:  074363025610                           ;"'CS"N("
027154:  000000025003  a.bytc                   ;"   "H#"
027155:  074363025730                           ;"'CS"O8"
027156:  000000024664  a.byte                   ;"   "FT"
027157:  074672155100                           ;"'FZ-I "
027160:  000000024725  a.walg                   ;"   "G5"
027161:  074465526240                           ;"'DUJR@"
027162:  000000017166  a.irpc                   ;"   !YV"
027163:  134646522300  ildb     ch1, 522300(c)  ;"+FFJ3 "
027164:  000000000000                           ;"      "
027165:  134646545100  ildb     ch1, 545100(c)  ;"+FFLI "
027166:  000000000001  p                        ;"     !"
027167:  134650472300  ildb     ch1, 472300(t)  ;"+FHG3 "
027170:  000000000004  a                        ;"     $"
027171:  134650515100  ildb     ch1, 515100(t)  ;"+FHII "
027172:  000000000005  b                        ;"     %"
027173:  134355072300  ildb     d, 72300(ch1)   ;"+CM'3 "
027174:  000000000002  i                        ;"     ""
027175:  134355115100  ildb     d, 115100(ch1)  ;"+CM)I "
027176:  000000000003  aa                       ;"     #"
027177:  134357042300  ildb     d, 42300(tm)    ;"+CO$3 "
027200:  000000000006  c                        ;"     &"
027201:  134357065100  ildb     d, 65100(tm)    ;"+CO&I "
027202:  000000000007  d                        ;"     '"
lstloc:
345607:  777777777777  conso    typ5, @maccr(tm);"______"
763006:  353535353535  aosle    sym, @353535(ch1);"======"
763007:  343367676760  aojle    d, @676760(d)   ;"<;WWWP" "8o>}x"
763010:  666357404040  tron     d, 404040(tm)   ;"VSO@@@"
763011:  406162676760  andm     aa, @676760(i)  ;"@QRWWP"
763012:  665454646660  tloa     tt, 646660(f)   ;"VLLTVP" "m2fMX"
763013:  616266353535  tdnn     b, @353535(c)   ;"QRV==="
763014:  353535353535  aosle    sym, @353535(ch1);"======"
763015:  353535353535  aosle    sym, @353535(ch1);"======"
763016:  353535353535  aosle    sym, @353535(ch1);"======"
763017:  353535353535  aosle    sym, @353535(ch1);"======"
763020:  353535353535  aosle    sym, @353535(ch1);"======"
763021:  353535353535  aosle    sym, @353535(ch1);"======"
763022:  343355676164  aojle    d, 676164(ch1)  ;"<;MWQT" "8nn|:"
763023:  574040404040  hlre     p, 404040       ;"O@@@@@"
763024:  406760616061  andm     tm, @616061     ;"@WPQPQ"
763025:  545462666262  hlri     tt, @666262(i)  ;"LLRVRR"
763026:  606035353535  trnn     ff, @353535(ch1);"PP===="
763027:  353535353535  aosle    sym, @353535(ch1);"======"
763030:  353535353535  aosle    sym, @353535(ch1);"======"
763031:  353535353535  aosle    sym, @353535(ch1);"======"
763032:  353535353535  aosle    sym, @353535(ch1);"======"
763033:  353535353535  aosle    sym, @353535(ch1);"======"
763034:  353535353535  aosle    sym, @353535(ch1);"======"
763035:  343355676163  aojle    d, 676163(ch1)  ;"<;MWQS"
763036:  574040404040  hlre     p, 404040       ;"O@@@@@"
763037:  401115251411  setzi    i, 251411(ch1)  ;"@)-5,)"
763040:  400354616661  setz     d, 616661(f)    ;"@#LQVQ"
763041:  656262501411  tdcn     b, @501411(i)   ;"URRH,)"
763042:  161351353535                           ;".+I==="
763043:  353535353535  aosle    sym, @353535(ch1);"======"
763044:  353535353535  aosle    sym, @353535(ch1);"======"
763045:  353535353535  aosle    sym, @353535(ch1);"======"
763046:  353535353535  aosle    sym, @353535(ch1);"======"
763047:  353535353535  aosle    sym, @353535(ch1);"======"
763050:  343367676760  aojle    d, @676760(d)   ;"<;WWWP" "8o>}x"
763051:  666657404040  tron     ch1, 404040(tm) ;"VVO@@@"
763052:  406664656163  andm     ch1, @656163(a) ;"@VTUQS"
763053:  545466616360  hlri     tt, @616360(c)  ;"LLVQSP"
763054:  633535353535  tsze     sym, @353535(ch1);"S====="
763055:  353535353535  aosle    sym, @353535(ch1);"======"
763056:  353535353535  aosle    sym, @353535(ch1);"======"
763057:  353535353535  aosle    sym, @353535(ch1);"======"
763060:  353535353535  aosle    sym, @353535(ch1);"======"
763061:  353535353535  aosle    sym, @353535(ch1);"======"
763062:  353535353535  aosle    sym, @353535(ch1);"======"
763063:  343355676161  aojle    d, 676161(ch1)  ;"<;MWQQ"
763064:  574040404040  hlre     p, 404040       ;"O@@@@@"
763065:  402325021540  setzm    c, @21540(b)    ;"@35"-@" "@M(#0"
763066:  242003101654  lsh      ff, 101654(aa)  ;"40#(.L"
763067:  006763616367                           ;" WSQSW"
763070:  645024513535  tlca     ff, @513535(a)  ;"TH4I=="
763071:  353535353535  aosle    sym, @353535(ch1);"======"
763072:  353535353535  aosle    sym, @353535(ch1);"======"
763073:  353535353535  aosle    sym, @353535(ch1);"======"
763074:  353535353535  aosle    sym, @353535(ch1);"======"
763075:  353535353535  aosle    sym, @353535(ch1);"======"
763076:  343367676760  aojle    d, @676760(d)   ;"<;WWWP" "8o>}x"
763077:  676057404040  tdon     p, 404040(tm)   ;"WPO@@@"
763100:  401115251411  setzi    i, 251411(ch1)  ;"@)-5,)"
763101:  402204031016  setzm    a, 31016(a)     ;"@2$#(."
763102:  546365606162  hlrm     d, @606162(b)   ;"LSUPQR" "YO.\f9"
763103:  665014111613  tloa     ff, 111613(f)   ;"VH,).+"
763104:  513535353535  hllzs    sym, @353535(ch1);"I====="
763105:  353535353535  aosle    sym, @353535(ch1);"======"
763106:  353535353535  aosle    sym, @353535(ch1);"======"
763107:  353535353535  aosle    sym, @353535(ch1);"======"
763110:  353535353535  aosle    sym, @353535(ch1);"======"
763111:  343367676760  aojle    d, @676760(d)   ;"<;WWWP" "8o>}x"
763112:  676157404040  tdon     aa, 404040(tm)  ;"WQO@@@"
763113:  400411264006  setz     t, 264006(tt)   ;"@$)6@&"
763114:  546761616260  hlrm     tm, @616260(p)  ;"LWQQRP"
763115:  645024245135  tlca     ff, @245135(a)  ;"TH44I="
763116:  353535353535  aosle    sym, @353535(ch1);"======"
763117:  353535353535  aosle    sym, @353535(ch1);"======"
763120:  353535353535  aosle    sym, @353535(ch1);"======"
763121:  353535353535  aosle    sym, @353535(ch1);"======"
763122:  353535353535  aosle    sym, @353535(ch1);"======"
763123:  353535353535  aosle    sym, @353535(ch1);"======"
763124:  343367676760  aojle    d, @676760(d)   ;"<;WWWP" "8o>}x"
763125:  676257404040  tdon     b, 404040(tm)   ;"WRO@@@"
763126:  406162626261  andm     aa, @626261(i)  ;"@QRRRQ"
763127:  615454626561  tsna     tt, 626561(f)   ;"QLLRUQ"
763130:  626665353535  trzn     ch1, @353535(b) ;"RVU==="
763131:  353535353535  aosle    sym, @353535(ch1);"======"
763132:  353535353535  aosle    sym, @353535(ch1);"======"
763133:  353535353535  aosle    sym, @353535(ch1);"======"
763134:  353535353535  aosle    sym, @353535(ch1);"======"
763135:  353535353535  aosle    sym, @353535(ch1);"======"
763136:  353535353535  aosle    sym, @353535(ch1);"======"
763137:  343355676065  aojle    d, 676065(ch1)  ;"<;MWPU"
763140:  574040404040  hlre     p, 404040       ;"O@@@@@"
763141:  400317162332  setz     c, 162332(tm)   ;"@#/.3:" "@\fydm"
763142:  402424315416  setzm    t, @315416(a)   ;"@449L."
763143:  252702250635  aobjp    ch2, 250635(i)  ;"57"5&="
763144:  353535353535  aosle    sym, @353535(ch1);"======"
763145:  353535353535  aosle    sym, @353535(ch1);"======"
763146:  353535353535  aosle    sym, @353535(ch1);"======"
763147:  353535353535  aosle    sym, @353535(ch1);"======"
763150:  353535353535  aosle    sym, @353535(ch1);"======"
763151:  353535353535  aosle    sym, @353535(ch1);"======"
763152:  343367676760  aojle    d, @676760(d)   ;"<;WWWP" "8o>}x"
763153:  676457404040  tdon     tt, 404040(tm)  ;"WTO@@@"
763154:  402025231012  setzm    @231012(b)      ;"@053(*"
763155:  402054676763  setzm    p, 676763(f)    ;"@0LWWS"
763156:  616767353535  tdnn     tm, @353535(d)  ;"QWW==="
763157:  353535353535  aosle    sym, @353535(ch1);"======"
763160:  353535353535  aosle    sym, @353535(ch1);"======"
763161:  353535353535  aosle    sym, @353535(ch1);"======"
763162:  353535353535  aosle    sym, @353535(ch1);"======"
763163:  353535353535  aosle    sym, @353535(ch1);"======"
763164:  353535353535  aosle    sym, @353535(ch1);"======"
763165:  343333676767  aojle    c, @676767(link);"<;;WWW"
763166:  606765574040  trnn     tm, @574040(b)  ;"PWUO@@"
763167:  404012222324  and      ff, 222324(sym) ;"@@*234"
763170:  405561606035  andi     link, @606035(p);"@MQPP="
763171:  353535353535  aosle    sym, @353535(ch1);"======"
763172:  353535353535  aosle    sym, @353535(ch1);"======"
763173:  353535353535  aosle    sym, @353535(ch1);"======"
763174:  353535353535  aosle    sym, @353535(ch1);"======"
763175:  353535353535  aosle    sym, @353535(ch1);"======"
763176:  353535353535  aosle    sym, @353535(ch1);"======"
763177:  353535353535  aosle    sym, @353535(ch1);"======"
763200:  343333676767  aojle    c, @676767(link);"<;;WWW"
763201:  606766574040  trnn     tm, @574040(c)  ;"PWVO@@"
763202:  404023131120  and      ff, @131120(aa) ;"@@3+)0"
763203:  140540025467  fad      link, 25467     ;",%@"LW"
763204:  676367676735  tdon     d, @676735(d)   ;"WSWWW="
763205:  353535353535  aosle    sym, @353535(ch1);"======"
763206:  353535353535  aosle    sym, @353535(ch1);"======"
763207:  353535353535  aosle    sym, @353535(ch1);"======"
763210:  353535353535  aosle    sym, @353535(ch1);"======"
763211:  353535353535  aosle    sym, @353535(ch1);"======"
763212:  353535353535  aosle    sym, @353535(ch1);"======"
763213:  343367676760  aojle    d, @676760(d)   ;"<;WWWP" "8o>}x"
763214:  676757404040  tdon     tm, 404040(tm)  ;"WWO@@@"
763215:  401222232440  setzi    a, @232440(i)   ;"@*234@"
763216:  040424353535  .iot     t, @353535(a)   ;"$$4==="
763217:  353535353535  aosle    sym, @353535(ch1);"======"
763220:  353535353535  aosle    sym, @353535(ch1);"======"
763221:  353535353535  aosle    sym, @353535(ch1);"======"
763222:  353535353535  aosle    sym, @353535(ch1);"======"
763223:  353535353535  aosle    sym, @353535(ch1);"======"
763224:  353535353535  aosle    sym, @353535(ch1);"======"
763225:  353535353535  aosle    sym, @353535(ch1);"======"
763226:  343367676761  aojle    d, @676761(d)   ;"<;WWWQ"
763227:  606057404040  trnn     p, 404040(tm)   ;"PPO@@@"
763230:  401517260540  setzi    sym, 260540(tm) ;"@-/6%@" "@4za0"
763231:  242003101654  lsh      ff, 101654(aa)  ;"40#(.L"
763232:  605002513535  tlna     ff, 513535(i)   ;"PH"I=="
763233:  353535353535  aosle    sym, @353535(ch1);"======"
763234:  353535353535  aosle    sym, @353535(ch1);"======"
763235:  353535353535  aosle    sym, @353535(ch1);"======"
763236:  353535353535  aosle    sym, @353535(ch1);"======"
763237:  353535353535  aosle    sym, @353535(ch1);"======"
763240:  353535353535  aosle    sym, @353535(ch1);"======"
763241:  343367676761  aojle    d, @676761(d)   ;"<;WWWQ"
763242:  606157404040  trnn     aa, 404040(tm)  ;"PQO@@@"
763243:  401225152016  setzi    a, @152016(b)   ;"@*5-0."
763244:  400254556667  setz     b, 556667(f)    ;"@"LMVW"
763245:  633535353535  tsze     sym, @353535(ch1);"S====="
763246:  353535353535  aosle    sym, @353535(ch1);"======"
763247:  353535353535  aosle    sym, @353535(ch1);"======"
763250:  353535353535  aosle    sym, @353535(ch1);"======"
763251:  353535353535  aosle    sym, @353535(ch1);"======"
763252:  353535353535  aosle    sym, @353535(ch1);"======"
763253:  353535353535  aosle    sym, @353535(ch1);"======"
763254:  343367676761  aojle    d, @676761(d)   ;"<;WWWQ"
763255:  606257404040  trnn     b, 404040(tm)   ;"PRO@@@"
763256:  401517260540  setzi    sym, 260540(tm) ;"@-/6%@" "@4za0"
763257:  242003101654  lsh      ff, 101654(aa)  ;"40#(.L"
763260:  556162666335  hlrzm    aa, @666335(i)  ;"MQRVS="
763261:  353535353535  aosle    sym, @353535(ch1);"======"
763262:  353535353535  aosle    sym, @353535(ch1);"======"
763263:  353535353535  aosle    sym, @353535(ch1);"======"
763264:  353535353535  aosle    sym, @353535(ch1);"======"
763265:  353535353535  aosle    sym, @353535(ch1);"======"
763266:  353535353535  aosle    sym, @353535(ch1);"======"
763267:  343367676761  aojle    d, @676761(d)   ;"<;WWWQ"
763270:  606357404040  trnn     d, 404040(tm)   ;"PSO@@@"
763271:  401517260515  setzi    sym, 260515(tm) ;"@-/6%-"
763272:  402420031016  setzm    t, @31016       ;"@40#(."
763273:  546767636767  hlrm     tm, @636767(d)  ;"LWWSWW"
763274:  663535353535  tloe     sym, @353535(ch1);"V====="
763275:  353535353535  aosle    sym, @353535(ch1);"======"
763276:  353535353535  aosle    sym, @353535(ch1);"======"
763277:  353535353535  aosle    sym, @353535(ch1);"======"
763300:  353535353535  aosle    sym, @353535(ch1);"======"
763301:  353535353535  aosle    sym, @353535(ch1);"======"
763302:  343367676761  aojle    d, @676761(d)   ;"<;WWWQ"
763303:  606457404040  trnn     tt, 404040(tm)  ;"PTO@@@"
763304:  401517260511  setzi    sym, 260511(tm) ;"@-/6%)"
763305:  400254676763  setz     b, 676763(f)    ;"@"LWWS"
763306:  676766353535  tdon     tm, @353535(c)  ;"WWV==="
763307:  353535353535  aosle    sym, @353535(ch1);"======"
763310:  353535353535  aosle    sym, @353535(ch1);"======"
763311:  353535353535  aosle    sym, @353535(ch1);"======"
763312:  353535353535  aosle    sym, @353535(ch1);"======"
763313:  353535353535  aosle    sym, @353535(ch1);"======"
763314:  353535353535  aosle    sym, @353535(ch1);"======"
763315:  343367676761  aojle    d, @676761(d)   ;"<;WWWQ"
763316:  606557404040  trnn     link, 404040(tm);"PUO@@@"
763317:  401022223215  setzi    ff, @223215(i)  ;"@(22:-"
763320:  400254676763  setz     b, 676763(f)    ;"@"LWWS"
763321:  676767353535  tdon     tm, @353535(d)  ;"WWW==="
763322:  353535353535  aosle    sym, @353535(ch1);"======"
763323:  353535353535  aosle    sym, @353535(ch1);"======"
763324:  353535353535  aosle    sym, @353535(ch1);"======"
763325:  353535353535  aosle    sym, @353535(ch1);"======"
763326:  353535353535  aosle    sym, @353535(ch1);"======"
763327:  353535353535  aosle    sym, @353535(ch1);"======"
763330:  343367676761  aojle    d, @676761(d)   ;"<;WWWQ"
763331:  606657404040  trnn     ch1, 404040(tm) ;"PVO@@@"
763332:  401022223215  setzi    ff, @223215(i)  ;"@(22:-"
763333:  402420031016  setzm    t, @31016       ;"@40#(."
763334:  545561626467  hlri     link, @626467(p);"LMQRTW"
763335:  353535353535  aosle    sym, @353535(ch1);"======"
763336:  353535353535  aosle    sym, @353535(ch1);"======"
763337:  353535353535  aosle    sym, @353535(ch1);"======"
763340:  353535353535  aosle    sym, @353535(ch1);"======"
763341:  353535353535  aosle    sym, @353535(ch1);"======"
763342:  353535353535  aosle    sym, @353535(ch1);"======"
763343:  343367676761  aojle    d, @676761(d)   ;"<;WWWQ"
763344:  606757404040  trnn     tm, 404040(tm)  ;"PWO@@@"
763345:  402325021140  setzm    c, @21140(b)    ;"@35")@" "@M(\"0"
763346:  025420112220                           ;""L0)20"
763347:  016335353535                           ;"!S===="
763350:  353535353535  aosle    sym, @353535(ch1);"======"
763351:  353535353535  aosle    sym, @353535(ch1);"======"
763352:  353535353535  aosle    sym, @353535(ch1);"======"
763353:  353535353535  aosle    sym, @353535(ch1);"======"
763354:  353535353535  aosle    sym, @353535(ch1);"======"
763355:  353535353535  aosle    sym, @353535(ch1);"======"
763360:  063654200000                           ;"&>L0  " "\fzb\0\0"
763361:  000000000001  p                        ;"     !"
763362:  050310700000                           ;"%#(X  " "\n\fG\0\0"
763363:  000000000004  a                        ;"     $"
763364:  067070455310                           ;"&XXEK(" "\rcDZd"
763365:  000000000004  a                        ;"     $"
763366:  062454416400                           ;"&4LAT "
763367:  000000000004  a                        ;"     $"
763370:  062725674750                           ;"&75WGH" "\f].yt"
763371:  000000000020  nuwbuf                   ;"     0"
763372:  062724513750                           ;"&74I?H"
763373:  000000000020  nuwbuf                   ;"     0"
763374:  051453515535                           ;"%,KIM="
763375:  000000000006  c                        ;"     &"
763376:  053035353050                           ;"%8==8H"
763377:  000000000007  d                        ;"     '"
763400:  053173173113                           ;"%9[/9+"
763401:  000000000001  p                        ;"     !"
763402:  050715546050                           ;"%'-LPH"
763403:  000000000006  c                        ;"     &"
763404:  067307743100                           ;"&['\9 " "\rl?F "
763405:  000000000002  i                        ;"     ""
763406:  067307743113                           ;"&['\9+"
763407:  000000000040  tpchna                   ;"     @"
763410:  070165463050                           ;"'!UF8H"
763411:  000000000003  aa                       ;"     #"
763412:  054505047050                           ;"%E%$XH"
763413:  000000000003  aa                       ;"     #"
763414:  054504103113                           ;"%E$(9+"
763415:  000000000020  nuwbuf                   ;"     0"
763416:  053035377157                           ;"%8=?YO"
763417:  000000000400  disize                   ;"    $ "
763420:  055345377000                           ;"%KE?X "
763421:  000000000122  go2                      ;"    !2"
763422:  065672057000                           ;"&NZ%X " "\r;P^\0"
763423:  000000000250  rpa                      ;"    "H"
763424:  056753423344                           ;"%WKB;D"
763425:  000000000253  inchr3                   ;"    "K"
763426:  067146602760                           ;"&YFP7P"
763427:  000000000420  tfeed                    ;"    $0"
763430:  067313047400                           ;"&[+$\ " "\rlXO\0"
763431:  000000000460  tppb                     ;"    $P"
763432:  067441137000                           ;"&\A+X " "\rr\t>\0"
763433:  000000000570  tyi                      ;"    %X"
763434:  067065064000                           ;"&XU&@ " "\rc(h\0"
763435:  000000000607  tab                      ;"    &'"
763436:  067442515000                           ;"&\BIH "
763437:  000000000610  tyo                      ;"    &("
763440:  064246722566                           ;"&BFZ5V" "\r\n7%;"
763441:  000000001223  popret                   ;"    *3"
763442:  053141766000                           ;"%9A^P "
763443:  000000001361  dpt                      ;"    +Q"
763444:  051453501120                           ;"%,KH)0"
763445:  000000001640  blkop                    ;"    .@"
763446:  074612236305                           ;"'F*3S%"
763447:  000000001631  .recyc                   ;"    .9"
763450:  052215067140                           ;"%2-&Y@" "\nHhn0"
763451:  000000002242  chsiz                    ;"    2B"
763452:  053035424134                           ;"%8=BA<" "\nal(."
763453:  000000002245  dispnr                   ;"    2E"
763454:  053035376223                           ;"%8=?R3"
763455:  000000002246  disini                   ;"    2F"
763456:  053035344360                           ;"%8=<CP" "\nakHx"
763457:  000000002277  disad                    ;"    2_"
763460:  053035353301                           ;"%8==;!"
763461:  000000002427  disclg                   ;"    47"
763462:  070222344560                           ;"'"2<EP"
763463:  000000002457  uwait                    ;"    4O"
763464:  074735521150                           ;"'G=J)H"
763465:  000000000001  p                        ;"     !"
763466:  074735473200                           ;"'G=G: "
763467:  254120002467  jrstf    @aprbrk         ;"5A0 4W"
763470:  050715543565                           ;"%'-L=U"
763471:  000000002467  aprbrk                   ;"    4W"
763472:  070165460565                           ;"'!UF%U"
763473:  000000002631  utcbrk                   ;"    69"
763474:  074652623760                           ;"'FJR?P"
763475:  000000002713  .ured                    ;"    7+"
763476:  074654054400                           ;"'FL%D "
763477:  000000002737  .uwr                     ;"    7?"
763500:  074611553615                           ;"'F)M>-"
763501:  000000002762  .rbyts                   ;"    7R"
763502:  074522164610                           ;"'E2.F("
763503:  000000003161  .look                    ;"    9Q"
763504:  063451440460                           ;"&<ID$P"
763505:  000000003201  opnrd                    ;"    :!"
763506:  074426114744                           ;"'D6)GD"
763507:  000000003241  .fileb                   ;"    :A"
763510:  054451004700                           ;"%DI G "
763511:  000000003241  .fileb                   ;"    :A"
763512:  063451461240                           ;"&<IF*@" "\frLbP"
763513:  000000003305  opnwr                    ;"    ;%"
763514:  067721703012                           ;"&_1X8*"
763515:  000000003363  uclstp                   ;"    ;S"
763516:  067070515116                           ;"&XXII."
763517:  000000003433  tapkil                   ;"    <;"
763520:  054451007146                           ;"%DI YF"
763521:  000000003444  filest                   ;"    <D"
763522:  067731710730                           ;"&_9Y'8"
763523:  000000003521  udele                    ;"    =1"
763524:  070142436600                           ;"'!BCV "
763525:  000000003526  ured                     ;"    =6"
763526:  070142441060                           ;"'!BD(P"
763527:  000000003531  uredt                    ;"    =9"
763530:  070226364000                           ;"'"6>@ "
763531:  000000003564  uwr                      ;"    =T"
763532:  070142440620                           ;"'!BD&0"
763533:  000000003617  uredp                    ;"    >/"
763534:  067760077314                           ;"&_P'[,"
763535:  000000003621  ufpntr                   ;"    >1"
763536:  054406200000                           ;"%D&0  "
763537:  000000000000                           ;"      "
763540:  064261323500                           ;"&BQ:= "
763541:  000000400000  ppss                     ;"   @  "
763542:  070717356000                           ;"''/=P "
763543:  000000040000  vot                      ;"   $  "
763544:  064316421000                           ;"&C.B( " "\r\ft\"\0"
763545:  000000020000  pss                      ;"   "  "
763546:  062644123500                           ;"&6D*= " "\fZ!' "
763547:  000000040000  vot                      ;"   $  "
763550:  052320237766                           ;"%303_V"
763551:  000000014735  contrl                   ;"   !G="
763552:  061223152600                           ;"&*3-6 "
763553:  000000005000  lpdl                     ;"    H "
763554:  065720244200                           ;"&O04B "
763555:  000000015461  rrl1                     ;"   !LQ"
763556:  065721622200                           ;"&O1R2 "
763557:  000000015471  rrr1                     ;"   !LY"
763560:  061607111432                           ;"&.'),:"
763561:  000000010000  macrch                   ;"   !  "
763562:  050735461200                           ;"%'=F* "
763563:  000000016145  arch                     ;"   !QE"
763564:  067442765006                           ;"&\B^H&"
763565:  000000016151  typctl                   ;"   !QI"
763566:  056755044600                           ;"%WM$F "
763567:  000000020763  init                     ;"   "'S"
763570:  064320111110                           ;"&C0))("
763571:  000000021135  psyms                    ;"   ")="
763572:  064310137000                           ;"&C(+X " "\r\fA>\0"
763573:  000000023141  ps2                      ;"   "9A"
763574:  064211220600                           ;"&B)2& "
763575:  000000023175  plod                     ;"   "9]"
763576:  064307742000                           ;"&C'\0 " "\r\f?D\0"
763577:  000000023652  ps1                      ;"   ">J"
763600:  064072256000                           ;"&@Z5P "
763601:  000000066107  pdl                      ;"   &Q'"
763602:  021725322510                           ;""/5:5("
763603:  345610014702  aojge    f, cdisp(t)     ;"<N(!G""
763604:  121607065600                           ;"*.'&N "
763605:  000000040000  vot                      ;"   $  "
763606:  111654645100                           ;").LTI "
763607:  000000015005  bytw                     ;"   !H%"
763610:  126445671000                           ;"*TEW( "
763611:  000000063760  smk                      ;"   &?P"
763612:  124300735060                           ;"*C [HP"
763613:  000000015045  prcal                    ;"   !HE"
763614:  115212421063                           ;")J*B(S"
763615:  000000015166  getfd2                   ;"   !IV"
763616:  115212421064                           ;")J*B(T"
763617:  000000015177  getfd3                   ;"   !I_"
763620:  124212137200                           ;"*B*+Z "
763621:  000000015224  pls1                     ;"   !J4"
763622:  122114525622                           ;"*1,JN2"
763623:  000000015241  multp1                   ;"   !JA"
763624:  122114525624                           ;"*1,JN4"
763625:  000000015246  multp3                   ;"   !JF"
763626:  122114525625                           ;"*1,JN5"
763627:  000000015265  multp4                   ;"   !JU"
763630:  115330737720                           ;")K8[_0"
763631:  000000015271  gmul1                    ;"   !JY"
763632:  115330737770                           ;")K8[_X"
763633:  000000015276  gmul2                    ;"   !J^"
763634:  115330740160                           ;")K8\!P"
763635:  000000015312  gmul5                    ;"   !K*"
763636:  113036164362                           ;")8>.CR"
763637:  000000015314  divid1                   ;"   !K,"
763640:  132334246120  fsc      c, @246120(f)   ;"+3<4Q0"
763641:  000000015337  xorf1                    ;"   !K?"
763642:  116770746120                           ;")WX\Q0"
763643:  000000015341  iorf1                    ;"   !KA"
763644:  110666610120                           ;")&VQ!0"
763645:  000000015343  andf1                    ;"   !KC"
763646:  121212121312                           ;"****+*"
763647:  000000015344  logic1                   ;"   !KD"
763650:  121212121313                           ;"****++"
763651:  000000015350  logic2                   ;"   !KH"
763652:  112116100620                           ;")1.(&0"
763653:  000000015355  cbak1                    ;"   !KM"
763654:  125722411200                           ;"*O2A* "
763655:  000000015403  rru1                     ;"   !L#"
763656:  115212473316                           ;")J*G;."
763657:  000000015410  getsyl                   ;"   !L("
763660:  125720247300                           ;"*O04[ "
763661:  000000015420  rrl2                     ;"   !L0"
763662:  125713335100                           ;"*O+;I "
763663:  000000015427  rr10                     ;"   !L7"
763664:  125715302000                           ;"*O-80 "
763665:  000000015453  rr9                      ;"   !LK"
763666:  125712740000                           ;"*O*\  "
763667:  000000015467  rr                       ;"   !LW"
763670:  125720346210                           ;"*O0<R("
763671:  000000015501  rrlm4                    ;"   !M!"
763672:  121611045633                           ;"*.)$N;"
763673:  000000015535  maknm2                   ;"   !M="
763674:  121611045634                           ;"*.)$N<"
763675:  000000015537  maknm3                   ;"   !M?"
763676:  122723421504                           ;"*73B-$"
763677:  000000015542  numtab                   ;"   !MB"
763700:  116065037256                           ;")PU#ZN"
763701:  000000015545  highpt                   ;"   !ME"
763702:  121216070460                           ;"**.'$P"
763703:  000000015550  lowpt                    ;"   !MH"
763704:  110735054232                           ;")'=%B:"
763705:  000000015553  aradix                   ;"   !MK"
763706:  122707217000                           ;"*7'1X "
763707:  000000015556  ntclf                    ;"   !MN"
763710:  122723417260                           ;"*73AZP"
763711:  000000015557  numsl                    ;"   !MO"
763712:  122723417265                           ;"*73AZU"
763713:  000000015606  numsl4                   ;"   !N&"
763714:  122723417263                           ;"*73AZS"
763715:  000000015610  numsl2                   ;"   !N("
763716:  124321552000                           ;"*C1M0 "
763717:  000000015615  pt1                      ;"   !N-"
763720:  114453662000                           ;")DKV0 "
763721:  000000015620  fix                      ;"   !N0"
763722:  125512545656                           ;"*M*LNN"
763723:  000000015626  rdxsel                   ;"   !N6"
763724:  122723417262                           ;"*73AZR"
763725:  000000015641  numsl1                   ;"   !NA"
763726:  125714710000                           ;"*O,Y  "
763727:  000000015676  rr7                      ;"   !N^"
763730:  127671614000                           ;"*^YQ@ "
763731:  000000015701  ua3                      ;"   !O!"
763732:  127677512200                           ;"*^_I2 "
763733:  000000015724  uar1                     ;"   !O4"
763734:  111300037200                           ;")+ #Z "
763735:  000000015765  bak1                     ;"   !OU"
763736:  130116510755                           ;"+!.I'M"
763737:  000000015774  upctrc                   ;"   !O\"
763740:  113144764300                           ;")9D^C "
763741:  000000015776  dq1a                     ;"   !O^"
763742:  125713571300                           ;"*O+O+ "
763743:  000000016024  rr2a                     ;"   !P4"
763744:  122700765540                           ;"*7 ^M@"
763745:  000000016026  nsqtb                    ;"   !P6"
763746:  124246700225                           ;"*BFX"5"
763747:  000000016053  poplis                   ;"   !PK"
763750:  124313772020                           ;"*C+_00"
763751:  000000016141  pshm1                    ;"   !QA"
763752:  125474662000                           ;"*L\V0 "
763753:  000000016145  arch                     ;"   !QE"
763754:  115212410054                           ;")J*A L"
763755:  000000016147  getchr                   ;"   !QG"
763756:  125474670200                           ;"*L\W" "
763757:  000000016152  rch1                     ;"   !QJ"
763760:  122055061200                           ;"*0M&* "
763761:  000000016155  mrch                     ;"   !QM"
763762:  122055061405                           ;"*0M&,%"
763763:  000000016163  mrch2c                   ;"   !QS"
763764:  122055061320                           ;"*0M&+0"
763765:  000000016202  mrch1                    ;"   !R""
763766:  125475017103                           ;"*L]!Y#"
763767:  000000016221  rchsv2                   ;"   !R1"
763770:  125475015430                           ;"*L]!L8"
763771:  000000016222  rchsav                   ;"   !R2"
763772:  125512344640                           ;"*M*<F@"
763773:  000000016246  rdwr3                    ;"   !RF"
763774:  125512344606                           ;"*M*<F&"
763775:  000000016260  rdwr2d                   ;"   !RP"
763776:  125512344605                           ;"*M*<F%"
763777:  000000016265  rdwr2c                   ;"   !RU"
764000:  125512344570                           ;"*M*<EX"
764001:  000000016266  rdwr2                    ;"   !RV"
764002:  124342366556                           ;"*CB>UN"
764003:  000000016275  putrel                   ;"   !R]"
764004:  110525145742                           ;")%5,OB"
764005:  000000016344  addtr1                   ;"   !SD"
764006:  125512345030                           ;"*M*<H8"
764007:  000000016353  rdwr6                    ;"   !SK"
764010:  125512344520                           ;"*M*<E0"
764011:  000000016374  rdwr1                    ;"   !S\"
764012:  125511557335                           ;"*M)M[="
764013:  000000016413  rdtrns                   ;"   !T+"
764014:  126633534152                           ;"*V;KAJ"
764015:  000000016422  symmg1                   ;"   !T2"
764016:  115163307060                           ;")IS8XP"
764017:  000000016430  gcend                    ;"   !T8"
764020:  122073003270                           ;"*0[ :X"
764021:  000000016431  mstg2                    ;"   !T9"
764022:  122073003410                           ;"*0[ <("
764023:  000000016451  mstg4                    ;"   !TI"
764024:  122073003340                           ;"*0[ ;@"
764025:  000000016453  mstg3                    ;"   !TK"
764026:  115163307062                           ;")IS8XR"
764027:  000000016501  gcend1                   ;"   !U!"
764030:  130161210152                           ;"+!Q1!J"
764031:  000000016510  usymg1                   ;"   !U("
764032:  122066714000                           ;"*0VY@ "
764033:  000000016513  mscn                     ;"   !U+"
764034:  122066714120                           ;"*0VYA0"
764035:  000000016524  mscn1                    ;"   !U4"
764036:  121607033260                           ;"*.'#:P"
764037:  000000016527  maccl                    ;"   !U7"
764040:  121607000500                           ;"*.' % "
764041:  000000016565  mac4                     ;"   !UU"
764042:  121606770070                           ;"*.&_ X"
764043:  000000016600  mac1a                    ;"   !V "
764044:  121606773170                           ;"*.&_9X"
764045:  000000016620  mac2a                    ;"   !V0"
764046:  121606772300                           ;"*.&_3 "
764047:  000000016622  mac2                     ;"   !V2"
764050:  121606776270                           ;"*.&_RX"
764051:  000000016626  mac3a                    ;"   !V6"
764052:  115211115317                           ;")J))K/"
764053:  000000016630  gensym                   ;"   !V8"
764054:  113106056770                           ;")9&%WX"
764055:  000000016646  dmytrn                   ;"   !VF"
764056:  113106056742                           ;")9&%WB"
764057:  000000016661  dmytr1                   ;"   !VQ"
764060:  115424403770                           ;")L4@?X"
764061:  000000016707  gsyl2                    ;"   !W'"
764062:  115424403734                           ;")L4@?<"
764063:  000000016716  gsyl1b                   ;"   !W."
764064:  115424403735                           ;")L4@?="
764065:  000000016722  gsyl1c                   ;"   !W2"
764066:  115424403733                           ;")L4@?;"
764067:  000000016724  gsyl1a                   ;"   !W4"
764070:  126554073622                           ;"*UL'>2"
764071:  000000016735  strtp1                   ;"   !W="
764072:  126554073624                           ;"*UL'>4"
764073:  000000016745  strtp3                   ;"   !WE"
764074:  112763224130                           ;")7S2A8"
764075:  000000017004  defne                    ;"   !X$"
764076:  112763223740                           ;")7S2?@"
764077:  000000017005  defnb                    ;"   !X%"
764100:  112763223670                           ;")7S2>X"
764101:  000000017012  defna                    ;"   !X*"
764102:  124070565000                           ;"*@XNH "
764103:  000000017036  pdef                     ;"   !X>"
764104:  131562637377                           ;"+-RS[_"
764105:  000000017046  wrqote                   ;"   !XF"
764106:  131562637365                           ;"+-RS[U"
764107:  000000017060  wrqot4                   ;"   !XP"
764110:  131562637366                           ;"+-RS[V"
764111:  000000017077  wrqot5                   ;"   !X_"
764112:  131562637363                           ;"+-RS[S"
764113:  000000017106  wrqot2                   ;"   !Y&"
764114:  131562637362                           ;"+-RS[R"
764115:  000000017117  wrqot1                   ;"   !Y/"
764116:  111070747362                           ;")(X\[R"
764117:  000000017121  a.qot1                   ;"   !Y1"
764120:  125522407720                           ;"*M2@_0"
764121:  000000017171  rept1                    ;"   !YY"
764122:  111071360622                           ;")(Y>&2"
764123:  000000017217  a.stp1                   ;"   !Z/"
764124:  125522412107                           ;"*M2A1'"
764125:  000000017222  repttm                   ;"   !Z2"
764126:  125522407770                           ;"*M2@_X"
764127:  000000017223  rept2                    ;"   !Z3"
764130:  110562572016                           ;")%RO0."
764131:  000000017237  agetfd                   ;"   !Z?"
764132:  110566241062                           ;")%V4(R"
764133:  000000017260  agtfd1                   ;"   !ZP"
764134:  112320154040                           ;")30-@@"
764135:  000000017304  cond3                    ;"   ![$"
764136:  112320153770                           ;")30-?X"
764137:  000000017310  cond2                    ;"   ![("
764140:  110672751362                           ;")&Z]+R"
764141:  000000017312  anull1                   ;"   ![*"
764142:  126305251064                           ;"*S%5(T"
764143:  000000017352  scond3                   ;"   ![J"
764144:  126305251062                           ;"*S%5(R"
764145:  000000017364  scond1                   ;"   ![T"
764146:  126305251070                           ;"*S%5(X"
764147:  000000017367  scond7                   ;"   ![W"
764150:  125474734436                           ;"*L\[D>"
764151:  000000017372  rchcnt                   ;"   ![Z"
764152:  125121316260                           ;"*I19RP"
764153:  000000017373  qscnt                    ;"   ![["
764154:  110611325200                           ;")&):J "
764155:  000000017400  airp                     ;"   !\ "
764156:  110611325370                           ;")&):KX"
764157:  000000017436  airp2                    ;"   !\>"
764160:  110611325510                           ;")&):M("
764161:  000000017470  airp4                    ;"   !\X"
764162:  110611325713                           ;")&):O+"
764163:  000000017535  airp7a                   ;"   !]="
764164:  110611325714                           ;")&):O,"
764165:  000000017542  airp7b                   ;"   !]B"
764166:  110611326020                           ;")&):P0"
764167:  000000017560  airp9                    ;"   !]P"
764170:  110611327413                           ;")&):\+"
764171:  000000017573  airps2                   ;"   !]["
764172:  110611327414                           ;")&):\,"
764173:  000000017601  airps3                   ;"   !^!"
764174:  110611325716                           ;")&):O."
764175:  000000017620  airp7d                   ;"   !^0"
764176:  110611325321                           ;")&):K1"
764177:  000000017623  airp10                   ;"   !^3"
764200:  110611325560                           ;")&):MP"
764201:  000000017624  airp5                    ;"   !^4"
764202:  110471070435                           ;")$Y'$="
764203:  000000017626  aairpc                   ;"   !^6"
764204:  110611326214                           ;")&):R,"
764205:  000000017653  airpc3                   ;"   !^K"
764206:  112317626002                           ;")3/RP""
764207:  000000017720  colon1                   ;"   !_0"
764210:  112317626005                           ;")3/RP%"
764211:  000000017734  colon4                   ;"   !_<"
764212:  112317526630                           ;")3/JV8"
764213:  000000017741  col4e                    ;"   !_A"
764214:  112317626006                           ;")3/RP&"
764215:  000000017743  colon5                   ;"   !_C"
764216:  115165641720                           ;")IUT/0"
764217:  000000017746  gcol1                    ;"   !_F"
764220:  115165642040                           ;")IUT0@"
764221:  000000017765  gcol3                    ;"   !_U"
764222:  115165642110                           ;")IUT1("
764223:  000000017767  gcol4                    ;"   !_W"
764224:  111754413727                           ;")/LA?7"
764225:  000000017776  c1asse                   ;"   !_^"
764226:  115165641770                           ;")IUT/X"
764227:  000000017776  c1asse                   ;"   !_^"
764230:  112307607540                           ;")3'P]@"
764231:  000000020056  cnstb                    ;"   " N"
764232:  112307606770                           ;")3'PWX"
764233:  000000020064  cnst2                    ;"   " T"
764234:  112307607470                           ;")3'P\X"
764235:  000000020106  cnsta                    ;"   "!&"
764236:  112307607673                           ;")3'P^["
764237:  000000020125  cnstda                   ;"   "!5"
764240:  112307607660                           ;")3'P^P"
764241:  000000020127  cnstd                    ;"   "!7"
764242:  112307607040                           ;")3'PX@"
764243:  000000020146  cnst3                    ;"   "!F"
764244:  112320146657                           ;")30,VO"
764245:  000000020237  conbg6                   ;"   ""?"
764246:  112320146652                           ;")30,VJ"
764247:  000000020240  conbg1                   ;"   ""@"
764250:  112320146655                           ;")30,VM"
764251:  000000020254  conbg4                   ;"   ""L"
764252:  112320146654                           ;")30,VL"
764253:  000000020255  conbg3                   ;"   ""M"
764254:  112320146661                           ;")30,VQ"
764255:  000000020262  conbg8                   ;"   ""R"
764256:  121264160120                           ;"**T.!0"
764257:  000000020305  lssth                    ;"   "#%"
764260:  121264160130                           ;"**T.!8"
764261:  000000020345  lssth7                   ;"   "#E"
764262:  121264160127                           ;"**T.!7"
764263:  000000020346  lssth6                   ;"   "#F"
764264:  121264160125                           ;"**T.!5"
764265:  000000020361  lssth4                   ;"   "#Q"
764266:  121264160154                           ;"**T.!L"
764267:  000000020367  lssthr                   ;"   "#W"
764270:  111004166640                           ;")($.V@"
764271:  000000020442  avar3                    ;"   "$B"
764272:  111004166520                           ;")($.U0"
764273:  000000020470  avar1                    ;"   "$X"
764274:  111004166710                           ;")($.W("
764275:  000000020502  avar4                    ;"   "%""
764276:  111004166653                           ;")($.VK"
764277:  000000020513  avar3a                   ;"   "%+"
764300:  111004166604                           ;")($.V$"
764301:  000000020517  avar2b                   ;"   "%/"
764302:  111004166723                           ;")($.W3"
764303:  000000020522  avar4a                   ;"   "%2"
764304:  126305250000                           ;"*S%5  "
764305:  000000020603  scon                     ;"   "&#"
764306:  126305250240                           ;"*S%5"@"
764307:  000000020634  scon3                    ;"   "&<"
764310:  126305250310                           ;"*S%5#("
764311:  000000020647  scon4                    ;"   "&G"
764312:  126305250443                           ;"*S%5$C"
764313:  000000020655  scon6a                   ;"   "&M"
764314:  126305250430                           ;"*S%5$8"
764315:  000000020656  scon6                    ;"   "&N"
764316:  126305245020                           ;"*S%4H0"
764317:  000000020675  scom1                    ;"   "&]"
764320:  122626361000                           ;"*66>( "
764321:  000000020702  nocon                    ;"   "'""
764322:  122626361006                           ;"*66>(&"
764323:  000000020746  nocon5                   ;"   "'F"
764324:  112333377410                           ;")3;?\("
764325:  000000020752  cptmk                    ;"   "'J"
764326:  116755044770                           ;")WM$GX"
764327:  000000021000  init2                    ;"   "( "
764330:  112353322500                           ;")3K:5 "
764331:  000000021102  cretn                    ;"   ")""
764332:  111070747377                           ;")(X\[_"
764333:  000000021103  a.qote                   ;"   ")#"
764334:  110753201532                           ;")'K0-:"
764335:  000000021103  a.qote                   ;"   ")#"
764336:  110753201533                           ;")'K0-;"
764337:  000000021123  assem2                   ;"   ")3"
764340:  125523401070                           ;"*M3@(X"
764341:  000000021141  return                   ;"   ")A"
764342:  110716050132                           ;")'.%!:"
764343:  000000021142  apsym1                   ;"   ")B"
764344:  113757153200                           ;")?O-: "
764345:  000000021201  eqg1                     ;"   "*!"
764346:  113760357000                           ;")?P=X "
764347:  000000021217  eql7                     ;"   "*/"
764350:  115314604134                           ;")K,PA<"
764351:  000000021243  glkpnr                   ;"   "*C"
764352:  121145247171                           ;"*)E4YY"
764353:  000000021244  lkpnro                   ;"   "*D"
764354:  113760337300                           ;")?P;[ "
764355:  000000021261  eql2                     ;"   "*Q"
764356:  112110611033                           ;")1(Q(;"
764357:  000000021264  casm1a                   ;"   "*T"
764360:  121214322270                           ;"**,:2X"
764361:  000000021265  lopra                    ;"   "*U"
764362:  113760334200                           ;")?P;B "
764363:  000000021272  eql1                     ;"   "*Z"
764364:  113760335330                           ;")?P;K8"
764365:  000000021306  eql1e                    ;"   "+&"
764366:  113760335260                           ;")?P;JP"
764367:  000000021307  eql1d                    ;"   "+'"
764370:  110747703033                           ;")'GX8;"
764371:  000000021322  asem1a                   ;"   "+2"
764372:  110761534253                           ;")'QKBK"
764373:  000000021324  atermi                   ;"   "+4"
764374:  123533612733                           ;"*=;Q7;"
764375:  000000021325  outde2                   ;"   "+5"
764376:  123533612732                           ;"*=;Q7:"
764377:  000000021326  outde1                   ;"   "+6"
764400:  113760335210                           ;")?P;J("
764401:  000000021344  eql1c                    ;"   "+D"
764402:  123772475000                           ;"*?ZGH "
764403:  000000021362  p70                      ;"   "+R"
764404:  124046207054                           ;"*@F0XL"
764405:  000000021363  pbitsz                   ;"   "+S"
764406:  124046207020                           ;"*@F0X0"
764407:  000000021364  pbits7                   ;"   "+T"
764410:  113760335226                           ;")?P;J6"
764411:  000000021366  eql1cd                   ;"   "+V"
764412:  113760335223                           ;")?P;J3"
764413:  000000021371  eql1ca                   ;"   "+Y"
764414:  113755601170                           ;")?MP)X"
764415:  000000021374  eqa2a                    ;"   "+\"
764416:  113760335143                           ;")?P;IC"
764417:  000000021400  eql1b2                   ;"   ", "
764420:  113760335140                           ;")?P;I@"
764421:  000000021401  eql1b                    ;"   ",!"
764422:  112317626003                           ;")3/RP#"
764423:  000000021412  colon2                   ;"   ",*"
764424:  113760335153                           ;")?P;IK"
764425:  000000021413  eql1ba                   ;"   ",+"
764426:  113760335154                           ;")?P;IL"
764427:  000000021427  eql1bb                   ;"   ",7"
764430:  113760336437                           ;")?P;T?"
764431:  000000021434  eql1sm                   ;"   ",<"
764432:  113760335070                           ;")?P;HX"
764433:  000000021451  eql1a                    ;"   ",I"
764434:  125474765370                           ;"*L\^KX"
764435:  000000021455  rchkmv                   ;"   ",M"
764436:  115212502716                           ;")J*H7."
764437:  000000021457  getval                   ;"   ",O"
764440:  115435425662                           ;")L=BNR"
764441:  000000021503  gtvld1                   ;"   "-#"
764442:  115435424770                           ;")L=BGX"
764443:  000000021510  gtvl2                    ;"   "-("
764444:  115435425006                           ;")L=BH&"
764445:  000000021517  gtvl2d                   ;"   "-/"
764446:  115435425005                           ;")L=BH%"
764447:  000000021521  gtvl2c                   ;"   "-1"
764450:  115435425022                           ;")L=BH2"
764451:  000000021523  gtvl2p                   ;"   "-3"
764452:  115435443030                           ;")L=D88"
764453:  000000021527  gtvpm                    ;"   "-7"
764454:  115435424720                           ;")L=BG0"
764455:  000000021532  gtvl1                    ;"   "-:"
764456:  115435425040                           ;")L=BH@"
764457:  000000021535  gtvl3                    ;"   "-="
764460:  115435425300                           ;")L=BK "
764461:  000000021546  gtvl7                    ;"   "-F"
764462:  115435425371                           ;")L=BKY"
764463:  000000021561  gtvl8g                   ;"   "-Q"
764464:  115435425243                           ;")L=BJC"
764465:  000000021567  gtvl6a                   ;"   "-W"
764466:  115435425540                           ;")L=BM@"
764467:  000000021575  gtvlb                    ;"   "-]"
764470:  115435365520                           ;")L=>M0"
764471:  000000021576  gtvb1                    ;"   "-^"
764472:  115435425230                           ;")L=BJ8"
764473:  000000021603  gtvl6                    ;"   ".#"
764474:  115435425160                           ;")L=BIP"
764475:  000000021610  gtvl5                    ;"   ".("
764476:  115435425314                           ;")L=BK,"
764477:  000000021617  gtvl7b                   ;"   "./"
764500:  115435426622                           ;")L=BV2"
764501:  000000021640  gtvlp1                   ;"   ".@"
764502:  115435426623                           ;")L=BV3"
764503:  000000021643  gtvlp2                   ;"   ".C"
764504:  135551362000  ldb      link, 362000(tt);"+MI>0 "
764505:  000000021646  $.h                      ;"   ".F"
764506:  115435425730                           ;")L=BO8"
764507:  000000021647  gtvle                    ;"   ".G"
764510:  115435425733                           ;")L=BO;"
764511:  000000021657  gtvle2                   ;"   ".O"
764512:  115435425732                           ;")L=BO:"
764513:  000000021662  gtvle1                   ;"   ".R"
764514:  115435425735                           ;")L=BO="
764515:  000000021664  gtvle4                   ;"   ".T"
764516:  115212504360                           ;")J*HCP"
764517:  000000021666  getvun                   ;"   ".V"
764520:  115435401040                           ;")L=@(@"
764521:  000000021701  gtver                    ;"   "/!"
764522:  124211233711                           ;"*B)3?)"
764523:  000000021703  ploglo                   ;"   "/#"
764524:  113200503600                           ;"): H> "
764525:  000000400000  ppss                     ;"   @  "
764526:  112776351600                           ;")7^=. "
764527:  000000200000  dfld                     ;"   0  "
764530:  113204514000                           ;"):$I@ "
764531:  000000021711  dtb                      ;"   "/)"
764532:  113776450000                           ;")?^E  "
764533:  000000021750  es                       ;"   "/H"
764534:  113777434000                           ;")?_C@ "
764535:  000000022005  es3                      ;"   "0%"
764536:  114000026000                           ;")@ "P "
764537:  000000022010  es5                      ;"   "0("
764540:  113777237000                           ;")?_3X "
764541:  000000022020  es2                      ;"   "00"
764542:  113777301300                           ;")?_8+ "
764543:  000000022022  es2a                     ;"   "02"
764544:  124246670520                           ;"*BFW%0"
764545:  000000022030  popj1                    ;"   "08"
764546:  113777501520                           ;")?_H-0"
764547:  000000022032  es3b1                    ;"   "0:"
764550:  114000223000                           ;")@ 28 "
764551:  000000022034  es6                      ;"   "0<"
764552:  114000265300                           ;")@ 6K "
764553:  000000022036  es6a                     ;"   "0>"
764554:  130764656120                           ;"+'TUQ0"
764555:  000000022040  vsm2lv                   ;"   "0@"
764556:  130764656750                           ;"+'TUWH"
764557:  000000022041  vsm2w                    ;"   "0A"
764560:  130764654300                           ;"+'TUC "
764561:  000000022042  vsm2                     ;"   "0B"
764562:  130764660270                           ;"+'TV"X"
764563:  000000022047  vsm3a                    ;"   "0G"
764564:  115751671200                           ;")OIW* "
764565:  000000022056  hash                     ;"   "0N"
764566:  116640316674                           ;")V@9V\"
764567:  000000022065  ifortb                   ;"   "0U"
764570:  114545122504                           ;")EE*5$"
764571:  000000022112  fortab                   ;"   "1*"
764572:  114602654530                           ;")F"UE8"
764573:  000000022136  frtbe                    ;"   "1>"
764574:  115212507256                           ;")J*HZN"
764575:  000000022147  getwrd                   ;"   "1G"
764576:  115435571160                           ;")L=O)P"
764577:  000000022215  gtwd5                    ;"   "2-"
764600:  112320013570                           ;")30!=X"
764601:  000000022224  comma                    ;"   "24"
764602:  115212506163                           ;")J*HQS"
764603:  000000022245  getwd2                   ;"   "2E"
764604:  112320013572                           ;")30!=Z"
764605:  000000022255  comma1                   ;"   "2M"
764606:  126500630630                           ;"*U S&8"
764607:  000000022257  space                    ;"   "2O"
764610:  116757531576                           ;")WOK-^"
764611:  000000022275  intfld                   ;"   "2]"
764612:  116757531062                           ;")WOK(R"
764613:  000000022321  intfd1                   ;"   "31"
764614:  116757531063                           ;")WOK(S"
764615:  000000022335  intfd2                   ;"   "3="
764616:  116757552600                           ;")WOM6 "
764617:  000000022340  intl                     ;"   "3@"
764620:  116757615100                           ;")WOQI "
764621:  000000022347  intw                     ;"   "3G"
764622:  116757575400                           ;")WOOL "
764623:  000000022355  intr                     ;"   "3M"
764624:  116757511336                           ;")WOI+>"
764625:  000000022360  intacl                   ;"   "3P"
764626:  116757511332                           ;")WOI+:"
764627:  000000022361  intach                   ;"   "3Q"
764630:  124046207010                           ;"*@F0X("
764631:  000000022411  pbits                    ;"   "4)"
764632:  123533672330                           ;"*=;W38"
764633:  000000022422  outsm                    ;"   "42"
764634:  123533706160                           ;"*=;XQP"
764635:  000000022423  outwd                    ;"   "43"
764636:  123533661566                           ;"*=;V-V"
764637:  000000022424  output                   ;"   "44"
764640:  113536037500                           ;")=>#] "
764641:  000000022443  eblk                     ;"   "4C"
764642:  113536037740                           ;")=>#_@"
764643:  000000022454  eblk3                    ;"   "4L"
764644:  113535552300                           ;")==M3 "
764645:  000000022504  ebk2                     ;"   "5$"
764646:  113536040010                           ;")=>$ ("
764647:  000000022512  eblk4                    ;"   "5*"
764650:  124365340470                           ;"*CU<$X"
764651:  000000022525  pwrda                    ;"   "55"
764652:  124365337600                           ;"*CU;^ "
764653:  000000022526  pwrd                     ;"   "56"
764654:  124365340313                           ;"*CU<#+"
764655:  000000022566  pwrd7a                   ;"   "5V"
764656:  124365340300                           ;"*CU<# "
764657:  000000022567  pwrd7                    ;"   "5W"
764660:  124365340160                           ;"*CU<!P"
764661:  000000022574  pwrd5                    ;"   "5\"
764662:  124365340174                           ;"*CU<!\"
764663:  000000022606  pwrd5b                   ;"   "6&"
764664:  124365340042                           ;"*CU< B"
764665:  000000022650  pwrd31                   ;"   "6H"
764666:  124365340060                           ;"*CU< P"
764667:  000000022701  pwrd3f                   ;"   "7!"
764670:  125677505460                           ;"*N_HLP"
764671:  000000022703  rpwrd                    ;"   "7#"
764672:  124365340057                           ;"*CU< O"
764673:  000000022711  pwrd3e                   ;"   "7)"
764674:  124365340040                           ;"*CU< @"
764675:  000000022713  pwrd3                    ;"   "7+"
764676:  124365337770                           ;"*CU;_X"
764677:  000000022714  pwrd2                    ;"   "7,"
764700:  125474763500                           ;"*L\^= "
764701:  000000022721  rchk                     ;"   "71"
764702:  125623472074                           ;"*N3G0\"
764703:  000000022730  rlcerr                   ;"   "78"
764704:  125640322130                           ;"*N@:18"
764705:  000000022732  rmove                    ;"   "7:"
764706:  124365337720                           ;"*CU;_0"
764707:  000000022737  pwrd1                    ;"   "7?"
764710:  126272637670                           ;"*RZS^X"
764711:  000000023000  sblk2                    ;"   "8 "
764712:  114001512310                           ;")@!I3("
764713:  000000023005  esblk                    ;"   "8%"
764714:  124302356700                           ;"*C"=W "
764715:  000000023010  prim                     ;"   "8("
764716:  124302357020                           ;"*C"=X0"
764717:  000000023015  prim1                    ;"   "8-"
764720:  121116175300                           ;"*)./K "
764721:  000000023046  lib2                     ;"   "8F"
764722:  121116200400                           ;"*).0$ "
764723:  000000023063  lib3                     ;"   "8S"
764724:  121116304120                           ;"*).8A0"
764725:  000000023071  libop                    ;"   "8Y"
764726:  121116206600                           ;"*).0V "
764727:  000000023117  lib5                     ;"   "9/"
764730:  124030361300                           ;"*@8>+ "
764731:  000000023147  pa2a                     ;"   "9G"
764732:  124030364400                           ;"*@8>D "
764733:  000000023164  pa2b                     ;"   "9T"
764734:  124206460330                           ;"*B&F#8"
764735:  000000023167  pldcm                    ;"   "9W"
764736:  124211220720                           ;"*B)2'0"
764737:  000000023200  plod1                    ;"   ": "
764740:  110541233720                           ;")%A3?0"
764741:  000000023224  aend1                    ;"   ":4"
764742:  110541233770                           ;")%A3?X"
764743:  000000023241  aend2                    ;"   ":A"
764744:  110541234160                           ;")%A3AP"
764745:  000000023244  aend5                    ;"   ":D"
764746:  110541234177                           ;")%A3A_"
764747:  000000023261  aend5e                   ;"   ":Q"
764750:  110541234174                           ;")%A3A\"
764751:  000000023270  aend5b                   ;"   ":X"
764752:  110645715500                           ;")&EYM "
764753:  000000023307  aloc                     ;"   ";'"
764754:  110645715620                           ;")&EYN0"
764755:  000000023346  aloc1                    ;"   ";F"
764756:  110645715740                           ;")&EYO@"
764757:  000000023404  aloc3                    ;"   "<$"
764760:  110645716060                           ;")&EYPP"
764761:  000000023415  aloc5                    ;"   "<-"
764762:  111067561120                           ;")(WN)0"
764763:  000000023435  a.ln1                    ;"   "<="
764764:  110503437670                           ;")%#C^X"
764765:  000000023443  ablk2                    ;"   "<C"
764766:  110503440010                           ;")%#D ("
764767:  000000023452  ablk4                    ;"   "<J"
764770:  113773634240                           ;")?[SB@"
764771:  000000023472  error                    ;"   "<Z"
764772:  113773522200                           ;")?[J2 "
764773:  000000023522  err1                     ;"   "=2"
764774:  126633563422                           ;"*V;N<2"
764775:  000000023553  symtyp                   ;"   "=K"
764776:  126633562622                           ;"*V;N62"
764777:  000000023567  symtp1                   ;"   "=W"
765000:  126635243400                           ;"*V=4< "
765001:  000000023571  sytb                     ;"   "=Y"
765002:  123254041136                           ;"*:L$)>"
765003:  000000023574  octpnt                   ;"   "=\"
765004:  113773533500                           ;")?[K= "
765005:  000000023604  err4                     ;"   ">$"
765006:  113773536600                           ;")?[KV "
765007:  000000023607  err5                     ;"   ">'"
765010:  113773525300                           ;")?[JK "
765011:  000000023611  err2                     ;"   ">)"
765012:  113773530400                           ;")?[K$ "
765013:  000000023614  err3                     ;"   ">,"
765014:  113773644566                           ;")?[TEV"
765015:  000000023616  errret                   ;"   ">."
765016:  126402122421                           ;"*T"*41"
765017:  000000023623  sixtyo                   ;"   ">3"
765020:  112356314000                           ;")3N9@ "
765021:  000000023631  crr                      ;"   ">9"
765022:  116554753000                           ;")UL]8 "
765023:  000000023635  iae                      ;"   ">="
765024:  127443041520                           ;"*\C$-0"
765025:  000000023643  typr1                    ;"   ">C"
765026:  126377272205                           ;"*S_72%"
765027:  000000023653  simblk                   ;"   ">K"
765030:  112104507202                           ;")1$HZ""
765031:  000000023664  cabpop                   ;"   ">T"
765032:  110762524720                           ;")'RJG0"
765033:  000000023702  atit1                    ;"   "?""
765034:  110747707062                           ;")'GXXR"
765035:  000000023731  asend1                   ;"   "?9"
765036:  112260037202                           ;")2P#Z""
765037:  000000023741  clbpop                   ;"   "?A"
765040:  112332227640                           ;")3:2^@"
765041:  000000023742  cpopj                    ;"   "?B"
765042:  126633500462                           ;"*V;H$R"
765043:  000000023743  symdmp                   ;"   "?C"
765044:  126633477053                           ;"*V;GXK"
765045:  000000024007  symd3a                   ;"   "@'"
765046:  126633477040                           ;"*V;GX@"
765047:  000000024010  symd3                    ;"   "@("
765050:  126633476720                           ;"*V;GW0"
765051:  000000024024  symd1                    ;"   "@4"
765052:  126633477003                           ;"*V;GX#"
765053:  000000024032  symd2a                   ;"   "@:"
765054:  126633477004                           ;"*V;GX$"
765055:  000000024034  symd2b                   ;"   "@<"
765056:  126633477230                           ;"*V;GZ8"
765057:  000000024047  symd6                    ;"   "@G"
765060:  112303270712                           ;")3#7'*"
765061:  000000024052  cnartp                   ;"   "@J"
765062:  112307767370                           ;")3'^[X"
765063:  000000024076  cntp2                    ;"   "@^"
765064:  126633477470                           ;"*V;G\X"
765065:  000000024100  symda                    ;"   "A "
765066:  110473351620                           ;")$[=.0"
765067:  000000024136  aasc1                    ;"   "A>"
765070:  110473351633                           ;")$[=.;"
765071:  000000024163  aasc1a                   ;"   "AS"
765072:  110473351670                           ;")$[=.X"
765073:  000000024170  aasc2                    ;"   "AX"
765074:  110473411020                           ;")$[A(0"
765075:  000000024205  aasm1                    ;"   "B%"
765076:  110473352060                           ;")$[=0P"
765077:  000000024232  aasc5                    ;"   "B:"
765100:  110473352320                           ;")$[=30"
765101:  000000024242  aasc9                    ;"   "BB"
765102:  110473352200                           ;")$[=2 "
765103:  000000024244  aasc7                    ;"   "BD"
765104:  127141560230                           ;"*YAN"8"
765105:  000000024245  text6                    ;"   "BE"
765106:  110473351634                           ;")$[=.<"
765107:  000000024246  aasc1b                   ;"   "BF"
765110:  130504756566                           ;"+%$]UV"
765111:  000000024254  valret                   ;"   "BL"
765112:  127141560160                           ;"*YAN!P"
765113:  000000024261  text5                    ;"   "BQ"
765114:  130504755520                           ;"+%$]M0"
765115:  000000024266  valr1                    ;"   "BV"
765116:  127141557770                           ;"*YAM_X"
765117:  000000024270  text2                    ;"   "BX"
765120:  110473352702                           ;")$[=7""
765121:  000000024276  aascf1                   ;"   "B^"
765122:  110473352703                           ;")$[=7#"
765123:  000000024277  aascf2                   ;"   "B_"
765124:  127141560110                           ;"*YAN!("
765125:  000000024300  text4                    ;"   "C "
765126:  127141560350                           ;"*YAN#H"
765127:  000000024301  text8                    ;"   "C!"
765130:  110747125320                           ;")'G*K0"
765131:  000000024302  asbp1                    ;"   "C""
765132:  110747125370                           ;")'G*KX"
765133:  000000024303  asbp2                    ;"   "C#"
765134:  110473347600                           ;")$[<^ "
765135:  000000024304  aasbf                    ;"   "C$"
765136:  110753571012                           ;")'KO(*"
765137:  000000024307  asuds1                   ;"   "C'"
765140:  116653332460                           ;")VK;4P"
765141:  000000024310  igtxt                    ;"   "C("
765142:  124246635740                           ;"*BFSO@"
765143:  000000024315  popaj                    ;"   "C-"
765144:  110736071565                           ;")'>'-U"
765145:  000000024360  areloc                   ;"   "CP"
765146:  126435110360                           ;"*T=)#P"
765147:  000000024411  sload                    ;"   "D)"
765150:  126435110412                           ;"*T=)$*"
765151:  000000024434  sloadp                   ;"   "D<"
765152:  110570065523                           ;")%X&M3"
765153:  000000024571  ag.sp2                   ;"   "EY"
765154:  110570064700                           ;")%X&G "
765155:  000000024574  ag.sf                    ;"   "E\"
765156:  111066421765                           ;")(VB/U"
765157:  000000024603  a.gst4                   ;"   "F#"
765160:  111066421764                           ;")(VB/T"
765161:  000000024604  a.gst3                   ;"   "F$"
765162:  112133246720                           ;")1;4W0"
765163:  000000024605  ccomp                    ;"   "F%"
765164:  111324546733                           ;")+4LW;"
765165:  000000024615  bcompa                   ;"   "F-"
765166:  111066403270                           ;")(V@:X"
765167:  000000024644  a.go2                    ;"   "FD"
765170:  124217501520                           ;"*B/H-0"
765171:  000000024646  pmacp                    ;"   "FF"
765172:  111066403410                           ;")(V@<("
765173:  000000024661  a.go4                    ;"   "FQ"
765174:  111066403530                           ;")(V@=8"
765175:  000000024662  a.go6                    ;"   "FR"
765176:  111065261470                           ;")(U6,X"
765177:  000000024702  a.by2                    ;"   "G""
765200:  111654362160                           ;").L>1P"
765201:  000000024714  byset                    ;"   "G,"
765202:  111065261540                           ;")(U6-@"
765203:  000000024724  a.by3                    ;"   "G4"
765204:  124051775200                           ;"*@I_J "
765205:  000000024750  pby1                     ;"   "GH"
765206:  111654573234                           ;").LO:<"
765207:  000000024757  bytinr                   ;"   "GO"
765210:  124052125730                           ;"*@J*O8"
765211:  000000024764  pbyte                    ;"   "GT"
765212:  124052000300                           ;"*@J # "
765213:  000000024766  pby2                     ;"   "GV"
765214:  111650343560                           ;").H<=P"
765215:  000000024776  bybyt                    ;"   "G^"
765216:  114400166720                           ;")D .W0"
765217:  000000025005  feed1                    ;"   "H%"
765220:  114400166600                           ;")D .V "
765221:  000000025006  feed                     ;"   "H&"
765222:  124255054000                           ;"*BM%@ "
765223:  000000025010  ppb                      ;"   "H("
765224:  124255116300                           ;"*BM)S "
765225:  000000025011  ppba                     ;"   "H)"
765226:  134773600001  ildb     tm, @600001(link);"+G[P !"
765227:  000000025012  $    0                   ;"   "H*"
765230:  115200571240                           ;")J O*@"
765231:  000000025202  gdtab                    ;"   "J""
765232:  135765025300  ldb      tm, @25300(b)   ;"+OU"K "
765233:  000000025402  %asq                     ;"   "L""
765234:  135776635300  ldb      tm, @635300(ch2);"+O^SK "
765235:  000000025411  %bsq                     ;"   "L)"
765236:  136010445300  idpb     ff, 445300(t)   ;"+P(DK "
765237:  000000025420  %csq                     ;"   "L0"
765240:  136022255300  idpb     ff, @255300(i)  ;"+P25K "
765241:  000000025427  %dsq                     ;"   "L7"
765242:  136034065300  idpb     ff, @65300(f)   ;"+P<&K "
765243:  000000025436  %esq                     ;"   "L>"
765244:  136045675300  idpb     p, 675300(b)    ;"+PEWK "
765245:  000000025445  %fsq                     ;"   "LE"
765246:  136057505300  idpb     p, 505300(tm)   ;"+POHK "
765247:  000000025454  %gsq                     ;"   "LL"
765250:  136071315300  idpb     p, @315300(tt)  ;"+PY9K "
765251:  000000025463  %hsq                     ;"   "LS"
765252:  136103125300  idpb     i, 125300(aa)   ;"+Q#*K "
765253:  000000025472  %isq                     ;"   "LZ"
765254:  136114735300  idpb     i, 735300(f)    ;"+Q,[K "
765255:  000000025501  %jsq                     ;"   "M!"
765256:  136126545300  idpb     i, @545300(c)   ;"+Q6LK "
765257:  000000025510  %ksq                     ;"   "M("
765260:  136140355300  idpb     aa, 355300      ;"+Q@=K "
765261:  000000025517  %lsq                     ;"   "M/"
765262:  136152165300  idpb     aa, 165300(sym) ;"+QJ.K "
765263:  000000025526  %msq                     ;"   "M6"
765264:  136163775300  idpb     aa, @775300(aa) ;"+QS_K "
765265:  000000025535  %nsq                     ;"   "M="
765266:  136175605300  idpb     aa, @605300(ch1);"+Q]PK "
765267:  000000025544  %osq                     ;"   "MD"
765270:  136207415300  idpb     a, 415300(d)    ;"+R'AK "
765271:  000000025553  %psq                     ;"   "MK"
765272:  136221225300  idpb     a, @225300(p)   ;"+R12K "
765273:  000000025562  %qsq                     ;"   "MR"
765274:  136233035300  idpb     a, @35300(link) ;"+R;#K "
765275:  000000025571  %rsq                     ;"   "MY"
765276:  136244645300  idpb     b, 645300(a)    ;"+RDTK "
765277:  000000025600  %ssq                     ;"   "N "
765300:  136256455300  idpb     b, 455300(ch2)  ;"+RNEK "
765301:  000000025607  %tsq                     ;"   "N'"
765302:  136270265300  idpb     b, @265300(t)   ;"+RX6K "
765303:  000000025616  %usq                     ;"   "N."
765304:  136302075300  idpb     c, 75300(i)     ;"+S"'K "
765305:  000000025625  %vsq                     ;"   "N5"
765306:  136313705300  idpb     c, 705300(link) ;"+S+XK "
765307:  000000025634  %wsq                     ;"   "N<"
765310:  136325515300  idpb     c, @515300(b)   ;"+S5IK "
765311:  000000025643  %xsq                     ;"   "NC"
765312:  136337325300  idpb     c, @325300(tm)  ;"+S?:K "
765313:  000000025652  %ysq                     ;"   "NJ"
765314:  136351135300  idpb     d, 135300(tt)   ;"+SI+K "
765315:  000000025661  %zsq                     ;"   "NQ"
765316:  135635115300  ldb      f, @115300(ch1) ;"+N=)K "
765317:  000000025670  %1sq                     ;"   "NX"
765320:  135646725300  ldb      ch1, 725300(c)  ;"+NFZK "
765321:  000000025677  %2sq                     ;"   "N_"
765322:  135660535300  ldb      ch1, @535300    ;"+NPKK "
765323:  000000025706  %3sq                     ;"   "O&"
765324:  135672345300  ldb      ch1, @345300(sym);"+NZ<K "
765325:  000000025715  %4sq                     ;"   "O-"
765326:  135704155300  ldb      ch2, 155300(a)  ;"+O$-K "
765327:  000000025724  %5sq                     ;"   "O4"
765330:  135715765300  ldb      ch2, 765300(ch1);"+O-^K "
765331:  000000025733  %6sq                     ;"   "O;"
765332:  135727575300  ldb      ch2, @575300(d) ;"+O7OK "
765333:  000000025742  %7sq                     ;"   "OB"
765334:  135741405300  ldb      tm, 405300(p)   ;"+OA@K "
765335:  000000025751  %8sq                     ;"   "OI"
765336:  135753215300  ldb      tm, 215300(link);"+OK1K "
765337:  000000025760  %9sq                     ;"   "OP"
765340:  135623305300  ldb      f, @305300(aa)  ;"+N38K "
765341:  000000025767  %0sq                     ;"   "OW"
765342:  136374555300  idpb     d, @555300(f)   ;"+S\MK "
765343:  000000025776  %$sq                     ;"   "O^"
765344:  136406365300  idpb     t, 365300(c)    ;"+T&>K "
765345:  000000026005  %%sq                     ;"   "P%"
765346:  136362745300  idpb     d, @745300(i)   ;"+SR\K "
765347:  000000026014  %.sq                     ;"   "P,"
765350:  121607117504                           ;"*.')]$"
765351:  000000026023  mactab                   ;"   "P3"
765352:  116755044720                           ;")WM$G0"
765353:  000000026024  init1                    ;"   "P4"
765354:  126476607000                           ;"*T^PX "
765355:  000000026042  sp2                      ;"   "PB"
765356:  126476412000                           ;"*T^A0 "
765357:  000000026044  sp1                      ;"   "PD"
765360:  134773600003  ildb     tm, @600003(link);"+G[P #"
765361:  000000026061  $    2                   ;"   "PQ"
765362:  117041611174                           ;")XAQ)\"
765363:  000000026063  isymtb                   ;"   "PS"
765364:  113644160132                           ;")>D.!:"
765365:  000000026631  eisym1                   ;"   "V9"
765366:  113644160166                           ;")>D.!V"
765367:  000000027203  eisymt                   ;"   "Z#"
765370:  111437546100                           ;"),?LQ "
765371:  000000066023  bkbuf                    ;"   &P3"
765372:  115315603540                           ;")K-P=@"
765373:  000000066067  glotb                    ;"   &PW"
765374:  126545060000                           ;"*UE&  "
765375:  000000073110  st                       ;"   '9("
765376:  103457437256                           ;"(<OCZN"
765377:  000000243050  3rdwrd                   ;"   48H"
765400:  112320147026                           ;")30,X6"
765401:  000000275041  conbit                   ;"   7HA"
765402:  112320236504                           ;")303U$"
765403:  000000276351  contab                   ;"   7SI"
765404:  124061176540                           ;"*@Q/U@"
765405:  000000327351  pcntb                    ;"   :[I"
765406:  112320166711                           ;")30.W)"
765407:  000000327651  conglo                   ;"   :^I"
765410:  130506342504                           ;"+%&<5$"
765411:  000000335651  vartab                   ;"   ;NI"
765412:  126554071011                           ;"*UL'()"
765413:  000000335751  strsto                   ;"   ;OI"
765414:  113105773750                           ;")9%_?H"
765415:  000000336151  dmydef                   ;"   ;QI"
765416:  113177303100                           ;")9_89 "
765417:  000000336171  dstg                     ;"   ;QY"
765420:  113105762606                           ;")9%^6&"
765421:  000000336571  dmyagt                   ;"   ;UY"
765422:  127301315220                           ;"*[!9J0"
765423:  000000342571  toppp                    ;"   <5Y"
765424:  121607103306                           ;"*.'(;&"
765425:  000000342571  toppp                    ;"   <5Y"
765426:  115166665000                           ;")IVVH "
765427:  000000345571  gcsv                     ;"   <MY"
765430:  121264324565                           ;"**T:EU"
765431:  000000345607  lstloc                   ;"   <N'"
765432:  134773600004  ildb     tm, @600004(link);"+G[P $"
765433:  000000345610  $    3                   ;"   <N("
765434:  125474673300                           ;"*L\W; "
765435:  000000016150  rch2                     ;"   !QH"
765436:  115435424733                           ;")L=BG;"
765437:  000000021504  gtvl1a                   ;"   "-$"
765440:  503332013300  hlls     c, @13300(sym)  ;"H;:!; "
765441:  000000040000  vot                      ;"   $  "
765442:  121212121312                           ;"****+*"
765443:  000000015344  logic1                   ;"   !KD"
765444:  112307767320                           ;")3'^[0"
765445:  000000024053  cntp1                    ;"   "@K"
765446:  124365337720                           ;"*CU;_0"
765447:  000000022737  pwrd1                    ;"   "7?"
765450:  111021325460                           ;")(1:LP"
765451:  000000024352  aword                    ;"   "CJ"
765452:  124052125730                           ;"*@J*O8"
765453:  000000024764  pbyte                    ;"   "GT"
765454:  126355513272                           ;"*SMI:Z"
765455:  000000015123  sgtsy1                   ;"   !I3"
765456:  124365340056                           ;"*CU< N"
765457:  000000022670  pwrd3d                   ;"   "6X"
765460:  122066714120                           ;"*0VYA0"
765461:  000000016524  mscn1                    ;"   !U4"
765462:  115435425350                           ;")L=BKH"
765463:  000000021541  gtvl8                    ;"   "-A"
765464:  124302357020                           ;"*C"=X0"
765465:  000000023015  prim1                    ;"   "8-"
765466:  115316552370                           ;")K.M3X"
765467:  000000014705  glsp2                    ;"   !G%"
765470:  121264160126                           ;"**T.!6"
765471:  000000020321  lssth5                   ;"   "#1"
765472:  122723333620                           ;"*73;>0"
765473:  000000015567  numc1                    ;"   !MW"
765474:  110611327415                           ;")&):\-"
765475:  000000017576  airps4                   ;"   !]^"
765476:  115435425540                           ;")L=BM@"
765477:  000000021575  gtvlb                    ;"   "-]"
765500:  110473352130                           ;")$[=18"
765501:  000000024220  aasc6                    ;"   "B0"
765502:  521024013146  hlloi    ff, @13146(a)   ;"J(4!9F"
765503:  000000000003  aa                       ;"     #"
765504:  117025574640                           ;")X5OF@"
765505:  000000015071  irpcr                    ;"   !HY"
765506:  114545107134                           ;")EE(Y<"
765507:  000000014707  forpnr                   ;"   !G'"
765510:  126633345112                           ;"*V;<I*"
765511:  000000014756  syloc1                   ;"   !GN"
765512:  126504753606                           ;"*U$]>&"
765513:  000000026027  spread                   ;"   "P7"
765514:  124046207010                           ;"*@F0X("
765515:  000000022411  pbits                    ;"   "4)"
765516:  130160460676                           ;"+!PF&^"
765517:  000000016063  usvwld                   ;"   !PS"
765520:  521076134300  hlloi    p, @134300(ch2) ;"J(^+C " "T#q8`"
765521:  000000000007  d                        ;"     '"
765522:  516033512000  hrlzm    ff, @512000(link);"IP;I0 "
765523:  000000100000  hfwdf                    ;"   (  "
765524:  111654647120                           ;").LTY0"
765525:  000000015004  bytwp                    ;"   !H$"
765526:  115164055300                           ;")IT%K "
765527:  000000015072  gchi                     ;"   !HZ"
765530:  115424404003                           ;")L4@@#"
765531:  000000016676  gsyl2a                   ;"   !V^"
765532:  124052000300                           ;"*@J # "
765533:  000000024766  pby2                     ;"   "GV"
765534:  125512344603                           ;"*M*<F#"
765535:  000000016271  rdwr2a                   ;"   !RY"
765536:  110747125370                           ;")'G*KX"
765537:  000000024303  asbp2                    ;"   "C#"
765540:  124217501520                           ;"*B/H-0"
765541:  000000024646  pmacp                    ;"   "FF"
765542:  112116100670                           ;")1.(&X"
765543:  000000015237  cbak2                    ;"   !J?"
765544:  121607102200                           ;"*.'(2 "
765545:  000000015023  macp                     ;"   !H3"
765546:  111654610160                           ;").LQ!P"
765547:  000000015003  bytmt                    ;"   !H#"
765550:  111004166653                           ;")($.VK"
765551:  000000020513  avar3a                   ;"   "%+"
765552:  113106056742                           ;")9&%WB"
765553:  000000016661  dmytr1                   ;"   !VQ"
765554:  512353050000  hllzm    d, 50000(link)  ;"I3K%  " "RNXP\0"
765555:  000000000004  a                        ;"     $"
765556:  121644726502                           ;"*.DZU""
765557:  000000015066  mdepth                   ;"   !HV"
765560:  114000026000                           ;")@ "P "
765561:  000000022010  es5                      ;"   "0("
765562:  122114525622                           ;"*1,JN2"
765563:  000000015241  multp1                   ;"   !JA"
765564:  112110635332                           ;")1(SK:"
765565:  000000017742  cassm1                   ;"   !_B"
765566:  124342244200                           ;"*CB4B "
765567:  000000016410  put1                     ;"   !T("
765570:  117041611174                           ;")XAQ)\"
765571:  000000026063  isymtb                   ;"   "PS"
765572:  115212473316                           ;")J*G;."
765573:  000000015410  getsyl                   ;"   !L("
765574:  121214322272                           ;"**,:2Z"
765575:  000000021224  lopra1                   ;"   "*4"
765576:  136406365300  idpb     t, 365300(c)    ;"+T&>K "
765577:  000000026005  %%sq                     ;"   "P%"
765600:  124365340042                           ;"*CU< B"
765601:  000000022650  pwrd31                   ;"   "6H"
765602:  126435110360                           ;"*T=)#P"
765603:  000000024411  sload                    ;"   "D)"
765604:  125517441460                           ;"*M/D,P"
765605:  000000015056  redpt                    ;"   !HN"
765606:  116757531062                           ;")WOK(R"
765607:  000000022321  intfd1                   ;"   "31"
765610:  121607075630                           ;"*.''N8"
765611:  000000015033  macnm                    ;"   !H;"
765612:  121607033640                           ;"*.'#>@"
765613:  000000016613  maccr                    ;"   !V+"
765614:  113760334200                           ;")?P;B "
765615:  000000021272  eql1                     ;"   "*Z"
765616:  522011734601  hllom    ff, 734601(tt)  ;"J0)[F!"
765617:  000000000100  foo                      ;"    ! "
765620:  112320146654                           ;")30,VL"
765621:  000000020255  conbg3                   ;"   ""M"
765622:  130116110540                           ;"+!.)%@"
765623:  000000015654  uparr                    ;"   !NL"
765624:  110541234177                           ;")%A3A_"
765625:  000000023261  aend5e                   ;"   ":Q"
765626:  110611327460                           ;")&):\P"
765627:  000000015070  airpt                    ;"   !HX"
765630:  130504755520                           ;"+%$]M0"
765631:  000000024266  valr1                    ;"   "BV"
765632:  116033511506                           ;")P;I-&"
765633:  000000015110  hfwdad                   ;"   !I("
765634:  112320153600                           ;")30-> "
765635:  000000017266  cond                     ;"   !ZV"
765636:  126633534153                           ;"*V;KAK"
765637:  000000016324  symmg2                   ;"   !S4"
765640:  126272641712                           ;"*RZT/*"
765641:  000000022750  sblks1                   ;"   "7H"
765642:  124046207014                           ;"*@F0X,"
765643:  000000022373  pbits3                   ;"   "3["
765644:  127677512200                           ;"*^_I2 "
765645:  000000015724  uar1                     ;"   !O4"
765646:  136034065300  idpb     ff, @65300(f)   ;"+P<&K "
765647:  000000025436  %esq                     ;"   "L>"
765650:  111066403220                           ;")(V@:0"
765651:  000000024630  a.go1                    ;"   "F8"
765652:  115435426622                           ;")L=BV2"
765653:  000000021640  gtvlp1                   ;"   ".@"
765654:  110753571012                           ;")'KO(*"
765655:  000000024307  asuds1                   ;"   "C'"
765656:  111454417230                           ;"),LAZ8"
765657:  000000014772  blockf                   ;"   !GZ"
765660:  136152165300  idpb     aa, 165300(sym) ;"+QJ.K "
765661:  000000025526  %msq                     ;"   "M6"
765662:  112206507000                           ;")2&HX "
765663:  000000000016  ch2                      ;"     ."
765664:  115424403734                           ;")L4@?<"
765665:  000000016716  gsyl1b                   ;"   !W."
765666:  130506256436                           ;"+%&5T>"
765667:  000000014740  varcnt                   ;"   !G@"
765670:  126477201000                           ;"*T_0( "
765671:  000000021005  sp4                      ;"   "(%"
765672:  110716050132                           ;")'.%!:"
765673:  000000021142  apsym1                   ;"   ")B"
765674:  110747707062                           ;")'GXXR"
765675:  000000023731  asend1                   ;"   "?9"
765676:  124313772020                           ;"*C+_00"
765677:  000000016141  pshm1                    ;"   !QA"
765700:  131562637377                           ;"+-RS[_"
765701:  000000017046  wrqote                   ;"   !XF"
765702:  126633477470                           ;"*V;G\X"
765703:  000000024100  symda                    ;"   "A "
765704:  124051775200                           ;"*@I_J "
765705:  000000024750  pby1                     ;"   "GH"
765706:  124206460330                           ;"*B&F#8"
765707:  000000023167  pldcm                    ;"   "9W"
765710:  135672345300  ldb      ch1, @345300(sym);"+NZ<K "
765711:  000000025715  %4sq                     ;"   "O-"
765712:  130764660270                           ;"+'TV"X"
765713:  000000022047  vsm3a                    ;"   "0G"
765714:  111066403410                           ;")(V@<("
765715:  000000024661  a.go4                    ;"   "FQ"
765716:  521043521120  hlloi    p, 521120(aa)   ;"J(CJ)0"
765717:  000000000007  d                        ;"     '"
765720:  136163775300  idpb     aa, @775300(aa) ;"+QS_K "
765721:  000000025535  %nsq                     ;"   "M="
765722:  110671422317                           ;")&YB3/"
765723:  000000023456  anosym                   ;"   "<N"
765724:  110570065522                           ;")%X&M2"
765725:  000000024573  ag.sp1                   ;"   "E["
765726:  112333415400                           ;")3;AL "
765727:  000000015044  cptr                     ;"   !HD"
765730:  126633477110                           ;"*V;GY("
765731:  000000023761  symd4                    ;"   "?Q"
765732:  125474662000                           ;"*L\V0 "
765733:  000000016145  arch                     ;"   !QE"
765734:  111066421762                           ;")(VB/R"
765735:  000000024533  a.gst1                   ;"   "E;"
765736:  113760362100                           ;")?P>1 "
765737:  000000021215  eql8                     ;"   "*-"
765740:  512763177534  hllzm    tm, @177534(aa) ;"I7S/]<"
765741:  000000300000  defgvr                   ;"   8  "
765742:  122626361003                           ;"*66>(#"
765743:  000000020705  nocon2                   ;"   "'%"
765744:  112320013572                           ;")30!=Z"
765745:  000000022255  comma1                   ;"   "2M"
765746:  112353137250                           ;")3K+ZH"
765747:  000000016352  crdwr7                   ;"   !SJ"
765750:  110611325700                           ;")&):O "
765751:  000000017521  airp7                    ;"   !]1"
765752:  121120772352                           ;"*)0_3J"
765753:  000000014742  limbo1                   ;"   !GB"
765754:  123533612732                           ;"*=;Q7:"
765755:  000000021326  outde1                   ;"   "+6"
765756:  110543643200                           ;")%CT: "
765757:  000000023663  aexp                     ;"   ">S"
765760:  136045675300  idpb     p, 675300(b)    ;"+PEWK "
765761:  000000025445  %fsq                     ;"   "LE"
765762:  112356060646                           ;")3N&&F"
765763:  000000015075  crptct                   ;"   !H]"
765764:  110473351633                           ;")$[=.;"
765765:  000000024163  aasc1a                   ;"   "AS"
765766:  115165642110                           ;")IUT1("
765767:  000000017767  gcol4                    ;"   !_W"
765770:  110750732163                           ;")'H[1S"
765771:  000000024133  asixbi                   ;"   "A;"
765772:  121216070460                           ;"**.'$P"
765773:  000000015550  lowpt                    ;"   !MH"
765774:  123716253370                           ;"*?.5;X"
765775:  000000021035  p2ini                    ;"   "(="
765776:  110645715740                           ;")&EYO@"
765777:  000000023404  aloc3                    ;"   "<$"
766000:  124261071147                           ;"*BQ')G"
766001:  000000014703  pprime                   ;"   !G#"
766002:  111066000675                           ;")(V &]"
766003:  000000023072  a.eldc                   ;"   "8Z"
766004:  136270265300  idpb     b, @265300(t)   ;"+RX6K "
766005:  000000025616  %usq                     ;"   "N."
766006:  121027521216                           ;"*(7J*."
766007:  000000010000  macrch                   ;"   !  "
766010:  125512344520                           ;"*M*<E0"
766011:  000000016374  rdwr1                    ;"   !S\"
766012:  126633560014                           ;"*V;N ,"
766013:  000000015055  symstr                   ;"   !HM"
766014:  116065037256                           ;")PU#ZN"
766015:  000000015545  highpt                   ;"   !ME"
766016:  126526257020                           ;"*U65X0"
766017:  000000023654  srim1                    ;"   ">L"
766020:  111067542535                           ;")(WL5="
766021:  000000023031  a.lifs                   ;"   "89"
766022:  112307607610                           ;")3'P^("
766023:  000000020045  cnstc                    ;"   " E"
766024:  112263115500                           ;")2S)M "
766025:  000000014723  cloc                     ;"   !G3"
766026:  110525145742                           ;")%5,OB"
766027:  000000016344  addtr1                   ;"   !SD"
766030:  122073003410                           ;"*0[ <("
766031:  000000016451  mstg4                    ;"   !TI"
766032:  111070747364                           ;")(X\[T"
766033:  000000017125  a.qot3                   ;"   !Y5"
766034:  112320153720                           ;")30-?0"
766035:  000000017314  cond1                    ;"   ![,"
766036:  114545122504                           ;")EE*5$"
766037:  000000022112  fortab                   ;"   "1*"
766040:  124302356700                           ;"*C"=W "
766041:  000000023010  prim                     ;"   "8("
766042:  110541234173                           ;")%A3A["
766043:  000000023246  aend5a                   ;"   ":F"
766044:  113760335072                           ;")?P;HZ"
766045:  000000021430  eql1a1                   ;"   ",8"
766046:  112110611033                           ;")1(Q(;"
766047:  000000021264  casm1a                   ;"   "*T"
766050:  116755045110                           ;")WM$I("
766051:  000000020767  init4                    ;"   "'W"
766052:  125722411200                           ;"*O2A* "
766053:  000000015403  rru1                     ;"   !L#"
766054:  512274376000  hllzm    b, @376000(f)   ;"I2\?P " "RKc|\0"
766055:  000000000000                           ;"      "
766056:  113154113377                           ;")9L);_"
766057:  000000015770  dquote                   ;"   !OX"
766060:  127141560300                           ;"*YAN# "
766061:  000000024145  text7                    ;"   "AE"
766062:  111067562541                           ;")(WN5A"
766063:  000000023243  a.lnko                   ;"   ":C"
766064:  112307606770                           ;")3'PWX"
766065:  000000020064  cnst2                    ;"   " T"
766066:  121015660012                           ;"*(-V *"
766067:  000000020561  lbrak1                   ;"   "%Q"
766070:  115435571230                           ;")L=O*8"
766071:  000000022242  gtwd6                    ;"   "2B"
766072:  112320146661                           ;")30,VQ"
766073:  000000020262  conbg8                   ;"   ""R"
766074:  115212421060                           ;")J*B(P"
766075:  000000015152  getfd                    ;"   !IJ"
766076:  124030367500                           ;"*@8>] "
766077:  000000023150  pa2c                     ;"   "9H"
766100:  126633476720                           ;"*V;GW0"
766101:  000000024024  symd1                    ;"   "@4"
766102:  122061060100                           ;"*0Q&! "
766103:  000000000200  mrsw                     ;"    " "
766104:  110611325714                           ;")&):O,"
766105:  000000017542  airp7b                   ;"   !]B"
766106:  114545074626                           ;")EE'F6"
766107:  000000014706  format                   ;"   !G&"
766110:  122700765540                           ;"*7 ^M@"
766111:  000000016026  nsqtb                    ;"   !P6"
766112:  113535547200                           ;")==LZ "
766113:  000000022474  ebk1                     ;"   "4\"
766114:  124036453026                           ;"*@>E86"
766115:  000000014775  parbit                   ;"   !G]"
766116:  527731666310  hrlos    ch2, @666310(tt);"J_9VS(" "U}Nld"
766117:  000000340000  udefgv                   ;"   <  "
766120:  121606775400                           ;"*.&_L "
766121:  000000016555  mac3                     ;"   !UM"
766122:  112317626003                           ;")3/RP#"
766123:  000000021412  colon2                   ;"   ",*"
766124:  126305251065                           ;"*S%5(U"
766125:  000000017345  scond4                   ;"   ![E"
766126:  114003754200                           ;")@#]B "
766127:  000000014732  esl1                     ;"   !G:"
766130:  112307610536                           ;")3'Q%>"
766131:  000000020004  cnstnt                   ;"   " $"
766132:  115435424770                           ;")L=BGX"
766133:  000000021510  gtvl2                    ;"   "-("
766134:  110473411020                           ;")$[A(0"
766135:  000000024205  aasm1                    ;"   "B%"
766136:  112320146163                           ;")30,QS"
766137:  000000020231  conb8a                   ;"   ""9"
766140:  521026752274  hlloi    ff, @752274(c)  ;"J(6]2\" "T!7T^"
766141:  000000031000  lcontb                   ;"   #( "
766142:  126554073624                           ;"*UL'>4"
766143:  000000016745  strtp3                   ;"   !WE"
766144:  113106056770                           ;")9&%WX"
766145:  000000016646  dmytrn                   ;"   !VF"
766146:  522643644500  hllom    ch1, 644500(aa) ;"J6CTE "
766147:  000000001000  nprc                     ;"    ( "
766150:  125713527000                           ;"*O+JX "
766151:  000000016016  rr2                      ;"   !P."
766152:  110473352703                           ;")$[=7#"
766153:  000000024277  aascf2                   ;"   "B_"
766154:  110473352060                           ;")$[=0P"
766155:  000000024232  aasc5                    ;"   "B:"
766156:  115435425662                           ;")L=BNR"
766157:  000000021503  gtvld1                   ;"   "-#"
766160:  113760335227                           ;")?P;J7"
766161:  000000021320  eql1ce                   ;"   "+0"
766162:  115200571240                           ;")J O*@"
766163:  000000025202  gdtab                    ;"   "J""
766164:  130162671620                           ;"+!RW.0"
766165:  000000015506  ut141                    ;"   !M&"
766166:  126305250443                           ;"*S%5$C"
766167:  000000020655  scon6a                   ;"   "&M"
766170:  110541234110                           ;")%A3A("
766171:  000000023130  aend4                    ;"   "98"
766172:  510737057020  hllz     ch2, @57020(tm) ;"I'?%X0"
766173:  000000000004  a                        ;"     $"
766174:  125517413215                           ;"*M/A:-"
766175:  000000016232  redinc                   ;"   !R:"
766176:  110611325370                           ;")&):KX"
766177:  000000017436  airp2                    ;"   !\>"
766200:  113773644566                           ;")?[TEV"
766201:  000000023616  errret                   ;"   ">."
766202:  116640316674                           ;")V@9V\"
766203:  000000022065  ifortb                   ;"   "0U"
766204:  115435425244                           ;")L=BJD"
766205:  000000021572  gtvl6b                   ;"   "-Z"
766206:  115435571040                           ;")L=O(@"
766207:  000000022201  gtwd3                    ;"   "2!"
766210:  111071360602                           ;")(Y>&""
766211:  000000017212  a.stop                   ;"   !Z*"
766212:  124255116300                           ;"*BM)S "
766213:  000000025011  ppba                     ;"   "H)"
766214:  521040531210  hlloi    p, 531210       ;"J(@K*("
766215:  000000000006  c                        ;"     &"
766216:  124300735060                           ;"*C [HP"
766217:  000000015045  prcal                    ;"   !HE"
766220:  522444152210  hllom    tt, 152210(a)   ;"J4D-2(" "TR!TD"
766221:  000000000100  foo                      ;"    ! "
766222:  113760337300                           ;")?P;[ "
766223:  000000021261  eql2                     ;"   "*Q"
766224:  115435425160                           ;")L=BIP"
766225:  000000021610  gtvl5                    ;"   ".("
766226:  111070356200                           ;")(X=R "
766227:  000000024107  a.op                     ;"   "A'"
766230:  123452674200                           ;"*<JWB "
766231:  000000014727  opt1                     ;"   !G7"
766232:  122723417265                           ;"*73AZU"
766233:  000000015606  numsl4                   ;"   !N&"
766234:  135741405300  ldb      tm, 405300(p)   ;"+OA@K "
766235:  000000025751  %8sq                     ;"   "OI"
766236:  125522410110                           ;"*M2A!("
766237:  000000017234  rept4                    ;"   !Z<"
766240:  131563442710                           ;"+-SD7("
766241:  000000016751  wrtss                    ;"   !WI"
766242:  125475017102                           ;"*L]!Y""
766243:  000000016204  rchsv1                   ;"   !R$"
766244:  116755044770                           ;")WM$GX"
766245:  000000021000  init2                    ;"   "( "
766246:  110342646545                           ;")#BTUE"
766247:  000000024356  a1pass                   ;"   "CN"
766250:  503461365400  hlls     tt, @365400(p)  ;"H<Q>L "
766251:  000000200000  dfld                     ;"   0  "
766252:  110753201532                           ;")'K0-:"
766253:  000000021103  a.qote                   ;"   ")#"
766254:  511420360000  hllzi    t, @360000      ;"I,0>  "
766255:  000000000400  disize                   ;"    $ "
766256:  126633500462                           ;"*V;H$R"
766257:  000000023743  symdmp                   ;"   "?C"
766260:  124365340053                           ;"*CU< K"
766261:  000000022651  pwrd3a                   ;"   "6I"
766262:  112370107400                           ;")3X(\ "
766263:  000000014747  csqz                     ;"   !GG"
766264:  122055061405                           ;"*0M&,%"
766265:  000000016163  mrch2c                   ;"   !QS"
766266:  126477004000                           ;"*T_ @ "
766267:  000000026031  sp3                      ;"   "P9"
766270:  115212421064                           ;")J*B(T"
766271:  000000015177  getfd3                   ;"   !I_"
766272:  110473353134                           ;")$[=9<"
766273:  000000024126  aasciz                   ;"   "A6"
766274:  123772475000                           ;"*?ZGH "
766275:  000000021362  p70                      ;"   "+R"
766276:  116766634246                           ;")WVSBF"
766277:  000000023736  ioinst                   ;"   "?>"
766300:  113760335154                           ;")?P;IL"
766301:  000000021427  eql1bb                   ;"   ",7"
766302:  125677505462                           ;"*N_HLR"
766303:  000000022660  rpwrd1                   ;"   "6P"
766304:  124342366556                           ;"*CB>UN"
766305:  000000016275  putrel                   ;"   !R]"
766306:  110645715500                           ;")&EYM "
766307:  000000023307  aloc                     ;"   ";'"
766310:  126526256700                           ;"*U65W "
766311:  000000023661  srim                     ;"   ">Q"
766312:  111726100000                           ;")/6(  "
766313:  000000000006  c                        ;"     &"
766314:  125623472074                           ;"*N3G0\"
766315:  000000022730  rlcerr                   ;"   "78"
766316:  115212410054                           ;")J*A L"
766317:  000000016147  getchr                   ;"   !QG"
766320:  112763224010                           ;")7S2@("
766321:  000000016772  defnc                    ;"   !WZ"
766322:  123447256000                           ;"*<G5P "
766323:  000000020267  open                     ;"   ""W"
766324:  110473352320                           ;")$[=30"
766325:  000000024242  aasc9                    ;"   "BB"
766326:  125715105000                           ;"*O-(H "
766327:  000000015425  rr8                      ;"   !L5"
766330:  110473351620                           ;")$[=.0"
766331:  000000024136  aasc1                    ;"   "A>"
766332:  110503440074                           ;")%#D \"
766333:  000000023445  ablk5b                   ;"   "<E"
766334:  111300037200                           ;")+ #Z "
766335:  000000015765  bak1                     ;"   !OU"
766336:  127141560160                           ;"*YAN!P"
766337:  000000024261  text5                    ;"   "BQ"
766340:  111324546733                           ;")+4LW;"
766341:  000000024615  bcompa                   ;"   "F-"
766342:  126305250000                           ;"*S%5  "
766343:  000000020603  scon                     ;"   "&#"
766344:  112534600000                           ;")5<P  "
766345:  000000000007  d                        ;"     '"
766346:  125512344606                           ;"*M*<F&"
766347:  000000016260  rdwr2d                   ;"   !RP"
766350:  110611325643                           ;")&):NC"
766351:  000000017512  airp6a                   ;"   !]*"
766352:  110562572016                           ;")%RO0."
766353:  000000017237  agetfd                   ;"   !Z?"
766354:  125722403000                           ;"*O2@8 "
766355:  000000015401  rru                      ;"   !L!"
766356:  122723417271                           ;"*73AZY"
766357:  000000015635  numsl8                   ;"   !N="
766360:  512356057600  hllzm    d, 57600(ch2)   ;"I3N%^ " "RNp_@"
766361:  000000000005  b                        ;"     %"
766362:  111654573234                           ;").LO:<"
766363:  000000024757  bytinr                   ;"   "GO"
766364:  503461352510  hlls     tt, @352510(p)  ;"H<Q=5("
766365:  000000100000  hfwdf                    ;"   (  "
766366:  115435425733                           ;")L=BO;"
766367:  000000021657  gtvle2                   ;"   ".O"
766370:  113760335223                           ;")?P;J3"
766371:  000000021371  eql1ca                   ;"   "+Y"
766372:  110761534253                           ;")'QKBK"
766373:  000000021324  atermi                   ;"   "+4"
766374:  124365340057                           ;"*CU< O"
766375:  000000022711  pwrd3e                   ;"   "7)"
766376:  111654645100                           ;").LTI "
766377:  000000015005  bytw                     ;"   !H%"
766400:  125522407770                           ;"*M2@_X"
766401:  000000017223  rept2                    ;"   !Z3"
766402:  110473347600                           ;")$[<^ "
766403:  000000024304  aasbf                    ;"   "C$"
766404:  127443041520                           ;"*\C$-0"
766405:  000000023643  typr1                    ;"   ">C"
766406:  110503437740                           ;")%#C_@"
766407:  000000023325  ablk3                    ;"   ";5"
766410:  115163307060                           ;")IS8XP"
766411:  000000016430  gcend                    ;"   !T8"
766412:  115165641770                           ;")IUT/X"
766413:  000000017776  c1asse                   ;"   !_^"
766414:  112307610120                           ;")3'Q!0"
766415:  000000020031  cnsth                    ;"   " 9"
766416:  113755601170                           ;")?MP)X"
766417:  000000021374  eqa2a                    ;"   "+\"
766420:  115435425376                           ;")L=BK^"
766421:  000000021564  gtvl8l                   ;"   "-T"
766422:  521211123000  hlloi    a, 123000(tt)   ;"J*)*8 " "T(I&\0"
766423:  000000100000  hfwdf                    ;"   (  "
766424:  121606767200                           ;"*.&^Z "
766425:  000000016566  mac1                     ;"   !UV"
766426:  112320146657                           ;")30,VO"
766427:  000000020237  conbg6                   ;"   ""?"
766430:  114453662000                           ;")DKV0 "
766431:  000000015620  fix                      ;"   !N0"
766432:  521272032200  hlloi    b, @32200(sym)  ;"J*Z#2 " "T+P4@"
766433:  000000000011  tt                       ;"     )"
766434:  124046207013                           ;"*@F0X+"
766435:  000000014720  pbits2                   ;"   !G0"
766436:  503531262000  hlls     sym, @262000(tt);"H=960 " "PuJd\0"
766437:  000000020000  pss                      ;"   "  "
766440:  110735054232                           ;")'=%B:"
766441:  000000015553  aradix                   ;"   !MK"
766442:  136022255300  idpb     ff, @255300(i)  ;"+P25K "
766443:  000000025427  %dsq                     ;"   "L7"
766444:  110473351634                           ;")$[=.<"
766445:  000000024246  aasc1b                   ;"   "BF"
766446:  110747703033                           ;")'GX8;"
766447:  000000021322  asem1a                   ;"   "+2"
766450:  521154060330  hlloi    aa, 60330(f)    ;"J)L&#8" "T&``l"
766451:  000000000001  p                        ;"     !"
766452:  510645603540  hllz     ch1, 603540(b)  ;"I&EP=@"
766453:  000000002000  alnscn                   ;"    0 "
766454:  512763217234  hllzm    tm, @217234(aa) ;"I7S1Z<"
766455:  000000200000  dfld                     ;"   0  "
766456:  136114735300  idpb     i, 735300(f)    ;"+Q,[K "
766457:  000000025501  %jsq                     ;"   "M!"
766460:  116757575520                           ;")WOOM0"
766461:  000000022342  intr1                    ;"   "3B"
766462:  121607031670                           ;"*.'#.X"
766463:  000000016607  macc2                    ;"   !V'"
766464:  110666610000                           ;")&VQ  "
766465:  000000015334  andf                     ;"   !K<"
766466:  112333416340                           ;")3;AS@"
766467:  000000015030  cptrb                    ;"   !H8"
766470:  111654573215                           ;").LO:-"
766471:  000000024736  bytinc                   ;"   "G>"
766472:  125522410160                           ;"*M2A!P"
766473:  000000016253  rept5                    ;"   !RK"
766474:  122073003340                           ;"*0[ ;@"
766475:  000000016453  mstg3                    ;"   !TK"
766476:  521026526711  hlloi    ff, @526711(c)  ;"J(6JW)"
766477:  000000006000  lcnglo                   ;"    P "
766500:  121264160125                           ;"**T.!5"
766501:  000000020361  lssth4                   ;"   "#Q"
766502:  524105537300  hrlo     i, 537300(b)    ;"JA%K[ "
766503:  000000000100  foo                      ;"    ! "
766504:  110611327412                           ;")&):\*"
766505:  000000017550  airps1                   ;"   !]H"
766506:  123533612750                           ;"*=;Q7H"
766507:  000000021336  outdef                   ;"   "+>"
766510:  110715611322                           ;")'-Q+2"
766511:  000000024376  aprntx                   ;"   "C^"
766512:  110473352263                           ;")$[=2S"
766513:  000000024234  aasc8a                   ;"   "B<"
766514:  522141437600  hllom    aa, 437600(p)   ;"J1AC^ " "TF\f?@"
766515:  000000004000  mwrd                     ;"    @ "
766516:  521226463000  hlloi    a, @463000(c)   ;"J*6F8 " "T)4f\0"
766517:  000000000004  a                        ;"     $"
766520:  112763224130                           ;")7S2A8"
766521:  000000017004  defne                    ;"   !X$"
766522:  110762524720                           ;")'RJG0"
766523:  000000023702  atit1                    ;"   "?""
766524:  515315526223  hrlzi    c, 526223(ch1)  ;"IK-JR3"
766525:  000000400000  ppss                     ;"   @  "
766526:  124030361300                           ;"*@8>+ "
766527:  000000023147  pa2a                     ;"   "9G"
766530:  115435365520                           ;")L=>M0"
766531:  000000021576  gtvb1                    ;"   "-^"
766532:  126633563422                           ;"*V;N<2"
766533:  000000023553  symtyp                   ;"   "=K"
766534:  112320013575                           ;")30!=]"
766535:  000000022227  comma4                   ;"   "27"
766536:  124304750050                           ;"*C$] H"
766537:  000000015037  prstg                    ;"   !H?"
766540:  124365340470                           ;"*CU<$X"
766541:  000000022525  pwrda                    ;"   "55"
766542:  111071575337                           ;")(YOK?"
766543:  000000024525  a.type                   ;"   "E5"
766544:  112206312000                           ;")2&90 "
766545:  000000000015  ch1                      ;"     -"
766546:  113777631000                           ;")?_S( "
766547:  000000021760  es4                      ;"   "/P"
766550:  124030364400                           ;"*@8>D "
766551:  000000023164  pa2b                     ;"   "9T"
766552:  512261203550  hllzm    b, @203550(p)   ;"I2Q0=H"
766553:  000000000002  i                        ;"     ""
766554:  136140355300  idpb     aa, 355300      ;"+Q@=K "
766555:  000000025517  %lsq                     ;"   "M/"
766556:  112307607540                           ;")3'P]@"
766557:  000000020056  cnstb                    ;"   " N"
766560:  124207676700                           ;"*B'WW "
766561:  000000014745  plim                     ;"   !GE"
766562:  127141560230                           ;"*YAN"8"
766563:  000000024245  text6                    ;"   "BE"
766564:  126305252262                           ;"*S%52R"
766565:  000000014743  scont1                   ;"   !GC"
766566:  130161210152                           ;"+!Q1!J"
766567:  000000016510  usymg1                   ;"   !U("
766570:  126554073623                           ;"*UL'>3"
766571:  000000016732  strtp2                   ;"   !W:"
766572:  124365337770                           ;"*CU;_X"
766573:  000000022714  pwrd2                    ;"   "7,"
766574:  112356314000                           ;")3N9@ "
766575:  000000023631  crr                      ;"   ">9"
766576:  111067566120                           ;")(WNQ0"
766577:  000000024446  a.lop                    ;"   "DF"
766600:  127443041400                           ;"*\C$, "
766601:  077000000000                           ;"'X    "
766602:  114003757300                           ;")@#][ "
766603:  000000014733  esl2                     ;"   !G;"
766604:  111065263577                           ;")(U6=_"
766605:  000000024664  a.byte                   ;"   "FT"
766606:  110672751360                           ;")&Z]+P"
766607:  000000017277  anull                    ;"   !Z_"
766610:  521203223400  hlloi    a, 223400(aa)   ;"J*#2< "
766611:  000000001000  nprc                     ;"    ( "
766612:  121762453000                           ;"*/RE8 "
766613:  000000021524  mlcudf                   ;"   "-4"
766614:  113644160132                           ;")>D.!:"
766615:  000000026631  eisym1                   ;"   "V9"
766616:  112320146653                           ;")30,VK"
766617:  000000020155  conbg2                   ;"   "!M"
766620:  126272641713                           ;"*RZT/+"
766621:  000000022760  sblks2                   ;"   "7P"
766622:  126305251100                           ;"*S%5) "
766623:  000000014771  scondf                   ;"   !GY"
766624:  121607003600                           ;"*.' > "
766625:  000000016571  mac5                     ;"   !UY"
766626:  121611045633                           ;"*.)$N;"
766627:  000000015535  maknm2                   ;"   !M="
766630:  124365340313                           ;"*CU<#+"
766631:  000000022566  pwrd7a                   ;"   "5V"
766632:  110645716060                           ;")&EYPP"
766633:  000000023415  aloc5                    ;"   "<-"
766634:  126305251062                           ;"*S%5(R"
766635:  000000017364  scond1                   ;"   ![T"
766636:  126574420000                           ;"*U\B  "
766637:  000000015060  svf                      ;"   !HP"
766640:  134126664000  ildb     i, @664000(c)   ;"+A6V@ "
766641:  400000000000  setz     ff,             ;"@     " "@\0\0\0\0"
766642:  126272637620                           ;"*RZS^0"
766643:  000000022767  sblk1                    ;"   "7W"
766644:  112141555555                           ;")1AMMM"
766645:  000000014737  cdatbc                   ;"   !G?"
766646:  527335013000  hrlos    c, @13000(ch1)  ;"J[=!8 "
766647:  000000400000  ppss                     ;"   @  "
766650:  124365340177                           ;"*CU<!_"
766651:  000000022601  pwrd5e                   ;"   "6!"
766652:  115157450000                           ;")IOE  "
766653:  000000016305  gc                       ;"   !S%"
766654:  123533672330                           ;"*=;W38"
766655:  000000022422  outsm                    ;"   "42"
766656:  114001512310                           ;")@!I3("
766657:  000000023005  esblk                    ;"   "8%"
766660:  126633477230                           ;"*V;GZ8"
766661:  000000024047  symd6                    ;"   "@G"
766662:  111004166724                           ;")($.W4"
766663:  000000020466  avar4b                   ;"   "$V"
766664:  115435425665                           ;")L=BNU"
766665:  000000021477  gtvld4                   ;"   ",_"
766666:  112320154762                           ;")30-GR"
766667:  000000014760  condep                   ;"   !GP"
766670:  113773533500                           ;")?[K= "
766671:  000000023604  err4                     ;"   ">$"
766672:  126732220000                           ;"*W:2  "
766673:  000000014712  t1                       ;"   !G*"
766674:  514452454160  hrlz     tt, 454160(sym) ;"IDJEAP"
766675:  000000400000  ppss                     ;"   @  "
766676:  110541234174                           ;")%A3A\"
766677:  000000023270  aend5b                   ;"   ":X"
766700:  116554753000                           ;")UL]8 "
766701:  000000023635  iae                      ;"   ">="
766702:  113773536600                           ;")?[KV "
766703:  000000023607  err5                     ;"   ">'"
766704:  510610565160  hllz     f, 565160(t)    ;"I&(NIP"
766705:  000000000400  disize                   ;"    $ "
766706:  112116101424                           ;")1.(,4"
766707:  000000015352  cbakar                   ;"   !KJ"
766710:  126633534152                           ;"*V;KAJ"
766711:  000000016422  symmg1                   ;"   !T2"
766712:  116757511312                           ;")WOI+*"
766713:  000000022362  intac1                   ;"   "3R"
766714:  113036164362                           ;")8>.CR"
766715:  000000015314  divid1                   ;"   !K,"
766716:  527677577300  hrlos    ch1, @577300(tm);"J^_O[ " "U{}~`"
766717:  000000000020  nuwbuf                   ;"     0"
766720:  126305250170                           ;"*S%5!X"
766721:  000000020614  scon2                    ;"   "&,"
766722:  111324546720                           ;")+4LW0"
766723:  000000015372  bcomp                    ;"   !KZ"
766724:  110736071565                           ;")'>'-U"
766725:  000000024360  areloc                   ;"   "CP"
766726:  124342310436                           ;"*CB9$>"
766727:  000000015067  putcnt                   ;"   !HW"
766730:  110464230000                           ;")$T3  "
766731:  000000000003  aa                       ;"     #"
766732:  112116100620                           ;")1.(&0"
766733:  000000015355  cbak1                    ;"   !KM"
766734:  125512344640                           ;"*M*<F@"
766735:  000000016246  rdwr3                    ;"   !RF"
766736:  115435425173                           ;")L=BI["
766737:  000000021551  gtvl5a                   ;"   "-I"
766740:  130506327136                           ;"+%&:Y>"
766741:  000000014761  varpnt                   ;"   !GQ"
766742:  125522410040                           ;"*M2A @"
766743:  000000017207  rept3                    ;"   !Z'"
766744:  115424403735                           ;")L4@?="
766745:  000000016722  gsyl1c                   ;"   !W2"
766746:  124300735112                           ;"*C [I*"
766747:  000000015035  prcalp                   ;"   !H="
766750:  115435401040                           ;")L=@(@"
766751:  000000021701  gtver                    ;"   "/!"
766752:  521024773550  hlloi    ff, @773550(a)  ;"J(4_=H" "T!'w4"
766753:  000000000002  i                        ;"     ""
766754:  110503455135                           ;")%#EI="
766755:  000000023436  ablock                   ;"   "<>"
766756:  112317626006                           ;")3/RP&"
766757:  000000017743  colon5                   ;"   !_C"
766760:  503526246260  hlls     sym, @246260(c) ;"H=64RP" "Pu2LX"
766761:  000000001000  nprc                     ;"    ( "
766762:  115165642160                           ;")IUT1P"
766763:  000000017770  gcol5                    ;"   !_X"
766764:  113760357000                           ;")?P=X "
766765:  000000021217  eql7                     ;"   "*/"
766766:  112320167076                           ;")30.X^"
766767:  000000014752  congol                   ;"   !GJ"
766770:  126500630633                           ;"*U S&;"
766771:  000000022223  space2                   ;"   "23"
766772:  524313235000  hrlo     c, 235000(link) ;"JC+3H " "U\fZ:\0"
766773:  000000004000  mwrd                     ;"    @ "
766774:  126706600000                           ;"*W&P  "
766775:  000000000010  t                        ;"     ("
766776:  110611326212                           ;")&):R*"
766777:  000000017654  airpc1                   ;"   !^L"
767000:  111654607720                           ;").LP_0"
767001:  000000015002  bytmp                    ;"   !H""
767002:  125712740000                           ;"*O*\  "
767003:  000000015467  rr                       ;"   !LW"
767004:  122066714000                           ;"*0VY@ "
767005:  000000016513  mscn                     ;"   !U+"
767006:  513200503600  hllzs    a, 503600       ;"I: H> "
767007:  000000400000  ppss                     ;"   @  "
767010:  115212410434                           ;")J*A$<"
767011:  000000014763  getcnr                   ;"   !GS"
767012:  115424403600                           ;")L4@> "
767013:  000000016666  gsyl                     ;"   !VV"
767014:  111004166710                           ;")($.W("
767015:  000000020502  avar4                    ;"   "%""
767016:  111117400000                           ;"))/@  "
767017:  000000000005  b                        ;"     %"
767020:  114577206474                           ;")E_0T\"
767021:  000000015064  freptb                   ;"   !HT"
767022:  111071461550                           ;")(YF-H"
767023:  000000024624  a.tag                    ;"   "F4"
767024:  125474670200                           ;"*L\W" "
767025:  000000016152  rch1                     ;"   !QJ"
767026:  110525145743                           ;")%5,OC"
767027:  000000016346  addtr2                   ;"   !SF"
767030:  121264160130                           ;"**T.!8"
767031:  000000020345  lssth7                   ;"   "#E"
767032:  125720346223                           ;"*O0<R3"
767033:  000000015504  rrlm4a                   ;"   !M$"
767034:  113760335140                           ;")?P;I@"
767035:  000000021401  eql1b                    ;"   ",!"
767036:  134116040000  ildb     i, vot(ch2)     ;"+A.$  "
767037:  000000000041  zz                       ;"     A"
767040:  110473352250                           ;")$[=2H"
767041:  000000024146  aasc8                    ;"   "AF"
767042:  110735664020                           ;")'=V@0"
767043:  000000024317  ardix                    ;"   "C/"
767044:  111004170003                           ;")($/ #"
767045:  000000020372  avaria                   ;"   "#Z"
767046:  526554040600  hrlom    link, 40600(f)  ;"JUL$& " "UV`A@"
767047:  000000000200  mrsw                     ;"    " "
767050:  122626361006                           ;"*66>(&"
767051:  000000020746  nocon5                   ;"   "'F"
767052:  512717334657  hllzm    ch2, 334657(tm) ;"I7/;FO"
767053:  000000040000  vot                      ;"   $  "
767054:  126633477004                           ;"*V;GX$"
767055:  000000024034  symd2b                   ;"   "@<"
767056:  130116510755                           ;"+!.I'M"
767057:  000000015774  upctrc                   ;"   !O\"
767060:  125522412107                           ;"*M2A1'"
767061:  000000017222  repttm                   ;"   !Z2"
767062:  114000265300                           ;")@ 6K "
767063:  000000022036  es6a                     ;"   "0>"
767064:  125720245070                           ;"*O04HX"
767065:  000000015465  rrl1a                    ;"   !LU"
767066:  110611325715                           ;")&):O-"
767067:  000000017532  airp7c                   ;"   !]:"
767070:  514506745000  hrlz     sym, 745000(c)  ;"IE&\H "
767071:  000000000004  a                        ;"     $"
767072:  530506204000  hlle     sym, 204000(c)  ;"K%&0@ "
767073:  000000000002  i                        ;"     ""
767074:  112316264760                           ;")3.6GP"
767075:  000000015057  cofst                    ;"   !HO"
767076:  122723417260                           ;"*73AZP"
767077:  000000015557  numsl                    ;"   !MO"
767100:  111004166604                           ;")($.V$"
767101:  000000020517  avar2b                   ;"   "%/"
767102:  124044611026                           ;"*@DQ(6"
767103:  000000014746  pbconl                   ;"   !GF"
767104:  111066403100                           ;")(V@9 "
767105:  000000024626  a.go                     ;"   "F6"
767106:  126304306057                           ;"*S$8PO"
767107:  000000014741  scksum                   ;"   !GA"
767110:  110736105343                           ;")'>(KC"
767111:  000000017132  arepea                   ;"   !Y:"
767112:  130764657400                           ;"+'TU\ "
767113:  000000022046  vsm3                     ;"   "0F"
767114:  115211115317                           ;")J))K/"
767115:  000000016630  gensym                   ;"   !V8"
767116:  524327524000  hrlo     c, @524000(d)   ;"JC7J@ " "U\r=(\0"
767117:  000000020000  pss                      ;"   "  "
767120:  115330737720                           ;")K8[_0"
767121:  000000015271  gmul1                    ;"   !JY"
767122:  130530365110                           ;"+%8>I("
767123:  000000014777  vcloc                    ;"   !G_"
767124:  111066373564                           ;")(V?=T"
767125:  000000024510  a.glob                   ;"   "E("
767126:  110503437670                           ;")%#C^X"
767127:  000000023443  ablk2                    ;"   "<C"
767130:  124304663402                           ;"*C$V<""
767131:  000000015040  prscn1                   ;"   !H@"
767132:  116653332460                           ;")VK;4P"
767133:  000000024310  igtxt                    ;"   "C("
767134:  112320146660                           ;")30,VP"
767135:  000000020243  conbg7                   ;"   ""C"
767136:  126633477160                           ;"*V;GYP"
767137:  000000023753  symd5                    ;"   "?K"
767140:  111071360622                           ;")(Y>&2"
767141:  000000017217  a.stp1                   ;"   !Z/"
767142:  113760335260                           ;")?P;JP"
767143:  000000021307  eql1d                    ;"   "+'"
767144:  122114525624                           ;"*1,JN4"
767145:  000000015246  multp3                   ;"   !JF"
767146:  113760335226                           ;")?P;J6"
767147:  000000021366  eql1cd                   ;"   "+V"
767150:  521024361711  hlloi    ff, @361711(a)  ;"J(4>/)"
767151:  000000000004  a                        ;"     $"
767152:  521154340600  hlloi    aa, 340600(f)   ;"J)L<& " "T&cA@"
767153:  000000000020  nuwbuf                   ;"     0"
767154:  123310662565                           ;"*;(V5U"
767155:  000000014726  ofrloc                   ;"   !G6"
767156:  121116206600                           ;"*).0V "
767157:  000000023117  lib5                     ;"   "9/"
767160:  136071315300  idpb     p, @315300(tt)  ;"+PY9K "
767161:  000000025463  %hsq                     ;"   "LS"
767162:  111067542274                           ;")(WL2\"
767163:  000000024477  a.libr                   ;"   "D_"
767164:  126635160130                           ;"*V=.!8"
767165:  000000014755  sysym                    ;"   !GM"
767166:  115165642040                           ;")IUT0@"
767167:  000000017765  gcol3                    ;"   !_U"
767170:  121606776340                           ;"*.&_S@"
767171:  000000016560  mac3b                    ;"   !UP"
767172:  112317626002                           ;")3/RP""
767173:  000000017720  colon1                   ;"   !_0"
767174:  121050247620                           ;"*(H4^0"
767175:  000000020533  leftp                    ;"   "%;"
767176:  116770746120                           ;")WX\Q0"
767177:  000000015341  iorf1                    ;"   !KA"
767200:  135551362000  ldb      link, 362000(tt);"+MI>0 "
767201:  000000021646  $.h                      ;"   ".F"
767202:  112307607470                           ;")3'P\X"
767203:  000000020106  cnsta                    ;"   "!&"
767204:  513100676126  hllzs    i, 676126       ;"I9 WQ6"
767205:  000000000020  nuwbuf                   ;"     0"
767206:  116375700000                           ;")S]X  "
767207:  000000000002  i                        ;"     ""
767210:  125713335100                           ;"*O+;I "
767211:  000000015427  rr10                     ;"   !L7"
767212:  122073003270                           ;"*0[ :X"
767213:  000000016431  mstg2                    ;"   !T9"
767214:  124255054000                           ;"*BM%@ "
767215:  000000025010  ppb                      ;"   "H("
767216:  121727763110                           ;"*/7^9("
767217:  000000015233  minus                    ;"   !J;"
767220:  122723417264                           ;"*73AZT"
767221:  000000015601  numsl3                   ;"   !N!"
767222:  111004166570                           ;")($.UX"
767223:  000000020411  avar2                    ;"   "$)"
767224:  115435425022                           ;")L=BH2"
767225:  000000021523  gtvl2p                   ;"   "-3"
767226:  136175605300  idpb     aa, @605300(ch1);"+Q]PK "
767227:  000000025544  %osq                     ;"   "MD"
767230:  123453023770                           ;"*<K"?X"
767231:  000000014731  optt2                    ;"   !G9"
767232:  121607033260                           ;"*.'#:P"
767233:  000000016527  maccl                    ;"   !U7"
767234:  124321552000                           ;"*C1M0 "
767235:  000000015615  pt1                      ;"   !N-"
767236:  126355513270                           ;"*SMI:X"
767237:  000000015116  sgtsy                    ;"   !I."
767240:  110566241064                           ;")%V4(T"
767241:  000000017243  agtfd3                   ;"   !ZC"
767242:  110753201533                           ;")'K0-;"
767243:  000000021123  assem2                   ;"   ")3"
767244:  136057505300  idpb     p, 505300(tm)   ;"+POHK "
767245:  000000025454  %gsq                     ;"   "LL"
767246:  125512344533                           ;"*M*<E;"
767247:  000000016375  rdwr1a                   ;"   !S]"
767250:  124304663416                           ;"*C$V<."
767251:  000000015037  prstg                    ;"   !H?"
767252:  112522770000                           ;")52_  "
767253:  000000016706  c%                       ;"   !W&"
767254:  115163307100                           ;")IS8Y "
767255:  000000015062  gcendf                   ;"   !HR"
767256:  111650343560                           ;").H<=P"
767257:  000000024776  bybyt                    ;"   "G^"
767260:  115212421065                           ;")J*B(U"
767261:  000000015175  getfd4                   ;"   !I]"
767262:  123654200000                           ;"*>L0  "
767263:  000000000001  p                        ;"     !"
767264:  121035562510                           ;"*(=N5("
767265:  000000014774  ldccc                    ;"   !G\"
767266:  126633476770                           ;"*V;GWX"
767267:  000000024011  symd2                    ;"   "@)"
767270:  125512344605                           ;"*M*<F%"
767271:  000000016265  rdwr2c                   ;"   !RU"
767272:  125714710000                           ;"*O,Y  "
767273:  000000015676  rr7                      ;"   !N^"
767274:  121607117504                           ;"*.')]$"
767275:  000000026023  mactab                   ;"   "P3"
767276:  116770746000                           ;")WX\P "
767277:  000000015327  iorf                     ;"   !K7"
767300:  135646725300  ldb      ch1, 725300(c)  ;"+NFZK "
767301:  000000025677  %2sq                     ;"   "N_"
767302:  115435570720                           ;")L=O'0"
767303:  000000022160  gtwd1                    ;"   "1P"
767304:  113773530400                           ;")?[K$ "
767305:  000000023614  err3                     ;"   ">,"
767306:  127141557770                           ;"*YAM_X"
767307:  000000024270  text2                    ;"   "BX"
767310:  126305245020                           ;"*S%4H0"
767311:  000000020675  scom1                    ;"   "&]"
767312:  110570064700                           ;")%X&G "
767313:  000000024574  ag.sf                    ;"   "E\"
767314:  110645715753                           ;")&EYOK"
767315:  000000022520  aloc3a                   ;"   "50"
767316:  112133246722                           ;")1;4W2"
767317:  000000024606  ccomp1                   ;"   "F&"
767320:  530076526040  hlle     p, @526040(ch2) ;"K ^JP@"
767321:  000000002000  alnscn                   ;"    0 "
767322:  121212121310                           ;"****+("
767323:  000000015331  logic                    ;"   !K9"
767324:  125475017103                           ;"*L]!Y#"
767325:  000000016221  rchsv2                   ;"   !R1"
767326:  112763254716                           ;")7S5G."
767327:  000000015032  defval                   ;"   !H:"
767330:  124301771630                           ;"*C!_.8"
767331:  000000014765  prgnm                    ;"   !GU"
767332:  121054030000                           ;"*(L#  "
767333:  000000014736  lev                      ;"   !G>"
767334:  121264160120                           ;"**T.!0"
767335:  000000020305  lssth                    ;"   "#%"
767336:  131562637365                           ;"+-RS[U"
767337:  000000017060  wrqot4                   ;"   !XP"
767340:  112307607730                           ;")3'P_8"
767341:  000000020133  cnste                    ;"   "!;"
767342:  124070567056                           ;"*@XNXN"
767343:  000000017772  pdefpt                   ;"   !_Z"
767344:  110611327417                           ;")&):\/"
767345:  000000017420  airps6                   ;"   !\0"
767346:  113760335153                           ;")?P;IK"
767347:  000000021413  eql1ba                   ;"   ",+"
767350:  110541234160                           ;")%A3AP"
767351:  000000023244  aend5                    ;"   ":D"
767352:  110611325320                           ;")&):K0"
767353:  000000017410  airp1                    ;"   !\("
767354:  111071146240                           ;")(Y,R@"
767355:  000000017167  a.rpcn                   ;"   !YW"
767356:  124105541266                           ;"*A%L*V"
767357:  000000015123  sgtsy1                   ;"   !I3"
767360:  125720346020                           ;"*O0<P0"
767361:  000000015475  rrlm1                    ;"   !L]"
767362:  124046207054                           ;"*@F0XL"
767363:  000000021363  pbitsz                   ;"   "+S"
767364:  116757511336                           ;")WOI+>"
767365:  000000022360  intacl                   ;"   "3P"
767366:  126633345110                           ;"*V;<I("
767367:  000000014754  syloc                    ;"   !GL"
767370:  115435425243                           ;")L=BJC"
767371:  000000021567  gtvl6a                   ;"   "-W"
767372:  112763223740                           ;")7S2?@"
767373:  000000017005  defnb                    ;"   !X%"
767374:  114601760575                           ;")F!^%]"
767375:  000000015065  frptbs                   ;"   !HU"
767376:  125522410230                           ;"*M2A"8"
767377:  000000016226  rept6                    ;"   !R6"
767400:  135765025300  ldb      tm, @25300(b)   ;"+OU"K "
767401:  000000025402  %asq                     ;"   "L""
767402:  115435425230                           ;")L=BJ8"
767403:  000000021603  gtvl6                    ;"   ".#"
767404:  124246701012                           ;"*BFX(*"
767405:  000000016056  popls1                   ;"   !PN"
767406:  512317703000  hllzm    c, 703000(tm)   ;"I3/X8 "
767407:  000000000040  tpchna                   ;"     @"
767410:  122723417270                           ;"*73AZX"
767411:  000000015611  numsl7                   ;"   !N)"
767412:  124301146100                           ;"*C!,Q "
767413:  000000015043  prdef                    ;"   !HC"
767414:  110611325510                           ;")&):M("
767415:  000000017470  airp4                    ;"   !\X"
767416:  111004166723                           ;")($.W3"
767417:  000000020522  avar4a                   ;"   "%2"
767420:  112320154040                           ;")30-@@"
767421:  000000017304  cond3                    ;"   ![$"
767422:  115435425732                           ;")L=BO:"
767423:  000000021662  gtvle1                   ;"   ".R"
767424:  122114525620                           ;"*1,JN0"
767425:  000000015235  multp                    ;"   !J="
767426:  526633226000  hrlom    f, @226000(link);"JV;2P " "UYZ,\0"
767427:  000000000002  i                        ;"     ""
767430:  527731666620  hrlos    ch2, @666620(tt);"J_9VV0" "U}NmH"
767431:  000000240000  udeflv                   ;"   4  "
767432:  110543645560                           ;")%CTMP"
767433:  000000023460  aexpun                   ;"   "<P"
767434:  512402040600  hllzm    t, 40600(i)     ;"I4"$& "
767435:  000000200000  dfld                     ;"   0  "
767436:  123533611720                           ;"*=;Q/0"
767437:  000000021327  outd1                    ;"   "+7"
767440:  122055061320                           ;"*0M&+0"
767441:  000000016202  mrch1                    ;"   !R""
767442:  514544175000  hrlz     link, 175000(a) ;"IED/H "
767443:  000000014702  cdisp                    ;"   !G""
767444:  116757531064                           ;")WOK(T"
767445:  000000022331  intfd3                   ;"   "39"
767446:  512177110060  hllzm    aa, @110060(tm) ;"I1_) P"
767447:  000000100000  hfwdf                    ;"   (  "
767450:  126305250240                           ;"*S%5"@"
767451:  000000020634  scon3                    ;"   "&<"
767452:  115435425371                           ;")L=BKY"
767453:  000000021561  gtvl8g                   ;"   "-Q"
767454:  121121223775                           ;"*)12?]"
767455:  000000015101  linktc                   ;"   !I!"
767456:  112320146656                           ;")30,VN"
767457:  000000020246  conbg5                   ;"   ""F"
767460:  115435425314                           ;")L=BK,"
767461:  000000021617  gtvl7b                   ;"   "./"
767462:  115435571110                           ;")L=O)("
767463:  000000022173  gtwd4                    ;"   "1["
767464:  127141557721                           ;"*YAM_1"
767465:  000000024267  text10                   ;"   "BW"
767466:  124046207012                           ;"*@F0X*"
767467:  000000014717  pbits1                   ;"   !G/"
767470:  115435426620                           ;")L=BV0"
767471:  000000021624  gtvlp                    ;"   ".4"
767472:  121611045634                           ;"*.)$N<"
767473:  000000015537  maknm3                   ;"   !M?"
767474:  111371272016                           ;")+Y70."
767475:  000000017236  bgetfd                   ;"   !Z>"
767476:  113760336437                           ;")?P;T?"
767477:  000000021434  eql1sm                   ;"   ",<"
767500:  512142467056  hllzm    aa, 467056(i)   ;"I1BFXN"
767501:  000000000006  c                        ;"     &"
767502:  125640322130                           ;"*N@:18"
767503:  000000022732  rmove                    ;"   "7:"
767504:  112307767370                           ;")3'^[X"
767505:  000000024076  cntp2                    ;"   "@^"
767506:  110541233720                           ;")%A3?0"
767507:  000000023224  aend1                    ;"   ":4"
767510:  512776351600  hllzm    tm, @351600(ch2);"I7^=. " "R_sS@"
767511:  000000200000  dfld                     ;"   0  "
767512:  110503440010                           ;")%#D ("
767513:  000000023452  ablk4                    ;"   "<J"
767514:  115315570353                           ;")K-O#K"
767515:  000000021220  glopra                   ;"   "*0"
767516:  121611046357                           ;"*.)$SO"
767517:  000000015510  maknum                   ;"   !M("
767520:  521053436000  hlloi    p, 436000(link) ;"J(KCP " "T\"\\<\0"
767521:  000000000004  a                        ;"     $"
767522:  121607000500                           ;"*.' % "
767523:  000000016565  mac4                     ;"   !UU"
767524:  124305060260                           ;"*C%&"P"
767525:  000000022345  prtcl                    ;"   "3E"
767526:  513760410000  hllzs    tm, @410000     ;"I?PA  "
767527:  000000000200  mrsw                     ;"    " "
767530:  121264160124                           ;"**T.!4"
767531:  000000020312  lssth3                   ;"   "#*"
767532:  110611325200                           ;")&):J "
767533:  000000017400  airp                     ;"   !\ "
767534:  126305250430                           ;"*S%5$8"
767535:  000000020656  scon6                    ;"   "&N"
767536:  110611327413                           ;")&):\+"
767537:  000000017573  airps2                   ;"   !]["
767540:  124323764520                           ;"*C3^E0"
767541:  000000015017  ptab1                    ;"   !H/"
767542:  121116304120                           ;"*).8A0"
767543:  000000023071  libop                    ;"   "8Y"
767544:  110611327462                           ;")&):\R"
767545:  000000015074  airpt1                   ;"   !H\"
767546:  503472746106  hlls     tt, @746106(sym);"H<Z\Q&" "PsWL#"
767547:  000000010000  macrch                   ;"   !  "
767550:  124212131000                           ;"*B*+( "
767551:  000000015205  pls                      ;"   !J%"
767552:  125465460010                           ;"*LUF ("
767553:  000000015367  rbrak                    ;"   !KW"
767554:  116757511332                           ;")WOI+:"
767555:  000000022361  intach                   ;"   "3Q"
767556:  121201337612                           ;"**!;^*"
767557:  000000015100  lnktc1                   ;"   !I "
767560:  112320146652                           ;")30,VJ"
767561:  000000020240  conbg1                   ;"   ""@"
767562:  127141560110                           ;"*YAN!("
767563:  000000024300  text4                    ;"   "C "
767564:  115330740110                           ;")K8\!("
767565:  000000015255  gmul4                    ;"   !JM"
767566:  111066421764                           ;")(VB/T"
767567:  000000024604  a.gst3                   ;"   "F$"
767570:  114400166720                           ;")D .W0"
767571:  000000025005  feed1                    ;"   "H%"
767572:  125715302000                           ;"*O-80 "
767573:  000000015453  rr9                      ;"   !LK"
767574:  112303270712                           ;")3#7'*"
767575:  000000024052  cnartp                   ;"   "@J"
767576:  126633477003                           ;"*V;GX#"
767577:  000000024032  symd2a                   ;"   "@:"
767600:  121120772350                           ;"*)0_3H"
767601:  000000014722  limbo                    ;"   !G2"
767602:  122073003100                           ;"*0[ 9 "
767603:  000000016327  mstg                     ;"   !S7"
767604:  115424403770                           ;")L4@?X"
767605:  000000016707  gsyl2                    ;"   !W'"
767606:  115435425040                           ;")L=BH@"
767607:  000000021535  gtvl3                    ;"   "-="
767610:  111004166603                           ;")($.V#"
767611:  000000020430  avar2a                   ;"   "$8"
767612:  130506256434                           ;"+%&5T<"
767613:  000000014762  varcnr                   ;"   !GR"
767614:  135704155300  ldb      ch2, 155300(a)  ;"+O$-K "
767615:  000000025724  %5sq                     ;"   "O4"
767616:  110473351740                           ;")$[=/@"
767617:  000000024160  aasc3                    ;"   "AP"
767620:  126305251063                           ;"*S%5(S"
767621:  000000017335  scond2                   ;"   ![="
767622:  110645715670                           ;")&EYNX"
767623:  000000023334  aloc2                    ;"   ";<"
767624:  124365340174                           ;"*CU<!\"
767625:  000000022606  pwrd5b                   ;"   "6&"
767626:  126554073622                           ;"*UL'>2"
767627:  000000016735  strtp1                   ;"   !W="
767630:  122055061200                           ;"*0M&* "
767631:  000000016155  mrch                     ;"   !QM"
767632:  121214322270                           ;"**,:2X"
767633:  000000021265  lopra                    ;"   "*U"
767634:  126500630630                           ;"*U S&8"
767635:  000000022257  space                    ;"   "2O"
767636:  124365340040                           ;"*CU< @"
767637:  000000022713  pwrd3                    ;"   "7+"
767640:  126554074422                           ;"*UL'D2"
767641:  000000016726  strtyp                   ;"   !W6"
767642:  136362745300  idpb     d, @745300(i)   ;"+SR\K "
767643:  000000026014  %.sq                     ;"   "P,"
767644:  121015660014                           ;"*(-V ,"
767645:  000000020564  lbrak3                   ;"   "%T"
767646:  113777501520                           ;")?_H-0"
767647:  000000022032  es3b1                    ;"   "0:"
767650:  115165641720                           ;")IUT/0"
767651:  000000017746  gcol1                    ;"   !_F"
767652:  110570065524                           ;")%X&M4"
767653:  000000024561  ag.sp3                   ;"   "EQ"
767654:  112320153770                           ;")30-?X"
767655:  000000017310  cond2                    ;"   ![("
767656:  110541234175                           ;")%A3A]"
767657:  000000023256  aend5c                   ;"   ":N"
767660:  124342132416                           ;"*CB+4."
767661:  000000022230  pushfd                   ;"   "28"
767662:  125523401070                           ;"*M3@(X"
767663:  000000021141  return                   ;"   ")A"
767664:  114577143756                           ;")E_,?N"
767665:  000000015024  freept                   ;"   !H4"
767666:  136244645300  idpb     b, 645300(a)    ;"+RDTK "
767667:  000000025600  %ssq                     ;"   "N "
767670:  112741575600                           ;")7AON "
767671:  000000015034  dcnt                     ;"   !H<"
767672:  111067542240                           ;")(WL2@"
767673:  000000023032  a.lib                    ;"   "8:"
767674:  125720346033                           ;"*O0<P;"
767675:  000000015473  rrlm1a                   ;"   !L["
767676:  526272641710  hrlom    b, @641710(sym) ;"JRZT/(" "UKVCd"
767677:  000000000010  t                        ;"     ("
767700:  513245737600  hllzs    b, 737600(b)    ;"I:E[^ " "Rj/?@"
767701:  000000100000  hfwdf                    ;"   (  "
767702:  136302075300  idpb     c, 75300(i)     ;"+S"'K "
767703:  000000025625  %vsq                     ;"   "N5"
767704:  111065261420                           ;")(U6,0"
767705:  000000024670  a.by1                    ;"   "FX"
767706:  521036043317  hlloi    ff, @43317(ch2) ;"J(>$;/"
767707:  000000000010  t                        ;"     ("
767710:  111420417200                           ;"),0AZ "
767711:  000000014767  bitp                     ;"   !GW"
767712:  122723417263                           ;"*73AZS"
767713:  000000015610  numsl2                   ;"   !N("
767714:  115424403736                           ;")L4@?>"
767715:  000000016720  gsyl1d                   ;"   !W0"
767716:  121116172200                           ;"*)./2 "
767717:  000000023036  lib1                     ;"   "8>"
767720:  115435425006                           ;")L=BH&"
767721:  000000021517  gtvl2d                   ;"   "-/"
767722:  512320235600  hllzm    c, @235600      ;"I303N "
767723:  000000001000  nprc                     ;"    ( "
767724:  127677515300                           ;"*^_IK "
767725:  000000015716  uar2                     ;"   !O."
767726:  124323764400                           ;"*C3^D "
767727:  000000015012  ptab                     ;"   !H*"
767730:  113106056602                           ;")9&%V""
767731:  000000015036  dmytop                   ;"   !H>"
767732:  110747707060                           ;")'GXXP"
767733:  000000023712  asend                    ;"   "?*"
767734:  110715611275                           ;")'-Q*]"
767735:  000000024376  aprntx                   ;"   "C^"
767736:  115435425664                           ;")L=BNT"
767737:  000000021507  gtvld3                   ;"   "-'"
767740:  121606773170                           ;"*.&_9X"
767741:  000000016620  mac2a                    ;"   !V0"
767742:  111070747362                           ;")(X\[R"
767743:  000000017121  a.qot1                   ;"   !Y1"
767744:  113760335143                           ;")?P;IC"
767745:  000000021400  eql1b2                   ;"   ", "
767746:  122434727010                           ;"*4<ZX("
767747:  000000015006  nbyts                    ;"   !H&"
767750:  112307606720                           ;")3'PW0"
767751:  000000020025  cnst1                    ;"   " 5"
767752:  114400166600                           ;")D .V "
767753:  000000025006  feed                     ;"   "H&"
767754:  110570065520                           ;")%X&M0"
767755:  000000024553  ag.sp                    ;"   "EK"
767756:  115212421062                           ;")J*B(R"
767757:  000000015142  getfd1                   ;"   !IB"
767760:  113536037740                           ;")=>#_@"
767761:  000000022454  eblk3                    ;"   "4L"
767762:  111066421760                           ;")(VB/P"
767763:  000000024531  a.gst                    ;"   "E9"
767764:  513177117140  hllzs    aa, @117140(tm) ;"I9_)Y@"
767765:  000000000400  disize                   ;"    $ "
767766:  122626361005                           ;"*66>(%"
767767:  000000020636  nocon4                   ;"   "&>"
767770:  112320013570                           ;")30!=X"
767771:  000000022224  comma                    ;"   "24"
767772:  136126545300  idpb     i, @545300(c)   ;"+Q6LK "
767773:  000000025510  %ksq                     ;"   "M("
767774:  112317526630                           ;")3/JV8"
767775:  000000017741  col4e                    ;"   !_A"
767776:  112355055110                           ;")3M%I("
767777:  000000014724  crloc                    ;"   !G4"
770000:  111654605700                           ;").LPO "
770001:  000000015000  bytm                     ;"   !H "
770002:  125121316260                           ;"*I19RP"
770003:  000000017373  qscnt                    ;"   ![["
770004:  110611325716                           ;")&):O."
770005:  000000017620  airp7d                   ;"   !^0"
770006:  126305251067                           ;"*S%5(W"
770007:  000000017340  scond6                   ;"   ![@"
770010:  113762537060                           ;")?RKXP"
770011:  000000021145  equal                    ;"   ")E"
770012:  136010445300  idpb     ff, 445300(t)   ;"+P(DK "
770013:  000000025420  %csq                     ;"   "L0"
770014:  503375761500  hlls     d, @761500(ch1) ;"H;]^- " "Pooc "
770015:  000000000400  disize                   ;"    $ "
770016:  111065042533                           ;")(U$5;"
770017:  000000024127  a.asci                   ;"   "A7"
770020:  124365340160                           ;"*CU<!P"
770021:  000000022574  pwrd5                    ;"   "5\"
770022:  127353560000                           ;"*[KN  "
770023:  000000000011  tt                       ;"     )"
770024:  512261536470  hllzm    b, @536470(p)   ;"I2QKTX"
770025:  000000000003  aa                       ;"     #"
770026:  115212502716                           ;")J*H7."
770027:  000000021457  getval                   ;"   ",O"
770030:  135715765300  ldb      ch2, 765300(ch1);"+O-^K "
770031:  000000025733  %6sq                     ;"   "O;"
770032:  113777501400                           ;")?_H, "
770033:  000000022000  es3b                     ;"   "0 "
770034:  110753201534                           ;")'K0-<"
770035:  000000021132  assem3                   ;"   "):"
770036:  113144722000                           ;")9DZ0 "
770037:  000000015777  dq1                      ;"   !O_"
770040:  121015660010                           ;"*(-V ("
770041:  000000020557  lbrak                    ;"   "%O"
770042:  110611326213                           ;")&):R+"
770043:  000000017651  airpc2                   ;"   !^I"
770044:  115435425735                           ;")L=BO="
770045:  000000021664  gtvle4                   ;"   ".T"
770046:  121264160154                           ;"**T.!L"
770047:  000000020367  lssthr                   ;"   "#W"
770050:  115435425660                           ;")L=BNP"
770051:  000000021475  gtvld                    ;"   ",]"
770052:  131562637362                           ;"+-RS[R"
770053:  000000017117  wrqot1                   ;"   !Y/"
770054:  510737056700  hllz     ch2, @56700(tm) ;"I'?%W "
770055:  000000000002  i                        ;"     ""
770056:  521155234400  hlloi    aa, 234400(ch1) ;"J)M3D " "T&j9\0"
770057:  000000000005  b                        ;"     %"
770060:  113144764300                           ;")9D^C "
770061:  000000015776  dq1a                     ;"   !O^"
770062:  113760335070                           ;")?P;HX"
770063:  000000021451  eql1a                    ;"   ",I"
770064:  511557440530  hllzi    link, 440530(tm);"I-OD%8" "R6|A,"
770065:  000000000037  bsize                    ;"     ?"
770066:  522141437720  hllom    aa, 437720(p)   ;"J1AC_0" "TF\f?h"
770067:  000000020000  pss                      ;"   "  "
770070:  113755600300                           ;")?MP# "
770071:  000000021373  eqa2                     ;"   "+["
770072:  113760336444                           ;")?P;TD"
770073:  000000021422  eql1sr                   ;"   ",2"
770074:  503461342600  hlls     tt, @342600(p)  ;"H<Q<6 "
770075:  000000400000  ppss                     ;"   @  "
770076:  112317626005                           ;")3/RP%"
770077:  000000017734  colon4                   ;"   !_<"
770100:  110645716010                           ;")&EYP("
770101:  000000023343  aloc4                    ;"   ";C"
770102:  112320152436                           ;")30-4>"
770103:  000000014751  concnt                   ;"   !GI"
770104:  110762526377                           ;")'RJS_"
770105:  000000023666  atitle                   ;"   ">V"
770106:  516760177000  hrlzm    tm, @177000     ;"IWP/X "
770107:  000000004000  mwrd                     ;"    @ "
770110:  111307432630                           ;")+'C68"
770111:  000000015011  bbase                    ;"   !H)"
770112:  124211220733                           ;"*B)2';"
770113:  000000023204  plod1a                   ;"   ":$"
770114:  126517413377                           ;"*U/A;_"
770115:  000000016004  squote                   ;"   !P$"
770116:  522572471700  hllom    link, @471700(sym);"J5ZG/ " "TWTs`"
770117:  000000002000  alnscn                   ;"    0 "
770120:  115435374003                           ;")L=?@#"
770121:  000000021501  gtvd2a                   ;"   "-!"
770122:  127247270000                           ;"*ZG7  "
770123:  000000000017  tm                       ;"     /"
770124:  112320154110                           ;")30-A("
770125:  000000017274  cond4                    ;"   !Z\"
770126:  112307607660                           ;")3'P^P"
770127:  000000020127  cnstd                    ;"   "!7"
770130:  110471070435                           ;")$Y'$="
770131:  000000017626  aairpc                   ;"   !^6"
770132:  116757531576                           ;")WOK-^"
770133:  000000022275  intfld                   ;"   "2]"
770134:  122073003460                           ;"*0[ <P"
770135:  000000016442  mstg5                    ;"   !TB"
770136:  125474765370                           ;"*L\^KX"
770137:  000000021455  rchkmv                   ;"   ",M"
770140:  126554057136                           ;"*UL%Y>"
770141:  000000015027  strpnt                   ;"   !H7"
770142:  113753433300                           ;")?KC; "
770143:  000000021453  eq12                     ;"   ",K"
770144:  122707217000                           ;"*7'1X "
770145:  000000015556  ntclf                    ;"   !MN"
770146:  124342132357                           ;"*CB+3O"
770147:  000000016102  pushem                   ;"   !Q""
770150:  113757153200                           ;")?O-: "
770151:  000000021201  eqg1                     ;"   "*!"
770152:  521727702000  hlloi    ch2, @702000(d) ;"J/7X0 "
770153:  000000020000  pss                      ;"   "  "
770154:  521000216500  hlloi    ff, 216500      ;"J( 1U "
770155:  000000000002  i                        ;"     ""
770156:  112307606734                           ;")3'PW<"
770157:  000000020030  cnst1b                   ;"   " 8"
770160:  521246767600  hlloi    b, 767600(c)    ;"J*F^^ " "T*7o@"
770161:  000000000003  aa                       ;"     #"
770162:  135776635300  ldb      tm, @635300(ch2);"+O^SK "
770163:  000000025411  %bsq                     ;"   "L)"
770164:  521035655000  hlloi    ff, @655000(ch1);"J(=UH " "T!nZ\0"
770165:  000000000005  b                        ;"     %"
770166:  115435425300                           ;")L=BK "
770167:  000000021546  gtvl7                    ;"   "-F"
770170:  115316552320                           ;")K.M30"
770171:  000000014704  glsp1                    ;"   !G$"
770172:  115424404040                           ;")L4@@@"
770173:  000000016672  gsyl3                    ;"   !VZ"
770174:  115435571123                           ;")L=O)3"
770175:  000000022172  gtwd4a                   ;"   "1Z"
770176:  125512345100                           ;"*M*<I "
770177:  000000016262  rdwr7                    ;"   !RR"
770200:  135660535300  ldb      ch1, @535300    ;"+NPKK "
770201:  000000025706  %3sq                     ;"   "O&"
770202:  124246655062                           ;"*BFUHR"
770203:  000000022234  popfd1                   ;"   "2<"
770204:  122055063340                           ;"*0M&;@"
770205:  000000016154  mrchr                    ;"   !QL"
770206:  124246635740                           ;"*BFSO@"
770207:  000000024315  popaj                    ;"   "C-"
770210:  125512345043                           ;"*M*<HC"
770211:  000000016363  rdwr6a                   ;"   !SS"
770212:  124365340300                           ;"*CU<# "
770213:  000000022567  pwrd7                    ;"   "5W"
770214:  110752647740                           ;")'JT_@"
770215:  000000024434  sloadp                   ;"   "D<"
770216:  116757552600                           ;")WOM6 "
770217:  000000022340  intl                     ;"   "3@"
770220:  110765020000                           ;")'U"  "
770221:  000000015455  atsgn                    ;"   !LM"
770222:  126635243400                           ;"*V=4< "
770223:  000000023571  sytb                     ;"   "=Y"
770224:  121116175300                           ;"*)./K "
770225:  000000023046  lib2                     ;"   "8F"
770226:  116755044720                           ;")WM$G0"
770227:  000000026024  init1                    ;"   "P4"
770230:  110566241063                           ;")%V4(S"
770231:  000000017254  agtfd2                   ;"   !ZL"
770232:  126305250310                           ;"*S%5#("
770233:  000000020647  scon4                    ;"   "&G"
770234:  124302400420                           ;"*C"@$0"
770235:  000000015042  prirp                    ;"   !HB"
770236:  131562637366                           ;"+-RS[V"
770237:  000000017077  wrqot5                   ;"   !X_"
770240:  113760335210                           ;")?P;J("
770241:  000000021344  eql1c                    ;"   "+D"
770242:  121264160123                           ;"**T.!3"
770243:  000000020315  lssth2                   ;"   "#-"
770244:  113760335225                           ;")?P;J5"
770245:  000000021341  eql1cc                   ;"   "+A"
770246:  112127743332                           ;")17\;:"
770247:  000000023120  ccasm1                   ;"   "90"
770250:  111066403530                           ;")(V@=8"
770251:  000000024662  a.go6                    ;"   "FR"
770252:  125511557335                           ;"*M)M[="
770253:  000000016413  rdtrns                   ;"   !T+"
770254:  112260037202                           ;")2P#Z""
770255:  000000023741  clbpop                   ;"   "?A"
770256:  125512545656                           ;"*M*LNN"
770257:  000000015626  rdxsel                   ;"   !N6"
770260:  135635115300  ldb      f, @115300(ch1) ;"+N=)K "
770261:  000000025670  %1sq                     ;"   "NX"
770262:  111066422316                           ;")(VB3."
770263:  000000016663  a.gsyl                   ;"   !VS"
770264:  126554006436                           ;"*UL T>"
770265:  000000015026  strcnt                   ;"   !H6"
770266:  515315526456  hrlzi    c, 526456(ch1)  ;"IK-JTN"
770267:  000000440000  gloext                   ;"   D  "
770270:  125714121000                           ;"*O,*( "
770271:  000000015422  rr4                      ;"   !L2"
770272:  516753606120  hrlzm    tm, 606120(link);"IWKPQ0" "S^^\f("
770273:  000000200000  dfld                     ;"   0  "
770274:  111300075440                           ;")+ 'L@"
770275:  000000015744  bakar                    ;"   !OD"
770276:  124044611000                           ;"*@DQ( "
770277:  000000014744  pbcon                    ;"   !GD"
770300:  111654573202                           ;").LO:""
770301:  000000024733  bytin1                   ;"   "G;"
770302:  126633423000                           ;"*V;B8 "
770303:  000000000012  sym                      ;"     *"
770304:  125512345512                           ;"*M*<M*"
770305:  000000015031  rdwrdp                   ;"   !H9"
770306:  521017437226  hlloi    ff, 437226(tm)  ;"J(/CZ6" "T |>K"
770307:  000000000005  b                        ;"     %"
770310:  126305250500                           ;"*S%5% "
770311:  000000020627  scon7                    ;"   "&7"
770312:  111067526621                           ;")(WJV1"
770313:  000000023423  a.leng                   ;"   "<3"
770314:  521025565720  hlloi    ff, @565720(b)  ;"J(5NO0" "T!-kh"
770315:  000000000001  p                        ;"     !"
770316:  115435443030                           ;")L=D88"
770317:  000000021527  gtvpm                    ;"   "-7"
770320:  115435427440                           ;")L=B\@"
770321:  000000021502  gtvlz                    ;"   "-""
770322:  527341750000  hrlos    d, 750000(p)    ;"J[A]  "
770323:  000000000000                           ;"      "
770324:  122114525625                           ;"*1,JN5"
770325:  000000015265  multp4                   ;"   !JU"
770326:  126551332150                           ;"*UI;1H"
770327:  000000014776  stgsw                    ;"   !G^"
770330:  136233035300  idpb     a, @35300(link) ;"+R;#K "
770331:  000000025571  %rsq                     ;"   "MY"
770332:  132334246000  fsc      c, @246000(f)   ;"+3<4P "
770333:  000000015332  xorf                     ;"   !K:"
770334:  521026746511  hlloi    ff, @746511(c)  ;"J(6\U)"
770335:  000000000006  c                        ;"     &"
770336:  126330257310                           ;"*S85[("
770337:  000000015362  semic                    ;"   !KR"
770340:  121263166660                           ;"**S.VP"
770341:  000000020573  lsort                    ;"   "%["
770342:  125522407720                           ;"*M2@_0"
770343:  000000017171  rept1                    ;"   !YY"
770344:  110542110616                           ;")%B)&."
770345:  000000024322  aequal                   ;"   "C2"
770346:  126476607000                           ;"*T^PX "
770347:  000000026042  sp2                      ;"   "PB"
770350:  111066421727                           ;")(VB/7"
770351:  000000024521  a.gsse                   ;"   "E1"
770352:  123704443370                           ;"*?$D;X"
770353:  000000021006  p1ini                    ;"   "(&"
770354:  125720247300                           ;"*O04[ "
770355:  000000015420  rrl2                     ;"   !L0"
770356:  125512344604                           ;"*M*<F$"
770357:  000000016402  rdwr2b                   ;"   !T""
770360:  116757615100                           ;")WOQI "
770361:  000000022347  intw                     ;"   "3G"
770362:  135753215300  ldb      tm, 215300(link);"+OK1K "
770363:  000000025760  %9sq                     ;"   "OP"
770364:  110747125320                           ;")'G*K0"
770365:  000000024302  asbp1                    ;"   "C""
770366:  110473351670                           ;")$[=.X"
770367:  000000024170  aasc2                    ;"   "AX"
770370:  514504206000  hrlz     sym, 206000(a)  ;"IE$0P "
770371:  000000000001  p                        ;"     !"
770372:  112353322500                           ;")3K:5 "
770373:  000000021102  cretn                    ;"   ")""
770374:  111066403270                           ;")(V@:X"
770375:  000000024644  a.go2                    ;"   "FD"
770376:  522664204200  hllom    ch1, @204200(a) ;"J6T0B "
770377:  000000010000  macrch                   ;"   !  "
770400:  515326013200  hrlzi    c, @13200(c)    ;"IK6!: "
770401:  000000020000  pss                      ;"   "  "
770402:  125512345030                           ;"*M*<H8"
770403:  000000016353  rdwr6                    ;"   !SK"
770404:  126305251070                           ;"*S%5(X"
770405:  000000017367  scond7                   ;"   ![W"
770406:  121116200400                           ;"*).0$ "
770407:  000000023063  lib3                     ;"   "8S"
770410:  122723421504                           ;"*73B-$"
770411:  000000015542  numtab                   ;"   !MB"
770412:  121212121313                           ;"****++"
770413:  000000015350  logic2                   ;"   !KH"
770414:  115330737770                           ;")K8[_X"
770415:  000000015276  gmul2                    ;"   !J^"
770416:  136313705300  idpb     c, 705300(link) ;"+S+XK "
770417:  000000025634  %wsq                     ;"   "N<"
770420:  113536037500                           ;")=>#] "
770421:  000000022443  eblk                     ;"   "4C"
770422:  130504756566                           ;"+%$]UV"
770423:  000000024254  valret                   ;"   "BL"
770424:  111072251101                           ;")(Z5)!"
770425:  000000024725  a.walg                   ;"   "G5"
770426:  115211114330                           ;")J))C8"
770427:  000000015025  gensm                    ;"   !H5"
770430:  110525145770                           ;")%5,OX"
770431:  000000016345  addtrn                   ;"   !SE"
770432:  110611325560                           ;")&):MP"
770433:  000000017624  airp5                    ;"   !^4"
770434:  121264160127                           ;"**T.!7"
770435:  000000020346  lssth6                   ;"   "#F"
770436:  126435110412                           ;"*T=)$*"
770437:  000000024434  sloadp                   ;"   "D<"
770440:  515314067000  hrlzi    c, 67000(f)     ;"IK,&X " "S,`n\0"
770441:  000000000001  p                        ;"     !"
770442:  110611327414                           ;")&):\,"
770443:  000000017601  airps3                   ;"   !^!"
770444:  125714316000                           ;"*O,9P "
770445:  000000015435  rr5                      ;"   !L="
770446:  111754413727                           ;")/LA?7"
770447:  000000017776  c1asse                   ;"   !_^"
770450:  112307607040                           ;")3'PX@"
770451:  000000020146  cnst3                    ;"   "!F"
770452:  125677505460                           ;"*N_HLP"
770453:  000000022703  rpwrd                    ;"   "7#"
770454:  110611325321                           ;")&):K1"
770455:  000000017623  airp10                   ;"   !^3"
770456:  526605171400  hrlom    f, 171400(b)    ;"JV%/, " "UX)s\0"
770457:  000000200000  dfld                     ;"   0  "
770460:  136351135300  idpb     d, 135300(tt)   ;"+SI+K "
770461:  000000025661  %zsq                     ;"   "NQ"
770462:  136374555300  idpb     d, @555300(f)   ;"+S\MK "
770463:  000000025776  %$sq                     ;"   "O^"
770464:  127671614000                           ;"*^YQ@ "
770465:  000000015701  ua3                      ;"   !O!"
770466:  111067010435                           ;")(W!$="
770467:  000000017166  a.irpc                   ;"   !YV"
770470:  115163307062                           ;")IS8XR"
770471:  000000016501  gcend1                   ;"   !U!"
770472:  115212421073                           ;")J*B(["
770473:  000000015163  getfda                   ;"   !IS"
770474:  113773525300                           ;")?[JK "
770475:  000000023611  err2                     ;"   ">)"
770476:  112320146655                           ;")30,VM"
770477:  000000020254  conbg4                   ;"   ""L"
770500:  126633477040                           ;"*V;GX@"
770501:  000000024010  symd3                    ;"   "@("
770502:  126402122421                           ;"*T"*41"
770503:  000000023623  sixtyo                   ;"   ">3"
770504:  112763223670                           ;")7S2>X"
770505:  000000017012  defna                    ;"   !X*"
770506:  512376466100  hllzm    d, @466100(ch2) ;"I3^FQ " "ROtl "
770507:  000000400000  ppss                     ;"   @  "
770510:  124212137200                           ;"*B*+Z "
770511:  000000015224  pls1                     ;"   !J4"
770512:  110611325750                           ;")&):OH"
770513:  000000017556  airp8                    ;"   !]N"
770514:  113106056743                           ;")9&%WC"
770515:  000000016651  dmytr2                   ;"   !VI"
770516:  113760335330                           ;")?P;K8"
770517:  000000021306  eql1e                    ;"   "+&"
770520:  121611045635                           ;"*.)$N="
770521:  000000015533  maknm4                   ;"   !M;"
770522:  111067522650                           ;")(WJ6H"
770523:  000000023102  a.ldcv                   ;"   "9""
770524:  521263705160  hlloi    b, @705160(aa)  ;"J*SXIP"
770525:  000000000040  tpchna                   ;"     @"
770526:  512762442200  hllzm    tm, @442200(i)  ;"I7RD2 "
770527:  000000000010  t                        ;"     ("
770530:  125475017104                           ;"*L]!Y$"
770531:  000000016207  rchsv3                   ;"   !R'"
770532:  121607031620                           ;"*.'#.0"
770533:  000000016612  macc1                    ;"   !V*"
770534:  126272637670                           ;"*RZS^X"
770535:  000000023000  sblk2                    ;"   "8 "
770536:  513105762576  hllzs    i, 762576(b)    ;"I9%^5^" "Rd/e?"
770537:  000000004000  mwrd                     ;"    @ "
770540:  132334246120  fsc      c, @246120(f)   ;"+3<4Q0"
770541:  000000015337  xorf1                    ;"   !K?"
770542:  124365340060                           ;"*CU< P"
770543:  000000022701  pwrd3f                   ;"   "7!"
770544:  113773522200                           ;")?[J2 "
770545:  000000023522  err1                     ;"   "=2"
770546:  110672751362                           ;")&Z]+R"
770547:  000000017312  anull1                   ;"   ![*"
770550:  115314604134                           ;")K,PA<"
770551:  000000021243  glkpnr                   ;"   "*C"
770552:  125512344570                           ;"*M*<EX"
770553:  000000016266  rdwr2                    ;"   !RV"
770554:  116757531063                           ;")WOK(S"
770555:  000000022335  intfd2                   ;"   "3="
770556:  110747707063                           ;")'GXXS"
770557:  000000023714  asend2                   ;"   "?,"
770560:  126257105400                           ;"*RO(L "
770561:  000000014734  sadr                     ;"   !G<"
770562:  510513570000  hllz     sym, 570000(link);"I%+O  "
770563:  000000040000  vot                      ;"   $  "
770564:  111070747377                           ;")(X\[_"
770565:  000000021103  a.qote                   ;"   ")#"
770566:  126377272205                           ;"*S_72%"
770567:  000000023653  simblk                   ;"   ">K"
770570:  111654606710                           ;").LPW("
770571:  000000015001  bytmc                    ;"   !H!"
770572:  110541234176                           ;")%A3A^"
770573:  000000023125  aend5d                   ;"   "95"
770574:  110611327463                           ;")&):\S"
770575:  000000014773  airpt2                   ;"   !G["
770576:  113776450000                           ;")?^E  "
770577:  000000021750  es                       ;"   "/H"
770600:  126303674246                           ;"*S#WBF"
770601:  000000014770  scinst                   ;"   !GX"
770602:  130764656750                           ;"+'TUWH"
770603:  000000022041  vsm2w                    ;"   "0A"
770604:  136256455300  idpb     b, 455300(ch2)  ;"+RNEK "
770605:  000000025607  %tsq                     ;"   "N'"
770606:  124046207015                           ;"*@F0X-"
770607:  000000014721  pbits4                   ;"   !G1"
770610:  115212421576                           ;")J*B-^"
770611:  000000015132  getfld                   ;"   !I:"
770612:  115435426623                           ;")L=BV3"
770613:  000000021643  gtvlp2                   ;"   ".C"
770614:  115435425313                           ;")L=BK+"
770615:  000000021616  gtvl7a                   ;"   ".."
770616:  113036164360                           ;")8>.CP"
770617:  000000015267  divid                    ;"   !JW"
770620:  110473353113                           ;")$[=9+"
770621:  000000024134  aascii                   ;"   "A<"
770622:  111066421765                           ;")(VB/U"
770623:  000000024603  a.gst4                   ;"   "F#"
770624:  115435373770                           ;")L=??X"
770625:  000000021565  gtvd2                    ;"   "-U"
770626:  122626361000                           ;"*66>( "
770627:  000000020702  nocon                    ;"   "'""
770630:  110611325630                           ;")&):N8"
770631:  000000017510  airp6                    ;"   !]("
770632:  124211220720                           ;"*B)2'0"
770633:  000000023200  plod1                    ;"   ": "
770634:  515315553565  hrlzi    c, 553565(ch1)  ;"IK-M=U"
770635:  000000001000  nprc                     ;"    ( "
770636:  125475015430                           ;"*L]!L8"
770637:  000000016222  rchsav                   ;"   !R2"
770640:  503457567600  hlls     tt, 567600(tm)  ;"H<ON^ " "Pr}o@"
770641:  000000600000  3rel                     ;"   P  "
770642:  115435425005                           ;")L=BH%"
770643:  000000021521  gtvl2c                   ;"   "-1"
770644:  121116203500                           ;"*).0= "
770645:  000000023034  lib4                     ;"   "8<"
770646:  115212506163                           ;")J*HQS"
770647:  000000022245  getwd2                   ;"   "2E"
770650:  124246652530                           ;"*BFU58"
770651:  000000016121  popem                    ;"   !Q1"
770652:  124304474756                           ;"*C$GGN"
770653:  000000015041  prrept                   ;"   !HA"
770654:  130161210150                           ;"+!Q1!H"
770655:  000000016501  gcend1                   ;"   !U!"
770656:  126744030000                           ;"*WD#  "
770657:  000000014713  t2                       ;"   !G+"
770660:  513701477440  hllzs    ch2, 477440(p)  ;"I?!G\@"
770661:  000000000012  sym                      ;"     *"
770662:  126633562622                           ;"*V;N62"
770663:  000000023567  symtp1                   ;"   "=W"
770664:  515211042000  hrlzi    a, 42000(tt)    ;"IJ)$0 " "S(HD\0"
770665:  000000000400  disize                   ;"    $ "
770666:  111065263575                           ;")(U6=]"
770667:  000000025003  a.bytc                   ;"   "H#"
770670:  135727575300  ldb      ch2, @575300(d) ;"+O7OK "
770671:  000000025742  %7sq                     ;"   "OB"
770672:  127141560350                           ;"*YAN#H"
770673:  000000024301  text8                    ;"   "C!"
770674:  125512544620                           ;"*M*LF0"
770675:  000000015625  rdxs1                    ;"   !N5"
770676:  112143523520                           ;")1CJ=0"
770677:  000000014702  cdisp                    ;"   !G""
770700:  110611326214                           ;")&):R,"
770701:  000000017653  airpc3                   ;"   !^K"
770702:  124211210362                           ;"*B)1#R"
770703:  000000023206  pload1                   ;"   ":&"
770704:  110570065523                           ;")%X&M3"
770705:  000000024571  ag.sp2                   ;"   "EY"
770706:  115435571160                           ;")L=O)P"
770707:  000000022215  gtwd5                    ;"   "2-"
770710:  117033753000                           ;")X;]8 "
770711:  000000015007  isav                     ;"   !H'"
770712:  110541234040                           ;")%A3@@"
770713:  000000023132  aend3                    ;"   "9:"
770714:  512142465000  hllzm    aa, 465000(i)   ;"I1BFH "
770715:  000000000000                           ;"      "
770716:  123533612733                           ;"*=;Q7;"
770717:  000000021325  outde2                   ;"   "+5"
770720:  110473352200                           ;")$[=2 "
770721:  000000024244  aasc7                    ;"   "BD"
770722:  126633534150                           ;"*V;KAH"
770723:  000000016320  symmg                    ;"   !S0"
770724:  113777434000                           ;")?_C@ "
770725:  000000022005  es3                      ;"   "0%"
770726:  115212504360                           ;")J*HCP"
770727:  000000021666  getvun                   ;"   ".V"
770730:  121121221500                           ;"*)12- "
770731:  000000000013  link                     ;"     +"
770732:  126305251060                           ;"*S%5(P"
770733:  000000017320  scond                    ;"   ![0"
770734:  113777237000                           ;")?_3X "
770735:  000000022020  es2                      ;"   "00"
770736:  110541233770                           ;")%A3?X"
770737:  000000023241  aend2                    ;"   ":A"
770740:  115435424720                           ;")L=BG0"
770741:  000000021532  gtvl1                    ;"   "-:"
770742:  131557517175                           ;"+-OIY]"
770743:  000000014711  wrdrlc                   ;"   !G)"
770744:  526421765000  hrlom    t, @765000(p)   ;"JT1^H "
770745:  000000100000  hfwdf                    ;"   (  "
770746:  522732270610  hllom    ch2, @270610(sym);"J7:7&(" "T]RqD"
770747:  000000000100  foo                      ;"    ! "
770750:  110611325717                           ;")&):O/"
770751:  000000017520  airp7e                   ;"   !]0"
770752:  121145247171                           ;"*)E4YY"
770753:  000000021244  lkpnro                   ;"   "*D"
770754:  114152000000                           ;")AJ   "
770755:  000000000014  f                        ;"     ,"
770756:  122723417262                           ;"*73AZR"
770757:  000000015641  numsl1                   ;"   !NA"
770760:  122073003224                           ;"*0[ :4"
770761:  000000016470  mstg13                   ;"   !TX"
770762:  122664205210                           ;"*6T0J("
770763:  000000014753  nrepc                    ;"   !GK"
770764:  115435401042                           ;")L=@(B"
770765:  000000021677  gtver1                   ;"   "._"
770766:  110715634322                           ;")'-SC2"
770767:  000000024401  aprtx1                   ;"   "D!"
770770:  114577206515                           ;")E_0U-"
770771:  000000015061  frepts                   ;"   !HQ"
770772:  111070747363                           ;")(X\[S"
770773:  000000015073  a.qot2                   ;"   !H["
770774:  524317070550  hrlo     c, 70550(tm)    ;"JC/'%H" "U\fxq4"
770775:  000000040000  vot                      ;"   $  "
770776:  526302707060  hrlom    c, 707060(i)    ;"JS"XXP"
770777:  000000000200  mrsw                     ;"    " "
771000:  125720346210                           ;"*O0<R("
771001:  000000015501  rrlm4                    ;"   !M!"
771002:  113760335142                           ;")?P;IB"
771003:  000000021404  eql1b1                   ;"   ",$"
771004:  113644160166                           ;")>D.!V"
771005:  000000027203  eisymt                   ;"   "Z#"
771006:  526633473500  hrlom    f, @473500(link);"JV;G= " "UY\\w "
771007:  000000100000  hfwdf                    ;"   (  "
771010:  503525671670  hlls     sym, @671670(b) ;"H=5W.X" "Pu.s\\"
771011:  000000002000  alnscn                   ;"    0 "
771012:  125517441474                           ;"*M/D,\"
771013:  000000015063  redptb                   ;"   !HS"
771014:  115315514660                           ;")K-IFP"
771015:  000000014766  globt                    ;"   !GV"
771016:  115212421063                           ;")J*B(S"
771017:  000000015166  getfd2                   ;"   !IV"
771020:  115330740160                           ;")K8\!P"
771021:  000000015312  gmul5                    ;"   !K*"
771022:  126305250120                           ;"*S%5!0"
771023:  000000020610  scon1                    ;"   "&("
771024:  126633477053                           ;"*V;GXK"
771025:  000000024007  symd3a                   ;"   "@'"
771026:  122626361004                           ;"*66>($"
771027:  000000020713  nocon3                   ;"   "'+"
771030:  131557366000                           ;"+-O>P "
771031:  000000014710  wrd                      ;"   !G("
771032:  117041610100                           ;")XAQ! "
771033:  000000014764  isymf                    ;"   !GT"
771034:  113535552300                           ;")==M3 "
771035:  000000022504  ebk2                     ;"   "5$"
771036:  126263374720                           ;"*RS?G0"
771037:  000000016053  poplis                   ;"   !PK"
771040:  110611326020                           ;")&):P0"
771041:  000000017560  airp9                    ;"   !]P"
771042:  110310700000                           ;")#(X  "
771043:  000000000004  a                        ;"     $"
771044:  110701014227                           ;")'!!B7"
771045:  000000024365  aoffse                   ;"   "CU"
771046:  512133246600  hllzm    i, @246600(link);"I1;4V " "REZM@"
771047:  000000000001  p                        ;"     !"
771050:  110666610120                           ;")&VQ!0"
771051:  000000015343  andf1                    ;"   !KC"
771052:  110541233600                           ;")%A3> "
771053:  000000023121  aend                     ;"   "91"
771054:  110747064150                           ;")'G&AH"
771055:  000000023707  asbeg                    ;"   "?'"
771056:  125713571300                           ;"*O+O+ "
771057:  000000016024  rr2a                     ;"   !P4"
771060:  123307315110                           ;"*;'9I("
771061:  000000014725  ofloc                    ;"   !G5"
771062:  124365340110                           ;"*CU<!("
771063:  000000022542  pwrd4                    ;"   "5B"
771064:  111071326714                           ;")(Y:W,"
771065:  000000023221  a.sldr                   ;"   ":1"
771066:  126476412000                           ;"*T^A0 "
771067:  000000026044  sp1                      ;"   "PD"
771070:  124246700225                           ;"*BFX"5"
771071:  000000016053  poplis                   ;"   !PK"
771072:  124246670520                           ;"*BFW%0"
771073:  000000022030  popj1                    ;"   "08"
771074:  110503437620                           ;")%#C^0"
771075:  000000023314  ablk1                    ;"   ";,"
771076:  121015660013                           ;"*(-V +"
771077:  000000020565  lbrak2                   ;"   "%U"
771100:  124070565000                           ;"*@XNH "
771101:  000000017036  pdef                     ;"   !X>"
771102:  112320147751                           ;")30,_I"
771103:  000000020152  conbug                   ;"   "!J"
771104:  126305014003                           ;"*S%!@#"
771105:  000000017334  scnd2a                   ;"   ![<"
771106:  126635160132                           ;"*V=.!:"
771107:  000000014757  sysym1                   ;"   !GO"
771110:  522031654360  hllom    ff, @654360(tt) ;"J09UCP" "TANXx"
771111:  000000003000  mpdll                    ;"    8 "
771112:  124046207020                           ;"*@F0X0"
771113:  000000021364  pbits7                   ;"   "+T"
771114:  114000223000                           ;")@ 28 "
771115:  000000022034  es6                      ;"   "0<"
771116:  111065261470                           ;")(U6,X"
771117:  000000024702  a.by2                    ;"   "G""
771120:  127141560420                           ;"*YAN$0"
771121:  000000024152  text9                    ;"   "AJ"
771122:  121606776270                           ;"*.&_RX"
771123:  000000016626  mac3a                    ;"   !V6"
771124:  110645715620                           ;")&EYN0"
771125:  000000023346  aloc1                    ;"   ";F"
771126:  126305251064                           ;"*S%5(T"
771127:  000000017352  scond3                   ;"   ![J"
771130:  523447445660  hllos    tt, 445660(d)   ;"J<GDNP" "Tr<KX"
771131:  000000200000  dfld                     ;"   0  "
771132:  116757575400                           ;")WOOL "
771133:  000000022355  intr                     ;"   "3M"
771134:  123254041136                           ;"*:L$)>"
771135:  000000023574  octpnt                   ;"   "=\"
771136:  114602654530                           ;")F"UE8"
771137:  000000022136  frtbe                    ;"   "1>"
771140:  521122441051  hlloi    i, @441051(i)   ;"J)2D(I"
771141:  000000000000                           ;"      "
771142:  123533661566                           ;"*=;V-V"
771143:  000000022424  output                   ;"   "44"
771144:  123453023720                           ;"*<K"?0"
771145:  000000014730  optt1                    ;"   !G8"
771146:  110473352702                           ;")$[=7""
771147:  000000024276  aascf1                   ;"   "B^"
771150:  136103125300  idpb     i, 125300(aa)   ;"+Q#*K "
771151:  000000025472  %isq                     ;"   "LZ"
771152:  115751671200                           ;")OIW* "
771153:  000000022056  hash                     ;"   "0N"
771154:  115435425663                           ;")L=BNS"
771155:  000000021477  gtvld4                   ;"   ",_"
771156:  131562637363                           ;"+-RS[S"
771157:  000000017106  wrqot2                   ;"   !Y&"
771160:  503366722000  hlls     d, @722000(c)   ;"H;VZ0 " "Po7$\0"
771161:  000000004000  mwrd                     ;"    @ "
771162:  113760373570                           ;")?P?=X"
771163:  000000021310  eqlb2                    ;"   "+("
771164:  531557450000  hllei    link, 450000(tm);"K-OE  " "V6|P\0"
771165:  000000000400  disize                   ;"    $ "
771166:  126553513240                           ;"*UKI:@"
771167:  000000016274  stpwr                    ;"   !R\"
771170:  521030270000  hlloi    ff, @270000(t)  ;"J(87  " "T!Bp\0"
771171:  000000140000  lcudf                    ;"   ,  "
771172:  135623305300  ldb      f, @305300(aa)  ;"+N38K "
771173:  000000025767  %0sq                     ;"   "OW"
771174:  123533706160                           ;"*=;XQP"
771175:  000000022423  outwd                    ;"   "43"
771176:  121606772300                           ;"*.&_3 "
771177:  000000016622  mac2                     ;"   !V2"
771200:  127351200144                           ;"*[I0!D"
771201:  000000027203  eisymt                   ;"   "Z#"
771202:  115435332312                           ;")L=;3*"
771203:  000000021506  gtv2c1                   ;"   "-&"
771204:  110736067720                           ;")'>&_0"
771205:  000000023413  arel1                    ;"   "<+"
771206:  125722417400                           ;"*O2A\ "
771207:  000000015365  rru3                     ;"   !KU"
771210:  112104507202                           ;")1$HZ""
771211:  000000023664  cabpop                   ;"   ">T"
771212:  110611325713                           ;")&):O+"
771213:  000000017535  airp7a                   ;"   !]="
771214:  125474763500                           ;"*L\^= "
771215:  000000022721  rchk                     ;"   "71"
771216:  121727763112                           ;"*/7^9*"
771217:  000000015211  minus1                   ;"   !J)"
771220:  122723417266                           ;"*73AZV"
771221:  000000015573  numsl5                   ;"   !M["
771222:  115424403733                           ;")L4@?;"
771223:  000000016724  gsyl1a                   ;"   !W4"
771224:  122073003220                           ;"*0[ :0"
771225:  000000016336  mstg1                    ;"   !S>"
771226:  111004166640                           ;")($.V@"
771227:  000000020442  avar3                    ;"   "$B"
771230:  113777301300                           ;")?_8+ "
771231:  000000022022  es2a                     ;"   "02"
771232:  525511157500  hrloi    sym, 157500(tt) ;"JM)-] " "U4I_ "
771233:  000000004000  mwrd                     ;"    @ "
771234:  125714513000                           ;"*O,I8 "
771235:  000000015437  rr6                      ;"   !L?"
771236:  111035075256                           ;")(='JN"
771237:  000000023356  axword                   ;"   ";N"
771240:  112332227640                           ;")3:2^@"
771241:  000000023742  cpopj                    ;"   "?B"
771242:  121265505740                           ;"**UHO@"
771243:  000000014715  lsylr                    ;"   !G-"
771244:  110566241062                           ;")%V4(R"
771245:  000000017260  agtfd1                   ;"   !ZP"
771246:  136325515300  idpb     c, @515300(b)   ;"+S5IK "
771247:  000000025643  %xsq                     ;"   "NC"
771250:  115330740040                           ;")K8\ @"
771251:  000000015277  gmul3                    ;"   !J_"
771252:  110525266420                           ;")%56T0"
771253:  000000016757  adefin                   ;"   !WO"
771254:  124365337600                           ;"*CU;^ "
771255:  000000022526  pwrd                     ;"   "56"
771256:  111067561120                           ;")(WN)0"
771257:  000000023435  a.ln1                    ;"   "<="
771260:  127443041533                           ;"*\C$-;"
771261:  000000023621  typr1a                   ;"   ">1"
771262:  136221225300  idpb     a, @225300(p)   ;"+R12K "
771263:  000000025562  %qsq                     ;"   "MR"
771264:  122055061404                           ;"*0M&,$"
771265:  000000016157  mrch2b                   ;"   !QO"
771266:  115212421067                           ;")J*B(W"
771267:  000000015147  getfd6                   ;"   !IG"
771270:  126263440676                           ;"*RSD&^"
771271:  000000016042  savwld                   ;"   !PB"
771272:  112317626000                           ;")3/RP "
771273:  000000017656  colon                    ;"   !^N"
771274:  112320234764                           ;")303GT"
771275:  000000020742  const3                   ;"   "'B"
771276:  126305245070                           ;"*S%4HX"
771277:  000000020670  scom2                    ;"   "&X"
771300:  126263440162                           ;"*RSD!R"
771301:  000000016040  savwd1                   ;"   !P@"
771302:  115434635720                           ;")L<SO0"
771303:  000000015411  gtsl1                    ;"   !L)"
771304:  112133246720                           ;")1;4W0"
771305:  000000024605  ccomp                    ;"   "F%"
771306:  113536040010                           ;")=>$ ("
771307:  000000022512  eblk4                    ;"   "5*"
771310:  111065261540                           ;")(U6-@"
771311:  000000024724  a.by3                    ;"   "G4"
771312:  121201341440                           ;"**!<,@"
771313:  000000015077  lnktz                    ;"   !H_"
771314:  113204514000                           ;"):$I@ "
771315:  000000021711  dtb                      ;"   "/)"
771316:  112333377410                           ;")3;?\("
771317:  000000020752  cptmk                    ;"   "'J"
771320:  126551346310                           ;"*UI<S("
771321:  000000024475  stgws                    ;"   "D]"
771322:  114504260436                           ;")E$6$>"
771323:  000000014716  fldcnt                   ;"   !G."
771324:  121121223260                           ;"*)12:P"
771325:  000000014750  linkl                    ;"   !GH"
771326:  121264160122                           ;"**T.!2"
771327:  000000020354  lssth1                   ;"   "#L"
771330:  113760335224                           ;")?P;J4"
771331:  000000021351  eql1cb                   ;"   "+I"
771332:  125512345473                           ;"*M*<L["
771333:  000000016236  rdwrda                   ;"   !R>"
771334:  130764654300                           ;"+'TUC "
771335:  000000022042  vsm2                     ;"   "0B"
771336:  113773634240                           ;")?[SB@"
771337:  000000023472  error                    ;"   "<Z"
771340:  136207415300  idpb     a, 415300(d)    ;"+R'AK "
771341:  000000025553  %psq                     ;"   "MK"
771342:  512763110000  hllzm    tm, @110000(aa) ;"I7S)  "
771343:  000000000010  t                        ;"     ("
771344:  112226526246                           ;")26JRF"
771345:  000000015076  cirpct                   ;"   !H^"
771346:  113750231016                           ;")?H3(."
771347:  000000015055  symstr                   ;"   !HM"
771350:  112763224060                           ;")7S2@P"
771351:  000000017001  defnd                    ;"   !X!"
771352:  110762524770                           ;")'RJGX"
771353:  000000023675  atit2                    ;"   ">]"
771354:  124211233711                           ;"*B)3?)"
771355:  000000021703  ploglo                   ;"   "/#"
771356:  136337325300  idpb     c, @325300(tm)  ;"+S?:K "
771357:  000000025652  %ysq                     ;"   "NJ"
771360:  127301313200                           ;"*[!9: "
771361:  000000015010  topp                     ;"   !H("
771362:  125720346070                           ;"*O0<PX"
771363:  000000015402  rrlm2                    ;"   !L""
771364:  121606770070                           ;"*.&_ X"
771365:  000000016600  mac1a                    ;"   !V "
771366:  527351200165  hrlos    d, 200165(tt)   ;"J[I0!U"
771367:  000000000001  p                        ;"     !"
771370:  121265503600                           ;"**UH> "
771371:  000000014714  lsyl                     ;"   !G,"
771372:  125512344760                           ;"*M*<GP"
771373:  000000016255  rdwr5                    ;"   !RM"
771374:  130764656120                           ;"+'TUQ0"
771375:  000000022040  vsm2lv                   ;"   "0@"
771376:  115212507256                           ;")J*HZN"
771377:  000000022147  getwrd                   ;"   "1G"
771400:  111066210267                           ;")(V1"W"
771401:  000000022137  a.form                   ;"   "1?"
771402:  517003050165  hrlzs    ff, 50165(aa)   ;"IX#%!U"
771403:  000000200000  dfld                     ;"   0  "
771404:  111004166520                           ;")($.U0"
771405:  000000020470  avar1                    ;"   "$X"
771406:  122073003234                           ;"*0[ :<"
771407:  000000016342  mstg1b                   ;"   !SB"
771410:  112307607673                           ;")3'P^["
771411:  000000020125  cnstda                   ;"   "!5"
771412:  111654362160                           ;").L>1P"
771413:  000000024714  byset                    ;"   "G,"
771414:  115435425730                           ;")L=BO8"
771415:  000000021647  gtvle                    ;"   ".G"
771416:  125474734436                           ;"*L\[D>"
771417:  000000017372  rchcnt                   ;"   ![Z"
771420:  124037050020                           ;"*@?% 0"
771421:  000000025162  patch                    ;"   "IR"
771422:  021607117522                           ;"".')]2"
771423:  014702002457                           ;"!G" 4O"
771424:  110310700000                           ;")#(X  "
771425:  000000000004  a                        ;"     $"
771426:  111117400000                           ;"))/@  "
771427:  000000000005  b                        ;"     %"
771430:  111726100000                           ;")/6(  "
771431:  000000000006  c                        ;"     &"
771432:  112534600000                           ;")5<P  "
771433:  000000000007  d                        ;"     '"
771434:  110715555162                           ;")'-MIR"
771435:  000000002472  apret1                   ;"    4Z"
771436:  110715631100                           ;")'-S) "
771437:  000000002474  aprsv                    ;"    4\"
771440:  110715555160                           ;")'-MIP"
771441:  000000002507  apret                    ;"    5'"
771442:  110715631102                           ;")'-S)""
771443:  000000002511  aprsv1                   ;"    5)"
771444:  127070470700                           ;"*XXG' "
771445:  000000002512  tape                     ;"    5*"
771446:  130170550200                           ;"+!XM" "
771447:  000000002513  utp1                     ;"    5+"
771450:  130170556400                           ;"+!XMT "
771451:  000000002517  utp3                     ;"    5/"
771452:  124154232310                           ;"*AL33("
771453:  000000002523  pipos                    ;"    53"
771454:  130165141330                           ;"+!U,+8"
771455:  000000002527  utape                    ;"    57"
771456:  130165322310                           ;"+!U:3("
771457:  000000002532  utblk                    ;"    5:"
771460:  130165141332                           ;"+!U,+:"
771461:  000000002534  utape1                   ;"    5<"
771462:  130165141334                           ;"+!U,+<"
771463:  000000002551  utape3                   ;"    5I"
771464:  130165141336                           ;"+!U,+>"
771465:  000000002552  utape5                   ;"    5J"
771466:  127070507235                           ;"*XXHZ="
771467:  000000002554  tapins                   ;"    5L"
771470:  127070464436                           ;"*XXFD>"
771471:  000000002555  tapcnt                   ;"    5M"
771472:  127070420200                           ;"*XXB" "
771473:  000000002556  tap1                     ;"    5N"
771474:  127070423300                           ;"*XXB; "
771475:  000000002557  tap2                     ;"    5O"
771476:  130165141333                           ;"+!U,+;"
771477:  000000002560  utape2                   ;"    5P"
771500:  130165141335                           ;"+!U,+="
771501:  000000002561  utape4                   ;"    5Q"
771502:  124154232313                           ;"*AL33+"
771503:  000000002564  pipos2                   ;"    5T"
771504:  127070431500                           ;"*XXC- "
771505:  000000002600  tap4                     ;"    6 "
771506:  127070426400                           ;"*XXBT "
771507:  000000002603  tap3                     ;"    6#"
771510:  127070476004                           ;"*XXGP$"
771511:  000000002606  tapfor                   ;"    6&"
771512:  130166134543                           ;"+!V+EC"
771513:  000000002613  uterr2                   ;"    6+"
771514:  130166132603                           ;"+!V+6#"
771515:  000000002617  uter2a                   ;"    6/"
771516:  124246722566                           ;"*BFZ5V"
771517:  000000002627  popret                   ;"    67"
771520:  117420245112                           ;")\04I*"
771521:  000000002640  jdbrk1                   ;"    6@"
771522:  117420245110                           ;")\04I("
771523:  000000002642  jdbrk                    ;"    6B"
771524:  115347613177                           ;")KGQ9_"
771525:  000000002652  gobble                   ;"    6J"
771526:  130165526314                           ;"+!UJS,"
771527:  000000002653  utcntr                   ;"    6K"
771530:  127351262476                           ;"*[I64^"
771531:  000000002665  tstart                   ;"    6U"
771532:  127351262442                           ;"*[I64B"
771533:  000000002667  tstar1                   ;"    6W"
771534:  117420245113                           ;")\04I+"
771535:  000000002703  jdbrk2                   ;"    7#"
771536:  125474741735                           ;"*L\\/="
771537:  000000002707  rcheck                   ;"    7'"
771540:  125517316000                           ;"*M/9P "
771541:  000000002713  .ured                    ;"    7+"
771542:  125517327300                           ;"*M/:[ "
771543:  000000002717  red2                     ;"    7/"
771544:  125517335500                           ;"*M/;M "
771545:  000000002721  red4                     ;"    71"
771546:  125517447646                           ;"*M/D^F"
771547:  000000002723  redrst                   ;"    73"
771550:  131554040000                           ;"+-L$  "
771551:  000000002737  .uwr                     ;"    7?"
771552:  131554627000                           ;"+-LRX "
771553:  000000002746  wr2                      ;"    7F"
771554:  131563246600                           ;"+-S4V "
771555:  000000002750  wrst                     ;"    7H"
771556:  113733330000                           ;")?;;  "
771557:  000000002755  eof                      ;"    7M"
771560:  125505055525                           ;"*M%%M5"
771561:  000000002757  rdatas                   ;"    7O"
771562:  125675347740                           ;"*N]<_@"
771563:  000000002760  rpntr                    ;"    7P"
771564:  125476377740                           ;"*L^?_@"
771565:  000000002761  rcntr                    ;"    7Q"
771566:  125467327010                           ;"*LW:X("
771567:  000000002762  .rbyts                   ;"    7R"
771570:  125467326620                           ;"*LW:V0"
771571:  000000002763  rbytp                    ;"    7S"
771572:  131560122460                           ;"+-P*4P"
771573:  000000002766  wrful                    ;"    7V"
771574:  131346155525                           ;"++F-M5"
771575:  000000002770  wdatas                   ;"    7X"
771576:  131536447740                           ;"+->D_@"
771577:  000000002771  wpntr                    ;"    7Y"
771600:  131337477740                           ;"++?G_@"
771601:  000000002772  wcntr                    ;"    7Z"
771602:  131330427010                           ;"++8BX("
771603:  000000002773  wbyts                    ;"    7["
771604:  131330426620                           ;"++8BV0"
771605:  000000002774  wbytp                    ;"    7\"
771606:  130171241660                           ;"+!Y4.P"
771607:  000000002775  utrld                    ;"    7]"
771610:  110715543116                           ;")'-L9."
771611:  000000003007  aprbk5                   ;"    8'"
771612:  117045464400                           ;")XEFD "
771613:  000000003012  itab                     ;"    8*"
771614:  117045464520                           ;")XEFE0"
771615:  000000003015  itab1                    ;"    8-"
771616:  111654552745                           ;").LM7E"
771617:  000000003016  bytdec                   ;"    8."
771620:  121210522600                           ;"**(J6 "
771621:  000000003025  load                     ;"    85"
771622:  125626410360                           ;"*N6A#P"
771623:  000000003034  rload                    ;"    8<"
771624:  121306660200                           ;"*+&V" "
771625:  000000003050  lup1                     ;"    8H"
771626:  123533555500                           ;"*=;MM "
771627:  000000003073  out4                     ;"    8["
771630:  123533552400                           ;"*=;M4 "
771631:  000000003113  out3                     ;"    9+"
771632:  121210525046                           ;"**(JHF"
771633:  000000003120  loadst                   ;"    90"
771634:  123533673600                           ;"*=;W> "
771635:  000000003127  outt                     ;"    97"
771636:  123533547300                           ;"*=;L[ "
771637:  000000003134  out2                     ;"    9<"
771640:  121041313760                           ;"*(A9?P"
771641:  000000003140  ldred                    ;"    9@"
771642:  121041307770                           ;"*(A8_X"
771643:  000000003146  ldrd2                    ;"    9F"
771644:  126332100754                           ;"*S:('L"
771645:  000000003150  setupr                   ;"    9H"
771646:  121214076500                           ;"**,'U "
771647:  000000003161  .look                    ;"    9Q"
771650:  121214076620                           ;"**,'V0"
771651:  000000003175  look1                    ;"    9]"
771652:  124246670533                           ;"*BFW%;"
771653:  000000003200  popj1a                   ;"    : "
771654:  126263333311                           ;"*RS;;)"
771655:  000000003224  savac0                   ;"    :4"
771656:  126263333310                           ;"*RS;;("
771657:  000000003225  savac                    ;"    :5"
771660:  113773525300                           ;")?[JK "
771661:  000000003231  err2                     ;"    :9"
771662:  113773522200                           ;")?[J2 "
771663:  000000003232  err1                     ;"    ::"
771664:  125523200604                           ;"*M30&$"
771665:  000000003233  restor                   ;"    :;"
771666:  124246670520                           ;"*BFW%0"
771667:  000000003235  popj1                    ;"    :="
771670:  112332227640                           ;")3:2^@"
771671:  000000003236  cpopj                    ;"    :>"
771672:  134355402300  ildb     d, 402300(ch1)  ;"+CM@3 "
771673:  000000003237  .bc2                     ;"    :?"
771674:  134355377200  ildb     d, 377200(ch1)  ;"+CM?Z "
771675:  000000003240  .bc1                     ;"    :@"
771676:  114451005020                           ;")DI H0"
771677:  000000003251  file1                    ;"    :I"
771700:  111752707200                           ;")/JXZ "
771701:  000000003251  file1                    ;"    :I"
771702:  114451005034                           ;")DI H<"
771703:  000000003257  file1b                   ;"    :O"
771704:  114451005140                           ;")DI I@"
771705:  000000003264  file3                    ;"    :T"
771706:  114451005210                           ;")DI J("
771707:  000000003267  file4                    ;"    :W"
771710:  114451005260                           ;")DI JP"
771711:  000000003300  file5                    ;"    ; "
771712:  114451005400                           ;")DI L "
771713:  000000003303  file7                    ;"    ;#"
771714:  114451005330                           ;")DI K8"
771715:  000000003317  file6                    ;"    ;/"
771716:  114451007040                           ;")DI X@"
771717:  000000003336  filer                    ;"    ;>"
771720:  131432115562                           ;"+,:)MR"
771721:  000000003352  winit1                   ;"    ;J"
771722:  127310602460                           ;"*[(P4P"
771723:  000000003361  tpful                    ;"    ;Q"
771724:  112264170620                           ;")2T/&0"
771725:  000000003365  clstp                    ;"    ;U"
771726:  123451447622                           ;"*<ID^2"
771727:  000000003367  opntp1                   ;"    ;W"
771730:  134676426400  ildb     ch1, @426400(ch2);"+F^BT "
771731:  000000003370  .wsb                     ;"    ;X"
771732:  123451447624                           ;"*<ID^4"
771733:  000000003416  opntp3                   ;"    <."
771734:  112353320011                           ;")3K: )"
771735:  000000003443  cresto                   ;"    <C"
771736:  113773530400                           ;")?[K$ "
771737:  000000003464  err3                     ;"    <T"
771740:  113773533500                           ;")?[K= "
771741:  000000003465  err4                     ;"    <U"
771742:  112764544700                           ;")7TLG "
771743:  000000003467  dele                     ;"    <W"
771744:  112764545070                           ;")7TLHX"
771745:  000000003471  dele2                    ;"    <Y"
771746:  114451007136                           ;")DI Y>"
771747:  000000003504  filesl                   ;"    =$"
771750:  130142436720                           ;"+!BCW0"
771751:  000000003524  ured1                    ;"    =4"
771752:  111752710070                           ;")/JY X"
771753:  000000003527  c141a                    ;"    =7"
771754:  130142437040                           ;"+!BCX@"
771755:  000000003550  ured3                    ;"    =H"
771756:  130142437730                           ;"+!BC_8"
771757:  000000003555  urede                    ;"    =M"
771760:  130142436770                           ;"+!BCWX"
771761:  000000003561  ured2                    ;"    =Q"
771762:  125626410400                           ;"*N6A$ "
771763:  000000003602  rloadf                   ;"    >""
771764:  112315103760                           ;")3-(?P"
771765:  000000003603  coast                    ;"    >#"
771766:  121264337200                           ;"**T;Z "
771767:  000000003604  lstp                     ;"    >$"
771770:  114545133100                           ;")EE+9 "
771771:  000000003605  forw                     ;"    >%"
771772:  131560705730                           ;"+-PXO8"
771773:  000000003606  write                    ;"    >&"
771774:  130166116740                           ;"+!V)W@"
771775:  000000003607  utenb                    ;"    >'"
771776:  130146420307                           ;"+!FB#'"
771777:  000000003610  uruntm                   ;"    >("
772000:  127136671200                           ;"*Y>W* "
772001:  000000003611  tem1                     ;"    >)"
772002:  121264301416                           ;"**T8,."
772003:  000000003612  lstfil                   ;"    >*"
772004:  126316333300                           ;"*S.;; "
772005:  000000003613  sdly                     ;"    >+"
772006:  121215114546                           ;"**-)EF"
772007:  000000003614  lossct                   ;"    >,"
772010:  131556733330                           ;"+-N[;8"
772011:  000000003615  wrasm                    ;"    >-"
772012:  130226505200                           ;"+"6HJ "
772013:  000000003620  uwrp                     ;"    >0"
772014:  114555747740                           ;")EM\_@"
772015:  000000003621  ufpntr                   ;"    >1"
772016:  134773600001  ildb     tm, @600001(link);"+G[P !"
772017:  000000003624  $    0                   ;"    >4"
772020:  110512712310                           ;")%*Y3("
772021:  000000003642  acblk                    ;"    >B"
772022:  127673761000                           ;"*^[^( "
772023:  000000003646  uac                      ;"    >F"
772024:  125462351040                           ;"*LR=(@"
772025:  000000003656  rbegb                    ;"    >N"
772026:  121215113670                           ;"**-)>X"
772027:  000000003670  loss2                    ;"    >X"
772030:  121215114010                           ;"**-)@("
772031:  000000003673  loss4                    ;"    >["
772032:  121215113620                           ;"**-)>0"
772033:  000000003717  loss1                    ;"    ?/"
772034:  121215113740                           ;"**-)?@"
772035:  000000003720  loss3                    ;"    ?0"
772036:  125521734540                           ;"*M1[E@"
772037:  000000007676  rendb                    ;"    ^^"
772040:  131323451040                           ;"++3E(@"
772041:  000000007676  rendb                    ;"    ^^"
772042:  113035242504                           ;")8=45$"
772043:  000000013676  dirtab                   ;"   !>^"
772044:  122024406504                           ;"*04@U$"
772045:  000000013702  movtab                   ;"   !?""
772046:  134773600003  ildb     tm, @600003(link);"+G[P #"
772047:  000000014702  cdisp                    ;"   !G""
772050:  110517017140                           ;")%/!Y@"
772051:  000000000004  a                        ;"     $"
772052:  121121567360                           ;"*)1N[P"
772053:  000000000020  nuwbuf                   ;"     0"
772054:  130222344562                           ;"+"2<ER"
772055:  000000002461  uwait1                   ;"    4Q"
772056:  013035423773                           ;"!8=B?["
772057:  002457001631                           ;" 4O .9"
772060:  111117400000                           ;"))/@  "
772061:  000000000005  b                        ;"     %"
772062:  112211166315                           ;")2).S-"
772063:  000000002243  chcnts                   ;"    2C"
772064:  112211166260                           ;")2).RP"
772065:  000000002244  chcnt                    ;"    2D"
772066:  113035365356                           ;")8=>KN"
772067:  000000002272  disful                   ;"    2Z"
772070:  113035344370                           ;")8=<CX"
772071:  000000002302  disad7                   ;"    3""
772072:  113035344366                           ;")8=<CV"
772073:  000000002305  disad5                   ;"    3%"
772074:  113035344367                           ;")8=<CW"
772075:  000000002306  disad6                   ;"    3&"
772076:  124246635740                           ;"*BFSO@"
772077:  000000002312  popaj                    ;"    3*"
772100:  113035344362                           ;")8=<CR"
772101:  000000002315  disad1                   ;"    3-"
772102:  113035344363                           ;")8=<CS"
772103:  000000002332  disad2                   ;"    3:"
772104:  113035344365                           ;")8=<CU"
772105:  000000002337  disad4                   ;"    3?"
772106:  113035344372                           ;")8=<CZ"
772107:  000000002343  disad9                   ;"    3C"
772110:  113035344364                           ;")8=<CT"
772111:  000000002351  disad3                   ;"    3I"
772112:  113173313270                           ;")9[9:X"
772113:  000000002355  dsd3a                    ;"    3M"
772114:  113035344371                           ;")8=<CY"
772115:  000000002360  disad8                   ;"    3P"
772116:  111454414610                           ;"),LAF("
772117:  000000002362  blobs                    ;"    3R"
772120:  121121201110                           ;"*)10)("
772121:  000000002370  lines                    ;"    3X"
772122:  113172563173                           ;")9ZN9["
772123:  000000002371  dsad5a                   ;"    3Y"
772124:  113172563243                           ;")9ZN:C"
772125:  000000002373  dsad6a                   ;"    3["
772126:  113035350174                           ;")8==!\"
772127:  000000002375  disblb                   ;"    3]"
772130:  113035347342                           ;")8=<[B"
772131:  000000002413  disbb1                   ;"    4+"
772132:  113035347343                           ;")8=<[C"
772133:  000000002421  disbb2                   ;"    41"
772134:  112327016300                           ;")37!S "
772135:  000000002450  cpba                     ;"    4H"
772136:  113035406644                           ;")8=@VD"
772137:  000000002452  dislcr                   ;"    4J"
772140:  134773600001  ildb     tm, @600001(link);"+G[P !"
772141:  000000002453  $    0                   ;"    4K"
772142:  113035350750                           ;")8=='H"
772143:  000000001642  disbuf                   ;"    .B"
772144:  534735364000  hrle     ch2, @364000(ch1);"KG=>@ "
772145:  000000001631  .recyc                   ;"    .9"
772146:  111453501154                           ;"),KH)L"
772147:  000000001641  blkopr                   ;"    .A"
772150:  010753201544                           ;"!'K0-D"
772151:  001631000100                           ;" .9 ! "
772152:  113550016600                           ;")=H!V "
772153:  000000000266  ecmd                     ;"    "V"
772154:  123533657200                           ;"*=;UZ "
772155:  000000000264  outp                     ;"    "T"
772156:  112122765000                           ;")12^H "
772157:  000000001610  cbuf                     ;"    .("
772160:  114576674200                           ;")E^WB "
772161:  000000001235  frd1                     ;"    *="
772162:  127443042274                           ;"*\C$2\"
772163:  075000000000                           ;"'H    "
772164:  125465515500                           ;"*LUIM "
772165:  000000000475  rbrk                     ;"    $]"
772166:  114576666000                           ;")E^VP "
772167:  000000001232  frd                      ;"    *:"
772170:  513176341370  hllzs    aa, @341370(ch2);"I9^<+X" "RgsB|"
772171:  000000000001  p                        ;"     !"
772172:  121607033640                           ;"*.'#>@"
772173:  000000777777  maccr                    ;"   ___"
772174:  124341000120                           ;"*CA !0"
772175:  000000001227  punop                    ;"    *7"
772176:  112354263060                           ;")3L68P"
772177:  000000000712  crind                    ;"    '*"
772200:  125523236000                           ;"*M33P "
772201:  000000000151  ret                      ;"    !I"
772202:  111453504410                           ;"),KHD("
772203:  000000001630  blkps                    ;"    .8"
772204:  110473434657                           ;")$[CFO"
772205:  000000000320  aassem                   ;"    #0"
772206:  127203242700                           ;"*Z#47 "
772207:  000000001047  tibe                     ;"    (G"
772210:  110715543114                           ;")'-L9,"
772211:  000000000543  aprbk3                   ;"    %C"
772212:  127206436200                           ;"*Z&CR "
772213:  000000001011  tiop                     ;"    ()"
772214:  127203431500                           ;"*Z#C- "
772215:  000000001012  ticc                     ;"    (*"
772216:  116772111560                           ;")WZ)-P"
772217:  000000000424  iowat                    ;"    $4"
772220:  124255073500                           ;"*BM'= "
772221:  000000000464  ppb4                     ;"    $T"
772222:  112137252000                           ;")1?50 "
772223:  000000000151  ret                      ;"    !I"
772224:  127442563030                           ;"*\BN88"
772225:  000000000452  tyob6                    ;"    $J"
772226:  127203302100                           ;"*Z#81 "
772227:  000000001015  tibo                     ;"    (-"
772230:  127275762100                           ;"*Z]^1 "
772231:  000000001047  tibe                     ;"    (G"
772232:  127443031300                           ;"*\C#+ "
772233:  000000000431  typof                    ;"    $9"
772234:  112762376462                           ;")7R?TR"
772235:  000000777401  decdmp                   ;"   _\!"
772236:  125473501000                           ;"*L[H( "
772237:  000000001163  rcc                      ;"    )S"
772240:  112333415400                           ;")3;AL "
772241:  000000001437  cptr                     ;"    ,?"
772242:  125474662000                           ;"*L\V0 "
772243:  000000000244  rch                      ;"    "D"
772244:  121227040050                           ;"**7$ H"
772245:  000000000003  aa                       ;"     #"
772246:  112534600000                           ;")5<P  "
772247:  000000000007  d                        ;"     '"
772250:  112137447000                           ;")1?DX "
772251:  000000000163  cd2                      ;"    !S"
772252:  112136660000                           ;")1>V  "
772253:  000000000145  cd                       ;"    !E"
772254:  127442562520                           ;"*\BN50"
772255:  000000000416  tyob1                    ;"    $."
772256:  125521666200                           ;"*M1VR "
772257:  000000001404  ren1                     ;"    ,$"
772260:  116753423340                           ;")WKB;@"
772261:  000000000250  rpa                      ;"    "H"
772262:  127275722700                           ;"*Z]Z7 "
772263:  000000001107  tobe                     ;"    )'"
772264:  111726100000                           ;")/6(  "
772265:  000000000006  c                        ;"     &"
772266:  116732333530                           ;")W:;=8"
772267:  000000000556  ilmem                    ;"    %N"
772270:  125505402124                           ;"*M%@14"
772271:  000000000120  rdchar                   ;"    !0"
772272:  124154254600                           ;"*AL5F "
772273:  000000001166  pipun                    ;"    )V"
772274:  126553267400                           ;"*UK6\ "
772275:  000000000710  stopf                    ;"    '("
772276:  127442734600                           ;"*\B[F "
772277:  000000000774  typ5                     ;"    '\"
772300:  127442562400                           ;"*\BN4 "
772301:  000000000345  tyob                     ;"    #E"
772302:  124155156463                           ;"*AM-TS"
772303:  000000000663  pitel2                   ;"    &S"
772304:  110736355000                           ;")'>=H "
772305:  000000001440  arg                      ;"    ,@"
772306:  134426114730  ildb     t, @114730(c)   ;"+D6)G8"
772307:  000000001426  .file                    ;"    ,6"
772310:  125465515740                           ;"*LUIO@"
772311:  000000000515  rbrk3                    ;"    %-"
772312:  123533676700                           ;"*=;WW "
772313:  000000000262  outu                     ;"    "R"
772314:  112356314000                           ;")3N9@ "
772315:  000000001420  crr                      ;"    ,0"
772316:  127443041400                           ;"*\C$, "
772317:  000000001352  typr                     ;"    +J"
772320:  112137644000                           ;")1?T@ "
772321:  000000000153  cd3                      ;"    !K"
772322:  121117150000                           ;"*)/-  "
772323:  000000001107  tobe                     ;"    )'"
772324:  127206001700                           ;"*Z& / "
772325:  000000000567  time                     ;"    %W"
772326:  124255070400                           ;"*BM'$ "
772327:  000000000473  ppb3                     ;"    $["
772330:  125505403100                           ;"*M%@9 "
772331:  000000000004  a                        ;"     $"
772332:  110473361532                           ;")$[>-:"
772333:  000000000341  aasem1                   ;"    #A"
772334:  126501222510                           ;"*U!25("
772335:  000000001111  spccc                    ;"    ))"
772336:  127443041520                           ;"*\C$-0"
772337:  074000000000                           ;"'@    "
772340:  121264300240                           ;"**T8"@"
772341:  000000001343  lstf3                    ;"    +C"
772342:  125462377060                           ;"*LR?XP"
772343:  000000001537  rbend                    ;"    -?"
772344:  127301673700                           ;"*[!W? "
772345:  000000001007  torm                     ;"    ('"
772346:  111117400000                           ;"))/@  "
772347:  000000000005  b                        ;"     %"
772350:  124150726115                           ;"*AHZQ-"
772351:  000000001140  pibufc                   ;"    )@"
772352:  113126340500                           ;")96<% "
772353:  000000001444  dols                     ;"    ,D"
772354:  125465515670                           ;"*LUINX"
772355:  000000000520  rbrk2                    ;"    %0"
772356:  121122440002                           ;"*)2D ""
772357:  000000001331  listf1                   ;"    +9"
772360:  126706600000                           ;"*W&P  "
772361:  000000000010  t                        ;"     ("
772362:  111562334200                           ;")-R;B "
772363:  000000740000  bsup                     ;"   \  "
772364:  127136663000                           ;"*Y>V8 "
772365:  000000001445  tem                      ;"    ,E"
772366:  117631620600                           ;")^9R& "
772367:  000000000212  jret                     ;"    "*"
772370:  110464230000                           ;")$T3  "
772371:  000000000003  aa                       ;"     #"
772372:  134557607156  ildb     link, 607156(tm);"+EOPYN"
772373:  000000001255  .opnrd                   ;"    *M"
772374:  124155156477                           ;"*AM-T_"
772375:  000000000634  pitele                   ;"    &<"
772376:  112167114040                           ;")1W)@@"
772377:  000000001435  cfil3                    ;"    ,="
772400:  127442720200                           ;"*\BZ" "
772401:  000000000716  typ1                     ;"    '."
772402:  124340755320                           ;"*C@]K0"
772403:  000000001226  punip                    ;"    *6"
772404:  134557607142  ildb     link, 607142(tm);"+EOPYB"
772405:  000000001262  .opnr1                   ;"    *R"
772406:  126555625100                           ;"*UMRI "
772407:  000000000631  styo                     ;"    &9"
772410:  127442526300                           ;"*\BJS "
772411:  000000000607  tab                      ;"    &'"
772412:  121725406565                           ;"*/5@UU"
772413:  000000001247  midres                   ;"    *G"
772414:  124340726530                           ;"*C@ZU8"
772415:  000000001516  punbe                    ;"    -."
772416:  122723271200                           ;"*737* "
772417:  000000001443  num1                     ;"    ,C"
772420:  127442562640                           ;"*\BN6@"
772421:  000000000437  tyob3                    ;"    $?"
772422:  124255054000                           ;"*BM%@ "
772423:  000000000460  tppb                     ;"    $P"
772424:  121215114411                           ;"**-)D)"
772425:  000000000024  lossag                   ;"     4"
772426:  122723263000                           ;"*7368 "
772427:  000000001442  num                      ;"    ,B"
772430:  114611545601                           ;")F)LN!"
772431:  000000001004  fshflg                   ;"    ($"
772432:  127443032000                           ;"*\C#0 "
772433:  000000000445  typon                    ;"    $E"
772434:  123533610054                           ;"*=;Q L"
772435:  000000000262  outu                     ;"    "R"
772436:  113546701125                           ;")=FX)5"
772437:  000000001014  echocc                   ;"    (,"
772440:  131432115560                           ;"+,:)MP"
772441:  000000001410  winit                    ;"    ,("
772442:  127443041570                           ;"*\C$-X"
772443:  000000001360  typr2                    ;"    +P"
772444:  127275776500                           ;"*Z]_U "
772445:  000000000240  tobs                     ;"    "@"
772446:  124154626074                           ;"*ALRP\"
772447:  000000001112  pirpa3                   ;"    )*"
772450:  124050315620                           ;"*@H9N0"
772451:  000000001206  pbrk1                    ;"    *&"
772452:  110715543120                           ;")'-L90"
772453:  000000000534  aprbk7                   ;"    %<"
772454:  127301116200                           ;"*[!)R "
772455:  000000001006  toop                     ;"    (&"
772456:  125466265000                           ;"*LV6H "
772457:  000000001517  rbuf                     ;"    -/"
772460:  124153251460                           ;"*AK5,P"
772461:  000000001230  pilpt                    ;"    *8"
772462:  114576677300                           ;")E^W[ "
772463:  000000001231  frd2                     ;"    *9"
772464:  124340727350                           ;"*C@Z[H"
772465:  000000001446  punbo                    ;"    ,F"
772466:  114544175000                           ;")ED/H "
772467:  000000000100  foo                      ;"    ! "
772470:  115355042000                           ;")KM$0 "
772471:  000000000112  gox                      ;"    !*"
772472:  127442562760                           ;"*\BN7P"
772473:  000000000455  tyob5                    ;"    $M"
772474:  114530220000                           ;")E82  "
772475:  000000001265  fnf                      ;"    *U"
772476:  112167114110                           ;")1W)A("
772477:  000000001436  cfil4                    ;"    ,>"
772500:  113773514000                           ;")?[I@ "
772501:  000000000234  err                      ;"    "<"
772502:  127442731500                           ;"*\B[- "
772503:  000000000751  typ4                     ;"    'I"
772504:  116244702300                           ;")RDX3 "
772505:  000000000713  htyi                     ;"    '+"
772506:  127277540200                           ;"*Z_L" "
772507:  000000001005  toip                     ;"    (%"
772510:  121122440003                           ;"*)2D #"
772511:  000000001276  listf2                   ;"    *^"
772512:  127353560000                           ;"*[KN  "
772513:  000000000011  tt                       ;"     )"
772514:  125521724130                           ;"*M1ZA8"
772515:  000000001373  renam                    ;"    +["
772516:  127364261050                           ;"*[T6(H"
772517:  000000000006  c                        ;"     &"
772520:  114400166600                           ;")D .V "
772521:  000000000420  tfeed                    ;"    $0"
772522:  113546702120                           ;")=FX10"
772523:  000000001013  echop                    ;"    (+"
772524:  124154626070                           ;"*ALRPX"
772525:  000000001117  pirpa                    ;"    )/"
772526:  112320013570                           ;")30!=X"
772527:  000000000226  comma                    ;"    "6"
772530:  124050315500                           ;"*@H9M "
772531:  000000001203  pbrk                     ;"    *#"
772532:  123533660140                           ;"*=;V!@"
772533:  000000000462  outpb                    ;"    $R"
772534:  127310602460                           ;"*[(P4P"
772535:  000000001433  tpful                    ;"    ,;"
772536:  113034205100                           ;")8<0I "
772537:  000000000670  ding                     ;"    &X"
772540:  127442737700                           ;"*\B[_ "
772541:  000000000765  typ6                     ;"    'U"
772542:  127205060200                           ;"*Z%&" "
772543:  000000001010  tiip                     ;"    (("
772544:  123311212337                           ;"*;)13?"
772545:  000000001164  oftape                   ;"    )T"
772546:  113550016720                           ;")=H!W0"
772547:  000000000274  ecmd1                    ;"    "\"
772550:  126633423000                           ;"*V;B8 "
772551:  000000000012  sym                      ;"     *"
772552:  116753423342                           ;")WKB;B"
772553:  000000000256  inchr1                   ;"    "N"
772554:  126505577032                           ;"*U%OX:"
772555:  000000001200  spunch                   ;"    * "
772556:  127442557300                           ;"*\BM[ "
772557:  000000000617  tyoa                     ;"    &/"
772560:  124340731510                           ;"*C@[-("
772561:  000000001225  puncc                    ;"    *5"
772562:  123533644656                           ;"*=;TFN"
772563:  000000000265  outlpt                   ;"    "U"
772564:  110736366300                           ;")'>>S "
772565:  000000001441  arg2                     ;"    ,A"
772566:  125510366200                           ;"*M(>R "
772567:  000000001161  rdop                     ;"    )Q"
772570:  121264300310                           ;"**T8#("
772571:  000000001370  lstf4                    ;"    +X"
772572:  114152000000                           ;")AJ   "
772573:  000000000014  f                        ;"     ,"
772574:  121121221500                           ;"*)12- "
772575:  000000000013  link                     ;"     +"
772576:  112764544700                           ;")7TLG "
772577:  000000001424  dele                     ;"    ,4"
772600:  127442562710                           ;"*\BN7("
772601:  000000000444  tyob4                    ;"    $D"
772602:  116557642374                           ;")UOT3\"
772603:  000000000526  iaprbr                   ;"    %6"
772604:  127442726400                           ;"*\BZT "
772605:  000000000741  typ3                     ;"    'A"
772606:  124154626075                           ;"*ALRP]"
772607:  000000001133  pirpa4                   ;"    );"
772610:  115344610000                           ;")KDQ  "
772611:  000000000100  foo                      ;"    ! "
772612:  123533677640                           ;"*=;W^@"
772613:  000000000460  tppb                     ;"    $P"
772614:  127364337566                           ;"*[T;]V"
772615:  000000000554  ttyret                   ;"    %L"
772616:  113034206300                           ;")8<0S "
772617:  000000001110  dingf                    ;"    )("
772620:  124057534050                           ;"*@OK@H"
772621:  000000000003  aa                       ;"     #"
772622:  125475022060                           ;"*L]"0P"
772623:  000000000240  tobs                     ;"    "@"
772624:  125511366600                           ;"*M)>V "
772625:  000000001151  rdst                     ;"    )I"
772626:  124255065300                           ;"*BM&K "
772627:  000000000463  ppb2                     ;"    $S"
772630:  125507010200                           ;"*M'!" "
772631:  000000001162  rdip                     ;"    )R"
772632:  121122440004                           ;"*)2D $"
772633:  000000001311  listf3                   ;"    +)"
772634:  112332227640                           ;")3:2^@"
772635:  000000000246  cpopj                    ;"    "F"
772636:  124341015012                           ;"*CA!H*"
772637:  000000001222  punstp                   ;"    *2"
772640:  127442523200                           ;"*\BJ: "
772641:  000000000776  tyo1                     ;"    '^"
772642:  125511176600                           ;"*M)/V "
772643:  000000001165  rdrun                    ;"    )U"
772644:  124155156462                           ;"*AM-TR"
772645:  000000000673  pitel1                   ;"    &["
772646:  127351341507                           ;"*[I<-'"
772647:  000000000711  tstptm                   ;"    ')"
772650:  115345202000                           ;")KE00 "
772651:  000000000132  go1                      ;"    !:"
772652:  125753244466                           ;"*OK4DV"
772653:  000000000215  rubout                   ;"    "-"
772654:  127252616000                           ;"*ZJQP "
772655:  000000000343  tmd                      ;"    #C"
772656:  121122440000                           ;"*)2D  "
772657:  000000001267  listf                    ;"    *W"
772660:  125511506530                           ;"*M)HU8"
772661:  000000000523  rdtem                    ;"    %3"
772662:  127442726520                           ;"*\BZU0"
772663:  000000000746  typ31                    ;"    'F"
772664:  052260547440                           ;"%2PL\@"
772665:  400000000000  setz     ff,             ;"@     " "@\0\0\0\0"
772666:  052260547463                           ;"%2PL\S"
772667:  401000000000  setzi    ff,             ;"@(    " "@ \0\0\0"
772670:  052260547467                           ;"%2PL\W"
772671:  402000000000  setzm    ff              ;"@0    " "@@\0\0\0"
772672:  052260547454                           ;"%2PL\L"
772673:  403000000000  setzb    ff, ff          ;"@8    " "@`\0\0\0"
772674:  052320235340                           ;"%303K@"
772675:  700300000000  consz    apr, ff         ;"X#    " "p\f\0\0\0"
772676:  052320234450                           ;"%303DH"
772677:  700340000000  conso    apr, ff         ;"X#@   "
772700:  052717441670                           ;"%7/D.X" "\n\\|C\\"
772701:  700040000000  datai    apr, ff         ;"X @   "
772702:  052717442250                           ;"%7/D2H" "\n\\|DT"
772703:  700140000000  datao    apr, ff         ;"X!@   "
772704:  051453454300                           ;"%,KEC " "\n2\\X`"
772705:  700000000000  blki     apr, ff         ;"X     " "p\0\0\0\0"
772706:  051453477100                           ;"%,KGY " "\n2\\~ "
772707:  700100000000  blko     apr, ff         ;"X!    "
772710:  052320173300                           ;"%30/; "
772711:  700240000000  coni     apr, ff         ;"X"@   " "p\n\0\0\0"
772712:  052320216100                           ;"%301Q "
772713:  700200000000  cono     apr, ff         ;"X"    "
772714:  064145630000                           ;"&AES  "
772715:  000400000000                           ;" $    "
772716:  064327442000                           ;"&C7D0 " "\r\r<D\0"
772717:  010000000000                           ;"!     "
772720:  064330034000                           ;"&C8#@ " "\r\r@8\0"
772721:  010400000000                           ;"!$    "
772722:  052347440000                           ;"%3GD  " "\nN<@\0"
772723:  011400000000                           ;"!,    "
772724:  067364207000                           ;"&[T0X "
772725:  012000000000                           ;"!0    "
772726:  061226766000                           ;"&*6^P " "\f)7l\0"
772727:  012400000000                           ;"!4    "
772730:  053035301000                           ;"%8=8( "
772731:  013000000000                           ;"!8    "
772732:  052733550000                           ;"%7;M  " "\n]]P\0"
772733:  020000000000                           ;""     "
772734:  070165411000                           ;"'!UA( "
772735:  021000000000                           ;""(    "
772736:  070171331000                           ;"'!Y;( "
772737:  021400000000                           ;"",    "
772740:  052742663300                           ;"%7BV; "
772741:  030000000000                           ;"#     "
772742:  052742666400                           ;"%7BVT "
772743:  030400000000                           ;"#$    "
772744:  067421242000                           ;"&\140 " "\rq\nD\0"
772745:  031000000000                           ;"#(    "
772746:  075334270000                           ;"'K<7  "
772747:  000000776631  $m                       ;"   _V9"
772750:  075265230000                           ;"'JU3  "
772751:  000000776626  $i                       ;"   _V6"
772752:  012754626000                           ;"!7LRP "
772753:  000000000000                           ;"      "
772754:  052754626000                           ;"%7LRP " "\n^f,\0"
772755:  000000774000  ddt                      ;"   _@ "
772756:  075022154000                           ;"'H2-@ "
772757:  000000776632  $1b                      ;"   _V:"
772760:  075033764000                           ;"'H;^@ "
772761:  000000776635  $2b                      ;"   _V="
772762:  075045574000                           ;"'HEO@ "
772763:  000000776640  $3b                      ;"   _V@"
772764:  075057404000                           ;"'HO@@ "
772765:  000000776643  $4b                      ;"   _VC"
772766:  075071214000                           ;"'HY1@ "
772767:  000000776646  $5b                      ;"   _VF"
772770:  075103024000                           ;"'I#"@ "
772771:  000000776651  $6b                      ;"   _VI"
772772:  075114634000                           ;"'I,S@ "
772773:  000000776654  $7b                      ;"   _VL"
772774:  075126444000                           ;"'I6D@ "
772775:  000000776657  $8b                      ;"   _VO"
773000:  261040000002  push     p, i            ;"6(@  ""
773001:  336000773033  skipn    773033          ;";P _8;"
773002:  334100776037  skipa    i, 776037       ;";A _P?"
773003:  205100604000  movsi    i, 604000       ;"0I P@ "
773004:  202100776013  movem    i, 776013       ;"01 _P+"
773005:  325100773025  jumpge   i, 773025       ;":I _85"
773006:  550240776532  hrrz     b, 776532       ;"M"@_U:"
773007:  275240000352  subi     b, 352          ;"7J@ #J"
773010:  542240773034  hrrm     b, 773034       ;"L2@_8<"
773011:  200100777117  move     i, 777117       ;"0! _Y/"
773012:  202105000000  movem    i, (b)          ;"01%   " " D(\0\0"
773013:  505105000000  hrli     i, (b)          ;"HI%   " "Q$(\0\0"
773014:  541105000001  hrri     i, dschna(b)    ;"L)%  !"
773015:  251105000347  blt      i, 347(b)       ;"5)% #G"
773016:  211100000013  movni    i, link         ;"1)   +"
773017:  202100776714  movem    i, 776714       ;"01 _W,"
773020:  260040773225  pushj    p, 773225       ;"6 @_:5"
773021:  201240773131  movei    b, 773131       ;"0*@_99"
773022:  202240773667  movem    b, 773667       ;"02@_>W"
773023:  460240773022  setcm    b, 773022       ;"F"@_82"
773024:  212240776602  movnm    b, 776602       ;"12@_V""
773025:  262040000002  pop      p, i            ;"60@  ""
773026:  263040000000  popj     p,              ;"68@   " ",b\0\0\0"
773027:  777777777777  conso    typ5, @maccr(tm);"______"
773030:  777704763261  consz    typ5, 763261(a) ;"__$^:Q"
773031:  000000000014  f                        ;"     ,"
773032:  000600763257                           ;" & ^:O"
773033:  777777777777  conso    typ5, @maccr(tm);"______"
773034:  777431763006  blki     typ5, @763006(tt);"_\9^8&"
773035:  261040000005  push     p, b            ;"6(@  %"
773036:  405240000177  andi     b, 177          ;"@J@ !_"
773037:  301240000040  cail     b, tpchna       ;"8*@  @"
773040:  303240000132  caile    b, go1          ;"8:@ !:"
773041:  254000773051  jrst     773051          ;"5@ _8I"
773042:  136240773032  idpb     b, 773032       ;"+R@_8:"
773043:  350000773031  aos      773031          ;"=  _89"
773044:  541240777766  hrri     b, 777766       ;"L*@__V"
773045:  335000000005  skipge   b               ;";H   %"
773046:  202240773031  movem    b, 773031       ;"02@_89"
773047:  262040000005  pop      p, b            ;"60@  %"
773050:  263040000000  popj     p,              ;"68@   " ",b\0\0\0"
773051:  261040000006  push     p, c            ;"6(@  &"
773052:  301240000040  cail     b, tpchna       ;"8*@  @"
773053:  303240000140  caile    b, 140          ;"8:@ !@"
773054:  254000773104  jrst     773104          ;"5@ _9$"
773055:  201300000036  movei    c, 36           ;"0+   >"
773056:  136300773032  idpb     c, 773032       ;"+S _8:"
773057:  200305772743  move     c, 772743(b)    ;"0#%_7C"
773060:  136300773032  idpb     c, 773032       ;"+S _8:"
773061:  201240000035  movei    b, 35           ;"0*@  ="
773062:  262040000006  pop      p, c            ;"60@  &"
773063:  254000773042  jrst     773042          ;"5@ _8B"
773064:  201240000034  movei    b, 34           ;"0*@  <"
773065:  261040000005  push     p, b            ;"6(@  %"
773066:  254000773042  jrst     773042          ;"5@ _8B"
773067:  260040773064  pushj    p, 773064       ;"6 @_8T"
773070:  211240777745  movni    b, 777745       ;"1*@__E"
773071:  261040000005  push     p, b            ;"6(@  %"
773072:  254000773042  jrst     773042          ;"5@ _8B"
773073:  201240000035  movei    b, 35           ;"0*@  ="
773074:  261040000005  push     p, b            ;"6(@  %"
773075:  254000773042  jrst     773042          ;"5@ _8B"
773076:  000000000053                           ;"     K"
773077:  000000000052                           ;"     J"
773100:  000000000054                           ;"     L"
773101:  000000000046                           ;"     F"
773102:  000000000051                           ;"     I"
773103:  000000000050                           ;"     H"
773104:  260040773120  pushj    p, 773120       ;"6 @_90"
773105:  260040773111  pushj    p, 773111       ;"6 @_9)"
773106:  260040773120  pushj    p, 773120       ;"6 @_90"
773107:  262040000006  pop      p, c            ;"60@  &"
773110:  254000773047  jrst     773047          ;"5@ _8G"
773111:  231240000010  idivi    b, t            ;"3*@  ("
773112:  506301000000  hrlm     c, (p)          ;"HS!   "
773113:  332000000005  skipe    b               ;";0   %"
773114:  260040773111  pushj    p, 773111       ;"6 @_9)"
773115:  554241000000  hlrz     b, (p)          ;"MBA   "
773116:  271240000060  addi     b, 60           ;"7*@  P"
773117:  254000773035  jrst     773035          ;"5@ _8="
773120:  201300000036  movei    c, 36           ;"0+   >"
773121:  136300773032  idpb     c, 773032       ;"+S _8:"
773122:  201300000050  movei    c, 50           ;"0+   H"
773123:  136300773032  idpb     c, 773032       ;"+S _8:"
773124:  201300000035  movei    c, 35           ;"0+   ="
773125:  136300773032  idpb     c, 773032       ;"+S _8:"
773126:  263040000000  popj     p,              ;"68@   " ",b\0\0\0"
773127:  350240776714  aos      b, 776714       ;"="@_W,"
773130:  303240000012  caile    b, sym          ;"8:@  *"
773131:  211240000012  movni    b, sym          ;"1*@  *"
773132:  202240776714  movem    b, 776714       ;"02@_W,"
773133:  271240000012  addi     b, sym          ;"7*@  *"
773134:  221240000013  imuli    b, link         ;"2*@  +"
773135:  270240773034  add      b, 773034       ;"7"@_8<"
773136:  505240000600  hrli     b, 600          ;"HJ@ & "
773137:  202240773032  movem    b, 773032       ;"02@_8:"
773140:  202240776715  movem    b, 776715       ;"02@_W-"
773141:  200100776714  move     i, 776714       ;"0! _W,"
773142:  260040773067  pushj    p, 773067       ;"6 @_8W"
773143:  322100773145  jumpe    i, 773145       ;":1 _9E"
773144:  366100773146  sojn     i, 773146       ;">Q _9F"
773145:  260040773070  pushj    p, 773070       ;"6 @_8X"
773146:  200240776714  move     b, 776714       ;"0"@_W,"
773147:  270240776544  add      b, 776544       ;"7"@_UD"
773150:  261040000005  push     p, b            ;"6(@  %"
773151:  260040776126  pushj    p, 776126       ;"6 @_Q6"
773152:  256740776756  xct      tm, 776756      ;"5W@_WN"
773153:  256000776756  xct      776756          ;"5P _WN"
773154:  337000773031  skipg    773031          ;";X _89"
773155:  254000773153  jrst     773153          ;"5@ _9K"
773156:  262040000002  pop      p, i            ;"60@  ""
773157:  260040775747  pushj    p, 775747       ;"6 @_OG"
773160:  254000773175  jrst     773175          ;"5@ _9]"
773161:  260040776047  pushj    p, 776047       ;"6 @_PG"
773162:  260040773073  pushj    p, 773073       ;"6 @_8["
773163:  200240773032  move     b, 773032       ;"0"@_8:"
773164:  603240770000  tlne     b, 770000       ;"P:@_  "
773165:  254000773162  jrst     773162          ;"5@ _9R"
773166:  274240776715  sub      b, 776715       ;"7B@_W-"
773167:  571245777765  hrrei    b, 777765(b)    ;"O*E__U"
773170:  321240773162  jumpl    b, 773162       ;":*@_9R"
773171:  260040773216  pushj    p, 773216       ;"6 @_:."
773172:  352000773027  aose     773027          ;"=0 _87"
773173:  254000773171  jrst     773171          ;"5@ _9Y"
773174:  254000773127  jrst     773127          ;"5@ _97"
773175:  256640776756  xct      ch1, 776756     ;"5V@_WN"
773176:  254000773162  jrst     773162          ;"5@ _9R"
773177:  370001000000  sos      (p)             ;"? !   "
773200:  370001000000  sos      (p)             ;"? !   "
773201:  336000773033  skipn    773033          ;";P _8;"
773202:  263040000000  popj     p,              ;"68@   " ",b\0\0\0"
773203:  261040776017  push     p, 776017       ;"6(@_P/"
773204:  201750776556  movei    tm, 776556(t)   ;"0/H_UN" " >G}7"
773205:  251750776565  blt      tm, 776565(t)   ;"5/H_UU"
773206:  256010776576  xct      776576(t)       ;"5P(_U^" "+@G}?"
773207:  641240000040  tlc      b, tpchna       ;"T*@  @"
773210:  202240776013  movem    b, 776013       ;"02@_P+"
773211:  431400000023  xori     t, 23           ;"C,   3"
773212:  205750776556  movsi    tm, 776556(t)   ;"0OH_UN" "!>G}7"
773213:  251740000007  blt      tm, d           ;"5/@  '"
773214:  262040776017  pop      p, 776017       ;"60@_P/"
773215:  263040000000  popj     p,              ;"68@   " ",b\0\0\0"
773216:  713340000200  conso    130, mrsw       ;"Y;@ " "
773217:  254000773222  jrst     773222          ;"5@ _:2"
773220:  713100773030  blko     130, 773030     ;"Y9 _88"
773221:  260040773225  pushj    p, 773225       ;"6 @_:5"
773222:  256000776013  xct      776013          ;"5P _P+"
773223:  254000773203  jrst     773203          ;"5@ _:#"
773224:  263040000000  popj     p,              ;"68@   " ",b\0\0\0"
773225:  202240773030  movem    b, 773030       ;"02@_88"
773226:  201240000040  movei    b, tpchna       ;"0*@  @"
773227:  367240773227  sojg     b, 773227       ;">Z@_:7"
773230:  713200000100  cono     130, foo        ;"Y:  ! "
773231:  713140777120  datao    130, 777120     ;"Y9@_Y0"
773232:  200240773034  move     b, 773034       ;"0"@_8<"
773233:  250240773030  exch     b, 773030       ;"5"@_88"
773234:  476000773027  setom    773027          ;"GP _87"
773235:  263040000000  popj     p,              ;"68@   " ",b\0\0\0"
773236:  205140777773  movsi    aa, 777773      ;"0I@__["
773237:  200103773250  move     i, 773250(aa)   ;"0!#_:H"
773240:  404110776567  and      i, 776567(t)    ;"@A(_UW"
773241:  616243773250  tdnn     b, 773250(aa)   ;"QRC_:H"
773242:  434240000002  or       b, i            ;"CB@  ""
773243:  253140773237  aobjn    aa, 773237      ;"59@_:?"
773244:  402000776521  setzm    776521          ;"@0 _U1"
773245:  621000100000  tlz      ff, hfwdf       ;"R( (  "
773246:  402000776516  setzm    776516          ;"@0 _U."
773247:  254000776203  jrst     776203          ;"5@ _R#"
773250:  777000000000  blki     770, ff         ;"_X    "
773251:  000740000000                           ;" '@   "
773252:  000020000000                           ;"  0   "
773253:  000017000000                           ;"  /   "
773254:  000000777777  maccr                    ;"   ___"
773255:  260040773270  pushj    p, 773270       ;"6 @_:X"
773256:  260040773307  pushj    p, 773307       ;"6 @_;'"
773257:  202240776525  movem    b, 776525       ;"02@_U5"
773260:  260040773307  pushj    p, 773307       ;"6 @_;'"
773261:  316240776525  camn     b, 776525       ;"9R@_U5"
773262:  254000773265  jrst     773265          ;"5@ _:U"
773263:  260040773303  pushj    p, 773303       ;"6 @_;#"
773264:  254000773260  jrst     773260          ;"5@ _:P"
773265:  200240776570  move     b, 776570       ;"0"@_UX"
773266:  402000776517  setzm    776517          ;"@0 _U/"
773267:  254000776203  jrst     776203          ;"5@ _R#"
773270:  626000000001  trzn     ff, p           ;"RP   !"
773271:  254000773301  jrst     773301          ;"5@ _;!"
773272:  201340000040  movei    d, tpchna       ;"0+@  @"
773273:  200300776517  move     c, 776517       ;"0# _U/"
773274:  306300000006  cain     c, c            ;"8S   &"
773275:  542340773303  hrrm     d, 773303       ;"L3@_;#"
773276:  306300000007  cain     c, d            ;"8S   '"
773277:  513000773303  hllzs    ff, 773303      ;"I8 _;#"
773300:  137300777121  dpb      c, 777121       ;"+[ _Y1"
773301:  200300773313  move     c, 773313       ;"0# _;+"
773302:  263040000000  popj     p,              ;"68@   " ",b\0\0\0"
773303:  275240000000  subi     b, ff           ;"7J@   " "/*\0\0\0"
773304:  136240000006  idpb     b, c            ;"+R@  &"
773305:  541300776570  hrri     c, 776570       ;"L+ _UX"
773306:  263040000000  popj     p,              ;"68@   " ",b\0\0\0"
773307:  260040773353  pushj    p, 773353       ;"6 @_;K"
773310:  302240000177  caie     b, 177          ;"82@ !_"
773311:  263040000000  popj     p,              ;"68@   " ",b\0\0\0"
773312:  254000774126  jrst     774126          ;"5@ _A6"
773313:  440700776570  andcb    ch2, 776570     ;"D' _UX"
773314:  626000000001  trzn     ff, p           ;"RP   !"
773315:  254000775302  jrst     775302          ;"5@ _K""
773316:  336300776517  skipn    c, 776517       ;";S _U/"
773317:  254000774126  jrst     774126          ;"5@ _A6"
773320:  542300775365  hrrm     c, 775365       ;"L3 _KU"
773321:  201340000040  movei    d, tpchna       ;"0+@  @"
773322:  306300000006  cain     c, c            ;"8S   &"
773323:  202340773327  movem    d, 773327       ;"03@_;7"
773324:  306300000007  cain     c, d            ;"8S   '"
773325:  402000773327  setzm    773327          ;"@0 _;7"
773326:  254000775302  jrst     775302          ;"5@ _K""
773327:  000000000000                           ;"      "
773330:  260040773332  pushj    p, 773332       ;"6 @_;:"
773331:  260040773332  pushj    p, 773332       ;"6 @_;:"
773332:  201240000040  movei    b, tpchna       ;"0*@  @"
773333:  254000773431  jrst     773431          ;"5@ _<9"
773334:  740000776075  blki     disize, 776075  ;"\  _P]"
773335:  200240773334  move     b, 773334       ;"0"@_;<"
773336:  135240777122  ldb      b, 777122       ;"+J@_Y2"
773337:  261040773334  push     p, 773334       ;"6(@_;<"
773340:  254000773431  jrst     773431          ;"5@ _<9"
773341:  336000776713  skipn    776713          ;";P _W+"
773342:  260040773471  pushj    p, 773471       ;"6 @_<Y"
773343:  263040000000  popj     p,              ;"68@   " ",b\0\0\0"
773344:  302240000002  caie     b, i            ;"82@  ""
773345:  306240000005  cain     b, b            ;"8R@  %"
773346:  254000773440  jrst     773440          ;"5@ _<@"
773347:  302240000026  caie     b, 26           ;"82@  6"
773350:  306240000027  cain     b, 27           ;"8R@  7"
773351:  254000773440  jrst     773440          ;"5@ _<@"
773352:  254000774677  jrst     774677          ;"5@ _F_"
773353:  332000776713  skipe    776713          ;";0 _W+"
773354:  254020776713  jrst     @776713         ;"5@0_W+"
773355:  134240777777  ildb     b, maccr        ;"+B@___"
773356:  326240773364  jumpn    b, 773364       ;":R@_;T"
773357:  402000777777  setzm    maccr           ;"@0 ___"
773360:  712340000040  conso    tty, tpchna     ;"Y3@  @"
773361:  260040773177  pushj    p, 773177       ;"6 @_9_"
773362:  260040773471  pushj    p, 773471       ;"6 @_<Y"
773363:  255000000000  nop                      ;"5H    " "+ \0\0\0"
773364:  302240000175  caie     b, 175          ;"82@ !]"
773365:  306240000176  cain     b, 176          ;"8R@ !^"
773366:  201240000033  movei    b, 33           ;"0*@  ;"
773367:  332010776574  skipe    776574(t)       ;";0(_U\" "6@G}>"
773370:  254030776574  jrst     @776574(t)      ;"5@8_U\"
773371:  301240000011  cail     b, tt           ;"8*@  )"
773372:  303240000015  caile    b, ch1          ;"8:@  -"
773373:  254000773405  jrst     773405          ;"5@ _<%"
773374:  332000776530  skipe    776530          ;";0 _U8"
773375:  263040000000  popj     p,              ;"68@   " ",b\0\0\0"
773376:  261040000005  push     p, b            ;"6(@  %"
773377:  201240000015  movei    b, ch1          ;"0*@  -"
773400:  260040773440  pushj    p, 773440       ;"6 @_<@"
773401:  201240000012  movei    b, sym          ;"0*@  *"
773402:  260040773440  pushj    p, 773440       ;"6 @_<@"
773403:  262040000005  pop      p, b            ;"60@  %"
773404:  263040000000  popj     p,              ;"68@   " ",b\0\0\0"
773405:  260040773440  pushj    p, 773440       ;"6 @_<@"
773406:  336000776527  skipn    776527          ;";P _U7"
773407:  263040000000  popj     p,              ;"68@   " ",b\0\0\0"
773410:  302240000015  caie     b, ch1          ;"82@  -"
773411:  254000773414  jrst     773414          ;"5@ _<,"
773412:  712600000010  cono     124, t          ;"Y6   ("
773413:  263040000000  popj     p,              ;"68@   " ",b\0\0\0"
773414:  261040000005  push     p, b            ;"6(@  %"
773415:  306240000012  cain     b, sym          ;"8R@  *"
773416:  201240000440  movei    b, 440          ;"0*@ $@"
773417:  306240000014  cain     b, f            ;"8R@  ,"
773420:  201240000441  movei    b, 441          ;"0*@ $A"
773421:  306240000033  cain     b, 33           ;"8R@  ;"
773422:  201240000044  movei    b, 44           ;"0*@  D"
773423:  275240000040  subi     b, tpchna       ;"7J@  @"
773424:  712700000010  consz    124, t          ;"Y7   ("
773425:  260040773177  pushj    p, 773177       ;"6 @_9_"
773426:  712540000005  datao    124, b          ;"Y5@  %"
773427:  262040000005  pop      p, b            ;"60@  %"
773430:  263040000000  popj     p,              ;"68@   " ",b\0\0\0"
773431:  332000773033  skipe    773033          ;";0 _8;"
773432:  260040773216  pushj    p, 773216       ;"6 @_:."
773433:  332010776574  skipe    776574(t)       ;";0(_U\" "6@G}>"
773434:  254030776574  jrst     @776574(t)      ;"5@8_U\"
773435:  260040773406  pushj    p, 773406       ;"6 @_<&"
773436:  336000776530  skipn    776530          ;";P _U8"
773437:  263040000000  popj     p,              ;"68@   " ",b\0\0\0"
773440:  301240000040  cail     b, tpchna       ;"8*@  @"
773441:  254000773465  jrst     773465          ;"5@ _<U"
773442:  306240000177  cain     b, 177          ;"8R@ !_"
773443:  263040000000  popj     p,              ;"68@   " ",b\0\0\0"
773444:  301240000011  cail     b, tt           ;"8*@  )"
773445:  303240000015  caile    b, ch1          ;"8:@  -"
773446:  306240000007  cain     b, d            ;"8R@  '"
773447:  254000773465  jrst     773465          ;"5@ _<U"
773450:  261040000005  push     p, b            ;"6(@  %"
773451:  302240000033  caie     b, 33           ;"82@  ;"
773452:  201240000136  movei    b, 136          ;"0*@ !>"
773453:  306240000033  cain     b, 33           ;"8R@  ;"
773454:  201240000044  movei    b, 44           ;"0*@  D"
773455:  260040773465  pushj    p, 773465       ;"6 @_<U"
773456:  262040000005  pop      p, b            ;"60@  %"
773457:  306240000033  cain     b, 33           ;"8R@  ;"
773460:  263040000000  popj     p,              ;"68@   " ",b\0\0\0"
773461:  660240000100  tro      b, foo          ;"V"@ ! "
773462:  260040773465  pushj    p, 773465       ;"6 @_<U"
773463:  620240000100  trz      b, foo          ;"R"@ ! "
773464:  263040000000  popj     p,              ;"68@   " ",b\0\0\0"
773465:  712300000020  consz    tty, nuwbuf     ;"Y3   0"
773466:  260040773177  pushj    p, 773177       ;"6 @_9_"
773467:  712140000005  datao    tty, b          ;"Y1@  %"
773470:  263040000000  popj     p,              ;"68@   " ",b\0\0\0"
773471:  712340000040  conso    tty, tpchna     ;"Y3@  @"
773472:  263040000000  popj     p,              ;"68@   " ",b\0\0\0"
773473:  712040000005  datai    tty, b          ;"Y0@  %"
773474:  405240000177  andi     b, 177          ;"@J@ !_"
773475:  302240000002  caie     b, i            ;"82@  ""
773476:  254000773501  jrst     773501          ;"5@ _=!"
773477:  476000776527  setom    776527          ;"GP _U7"
773500:  712600000010  cono     124, t          ;"Y6   ("
773501:  306240000005  cain     b, b            ;"8R@  %"
773502:  402000776527  setzm    776527          ;"@0 _U7"
773503:  306240000026  cain     b, 26           ;"8R@  6"
773504:  476000776530  setom    776530          ;"GP _U8"
773505:  306240000027  cain     b, 27           ;"8R@  7"
773506:  402000776530  setzm    776530          ;"@0 _U8"
773507:  254000774677  jrst     774677          ;"5@ _F_"
773510:  200100000005  move     i, b            ;"0!   %"
773511:  327100773517  jumpg    i, 773517       ;":Y _=/"
773512:  322100773526  jumpe    i, 773526       ;":1 _=6"
773513:  213000000002  movns    ff, i           ;"18   ""
773514:  256640776756  xct      ch1, 776756     ;"5V@_WN"
773515:  623100400000  tlze     i, ppss         ;"R9 @  "
773516:  254000773526  jrst     773526          ;"5@ _=6"
773517:  607100000400  tlnn     i, disize       ;"PY  $ "
773520:  256140776756  xct      aa, 776756      ;"5Q@_WN"
773521:  201140000000  movei    aa, ff          ;"0)@   " " &\0\0\0"
773522:  315100773613  camge    i, 773613       ;"9I _>+"
773523:  254000773546  jrst     773546          ;"5@ _=F"
773524:  311100773601  caml     i, 773601       ;"9) _>!"
773525:  344140773546  aoja     aa, 773546      ;"<A@_=F"
773526:  201200000000  movei    a, ff           ;"0*    " " (\0\0\0"
773527:  225100000400  muli     i, disize       ;"2I  $ "
773530:  244142777535  ashc     aa, 777535(i)   ;"4AB_]="
773531:  200100000003  move     i, aa           ;"0!   #"
773532:  402010776571  setzm    776571(t)       ;"@0(_UY"
773533:  260040773566  pushj    p, 773566       ;"6 @_=V"
773534:  256700776756  xct      ch2, 776756     ;"5W _WN"
773535:  211100000010  movni    i, t            ;"1)   ("
773536:  270110776571  add      i, 776571(t)    ;"7!(_UY"
773537:  200300000004  move     c, a            ;"0#   $"
773540:  200240000006  move     b, c            ;"0"@  &"
773541:  225240000012  muli     b, sym          ;"2J@  *"
773542:  260040773575  pushj    p, 773575       ;"6 @_=]"
773543:  332000000006  skipe    c               ;";0   &"
773544:  341100773540  aojl     i, 773540       ;"<) _=@"
773545:  263040000000  popj     p,              ;"68@   " ",b\0\0\0"
773546:  211200000006  movni    a, c            ;"1*   &"
773547:  201340000000  movei    d, ff           ;"0+@   " " .\0\0\0"
773550:  271347000001  addi     d, dschna(d)    ;"7+G  !"
773551:  256003773614  xct      773614(aa)      ;"5P#_>,"
773552:  374000000007  sosa     d               ;"?@   '"
773553:  164123773615  fmpr     i, @773615(aa)  ;".A3_>-"
773554:  346200773550  aojn     a, 773550       ;"<R _=H"
773555:  211143777776  movni    aa, 777776(aa)  ;"1)C__^"
773556:  261040000003  push     p, aa           ;"6(@  #"
773557:  260040773527  pushj    p, 773527       ;"6 @_=7"
773560:  201240000105  movei    b, 105          ;"0*@ !%"
773561:  260040773431  pushj    p, 773431       ;"6 @_<9"
773562:  262040000005  pop      p, b            ;"60@  %"
773563:  137240777123  dpb      b, 777123       ;"+Z@_Y3"
773564:  256540776756  xct      link, 776756    ;"5U@_WN"
773565:  200100000007  move     i, d            ;"0!   '"
773566:  322100773574  jumpe    i, 773574       ;":1 _=\"
773567:  231100000012  idivi    i, sym          ;"3)   *"
773570:  350010776571  aos      776571(t)       ;"= (_UY"
773571:  506141000000  hrlm     aa, (p)         ;"HQA   "
773572:  322100773574  jumpe    i, 773574       ;":1 _=\"
773573:  260040773566  pushj    p, 773566       ;"6 @_=V"
773574:  554241000000  hlrz     b, (p)          ;"MBA   "
773575:  271240000260  addi     b, 260          ;"7*@ "P"
773576:  254000773431  jrst     773431          ;"5@ _<9"
773577:  353473426555  aosle    tt, @426555(link);"=<[BUM"
773600:  266434157116  jsa      t, @157116(f)   ;"6T<-Y." "-Qa^'"
773601:  233575360400  idivb    link, @360400(ch1);"3=]>$ " "&wka\0"
773602:  216470400000  movmm    tt, @ppss(t)    ;"1TX@  " "#SD\0\0"
773603:  207620000000  movss    f, @ff          ;"0^0   " "!y\0\0\0"
773604:  204500000000  movs     sym, ff         ;"0E    "
773605:  201400000000  movei    t, ff           ;"0,    " " 0\0\0\0"
773606:  026637304365                           ;""V?8CU"
773607:  113715126246                           ;")?-*RF"
773610:  146527461670  fadrm    sym, @461670(d) ;",U7F.X"
773611:  163643334273  fmpb     ch1, 334273(aa) ;".>C;B["
773612:  172507534122  fdvm     sym, 534122(d)  ;"/5'KA2"
773613:  175631463146  fdvri    f, @463146(tt)  ;"/N9F9F"
773614:  313104773614  camle    i, 773614(a)    ;"99$_>," "2d'wF"
773615:  315104773605  camge    i, 773605(a)    ;"9I$_>%"
773616:  000004773614                           ;"  $_>,"
773617:  000000000000                           ;"      "
773620:  254000774131  jrst     774131          ;"5@ _A9"
773621:  740000775343  blki     disize, 775343  ;"\  _KC"
773622:  740000773465  blki     disize, 773465  ;"\  _<U"
773623:  316110776572  camn     i, 776572(t)    ;"9Q(_UZ" "3DG}="
773624:  316110776572  camn     i, 776572(t)    ;"9Q(_UZ" "3DG}="
773625:  316110776572  camn     i, 776572(t)    ;"9Q(_UZ" "3DG}="
773626:  616342000000  tdnn     d, (i)          ;"QSB   "
773627:  616342000000  tdnn     d, (i)          ;"QSB   "
773630:  440700774337  andcb    ch2, 774337     ;"D' _C?"
773631:  030110776566                           ;"#!(_UV"
773632:  221100774433  imuli    i, 774433       ;"2) _D;"
773633:  000000000001  p                        ;"     !"
773667:  740000773162  blki     disize, 773162  ;"\  _9R"
773670:  740000776107  blki     disize, 776107  ;"\  _Q'"
773671:  740000776132  blki     disize, 776132  ;"\  _Q:"
773672:  740000776015  blki     disize, 776015  ;"\  _P-"
773673:  316110776572  camn     i, 776572(t)    ;"9Q(_UZ" "3DG}="
773674:  000000000067                           ;"     W"
773675:  000000000067                           ;"     W"
773676:  000000000067                           ;"     W"
773776:  770362763360  conso    700, @763360(i) ;"_#R^;P"
773777:  000000773776                           ;"   _?^"
ddt:
774000:  402000776713  setzm    776713          ;"@0 _W+"
774001:  402000776574  setzm    776574          ;"@0 _U\"
774002:  264000776716  jsr      776716          ;"6@ _W."
774003:  260040776450  pushj    p, 776450       ;"6 @_TH"
774004:  335000773777  skipge   773777          ;";H _?_"
774005:  254000777076  jrst     777076          ;"5@ _X^"
774006:  201040773617  movei    p, 773617       ;"0(@_>/"
774007:  260040773000  pushj    p, 773000       ;"6 @_8 "
774010:  621000000010  tlz      ff, t           ;"R(   ("
774011:  260040776756  pushj    p, 776756       ;"6 @_WN"
774012:  200240777124  move     b, 777124       ;"0"@_Y4"
774013:  251240776705  blt      b, 776705       ;"5*@_W%"
774014:  201040773617  movei    p, 773617       ;"0(@_>/"
774015:  402000776520  setzm    776520          ;"@0 _U0"
774016:  200240776531  move     b, 776531       ;"0"@_U9"
774017:  202240776532  movem    b, 776532       ;"02@_U:"
774020:  630000777125  tdz      ff, 777125      ;"S  _Y5"
774021:  630000777126  tdz      ff, 777126      ;"S  _Y6"
774022:  402000776516  setzm    776516          ;"@0 _U."
774023:  402000776521  setzm    776521          ;"@0 _U1"
774024:  201240000001  movei    b, p            ;"0*@  !"
774025:  202240776712  movem    b, 776712       ;"02@_W*"
774026:  621000040200  tlz      ff, 40200       ;"R( $" "
774027:  621000420044  tlz      ff, 420044      ;"R( B D"
774030:  402000776522  setzm    776522          ;"@0 _U2"
774031:  402000776541  setzm    776541          ;"@0 _UA"
774032:  205240036411  movsi    b, 36411        ;"0J@#T)"
774033:  202250776570  movem    b, 776570(t)    ;"02H_UX" " JG}<"
774034:  402000776523  setzm    776523          ;"@0 _U3"
774035:  402000776517  setzm    776517          ;"@0 _U/"
774036:  260040773353  pushj    p, 773353       ;"6 @_;K"
774037:  603000000040  tlne     ff, tpchna      ;"P8   @"
774040:  254000774045  jrst     774045          ;"5@ _@E"
774041:  307240000132  caig     b, go1          ;"8Z@ !:"
774042:  305240000101  caige    b, 101          ;"8J@ !!"
774043:  254000774045  jrst     774045          ;"5@ _@E"
774044:  254000774506  jrst     774506          ;"5@ _E&"
774045:  200100000005  move     i, b            ;"0!   %"
774046:  306240000177  cain     b, 177          ;"8R@ !_"
774047:  254000774126  jrst     774126          ;"5@ _A6"
774050:  303240000137  caile    b, 137          ;"8:@ !?"
774051:  254000774126  jrst     774126          ;"5@ _A6"
774052:  231100000003  idivi    i, aa           ;"3)   #"
774053:  135203777030  ldb      a, 777030(aa)   ;"+J#_X8"
774054:  305200001042  caige    a, 1042         ;"8J  (B"
774055:  254004774000  jrst     ddt(a)          ;"5@$_@ "
774056:  200240776522  move     b, 776522       ;"0"@_U2"
774057:  627000000020  tlzn     ff, nuwbuf      ;"RX   0"
774060:  254000774604  jrst     774604          ;"5@ _F$"
774061:  260040774656  pushj    p, 774656       ;"6 @_FN"
774062:  254000774134  jrst     774134          ;"5@ _A<"
774063:  623000000002  tlze     ff, i           ;"R8   ""
774064:  210240000005  movn     b, b            ;"1"@  %"
774065:  607000000004  tlnn     ff, a           ;"PX   $"
774066:  302200001051  caie     a, 1051         ;"82  (I"
774067:  254000774071  jrst     774071          ;"5@ _@Y"
774070:  254000775051  jrst     775051          ;"5@ _HI"
774071:  250240776712  exch     b, 776712       ;"5"@_W*"
774072:  607000040000  tlnn     ff, vot         ;"PX $  "
774073:  223240776712  imulb    b, 776712       ;"2:@_W*"
774074:  623000040000  tlze     ff, vot         ;"R8 $  "
774075:  233240776712  idivb    b, 776712       ;"3:@_W*"
774076:  305200001045  caige    a, 1045         ;"8J  (E"
774077:  254004774000  jrst     ddt(a)          ;"5@$_@ "
774100:  273240776521  addb     b, 776521       ;"7:@_U1"
774101:  305200001102  caige    a, 1102         ;"8J  )""
774102:  254004774000  jrst     ddt(a)          ;"5@$_@ "
774103:  270240776516  add      b, 776516       ;"7"@_U."
774104:  603000100000  tlne     ff, hfwdf       ;"P8 (  "
774105:  500240776516  hll      b, 776516       ;"H"@_U."
774106:  202240776516  movem    b, 776516       ;"02@_U."
774107:  607000000001  tlnn     ff, p           ;"PX   !"
774110:  200250776567  move     b, 776567(t)    ;"0"H_UW"
774111:  402000000002  setzm    i               ;"@0   ""
774112:  200300776532  move     c, 776532       ;"0# _U:"
774113:  316300776531  camn     c, 776531       ;"9S _U9"
774114:  254000774117  jrst     774117          ;"5@ _A/"
774115:  303200001164  caile    a, oftape       ;"8:  )T"
774116:  254000774126  jrst     774126          ;"5@ _A6"
774117:  307200001106  caig     a, 1106         ;"8Z  )&"
774120:  254004774000  jrst     ddt(a)          ;"5@$_@ "
774121:  261040774711  push     p, 774711       ;"6(@_G)"
774122:  336000776520  skipn    776520          ;";P _U0"
774123:  254004774000  jrst     ddt(a)          ;"5@$_@ "
774124:  201240000125  movei    b, 125          ;"0*@ !5"
774125:  254000774127  jrst     774127          ;"5@ _A7"
774126:  201240000077  movei    b, 77           ;"0*@  _"
774127:  201040773617  movei    p, 773617       ;"0(@_>/"
774130:  260040773431  pushj    p, 773431       ;"6 @_<9"
774131:  201040773617  movei    p, 773617       ;"0(@_>/"
774132:  260040773330  pushj    p, 773330       ;"6 @_;8"
774133:  254000774014  jrst     774014          ;"5@ _@,"
774134:  200100776532  move     i, 776532       ;"0! _U:"
774135:  260040774662  pushj    p, 774662       ;"6 @_FR"
774136:  306200001045  cain     a, 1045         ;"8R  (E"
774137:  607000000010  tlnn     ff, t           ;"PX   ("
774140:  254000774177  jrst     774177          ;"5@ _A_"
774141:  135240777127  ldb      b, 777127       ;"+J@_Y7"
774142:  326240774124  jumpn    b, 774124       ;":R@_A4"
774143:  302200001045  caie     a, 1045         ;"82  (E"
774144:  256140776756  xct      aa, 776756      ;"5Q@_WN"
774145:  210100777130  movn     i, 777130       ;"1! _Y8"
774146:  273100776532  addb     i, 776532       ;"79 _U:"
774147:  260040773000  pushj    p, 773000       ;"6 @_8 "
774150:  200240776541  move     b, 776541       ;"0"@_UA"
774151:  661240040000  tlo      b, vot          ;"V*@$  "
774152:  202242000000  movem    b, (i)          ;"02B   "
774153:  550240776545  hrrz     b, 776545       ;"M"@_UE"
774154:  603000000002  tlne     ff, i           ;"P8   ""
774155:  661240400000  tlo      b, ppss         ;"V*@@  "
774156:  202242000001  movem    b, dschna(i)    ;"02B  !"
774157:  401240000000  setzi    b,              ;"@*@   " "@*\0\0\0"
774160:  254000774063  jrst     774063          ;"5@ _@S"
774161:  260040776756  pushj    p, 776756       ;"6 @_WN"
774162:  200100776531  move     i, 776531       ;"0! _U9"
774163:  325100774010  jumpge   i, 774010       ;":I _@("
774164:  200242000000  move     b, (i)          ;"0"B   "
774165:  334300776531  skipa    c, 776531       ;";C _U9"
774166:  270300777130  add      c, 777130       ;"7# _Y8"
774167:  312246000000  came     b, (c)          ;"92F   " "2J0\0\0"
774170:  254000774166  jrst     774166          ;"5@ _AV"
774171:  312100000006  came     i, c            ;"91   &"
774172:  254000774175  jrst     774175          ;"5@ _A]"
774173:  260040776424  pushj    p, 776424       ;"6 @_T4"
774174:  260040776756  pushj    p, 776756       ;"6 @_WN"
774175:  270100777130  add      i, 777130       ;"7! _Y8"
774176:  254000774163  jrst     774163          ;"5@ _AS"
774177:  200240774203  move     b, 774203       ;"0"@_B#"
774200:  201300776541  movei    c, 776541       ;"0+ _UA"
774201:  200100777131  move     i, 777131       ;"0! _Y9"
774202:  260040776425  pushj    p, 776425       ;"6 @_T5"
774203:  136240000002  idpb     b, i            ;"+R@  ""
774204:  202040774341  movem    p, 774341       ;"00@_CA"
774205:  624000000004  trza     ff, a           ;"R@   $"
774206:  660000000004  tro      ff, a           ;"V    $"
774207:  242240777745  lsh      b, 777745       ;"42@__E"
774210:  202250776566  movem    b, 776566(t)    ;"02H_UV" " JG};"
774211:  200240777131  move     b, 777131       ;"0"@_Y9"
774212:  202240774336  movem    b, 774336       ;"02@_C>"
774213:  620000000010  trz      ff, t           ;"R    ("
774214:  403100000006  setzb    i, c            ;"@9   &"
774215:  200340774342  move     d, 774342       ;"0#@_CB"
774216:  134240000007  ildb     b, d            ;"+B@  '"
774217:  303240000040  caile    b, tpchna       ;"8:@  @"
774220:  301240000073  cail     b, 73           ;"8*@  ["
774221:  365100774216  sojge    i, 774216       ;">I _B."
774222:  327100774216  jumpg    i, 774216       ;":Y _B."
774223:  275240000040  subi     b, tpchna       ;"7J@  @"
774224:  322240774253  jumpe    b, 774253       ;":2@_BK"
774225:  327240774236  jumpg    b, 774236       ;":Z@_B>"
774226:  137240777132  dpb      b, 777132       ;"+Z@_Y:"
774227:  620240777774  trz      b, 777774       ;"R"@__\"
774230:  350000000005  aos      b               ;"=    %"
774231:  137240777133  dpb      b, 777133       ;"+Z@_Y;"
774232:  606000000004  trnn     ff, a           ;"PP   $"
774233:  254000774311  jrst     774311          ;"5@ _C)"
774234:  135100774335  ldb      i, 774335       ;"+I _C="
774235:  254000774216  jrst     774216          ;"5@ _B."
774236:  571245777745  hrrei    b, 777745(b)    ;"O*E__E"
774237:  321240774245  jumpl    b, 774245       ;":*@_BE"
774240:  200300000005  move     c, b            ;"0#   %"
774241:  231300000004  idivi    c, a            ;"3+   $"
774242:  200347774342  move     d, 774342(d)    ;"0#G_CB"
774243:  271346000000  addi     d, (c)          ;"7+F   " "..0\0\0"
774244:  254000774216  jrst     774216          ;"5@ _B."
774245:  602000000004  trne     ff, a           ;"P0   $"
774246:  254000774331  jrst     774331          ;"5@ _C9"
774247:  134300774336  ildb     c, 774336       ;"+C _C>"
774250:  302305000133  caie     c, 133(b)       ;"83% !;"
774251:  254000774257  jrst     774257          ;"5@ _BO"
774252:  254000774216  jrst     774216          ;"5@ _B."
774253:  602000000004  trne     ff, a           ;"P0   $"
774254:  263040000000  popj     p,              ;"68@   " ",b\0\0\0"
774255:  134300774336  ildb     c, 774336       ;"+C _C>"
774256:  322300774325  jumpe    c, 774325       ;":3 _C5"
774257:  262040000002  pop      p, i            ;"60@  ""
774260:  262040000007  pop      p, d            ;"60@  '"
774261:  262040774335  pop      p, 774335       ;"60@_C="
774262:  262040774336  pop      p, 774336       ;"60@_C>"
774263:  350000000002  aos      i               ;"=    ""
774264:  137100774335  dpb      i, 774335       ;"+Y _C="
774265:  135100774335  ldb      i, 774335       ;"+I _C="
774266:  326100774313  jumpn    i, 774313       ;":Q _C+"
774267:  312040774341  came     p, 774341       ;"90@_CA"
774270:  254000774257  jrst     774257          ;"5@ _BO"
774271:  205240400000  movsi    b, ppss         ;"0J@@  "
774272:  436240776541  orm      b, 776541       ;"CR@_UA"
774273:  260040774656  pushj    p, 774656       ;"6 @_FN"
774274:  254000774124  jrst     774124          ;"5@ _A4"
774275:  261040000002  push     p, i            ;"6(@  ""
774276:  260040774661  pushj    p, 774661       ;"6 @_FQ"
774277:  256340776756  xct      d, 776756       ;"5S@_WN"
774300:  312100776572  came     i, 776572       ;"91 _UZ"
774301:  256100776756  xct      i, 776756       ;"5Q _WN"
774302:  262040000002  pop      p, i            ;"60@  ""
774303:  202100776572  movem    i, 776572       ;"01 _UZ"
774304:  274100777130  sub      i, 777130       ;"7A _Y8"
774305:  200302000000  move     c, (i)          ;"0#"   "
774306:  603300740000  tlne     c, bsup         ;"P; \  "
774307:  254000774303  jrst     774303          ;"5@ _C#"
774310:  254000774061  jrst     774061          ;"5@ _@Q"
774311:  201100000000  movei    i, ff           ;"0)    " " $\0\0\0"
774312:  137100774335  dpb      i, 774335       ;"+Y _C="
774313:  316040774341  camn     p, 774341       ;"9P@_CA"
774314:  254000774320  jrst     774320          ;"5@ _C0"
774315:  135241777776  ldb      b, 777776(p)    ;"+JA__^"
774316:  312241000000  came     b, (p)          ;"92A   "
774317:  254000774263  jrst     774263          ;"5@ _BS"
774320:  261040774336  push     p, 774336       ;"6(@_C>"
774321:  261040774335  push     p, 774335       ;"6(@_C="
774322:  261040000007  push     p, d            ;"6(@  '"
774323:  261040000002  push     p, i            ;"6(@  ""
774324:  254000774216  jrst     774216          ;"5@ _B."
774325:  200040774341  move     p, 774341       ;"0 @_CA"
774326:  200250776566  move     b, 776566(t)    ;"0"H_UV" " \nG};"
774327:  242240000033  lsh      b, 33           ;"42@  ;"
774330:  254000774063  jrst     774063          ;"5@ _@S"
774331:  660000000010  tro      ff, t           ;"V    ("
774332:  201245000133  movei    b, 133(b)       ;"0*E !;"
774333:  260040773431  pushj    p, 773431       ;"6 @_<9"
774334:  254000774216  jrst     774216          ;"5@ _B."
774335:  000210776566                           ;" "(_UV"
774336:  440700774337  andcb    ch2, 774337     ;"D' _C?"
774337:  422130342232  andcmm   i, @342232(t)   ;"B18<2:" "DECDM"
774340:  500000000000  hll      ff, ff          ;"H     " "P\0\0\0\0"
774341:  000000773617                           ;"   _>/"
774342:  441100774346  andcbi   i, 774346       ;"D) _CF"
774343:  331100774346  skipl    i, 774346       ;";) _CF"
774344:  221100774346  imuli    i, 774346       ;"2) _CF"
774345:  111100774346                           ;")) _CF"
774346:  032040106171                           ;"#0@(QY"
774347:  375447050533  sosge    tt, 50533(d)    ;"?LG%%;"
774350:  064557040016                           ;"&EO$ ."
774351:  040040040145  .iot     dschna, 40145   ;"$ @$!E"
774352:  046041044132  .status  dschna, 44132(p);"$PA$A:"
774353:  046063042132  .status  dschna, @42132(aa);"$PS$1:"
774354:  046055060132  .status  dschna, 60132(ch1);"$PM&!:" "\tBh`-"
774355:  046044066010  .status  dschna, 66010(a);"$PD&P("
774356:  135062001040  ldb      p, @1040(i)     ;"+HR (@"
774357:  054040055040                           ;"%@@%H@"
774360:  042040002040                           ;"$0@ 0@"
774361:  040046063373  .iot     dschna, 63373(c);"$ F&;["
774362:  051042060040                           ;"%(B& @"
774363:  051161054044                           ;"%)Q%@D"
774364:  143051166044  fadb     p, 166044(tt)   ;",8I.PD"
774365:  060143016173                           ;"&!C!Q["
774366:  055057066222                           ;"%HO&R2"
774367:  240247355256  ash      b, 355256(d)    ;"4"G=JN" "(\n;ZW"
774370:  314010041044  cama     ff, 41044(t)    ;"9@($(D"
774371:  044214063065  .uset    rdchn, 63065(f) ;"$B,&8U"
774372:  042001040051                           ;"$0!$ I"
774373:  040141143011  .iot     utcchn, 143011(p);"$!A,8)"
774374:  045232063232  .break   4, @63232(sym)  ;"$J:&::" "\t)PfM"
774375:  056232055001                           ;"%R:%H!"
774376:  040216141063  .iot     rdchn, 141063(ch2);"$".,(S"
774377:  040010051243  .iot     ff, 51243(t)    ;"$ (%*C"
774400:  055065054214                           ;"%HU%B,"
774401:  010051252044                           ;"! I50D"
774402:  051066214002                           ;"%(V1@""
774403:  045070043366  .break   1, @43366(t)    ;"$HX$;V" "\t#@F{"
774404:  042054064040                           ;"$0L&@@"
774405:  270041057042  add      p, 57042(p)     ;"7 A%XB"
774406:  052311052062                           ;"%3)%0R"
774407:  063265052046                           ;"&:U%0F"
774410:  043137070043  .lose    @70043(tm)      ;"$9?' C"
774411:  265040000155  jsp      p, 155          ;"6H@ !M"
774412:  443002316060  andcbb   ff, 316060(i)   ;"D8"9PP"
774413:  065063050346                           ;"&HS%#F"
774414:  324060057060  jumpa    p, @57060       ;":@P%XP"
774415:  352052063062  aose     p, 63062(sym)   ;"=0J&8R"
774416:  040052063155  .iot     dschna, 63155(sym);"$ J&9M"
774417:  052063041040                           ;"%0S$(@"
774420:  052062341000                           ;"%0R<( "
774421:  052040040000                           ;"%0@$  "
774422:  040347001041  .iot     dischn, 1041(d) ;"$#G (A"
774423:  365062057064  sojge    p, @57064(i)    ;">HR%XT"
774424:  371054063050  sosl     p, 63050(f)     ;"?(L&8H"
774425:  371040010040  sosl     p, 10040        ;"?(@! @"
774426:  043040021043  .dismis  21043           ;"$8@"(C"
774427:  041413420041  .open    t, 420041(link) ;"$,+B A"
774430:  405063057014  andi     p, @57014(aa)   ;"@HS%X,"
774431:  052431063431                           ;"%49&<9"
774432:  014051431055                           ;"!@IC(M"
774433:  431014052065  xori     ff, 52065(f)    ;"C(,%0U"
774434:  055430063053                           ;"%L8&8K"
774435:  051060002040                           ;"%(P 0@"
774436:  137045040054  dpb      p, 40054(b)     ;"+XE$ L"
774437:  434341047434  or       d, 47434(p)     ;"CCA$\<"
774440:  056040047040                           ;"%P@$X@"
774441:  013500041056                           ;"!= $(N"
774442:  044503451500  .uset    sym, 451500(aa) ;"$E#E- "
774443:  451500070057  setcai   sym, 70057      ;"E- ' O"
774444:  062503051462                           ;"&5#%,R"
774445:  451045061254  setcai   p, 61254(b)     ;"E(E&*L" "J\"(bV"
774446:  500462500462  hll      tt, @500462(i)  ;"H$RH$R"
774447:  462063045064  setcmm   p, @45064(aa)   ;"F0S$HT"
774450:  013072214214                           ;"!8Z1B,"
774451:  043515055214  .dstrtl  55214(ch1)      ;"$=-%J,"
774452:  043511041214  .dstrtl  41214(tt)       ;"$=)$*,"
774453:  214214043213  movm     a, 43213(f)     ;"1B,$:+"
774454:  214507507513  movm     sym, 507513(d)  ;"1E'H]+"
774455:  513521057214  hllzs    sym, @57214(p)  ;"I=1%Z,"
774456:  024543010062                           ;""EC! R"
774457:  541054062550  hrri     p, 62550(f)     ;"L(L&5H" "X\"`e4"
774460:  010054547062                           ;"! LLXR"
774461:  054015232072                           ;"%@-30Z"
774462:  232057232223  idivm    p, 232223(tm)   ;"30O323"
774463:  014566000044                           ;"!EV  D"
774464:  572063572000  hrrem    p, @572000(aa)  ;"O0SO0 "
774465:  062572054021                           ;"&5Z%@1"
774466:  056602072602                           ;"%V"'6""
774467:  043602057005  .ltpen   57005(i)        ;"$>"%X%"
774470:  040434341443  .iot     t, @341443(f)   ;"$$<<,C"
774471:  405240000017  andi     b, tm           ;"@J@  /"
774472:  603000020040  tlne     ff, 20040       ;"P8 " @"
774473:  254000774536  jrst     774536          ;"5@ _E>"
774474:  200200776522  move     a, 776522       ;"0" _U2"
774475:  242200000003  lsh      a, aa           ;"42   #"
774476:  270200000005  add      a, b            ;"7"   %"
774477:  202200776522  movem    a, 776522       ;"02 _U2"
774500:  200200776523  move     a, 776523       ;"0" _U3"
774501:  221200000012  imuli    a, sym          ;"2*   *"
774502:  270200000005  add      a, b            ;"7"   %"
774503:  202200776523  movem    a, 776523       ;"02 _U3"
774504:  344240774522  aoja     b, 774522       ;"<B@_E2"
774505:  201245000070  movei    b, 70(b)        ;"0*E  X"
774506:  641000020004  tlc      ff, cnstnt      ;"T( " $"
774507:  627000030024  tlzn     ff, 30024       ;"RX # 4"
774510:  302240000105  caie     b, 105          ;"82@ !%"
774511:  665000000020  tloa     ff, nuwbuf      ;"VH   0"
774512:  665000010000  tloa     ff, macrch      ;"VH !  "
774513:  254000774521  jrst     774521          ;"5@ _E1"
774514:  627000000002  tlzn     ff, i           ;"RX   ""
774515:  334300776522  skipa    c, 776522       ;";C _U2"
774516:  210300776522  movn     c, 776522       ;"1# _U2"
774517:  202300776533  movem    c, 776533       ;"03 _U;"
774520:  402000776523  setzm    776523          ;"@0 _U3"
774521:  275240000066  subi     b, 66           ;"7J@  V"
774522:  661000000005  tlo      ff, b           ;"V(   %"
774523:  201200000050  movei    a, 50           ;"0*   H"
774524:  250210776570  exch     a, 776570(t)    ;"5"(_UX"
774525:  232210776570  idivm    a, 776570(t)    ;"32(_UX" "&HG}<"
774526:  220250776570  imul     b, 776570(t)    ;"2"H_UX" "$\nG}<"
774527:  272240776541  addm     b, 776541       ;"72@_UA"
774530:  254000774036  jrst     774036          ;"5@ _@>"
774531:  250240776517  exch     b, 776517       ;"5"@_U/"
774532:  221240000012  imuli    b, sym          ;"2*@  *"
774533:  272240776517  addm     b, 776517       ;"72@_U/"
774534:  660000000001  tro      ff, p           ;"V    !"
774535:  254000774036  jrst     774036          ;"5@ _@>"
774536:  603000000040  tlne     ff, tpchna      ;"P8   @"
774537:  254000774531  jrst     774531          ;"5@ _E9"
774540:  201300000006  movei    c, c            ;"0+   &"
774541:  350000774542  aos      774542          ;"=  _EB"
774542:  201340000000  movei    d, ff           ;"0+@   " " .\0\0\0"
774543:  205100201400  movsi    i, 201400       ;"0I 0, "
774544:  622340000001  trze     d, p            ;"R3@  !"
774545:  164106773605  fmpr     i, 773605(c)    ;".A&_>%"
774546:  322340774551  jumpe    d, 774551       ;":3@_EI"
774547:  242340777777  lsh      d, maccr        ;"43@___"
774550:  367300774544  sojg     c, 774544       ;">[ _ED"
774551:  205305211000  movsi    c, 211000(b)    ;"0K%1( "
774552:  161100000006                           ;".)   &"
774553:  336000776537  skipn    776537          ;";P _U?"
774554:  254000774574  jrst     774574          ;"5@ _E\"
774555:  135340777134  ldb      d, 777134       ;"+K@_Y<"
774556:  135300777135  ldb      c, 777135       ;"+K _Y="
774557:  621100377000  tlz      i, 377000       ;"R) ?X "
774560:  274340000006  sub      d, c            ;"7C@  &"
774561:  244107000000  ashc     i, (d)          ;"4A'   "
774562:  270140776540  add      aa, 776540      ;"7!@_U@"
774563:  623140400000  tlze     aa, ppss        ;"R9@@  "
774564:  350000000002  aos      i               ;"=    ""
774565:  200340776537  move     d, 776537       ;"0#@_U?"
774566:  621340377000  tlz      d, 377000       ;"R+@?X "
774567:  270100000007  add      i, d            ;"7!   '"
774570:  607100001000  tlnn     i, nprc         ;"PY  ( "
774571:  374000000006  sosa     c               ;"?@   &"
774572:  244100777777  ashc     i, maccr        ;"4A ___"
774573:  132106000001  fsc      i, dschna(c)    ;"+1&  !"
774574:  202100776537  movem    i, 776537       ;"01 _U?"
774575:  202140776540  movem    aa, 776540      ;"01@_U@"
774576:  322100774602  jumpe    i, 774602       ;":1 _F""
774577:  603140200000  tlne     aa, dfld        ;"P9@0  "
774600:  350000000002  aos      i               ;"=    ""
774601:  661100000400  tlo      i, disize       ;"V)  $ "
774602:  202100776522  movem    i, 776522       ;"01 _U2"
774603:  344240774522  aoja     b, 774522       ;"<B@_E2"
774604:  607000010000  tlnn     ff, macrch      ;"PX !  "
774605:  254000774063  jrst     774063          ;"5@ _@S"
774606:  302200001047  caie     a, tibe         ;"82  (G"
774607:  306200001046  cain     a, 1046         ;"8R  (F"
774610:  662000004000  troe     ff, mwrd        ;"V0  @ "
774611:  624000004000  trza     ff, mwrd        ;"R@  @ "
774612:  254004774000  jrst     ddt(a)          ;"5@$_@ "
774613:  200340776523  move     d, 776523       ;"0#@_U3"
774614:  201300773604  movei    c, 773604       ;"0+ _>$"
774615:  623000000002  tlze     ff, i           ;"R8   ""
774616:  201300773613  movei    c, 773613       ;"0+ _>+"
774617:  334240776533  skipa    b, 776533       ;";B@_U;"
774620:  242340777777  lsh      d, maccr        ;"43@___"
774621:  622340000001  trze     d, p            ;"R3@  !"
774622:  164246000000  fmpr     b, (c)          ;".BF   "
774623:  322340774063  jumpe    d, 774063       ;":3@_@S"
774624:  364300774620  soja     c, 774620       ;">C _F0"
774625:  200240776544  move     b, 776544       ;"0"@_UD"
774626:  603000000004  tlne     ff, a           ;"P8   $"
774627:  200240776523  move     b, 776523       ;"0"@_U3"
774630:  202240776522  movem    b, 776522       ;"02@_U2"
774631:  667000020005  tlon     ff, 20005       ;"VX " %"
774632:  201240000000  movei    b, ff           ;"0*@   " " *\0\0\0"
774633:  231240000400  idivi    b, disize       ;"3*@ $ "
774634:  332000000005  skipe    b               ;";0   %"
774635:  641240243000  tlc      b, 243000       ;"T*@48 "
774636:  641300233000  tlc      c, 233000       ;"T+ 38 "
774637:  141240000006                           ;",*@  &"
774640:  202240776537  movem    b, 776537       ;"02@_U?"
774641:  202300776540  movem    c, 776540       ;"03 _U@"
774642:  513000774542  hllzs    ff, 774542      ;"I8 _EB"
774643:  201240000045  movei    b, 45           ;"0*@  E"
774644:  254000774523  jrst     774523          ;"5@ _E3"
774645:  334250776567  skipa    b, 776567(t)    ;";BH_UW"
774646:  201240776626  movei    b, $i           ;"0*@_V6"
774647:  202240776522  movem    b, 776522       ;"02@_U2"
774650:  661000000005  tlo      ff, b           ;"V(   %"
774651:  621000400040  tlz      ff, 400040      ;"R( @ @"
774652:  254000774036  jrst     774036          ;"5@ _@>"
774653:  663000000040  tloe     ff, tpchna      ;"V8   @"
774654:  661000400000  tlo      ff, ppss        ;"V( @  "
774655:  254000774036  jrst     774036          ;"5@ _@>"
774656:  200100776572  move     i, 776572       ;"0! _UZ"
774657:  525300237777  hrloi    c, 237777       ;"JK 3__"
774660:  254000774666  jrst     774666          ;"5@ _FV"
774661:  270100777130  add      i, 777130       ;"7! _Y8"
774662:  331000000002  skipl    i               ;";(   ""
774663:  200120773777  move     i, @773777      ;"0!0_?_"
774664:  316100776572  camn     i, 776572       ;"9Q _UZ"
774665:  263040000000  popj     p,              ;"68@   " ",b\0\0\0"
774666:  200242000000  move     b, (i)          ;"0"B   "
774667:  430240776541  xor      b, 776541       ;"C"@_UA"
774670:  607240740000  tlnn     b, bsup         ;"PZ@\  "
774671:  665300100000  tloa     c, hfwdf        ;"VK (  "
774672:  612240000006  tdne     b, c            ;"Q2@  &"
774673:  254000774661  jrst     774661          ;"5@ _FQ"
774674:  607240340000  tlnn     b, udefgv       ;"PZ@<  "
774675:  254000774661  jrst     774661          ;"5@ _FQ"
774676:  200242000001  move     b, dschna(i)    ;"0"B  !"
774677:  350001000000  aos      (p)             ;"= !   "
774700:  263040000000  popj     p,              ;"68@   " ",b\0\0\0"
774701:  607000000020  tlnn     ff, nuwbuf      ;"PX   0"
774702:  254000774712  jrst     774712          ;"5@ _G*"
774703:  260040774656  pushj    p, 774656       ;"6 @_FN"
774704:  254000774726  jrst     774726          ;"5@ _G6"
774705:  201240000002  movei    b, i            ;"0*@  ""
774706:  603000400000  tlne     ff, ppss        ;"P8 @  "
774707:  201240000001  movei    b, p            ;"0*@  !"
774710:  137240777136  dpb      b, 777136       ;"+Z@_Y>"
774711:  254000774131  jrst     774131          ;"5@ _A9"
774712:  607000000001  tlnn     ff, p           ;"PX   !"
774713:  607000400000  tlnn     ff, ppss        ;"PX @  "
774714:  254000774126  jrst     774126          ;"5@ _A6"
774715:  200100776515  move     i, 776515       ;"0! _U-"
774716:  202120773777  movem    i, @773777      ;"010_?_"
774717:  552100776531  hrrzm    i, 776531       ;"M1 _U9"
774720:  202100776572  movem    i, 776572       ;"01 _UZ"
774721:  515240600000  hrlzi    b, 3rel         ;"IJ@P  "
774722:  412242000000  andcam   b, (i)          ;"A2B   "
774723:  253100774724  aobjn    i, 774724       ;"59 _G4"
774724:  253100774722  aobjn    i, 774722       ;"59 _G2"
774725:  254000774010  jrst     774010          ;"5@ _@("
774726:  200100776531  move     i, 776531       ;"0! _U9"
774727:  325100774124  jumpge   i, 774124       ;":I _A4"
774730:  260040774657  pushj    p, 774657       ;"6 @_FO"
774731:  254000774131  jrst     774131          ;"5@ _A9"
774732:  260040774734  pushj    p, 774734       ;"6 @_G<"
774733:  254000774730  jrst     774730          ;"5@ _G8"
774734:  200140777130  move     aa, 777130      ;"0!@_Y8"
774735:  273140776531  addb     aa, 776531      ;"79@_U9"
774736:  200203777776  move     a, 777776(aa)   ;"0"#__^"
774737:  202202000000  movem    a, (i)          ;"02"   "
774740:  200203777777  move     a, maccr(aa)    ;"0"#___"
774741:  202202000001  movem    a, dschna(i)    ;"02"  !"
774742:  263040000000  popj     p,              ;"68@   " ",b\0\0\0"
774743:  200110776573  move     i, 776573(t)    ;"0!(_U["
774744:  201240000002  movei    b, i            ;"0*@  ""
774745:  137240777136  dpb      b, 777136       ;"+Z@_Y>"
774746:  200242000001  move     b, dschna(i)    ;"0"B  !"
774747:  260040775770  pushj    p, 775770       ;"6 @_OX"
774750:  254000774131  jrst     774131          ;"5@ _A9"
774751:  254000774131  jrst     774131          ;"5@ _A9"
774752:  603000000040  tlne     ff, tpchna      ;"P8   @"
774753:  254000775032  jrst     775032          ;"5@ _H:"
774754:  200200776545  move     a, 776545       ;"0" _UE"
774755:  552200776542  hrrzm    a, 776542       ;"M2 _UB"
774756:  663000001000  tloe     ff, nprc        ;"V8  ( "
774757:  254000774126  jrst     774126          ;"5@ _A6"
774760:  603000001000  tlne     ff, nprc        ;"P8  ( "
774761:  607000000020  tlnn     ff, nuwbuf      ;"PX   0"
774762:  254000774126  jrst     774126          ;"5@ _A6"
774763:  260040774656  pushj    p, 774656       ;"6 @_FN"
774764:  254000774771  jrst     774771          ;"5@ _GY"
774765:  315100776515  camge    i, 776515       ;"9I _U-"
774766:  254000775002  jrst     775002          ;"5@ _H""
774767:  201240000001  movei    b, p            ;"0*@  !"
774770:  137240777136  dpb      b, 777136       ;"+Z@_Y>"
774771:  210100777130  movn     i, 777130       ;"1! _Y8"
774772:  273120773777  addb     i, @773777      ;"790_?_"
774773:  550240776531  hrrz     b, 776531       ;"M"@_U9"
774774:  275240000002  subi     b, i            ;"7J@  ""
774775:  504240776531  hrl      b, 776531       ;"HB@_U9"
774776:  542240776531  hrrm     b, 776531       ;"L2@_U9"
774777:  335000776531  skipge   776531          ;";H _U9"
775000:  251242777777  blt      b, maccr(i)     ;"5*B___"
775001:  260040773000  pushj    p, 773000       ;"6 @_8 "
775002:  200240776542  move     b, 776542       ;"0"@_UB"
775003:  202242000001  movem    b, dschna(i)    ;"02B  !"
775004:  205240040000  movsi    b, vot          ;"0J@$  "
775005:  437240776541  orb      b, 776541       ;"CZ@_UA"
775006:  202242000000  movem    b, (i)          ;"02B   "
775007:  200100776531  move     i, 776531       ;"0! _U9"
775010:  325100774131  jumpge   i, 774131       ;":I _A9"
775011:  200240776541  move     b, 776541       ;"0"@_UA"
775012:  312242000000  came     b, (i)          ;"92B   "
775013:  254000775030  jrst     775030          ;"5@ _H8"
775014:  200140776542  move     aa, 776542      ;"0!@_UB"
775015:  335002000001  skipge   dschna(i)       ;";H"  !"
775016:  213000000003  movns    ff, aa          ;"18   #"
775017:  261040000002  push     p, i            ;"6(@  ""
775020:  200102000001  move     i, dschna(i)    ;"0!"  !"
775021:  260040775747  pushj    p, 775747       ;"6 @_OG"
775022:  254000774126  jrst     774126          ;"5@ _A6"
775023:  270140000005  add      aa, b           ;"7!@  %"
775024:  542140000005  hrrm     aa, b           ;"L1@  %"
775025:  260040775741  pushj    p, 775741       ;"6 @_OA"
775026:  262040000002  pop      p, i            ;"60@  ""
775027:  260040774734  pushj    p, 774734       ;"6 @_G<"
775030:  270100777130  add      i, 777130       ;"7! _Y8"
775031:  254000775010  jrst     775010          ;"5@ _H("
775032:  200120773777  move     i, @773777      ;"0!0_?_"
775033:  325100774124  jumpge   i, 774124       ;":I _A4"
775034:  200242000000  move     b, (i)          ;"0"B   "
775035:  270100777130  add      i, 777130       ;"7! _Y8"
775036:  312240776541  came     b, 776541       ;"92@_UA"
775037:  254000775033  jrst     775033          ;"5@ _H;"
775040:  202100776572  movem    i, 776572       ;"01 _UZ"
775041:  254000774131  jrst     774131          ;"5@ _A9"
775042:  665000000300  tloa     ff, 300         ;"VH  # "
775043:  661000040100  tlo      ff, 40100       ;"V( $! "
775044:  254000774027  jrst     774027          ;"5@ _@7"
775045:  254000775047  jrst     775047          ;"5@ _HG"
775046:  661000000002  tlo      ff, i           ;"V(   ""
775047:  661000000100  tlo      ff, foo         ;"V(  ! "
775050:  254000774024  jrst     774024          ;"5@ _@4"
775051:  311040777137  caml     p, 777137       ;"9(@_Y?"
775052:  254000774126  jrst     774126          ;"5@ _A6"
775053:  261040000000  push     p, ff           ;"6(@   " ",\"\0\0\0"
775054:  261040776516  push     p, 776516       ;"6(@_U."
775055:  261040776521  push     p, 776521       ;"6(@_U1"
775056:  261040776712  push     p, 776712       ;"6(@_W*"
775057:  350000776520  aos      776520          ;"=  _U0"
775060:  254000774020  jrst     774020          ;"5@ _@0"
775061:  205200000020  movsi    a, nuwbuf       ;"0J   0"
775062:  437200776516  orb      a, 776516       ;"CZ _U."
775063:  661000000001  tlo      ff, p           ;"V(   !"
775064:  254000774024  jrst     774024          ;"5@ _@4"
775065:  607000200000  tlnn     ff, dfld        ;"PX 0  "
775066:  542240775077  hrrm     b, 775077       ;"L2@_H_"
775067:  200100000005  move     i, b            ;"0!   %"
775070:  513000000005  hllzs    ff, b           ;"I8   %"
775071:  135300777140  ldb      c, 777140       ;"+K _Y@"
775072:  231300000007  idivi    c, d            ;"3+   '"
775073:  242106000027  lsh      i, 27(c)        ;"41&  7"
775074:  270240000002  add      b, i            ;"7"@  ""
775075:  270240776516  add      b, 776516       ;"7"@_U."
775076:  663000200000  tloe     ff, dfld        ;"V8 0  "
775077:  505240000000  hrli     b, ff           ;"HJ@   " "Q*\0\0\0"
775100:  202240776516  movem    b, 776516       ;"02@_U."
775101:  254000775103  jrst     775103          ;"5@ _I#"
775102:  603000000001  tlne     ff, p           ;"P8   !"
775103:  661000100000  tlo      ff, hfwdf       ;"V( (  "
775104:  621000000102  tlz      ff, 102         ;"R(  !""
775105:  254000774023  jrst     774023          ;"5@ _@3"
775106:  204240776516  movs     b, 776516       ;"0B@_U."
775107:  375000776520  sosge    776520          ;"?H _U0"
775110:  254000774126  jrst     774126          ;"5@ _A6"
775111:  262040776712  pop      p, 776712       ;"60@_W*"
775112:  262040776521  pop      p, 776521       ;"60@_U1"
775113:  262040776516  pop      p, 776516       ;"60@_U."
775114:  262040000000  pop      p, ff           ;"60@   " ",B\0\0\0"
775115:  661000000001  tlo      ff, p           ;"V(   !"
775116:  603000000100  tlne     ff, foo         ;"P8  ! "
775117:  663000000004  tloe     ff, a           ;"V8   $"
775120:  254000775123  jrst     775123          ;"5@ _I3"
775121:  202240776522  movem    b, 776522       ;"02@_U2"
775122:  254000774031  jrst     774031          ;"5@ _@9"
775123:  273240776516  addb     b, 776516       ;"7:@_U."
775124:  254000774030  jrst     774030          ;"5@ _@8"
775125:  374000776544  sosa     776544          ;"?@ _UD"
775126:  260040775210  pushj    p, 775210       ;"6 @_J("
775127:  370000776544  sos      776544          ;"?  _UD"
775130:  260040775251  pushj    p, 775251       ;"6 @_JI"
775131:  627000000040  tlzn     ff, tpchna      ;"RX   @"
775132:  254000775142  jrst     775142          ;"5@ _IB"
775133:  200100776546  move     i, 776546       ;"0! _UF"
775134:  200242776547  move     b, 776547(i)    ;"0"B_UG"
775135:  375000000002  sosge    i               ;"?H   ""
775136:  201100000006  movei    i, c            ;"0)   &"
775137:  202100776546  movem    i, 776546       ;"01 _UF"
775140:  552240776544  hrrzm    b, 776544       ;"M2@_UD"
775141:  254004774000  jrst     ddt(a)          ;"5@$_@ "
775142:  260040776756  pushj    p, 776756       ;"6 @_WN"
775143:  350240776544  aos      b, 776544       ;"="@_UD"
775144:  552240776544  hrrzm    b, 776544       ;"M2@_UD"
775145:  552240776545  hrrzm    b, 776545       ;"M2@_UE"
775146:  260040776126  pushj    p, 776126       ;"6 @_Q6"
775147:  201240000057  movei    b, 57           ;"0*@  O"
775150:  603000004000  tlne     ff, mwrd        ;"P8  @ "
775151:  201240000041  movei    b, zz           ;"0*@  A"
775152:  260040773431  pushj    p, 773431       ;"6 @_<9"
775153:  621000000010  tlz      ff, t           ;"R(   ("
775154:  260040773330  pushj    p, 773330       ;"6 @_;8"
775155:  200100776545  move     i, 776545       ;"0! _UE"
775156:  260040775747  pushj    p, 775747       ;"6 @_OG"
775157:  254000774126  jrst     774126          ;"5@ _A6"
775160:  661000000010  tlo      ff, t           ;"V(   ("
775161:  603000004000  tlne     ff, mwrd        ;"P8  @ "
775162:  254000774014  jrst     774014          ;"5@ _@,"
775163:  254000776047  jrst     776047          ;"5@ _PG"
775164:  260040775251  pushj    p, 775251       ;"6 @_JI"
775165:  201200001127  movei    a, 1127         ;"0*  )7"
775166:  623000000040  tlze     ff, tpchna      ;"R8   @"
775167:  254000775133  jrst     775133          ;"5@ _I;"
775170:  254000774010  jrst     774010          ;"5@ _@("
775171:  623000000040  tlze     ff, tpchna      ;"R8   @"
775172:  254000773255  jrst     773255          ;"5@ _:M"
775173:  664000002400  troa     ff, 2400        ;"V@  4 "
775174:  620000000400  trz      ff, disize      ;"R   $ "
775175:  664000002000  troa     ff, alnscn      ;"V@  0 "
775176:  665000004000  tloa     ff, mwrd        ;"VH  @ "
775177:  621000004000  tlz      ff, mwrd        ;"R(  @ "
775200:  603000000001  tlne     ff, p           ;"P8   !"
775201:  260040775210  pushj    p, 775210       ;"6 @_J("
775202:  552240776545  hrrzm    b, 776545       ;"M2@_UE"
775203:  254000775153  jrst     775153          ;"5@ _IK"
775204:  623000000040  tlze     ff, tpchna      ;"R8   @"
775205:  254000775242  jrst     775242          ;"5@ _JB"
775206:  260040775251  pushj    p, 775251       ;"6 @_JI"
775207:  254000775202  jrst     775202          ;"5@ _J""
775210:  316240776544  camn     b, 776544       ;"9R@_UD"
775211:  263040000000  popj     p,              ;"68@   " ",b\0\0\0"
775212:  350100776546  aos      i, 776546       ;"=! _UF"
775213:  301100000007  cail     i, d            ;"8)   '"
775214:  403100776546  setzb    i, 776546       ;"@9 _UF"
775215:  250240776544  exch     b, 776544       ;"5"@_UD"
775216:  202242776547  movem    b, 776547(i)    ;"02B_UG"
775217:  200240776544  move     b, 776544       ;"0"@_UD"
775220:  553000776544  hrrzs    ff, 776544      ;"M8 _UD"
775221:  263040000000  popj     p,              ;"68@   " ",b\0\0\0"
775222:  627000000040  tlzn     ff, tpchna      ;"RX   @"
775223:  254000775174  jrst     775174          ;"5@ _I\"
775224:  260040773270  pushj    p, 773270       ;"6 @_:X"
775225:  260040773307  pushj    p, 773307       ;"6 @_;'"
775226:  301240000040  cail     b, tpchna       ;"8*@  @"
775227:  303240000140  caile    b, 140          ;"8:@ !@"
775230:  254000773265  jrst     773265          ;"5@ _:U"
775231:  260040773303  pushj    p, 773303       ;"6 @_;#"
775232:  254000775225  jrst     775225          ;"5@ _J5"
775233:  607000000001  tlnn     ff, p           ;"PX   !"
775234:  254000774161  jrst     774161          ;"5@ _AQ"
775235:  261040000005  push     p, b            ;"6(@  %"
775236:  201240000057  movei    b, 57           ;"0*@  O"
775237:  260040773431  pushj    p, 773431       ;"6 @_<9"
775240:  262040000005  pop      p, b            ;"60@  %"
775241:  254000775177  jrst     775177          ;"5@ _I_"
775242:  202250776567  movem    b, 776567(t)    ;"02H_UW"
775243:  260040776305  pushj    p, 776305       ;"6 @_S%"
775244:  254000774126  jrst     774126          ;"5@ _A6"
775245:  200100000005  move     i, b            ;"0!   %"
775246:  260040775747  pushj    p, 775747       ;"6 @_OG"
775247:  254000774126  jrst     774126          ;"5@ _A6"
775250:  254000773244  jrst     773244          ;"5@ _:D"
775251:  603000000010  tlne     ff, t           ;"P8   ("
775252:  607000000001  tlnn     ff, p           ;"PX   !"
775253:  254000775734  jrst     775734          ;"5@ _O<"
775254:  200100776531  move     i, 776531       ;"0! _U9"
775255:  202300776531  movem    c, 776531       ;"03 _U9"
775256:  325100775734  jumpge   i, 775734       ;":I _O<"
775257:  550202000001  hrrz     a, dschna(i)    ;"M""  !"
775260:  316200776545  camn     a, 776545       ;"9R _UE"
775261:  260040774734  pushj    p, 774734       ;"6 @_G<"
775262:  270100777130  add      i, 777130       ;"7! _Y8"
775263:  254000775256  jrst     775256          ;"5@ _JN"
775264:  664000002400  troa     ff, 2400        ;"V@  4 "
775265:  620000000400  trz      ff, disize      ;"R   $ "
775266:  660000002000  tro      ff, alnscn      ;"V   0 "
775267:  254000776047  jrst     776047          ;"5@ _PG"
775270:  202250776567  movem    b, 776567(t)    ;"02H_UW"
775271:  242240777742  lsh      b, 777742       ;"42@__B"
775272:  620240000003  trz      b, aa           ;"R"@  #"
775273:  260040776401  pushj    p, 776401       ;"6 @_T!"
775274:  260040773332  pushj    p, 773332       ;"6 @_;:"
775275:  201310776567  movei    c, 776567(t)    ;"0+(_UW"
775276:  254000776424  jrst     776424          ;"5@ _T4"
775277:  201100002407  movei    i, 2407         ;"0)  4'"
775300:  271100774516  addi     i, 774516       ;"7) _E."
775301:  271100001415  addi     i, 1415         ;"7)  ,-"
775302:  271100777301  addi     i, 777301       ;"7) _[!"
775303:  271100777453  addi     i, 777453       ;"7) _\K"
775304:  271100776401  addi     i, 776401       ;"7) _T!"
775305:  265200775320  jsp      a, 775320       ;"6J _K0"
775306:  623000000001  tlze     ff, p           ;"R8   !"
775307:  254000775313  jrst     775313          ;"5@ _K+"
775310:  201100777527  movei    i, 777527       ;"0) _]7"
775311:  271100776401  addi     i, 776401       ;"7) _T!"
775312:  265200775320  jsp      a, 775320       ;"6J _K0"
775313:  363240774126  sojle    b, 774126       ;">:@_A6"
775314:  201105777767  movei    i, 777767(b)    ;"0)%__W"
775315:  271100000002  addi     i, i            ;"7)   ""
775316:  271100000010  addi     i, t            ;"7)   ("
775317:  265200775320  jsp      a, 775320       ;"6J _K0"
775320:  201204002472  movei    a, apret1(a)    ;"0*$ 4Z"
775321:  231200000005  idivi    a, b            ;"3*   %"
775322:  552104776703  hrrzm    i, 776703(a)    ;"M1$_W#"
775323:  325000774023  jumpge   ff, 774023      ;":H _@3"
775324:  552104776706  hrrzm    i, 776706(a)    ;"M1$_W&" "ZD'}c"
775325:  254000774131  jrst     774131          ;"5@ _A9"
775326:  505240254000  hrli     b, 254000       ;"HJ@5@ "
775327:  641000400001  tlc      ff, 400001      ;"T( @ !"
775330:  647000400001  tlcn     ff, 400001      ;"TX @ !"
775331:  202240776625  movem    b, 776625       ;"02@_V5"
775332:  663000000001  tloe     ff, p           ;"V8   !"
775333:  254000775337  jrst     775337          ;"5@ _K?"
775334:  332240776625  skipe    b, 776625       ;";2@_V5"
775335:  607000000001  tlnn     ff, p           ;"PX   !"
775336:  254000774126  jrst     774126          ;"5@ _A6"
775337:  202240776570  movem    b, 776570       ;"02@_UX"
775340:  260040776756  pushj    p, 776756       ;"6 @_WN"
775341:  260040776501  pushj    p, 776501       ;"6 @_U!"
775342:  260040775637  pushj    p, 775637       ;"6 @_N?"
775343:  265240776740  jsp      b, 776740       ;"6J@_W@"
775344:  256000776570  xct      776570          ;"5P _UX"
775345:  254000774000  jrst     ddt             ;"5@ _@ "
775346:  264000776716  jsr      776716          ;"6@ _W."
775347:  260040776450  pushj    p, 776450       ;"6 @_TH"
775350:  260040776756  pushj    p, 776756       ;"6 @_WN"
775351:  254000774010  jrst     774010          ;"5@ _@("
775352:  603000000040  tlne     ff, tpchna      ;"P8   @"
775353:  254000773314  jrst     773314          ;"5@ _;,"
775354:  202250776567  movem    b, 776567(t)    ;"02H_UW"
775355:  402000776525  setzm    776525          ;"@0 _U5"
775356:  200300000005  move     c, b            ;"0#   %"
775357:  301300000200  cail     c, mrsw         ;"8+  " "
775360:  254000775363  jrst     775363          ;"5@ _KS"
775361:  336000773327  skipn    773327          ;";P _;7"
775362:  242300000001  lsh      c, p            ;"43   !"
775363:  201240000000  movei    b, ff           ;"0*@   " " *\0\0\0"
775364:  322300774700  jumpe    c, 774700       ;":3 _G "
775365:  246240000007  lshc     b, d            ;"4R@  '"
775366:  336000776525  skipn    776525          ;";P _U5"
775367:  322240775363  jumpe    b, 775363       ;":2@_KS"
775370:  476000776525  setom    776525          ;"GP _U5"
775371:  270240773327  add      b, 773327       ;"7"@_;7"
775372:  260040773431  pushj    p, 773431       ;"6 @_<9"
775373:  254000775363  jrst     775363          ;"5@ _KS"
775374:  462000773033  setcmm   773033          ;"F0 _8;"
775375:  254000773000  jrst     773000          ;"5@ _8 "
775376:  000000000000                           ;"      "
775377:  266240775426  jsa      b, 775426       ;"6R@_L6"
775402:  266240775426  jsa      b, 775426       ;"6R@_L6"
775405:  266240775426  jsa      b, 775426       ;"6R@_L6"
775410:  266240775426  jsa      b, 775426       ;"6R@_L6"
775413:  266240775426  jsa      b, 775426       ;"6R@_L6"
775416:  266240775426  jsa      b, 775426       ;"6R@_L6"
775421:  266240775426  jsa      b, 775426       ;"6R@_L6"
775424:  266240775426  jsa      b, 775426       ;"6R@_L6"
775427:  542240775456  hrrm     b, 775456       ;"L2@_LN"
775430:  201245001233  movei    b, 1233(b)      ;"0*E *;"
775431:  542240775437  hrrm     b, 775437       ;"L2@_L?"
775432:  201245000001  movei    b, dschna(b)    ;"0*E  !"
775433:  542240775441  hrrm     b, 775441       ;"L2@_LA"
775434:  200245776542  move     b, 776542(b)    ;"0"E_UB" " \n/}1"
775435:  502240775462  hllm     b, 775462       ;"H2@_LR"
775436:  250240775426  exch     b, 775426       ;"5"@_L6"
775437:  332000776633  skipe    776633          ;";0 _V;"
775440:  256020775437  xct      @775437         ;"5P0_L?"
775441:  377000776634  sosg     776634          ;"?X _V<"
775442:  254000775463  jrst     775463          ;"5@ _LS"
775443:  202240776670  movem    b, 776670       ;"02@_VX"
775444:  135240777141  ldb      b, 777141       ;"+J@_YA"
775445:  301240000264  cail     b, outp         ;"8*@ "T"
775446:  303240000266  caile    b, ecmd         ;"8:@ "V"
775447:  606240000700  trnn     b, 700          ;"PR@ ' "
775450:  254000775540  jrst     775540          ;"5@ _M@"
775451:  302240000260  caie     b, 260          ;"82@ "P"
775452:  306240000256  cain     b, inchr1       ;"8R@ "N"
775453:  254000775540  jrst     775540          ;"5@ _M@"
775454:  200240776670  move     b, 776670       ;"0"@_VX"
775455:  254120775462  jrstf    @775462         ;"5A0_LR"
775456:  256000775400  xct      775400          ;"5P _L "
775457:  254020775426  jrst     @775426         ;"5@0_L6"
775460:  350000775426  aos      775426          ;"=  _L6"
775461:  254020775426  jrst     @775426         ;"5@0_L6"
775462:  000000775456                           ;"   _LN"
775463:  264000776716  jsr      776716          ;"6@ _W."
775464:  260040776450  pushj    p, 776450       ;"6 @_TH"
775465:  370240775437  sos      b, 775437       ;"?"@_L?"
775466:  553000000005  hrrzs    ff, b           ;"M8   %"
775467:  260040776130  pushj    p, 776130       ;"6 @_Q8"
775470:  201240000076  movei    b, 76           ;"0*@  ^"
775471:  260040773431  pushj    p, 773431       ;"6 @_<9"
775472:  337020775441  skipg    @775441         ;";X0_LA"
775473:  260040773431  pushj    p, 773431       ;"6 @_<9"
775474:  200240775426  move     b, 775426       ;"0"@_L6"
775475:  502240776626  hllm     b, $i           ;"H2@_V6"
775476:  201245777777  movei    b, maccr(b)     ;"0*E___"
775477:  260040776126  pushj    p, 776126       ;"6 @_Q6"
775500:  550260775437  hrrz     b, @775437      ;"M"P_L?"
775501:  542240775531  hrrm     b, 775531       ;"L2@_M9"
775502:  554260775437  hlrz     b, @775437      ;"MBP_L?"
775503:  322240775510  jumpe    b, 775510       ;":2@_M("
775504:  260040773330  pushj    p, 773330       ;"6 @_;8"
775505:  554260775437  hlrz     b, @775437      ;"MBP_L?"
775506:  260040775210  pushj    p, 775210       ;"6 @_J("
775507:  260040775144  pushj    p, 775144       ;"6 @_ID"
775510:  550100775437  hrrz     i, 775437       ;"M! _L?"
775511:  275100776632  subi     i, $1b          ;"7I _V:"
775512:  231100000003  idivi    i, aa           ;"3)   #"
775513:  201140000001  movei    aa, p           ;"0)@  !"
775514:  242142000000  lsh      aa, (i)         ;"41B   "
775515:  616140776662  tdnn     aa, 776662      ;"QQ@_VR"
775516:  254000774131  jrst     774131          ;"5@ _A9"
775517:  260040773341  pushj    p, 773341       ;"6 @_;A"
775520:  254000775527  jrst     775527          ;"5@ _M7"
775521:  254000774131  jrst     774131          ;"5@ _A9"
775522:  607000000001  tlnn     ff, p           ;"PX   !"
775523:  201240000001  movei    b, p            ;"0*@  !"
775524:  202260775441  movem    b, @775441      ;"02P_LA"
775525:  550100775437  hrrz     i, 775437       ;"M! _L?"
775526:  260040775724  pushj    p, 775724       ;"6 @_O4"
775527:  260040776756  pushj    p, 776756       ;"6 @_WN"
775530:  260040776501  pushj    p, 776501       ;"6 @_U!"
775531:  551100775345  hrrzi    i, 775345       ;"M) _KE"
775532:  260040775747  pushj    p, 775747       ;"6 @_OG"
775533:  254000774126  jrst     774126          ;"5@ _A6"
775534:  202240776516  movem    b, 776516       ;"02@_U."
775535:  260040775637  pushj    p, 775637       ;"6 @_N?"
775536:  200240776516  move     b, 776516       ;"0"@_U."
775537:  254000775543  jrst     775543          ;"5@ _MC"
775540:  200240776670  move     b, 776670       ;"0"@_VX"
775541:  264000776716  jsr      776716          ;"6@ _W."
775542:  200260775456  move     b, @775456      ;"0"P_LN"
775543:  200100775426  move     i, 775426       ;"0! _L6"
775544:  201200000100  movei    a, foo          ;"0*  ! "
775545:  202200776571  movem    a, 776571       ;"02 _UY"
775546:  254000775554  jrst     775554          ;"5@ _ML"
775547:  202100000040  movem    i, tpchna       ;"01   @"
775550:  201100000041  movei    i, zz           ;"0)   A"
775551:  371000776571  sosl     776571          ;"?( _UY"
775552:  260040775747  pushj    p, 775747       ;"6 @_OG"
775553:  254000775610  jrst     775610          ;"5@ _N("
775554:  202240776570  movem    b, 776570       ;"02@_UX"
775555:  242240777745  lsh      b, 777745       ;"42@__E"
775556:  306240000254  cain     b, 254          ;"8R@ "L"
775557:  254000775604  jrst     775604          ;"5@ _N$"
775560:  515740776663  hrlzi    tm, 776663      ;"IO@_VS"
775561:  251740000017  blt      tm, tm          ;"5/@  /"
775562:  201260776570  movei    b, @776570      ;"0*P_UX"
775563:  137240777142  dpb      b, 777142       ;"+Z@_YB"
775564:  135300777143  ldb      c, 777143       ;"+K _YC"
775565:  135240777144  ldb      b, 777144       ;"+J@_YD"
775566:  201040773617  movei    p, 773617       ;"0(@_>/"
775567:  306240000260  cain     b, 260          ;"8R@ "P"
775570:  254000775614  jrst     775614          ;"5@ _N,"
775571:  306240000264  cain     b, outp         ;"8R@ "T"
775572:  254000775624  jrst     775624          ;"5@ _N4"
775573:  306240000265  cain     b, outlpt       ;"8R@ "U"
775574:  254000775633  jrst     775633          ;"5@ _N;"
775575:  306240000266  cain     b, ecmd         ;"8R@ "V"
775576:  254000775620  jrst     775620          ;"5@ _N0"
775577:  200100776570  move     i, 776570       ;"0! _UX"
775600:  606240000700  trnn     b, 700          ;"PR@ ' "
775601:  254000775547  jrst     775547          ;"5@ _MG"
775602:  306240000256  cain     b, inchr1       ;"8R@ "N"
775603:  254000775551  jrst     775551          ;"5@ _MI"
775604:  201240776570  movei    b, 776570       ;"0*@_UX"
775605:  542240775456  hrrm     b, 775456       ;"L2@_LN"
775606:  201240775456  movei    b, 775456       ;"0*@_LN"
775607:  254000776740  jrst     776740          ;"5@ _W@"
775610:  260040776450  pushj    p, 776450       ;"6 @_TH"
775611:  264000776716  jsr      776716          ;"6@ _W."
775612:  264000775376  jsr      775376          ;"6@ _K^"
775613:  254000774126  jrst     774126          ;"5@ _A6"
775614:  137300777145  dpb      c, 777145       ;"+[ _YE"
775615:  402000776712  setzm    776712          ;"@0 _W*"
775616:  200240776570  move     b, 776570       ;"0"@_UX"
775617:  254000776741  jrst     776741          ;"5@ _WA"
775620:  200240775426  move     b, 775426       ;"0"@_L6"
775621:  504240776570  hrl      b, 776570       ;"HB@_UX"
775622:  250246776663  exch     b, 776663(c)    ;"5"F_VS"
775623:  254000775626  jrst     775626          ;"5@ _N6"
775624:  200240775426  move     b, 775426       ;"0"@_L6"
775625:  500240776626  hll      b, $i           ;"H"@_V6"
775626:  200100776570  move     i, 776570       ;"0! _UX"
775627:  260040775741  pushj    p, 775741       ;"6 @_OA"
775630:  350000776570  aos      776570          ;"=  _UX"
775631:  200240776570  move     b, 776570       ;"0"@_UX"
775632:  254000776740  jrst     776740          ;"5@ _W@"
775633:  200200775426  move     a, 775426       ;"0" _L6"
775634:  500200776626  hll      a, $i           ;"H" _V6"
775635:  202206776663  movem    a, 776663(c)    ;"02&_VS"
775636:  254000775631  jrst     775631          ;"5@ _N9"
775637:  200140775612  move     aa, 775612      ;"0!@_N*"
775640:  332103001234  skipe    i, 1234(aa)     ;";1# *<"
775641:  260040775747  pushj    p, 775747       ;"6 @_OG"
775642:  254000775646  jrst     775646          ;"5@ _NF"
775643:  202243000002  movem    b, tpchn(aa)    ;"02C  ""
775644:  200240000003  move     b, aa           ;"0"@  #"
775645:  260040775741  pushj    p, 775741       ;"6 @_OA"
775646:  271140000003  addi     aa, aa          ;"7)@  #"
775647:  317140777146  camg     aa, 777146      ;"9Y@_YF"
775650:  254000775640  jrst     775640          ;"5@ _N@"
775651:  263040000000  popj     p,              ;"68@   " ",b\0\0\0"
775652:  201140776657  movei    aa, $8b         ;"0)@_VO"
775653:  200243776546  move     b, 776546(aa)   ;"0"C_UF"
775654:  332103000000  skipe    i, (aa)         ;";1#   "
775655:  260040775741  pushj    p, 775741       ;"6 @_OA"
775656:  275140000003  subi     aa, aa          ;"7I@  #"
775657:  301140776632  cail     aa, $1b         ;"8)@_V:"
775660:  254000775653  jrst     775653          ;"5@ _NK"
775661:  263040000000  popj     p,              ;"68@   " ",b\0\0\0"
775662:  623000000001  tlze     ff, p           ;"R8   !"
775663:  254000775672  jrst     775672          ;"5@ _NZ"
775664:  622000000001  trze     ff, p           ;"R0   !"
775665:  254000775676  jrst     775676          ;"5@ _N^"
775666:  200240777147  move     b, 777147       ;"0"@_YG"
775667:  402000776632  setzm    $1b             ;"@0 _V:"
775670:  251240776661  blt      b, 776661       ;"5*@_VQ"
775671:  254000774010  jrst     774010          ;"5@ _@("
775672:  626000000001  trzn     ff, p           ;"RP   !"
775673:  254000775710  jrst     775710          ;"5@ _O("
775674:  200100000005  move     i, b            ;"0!   %"
775675:  660000000002  tro      ff, i           ;"V    ""
775676:  200240776517  move     b, 776517       ;"0"@_U/"
775677:  301240000001  cail     b, p            ;"8*@  !"
775700:  303240000010  caile    b, t            ;"8:@  ("
775701:  254000774126  jrst     774126          ;"5@ _A6"
775702:  221240000003  imuli    b, aa           ;"2*@  #"
775703:  271240776627  addi     b, 776627       ;"7*@_V7"
775704:  626000000002  trzn     ff, i           ;"RP   ""
775705:  254000776203  jrst     776203          ;"5@ _R#"
775706:  250100000005  exch     i, b            ;"5!   %"
775707:  254000775721  jrst     775721          ;"5@ _O1"
775710:  201100776632  movei    i, $1b          ;"0) _V:"
775711:  550202000000  hrrz     a, (i)          ;"M""   "
775712:  302205000000  caie     a, (b)          ;"82%   " "0H(\0\0"
775713:  336002000000  skipn    (i)             ;";P"   "
775714:  254000775721  jrst     775721          ;"5@ _O1"
775715:  271100000003  addi     i, aa           ;"7)   #"
775716:  307100776657  caig     i, $8b          ;"8Y _VO"
775717:  254000775711  jrst     775711          ;"5@ _O)"
775720:  254000774126  jrst     774126          ;"5@ _A6"
775721:  202242000000  movem    b, (i)          ;"02B   "
775722:  402002000001  setzm    dschna(i)       ;"@0"  !"
775723:  402002000002  setzm    tpchn(i)        ;"@0"  ""
775724:  275100776632  subi     i, $1b          ;"7I _V:"
775725:  231100000003  idivi    i, aa           ;"3)   #"
775726:  201140000001  movei    aa, p           ;"0)@  !"
775727:  242142000000  lsh      aa, (i)         ;"41B   "
775730:  412140776662  andcam   aa, 776662      ;"A1@_VR"
775731:  603000400000  tlne     ff, ppss        ;"P8 @  "
775732:  436140776662  orm      aa, 776662      ;"CQ@_VR"
775733:  263040000000  popj     p,              ;"68@   " ",b\0\0\0"
775734:  202250776567  movem    b, 776567(t)    ;"02H_UW"
775735:  200100776545  move     i, 776545       ;"0! _UE"
775736:  623000000010  tlze     ff, t           ;"R8   ("
775737:  607000000001  tlnn     ff, p           ;"PX   !"
775740:  263040000000  popj     p,              ;"68@   " ",b\0\0\0"
775741:  606100777760  trnn     i, 777760       ;"PQ __P"
775742:  254000775745  jrst     775745          ;"5@ _OE"
775743:  202242000000  movem    b, (i)          ;"02B   "
775744:  263040000000  popj     p,              ;"68@   " ",b\0\0\0"
775745:  202242776663  movem    b, 776663(i)    ;"02B_VS"
775746:  263040000000  popj     p,              ;"68@   " ",b\0\0\0"
775747:  200240776624  move     b, 776624       ;"0"@_V4"
775750:  305242000000  caige    b, (i)          ;"8JB   "
775751:  263040000000  popj     p,              ;"68@   " ",b\0\0\0"
775752:  200242000000  move     b, (i)          ;"0"B   "
775753:  606100777760  trnn     i, 777760       ;"PQ __P"
775754:  200242776663  move     b, 776663(i)    ;"0"B_VS"
775755:  254000774677  jrst     774677          ;"5@ _F_"
775756:  202240776542  movem    b, 776542       ;"02@_UB"
775757:  661000001000  tlo      ff, nprc        ;"V(  ( "
775760:  254000775763  jrst     775763          ;"5@ _OS"
775761:  661000002000  tlo      ff, alnscn      ;"V(  0 "
775762:  552240776543  hrrzm    b, 776543       ;"M2@_UC"
775763:  603000000040  tlne     ff, tpchna      ;"P8   @"
775764:  254000773236  jrst     773236          ;"5@ _:>"
775765:  607000000001  tlnn     ff, p           ;"PX   !"
775766:  254000774126  jrst     774126          ;"5@ _A6"
775767:  254000774021  jrst     774021          ;"5@ _@1"
775770:  403300000003  setzb    c, aa           ;"@;   #"
775771:  205300600000  movsi    c, 3rel         ;"0K P  "
775772:  200100776572  move     i, 776572       ;"0! _UZ"
775773:  202110776572  movem    i, 776572(t)    ;"01(_UZ" " DG}="
775774:  205340740000  movsi    d, bsup         ;"0K@\  "
775775:  335000000005  skipge   b               ;";H   %"
775776:  205140400000  movsi    aa, ppss        ;"0I@@  "
775777:  200200777150  move     a, 777150       ;"0" _YH"
