EXB format
Start address: 003000
(After parsed data, there were 131 more words.)

Disassembly:

003000:  634000000000  tdza     0, 0            ;"S@    " "g\0\0\0\0"
003001:  255000000000  jfcl                     ;"5H    " "+ \0\0\0"
003002:  701240000015  coni     pag, 15         ;"X*@  -"
003003:  405640600000  andi     15, 600000      ;"@N@P  "
003004:  700200200000  cono     apr, 200000     ;"X" 0  "
003005:  701215000000  cono     pag, (15)       ;"X*-   " "p(h\0\0"
003006:  205740254016  movsi    17, 254016      ;"0O@5@."
003007:  265700000017  jsp      16, 17          ;"6O   /"
003010:  275700000010  subi     16, 10          ;"7O   ("
003011:  404016000120  and      0, 120(16)      ;"@@. !0"
003012:  201056000116  movei    1, 116(16)      ;"0(N !."
003013:  202056000503  movem    1, 503(16)      ;"00N %#"
003014:  201056000000  movei    1, (16)         ;"0(N   " " \"p\0\0"
003015:  242040777767  lsh      1, 777767       ;"40@__W"
003016:  434640000001  ior      15, 1           ;"CF@  !"
003017:  701215000000  cono     pag, (15)       ;"X*-   " "p(h\0\0"
003020:  670056000121  tdo      1, 121(16)      ;"W N !1"
003021:  701140000001  datao    pag, 1          ;"X)@  !"
003022:  700200022000  cono     apr, 22000      ;"X" "0 "
003023:  201400777000  movei    10, 777000      ;"0, _X "
003024:  330010000020  skip     20(10)          ;"; (  0"
003025:  700340002000  conso    apr, 2000       ;"X#@ 0 "
003026:  254016000033  jrst     33(16)          ;"5@.  ;"
003027:  700200022000  cono     apr, 22000      ;"X" "0 "
003030:  275400001000  subi     10, 1000        ;"7L  ( "
003031:  326416000024  jumpn    10, 24(16)      ;":T.  4"
003032:  254216000032  halt     32(16)          ;"5B.  :"
003033:  515056001000  hrlzi    1, 1000(16)     ;"IHN ( "
003034:  541050776157  hrri     1, 776157(10)   ;"L(H_QO"
003035:  251050000777  blt      1, 777(10)      ;"5(H '_"
003036:  200600000010  move     14, 10          ;"0&   ("
003037:  275400013000  subi     10, 13000       ;"7L !8 "
003040:  201050000001  movei    1, 1(10)        ;"0(H  !"
003041:  504040000010  hrl      1, 10           ;"H@@  ("
003042:  402010000000  setzm    (10)            ;"@0(   " "@@@\0\0"
003043:  251050000777  blt      1, 777(10)      ;"5(H '_"
003044:  205040255000  movsi    1, 255000       ;"0H@5H "
003045:  202050000421  movem    1, 421(10)      ;"00H $1"
003046:  201040615715  movei    1, 615715       ;"0(@QO-"
003047:  202050000503  movem    1, 503(10)      ;"00H %#"
003050:  200440000010  move     11, 10          ;"0$@  ("
003051:  242440777767  lsh      11, 777767      ;"44@__W"
003052:  201050001000  movei    1, 1000(10)     ;"0(H ( "
003053:  242040777767  lsh      1, 777767       ;"40@__W"
003054:  202050000760  movem    1, 760(10)      ;"00H 'P"
003055:  205040220000  movsi    1, 220000       ;"0H@2  "
003056:  202050000540  movem    1, 540(10)      ;"00H %@"
003057:  271400001000  addi     10, 1000        ;"7,  ( "
003060:  201110775000  movei    2, 775000(10)   ;"0)(_H " " $Gz\0"
003061:  242100777767  lsh      2, 777767       ;"41 __W"
003062:  505100777762  hrli     2, 777762       ;"HI __R"
003063:  201050000602  movei    1, 602(10)      ;"0(H &""
003064:  550140000002  hrrz     3, 2            ;"M!@  ""
003065:  661140124000  tlo      3, 124000       ;"V)@*@ "
003066:  202141000000  movem    3, (1)          ;"01A   "
003067:  271040000001  addi     1, 1            ;"7(@  !"
003070:  253100003064  aobjn    2, 3064         ;"59  8T"
003071:  271400001000  addi     10, 1000        ;"7,  ( "
003072:  200040000010  move     1, 10           ;"0 @  ("
003073:  505040774000  hrli     1, 774000       ;"HH@_@ "
003074:  205140010000  movsi    3, 10000        ;"0I@!  "
003075:  202141000000  movem    3, (1)          ;"01A   "
003076:  253040003075  aobjn    1, 3075         ;"58@ 8]"
003077:  661440100000  tlo      11, 100000      ;"V,@(  "
003100:  200500000011  move     12, 11          ;"0%   )"
003101:  505440500600  hrli     11, 500600      ;"HL@H& "
003102:  701140000011  datao    pag, 11         ;"X)@  )"
003103:  551050776760  hrrzi    1, 776760(10)   ;"M(H_WP" "Z\"G}x"
003104:  256216000122  xct      4, 122(16)      ;"5R. !2"
003105:  256216000123  xct      4, 123(16)      ;"5R. !3"
003106:  205040770000  movsi    1, 770000       ;"0H@_  "
003107:  256216000124  xct      4, 124(16)      ;"5R. !4"
003110:  660440060000  tro      11, 60000       ;"V$@&  "
003111:  701240000001  coni     pag, 1          ;"X*@  !"
003112:  405040600000  andi     1, 600000       ;"@H@P  "
003113:  434440000001  ior      11, 1           ;"CD@  !"
003114:  120056000125                           ;"* N !5"
003115:  254000000001  jrst     1               ;"5@   !"
003116:  350016000502  aos      502(16)         ;"= . %""
003117:  254036000502  jrst     @502(16)        ;"5@> %""
003120:  600000000000  trn      0, 0            ;"P     " "`\0\0\0\0"
003121:  100000400000                           ;"(  @  "
003122:  202040000003  movem    1, 3            ;"00@  #"
003123:  202400000002  movem    10, 2           ;"04   ""
003124:  202040000000  movem    1, 0            ;"00@   " " B\0\0\0"
003125:  701211000000  cono     pag, (11)       ;"X*)   " "p(H\0\0"
003126:  254000615157  jrst     615157          ;"5@ QIO"
004000:  202000615133  movem    0, 615133       ;"00 QI;"
004001:  201400605000  movei    10, 605000      ;"0, PH "
004002:  403440000012  setzb    11, 12          ;"@<@  *"
004003:  700200022000  cono     apr, 22000      ;"X" "0 "
004004:  200040000012  move     1, 12           ;"0 @  *"
004005:  661040120000  tlo      1, 120000       ;"V(@*  "
004006:  202050000000  movem    1, (10)         ;"00H   " " B@\0\0"
004007:  200040000011  move     1, 11           ;"0 @  )"
004010:  242040000011  lsh      1, 11           ;"40@  )"
004011:  701101000000  blko     pag, (1)        ;"X)!   "
004012:  330001000020  skip     20(1)           ;"; !  0"
004013:  700300002000  consz    apr, 2000       ;"X#  0 "
004014:  254000615200  jrst     615200          ;"5@ QJ "
004015:  271400000001  addi     10, 1           ;"7,   !"
004016:  271440000001  addi     11, 1           ;"7,@  !"
004017:  303440000377  caile    11, 377         ;"8<@ #_"
004020:  254000615203  jrst     615203          ;"5@ QJ#"
004021:  271500000001  addi     12, 1           ;"7-   !"
004022:  305500004000  caige    12, 4000        ;"8M  @ "
004023:  254000615162  jrst     615162          ;"5@ QIR"
004024:  402000604444  setzm    604444          ;"@0 PDD"
004025:  402000604456  setzm    604456          ;"@0 PDN"
004026:  205040777774  movsi    1, 777774       ;"0H@__\"
004027:  200100617266  move     2, 617266       ;"0! QZV"
004030:  200140617267  move     3, 617267       ;"0!@QZW"
004031:  200240617270  move     5, 617270       ;"0"@QZX"
004032:  256000000003  xct      3               ;"5P   #"
004033:  254000617271  jrst     617271          ;"5@ QZY"
004034:  256000000002  xct      2               ;"5P   ""
004035:  254000617301  jrst     617301          ;"5@ Q[!"
004036:  270100617306  add      2, 617306       ;"7! Q[&"
004037:  270140617306  add      3, 617306       ;"7!@Q[&"
004040:  270240617306  add      5, 617306       ;"7"@Q[&"
004041:  253040615211  aobjn    1, 615211       ;"58@QJ)"
004042:  254200615221  halt     615221          ;"5B QJ1"
004043:  201240004400  movei    5, 4400         ;"0*@ D "
004044:  202240604451  movem    5, 604451       ;"02@PDI"
004045:  201240020000  movei    5, 20000        ;"0*@"  "
004046:  256000615154  xct      615154          ;"5P QIL"
004047:  336000604444  skipn    604444          ;";P PDD"
004050:  254000615226  jrst     615226          ;"5@ QJ6"
004051:  202600615132  movem    14, 615132      ;"06 QI:"
004052:  476000615127  setom    615127          ;"GP QI7"
004053:  402000615117  setzm    615117          ;"@0 QI/"
004054:  205040606300  movsi    1, 606300       ;"0H@PS "
004055:  202040615114  movem    1, 615114       ;"00@QI,"
004056:  200740616114  move     17, 616114      ;"0'@QQ,"
004057:  200040617307  move     1, 617307       ;"0 @Q['"
004060:  402000615000  setzm    615000          ;"@0 QH "
004061:  251040615112  blt      1, 615112       ;"5(@QI*"
004062:  332000615133  skipe    615133          ;";0 QI;"
004063:  254000615246  jrst     615246          ;"5@ QJF"
004064:  260740616011  pushj    17, 616011      ;"6'@QP)"
004065:  200040617310  move     1, 617310       ;"0 @Q[("
004066:  260740616002  pushj    17, 616002      ;"6'@QP""
004067:  260740615753  pushj    17, 615753      ;"6'@QOK"
004070:  202040615111  movem    1, 615111       ;"00@QI)"
004071:  400440000000  setz     11,             ;"@$@   "
004072:  336040615112  skipn    1, 615112       ;";P@QI*"
004073:  254000617311  jrst     617311          ;"5@ Q[)"
004074:  200100617314  move     2, 617314       ;"0! Q[,"
004075:  201140000006  movei    3, 6            ;"0)@  &"
004076:  134200000001  ildb     4, 1            ;"+B   !"
004077:  306200000072  cain     4, 72           ;"8R   Z"
004100:  254000615263  jrst     615263          ;"5@ QJS"
004101:  275200000040  subi     4, 40           ;"7J   @"
004102:  136200000002  idpb     4, 2            ;"+R   ""
004103:  367140615255  sojg     3, 615255       ;">Y@QJM"
004104:  316440615114  camn     11, 615114      ;"9T@QI,"
004105:  336000615117  skipn    615117          ;";P QI/"
004106:  334000000000  skipa                    ;";@    " "7\0\0\0\0"
004107:  254000615453  jrst     615453          ;"5@ QLK"
004110:  202440615114  movem    11, 615114      ;"04@QI,"
004111:  200040617315  move     1, 617315       ;"0 @Q[-"
004112:  402000615117  setzm    615117          ;"@0 QI/"
004113:  251040615126  blt      1, 615126       ;"5(@QI6"
004114:  402000615115  setzm    615115          ;"@0 QI-"
004115:  254000615275  jrst     615275          ;"5@ QJ]"
004116:  403400000011  setzb    10, 11          ;"@<   )"
004117:  402000615130  setzm    615130          ;"@0 QI8"
004120:  257040614000                           ;"5X@Q@ "
004121:  621040777760  tlz      1, 777760       ;"R(@__P"
004122:  661040620000  tlo      1, 620000       ;"V(@R  "
004123:  202040000020  movem    1, 20           ;"00@  0"
004124:  200040617316  move     1, 617316       ;"0 @Q[."
004125:  200100000010  move     2, 10           ;"0!   ("
004126:  242100000002  lsh      2, 2            ;"41   ""
004127:  202042604000  movem    1, 604000(2)    ;"00BP@ "
004130:  402000000011  setzm    11              ;"@0   )"
004131:  260740615410  pushj    17, 615410      ;"6'@QL("
004132:  254000615313  jrst     615313          ;"5@ QK+"
004133:  254000615320  jrst     615320          ;"5@ QK0"
004134:  260740615420  pushj    17, 615420      ;"6'@QL0"
004135:  254000615324  jrst     615324          ;"5@ QK4"
004136:  350000000011  aos      11              ;"=    )"
004137:  307440000007  caig     11, 7           ;"8\@  '"
004140:  254000615313  jrst     615313          ;"5@ QK+"
004141:  350000000010  aos      10              ;"=    ("
004142:  307400000007  caig     10, 7           ;"8\   '"
004143:  254000615303  jrst     615303          ;"5@ QK#"
004144:  254000615403  jrst     615403          ;"5@ QL#"
004145:  405100000777  andi     2, 777          ;"@I  '_"
004146:  306100000060  cain     2, 60           ;"8Q   P"
004147:  260740615466  pushj    17, 615466      ;"6'@QLV"
004150:  337040615115  skipg    1, 615115       ;";X@QI-"
004151:  254000615371  jrst     615371          ;"5@ QKY"
004152:  316100000001  camn     2, 1            ;"9Q   !"
004153:  254000615336  jrst     615336          ;"5@ QK>"
004154:  306040000020  cain     1, 20           ;"8P@  0"
004155:  302100000021  caie     2, 21           ;"81   1"
004156:  254000615315  jrst     615315          ;"5@ QK-"
004157:  200040617317  move     1, 617317       ;"0 @Q[/"
004160:  260740615432  pushj    17, 615432      ;"6'@QL:"
004161:  205040010000  movsi    1, 10000        ;"0H@!  "
004162:  260740615431  pushj    17, 615431      ;"6'@QL9"
004163:  606040010000  trnn     1, 10000        ;"PP@!  "
004164:  254000615315  jrst     615315          ;"5@ QK-"
004165:  200040617320  move     1, 617320       ;"0 @Q[0"
004166:  402000614000  setzm    614000          ;"@0 Q@ "
004167:  251040614777  blt      1, 614777       ;"5(@QG_"
004170:  260740616044  pushj    17, 616044      ;"6'@QPD"
004171:  260740615717  pushj    17, 615717      ;"6'@QO/"
004172:  254000615363  jrst     615363          ;"5@ QKS"
004173:  337100615115  skipg    2, 615115       ;";Y QI-"
004174:  213100615115  movns    2, 615115       ;"19 QI-"
004175:  201040000620  movei    1, 620          ;"0(@ &0"
004176:  302100000020  caie     2, 20           ;"81   0"
004177:  201040001440  movei    1, 1440         ;"0(@ ,@"
004200:  306100000024  cain     2, 24           ;"8Q   4"
004201:  201040001464  movei    1, 1464         ;"0(@ ,T"
004202:  202040615116  movem    1, 615116       ;"00@QI."
004203:  254000615315  jrst     615315          ;"5@ QK-"
004204:  260740616043  pushj    17, 616043      ;"6'@QPC"
004205:  200040617321  move     1, 617321       ;"0 @Q[1"
004206:  251040614376  blt      1, 614376       ;"5(@QC^"
004207:  260740615717  pushj    17, 615717      ;"6'@QO/"
004210:  254000615315  jrst     615315          ;"5@ QK-"
004211:  254000615352  jrst     615352          ;"5@ QKJ"
004212:  306100000024  cain     2, 24           ;"8Q   4"
004213:  254000615401  jrst     615401          ;"5@ QL!"
004214:  302100000022  caie     2, 22           ;"81   2"
004215:  306100000020  cain     2, 20           ;"8Q   0"
004216:  254000615401  jrst     615401          ;"5@ QL!"
004217:  302100000021  caie     2, 21           ;"81   1"
004220:  254000615315  jrst     615315          ;"5@ QK-"
004221:  201100000020  movei    2, 20           ;"0)   0"
004222:  212100615115  movnm    2, 615115       ;"11 QI-"
004223:  254000615336  jrst     615336          ;"5@ QK>"
004224:  200040615110  move     1, 615110       ;"0 @QI("
004225:  336001615117  skipn    615117(1)       ;";P!QI/"
004226:  254000615705  jrst     615705          ;"5@ QO%"
004227:  365040615404  sojge    1, 615404       ;">H@QL$"
004230:  254000615453  jrst     615453          ;"5@ QLK"
004231:  201040002000  movei    1, 2000         ;"0(@ 0 "
004232:  260740615443  pushj    17, 615443      ;"6'@QLC"
004233:  201040000400  movei    1, 400          ;"0(@ $ "
004234:  260740615443  pushj    17, 615443      ;"6'@QLC"
004235:  260740615440  pushj    17, 615440      ;"6'@QL@"
004236:  606040000400  trnn     1, 400          ;"PP@ $ "
004237:  254000615751  jrst     615751          ;"5@ QOI"
004240:  263740000000  popj     17,             ;"6?@   "
004241:  205040060000  movsi    1, 60000        ;"0H@&  "
004242:  260740615431  pushj    17, 615431      ;"6'@QL9"
004243:  200100000001  move     2, 1            ;"0!   !"
004244:  260740615440  pushj    17, 615440      ;"6'@QL@"
004245:  606040004000  trnn     1, 4000         ;"PP@ @ "
004246:  263740000000  popj     17,             ;"6?@   "
004247:  201040004400  movei    1, 4400         ;"0(@ D "
004250:  260740615443  pushj    17, 615443      ;"6'@QLC"
004251:  254000615751  jrst     615751          ;"5@ QOI"
004252:  621040004000  tlz      1, 4000         ;"R(@ @ "
004253:  671040000011  tso      1, 11           ;"W(@  )"
004254:  260740615446  pushj    17, 615446      ;"6'@QLF"
004255:  700140000001  datao    apr, 1          ;"X!@  !"
004256:  260740615446  pushj    17, 615446      ;"6'@QLF"
004257:  700040000001  datai    apr, 1          ;"X @  !"
004260:  263740000000  popj     17,             ;"6?@   "
004261:  260740615446  pushj    17, 615446      ;"6'@QLF"
004262:  700240000001  coni     apr, 1          ;"X"@  !"
004263:  263740000000  popj     17,             ;"6?@   "
004264:  260740615446  pushj    17, 615446      ;"6'@QLF"
004265:  700201000000  cono     apr, (1)        ;"X"!   "
004266:  263740000000  popj     17,             ;"6?@   "
004267:  201010000130  movei    0, 130(10)      ;"0(( !8"
004270:  137000617322  dpb      0, 617322       ;"+X Q[2"
004271:  263740000000  popj     17,             ;"6?@   "
004272:  120040617323                           ;"* @Q[3"
004273:  254000615457  jrst     615457          ;"5@ QLO"
004274:  200040615111  move     1, 615111       ;"0 @QI)"
004275:  265700616115  jsp      16, 616115      ;"6O QQ-"
004276:  254000615457  jrst     615457          ;"5@ QLO"
004277:  254000615235  jrst     615235          ;"5@ QJ="
004300:  261740000002  push     17, 2           ;"6/@  ""
004301:  201240000077  movei    5, 77           ;"0*@  _"
004302:  260740616033  pushj    17, 616033      ;"6'@QP;"
004303:  260740616002  pushj    17, 616002      ;"6'@QP""
004304:  262740000001  pop      17, 1           ;"67@  !"
004305:  260740616002  pushj    17, 616002      ;"6'@QP""
004306:  254000615232  jrst     615232          ;"5@ QJ:"
004307:  201040042562  movei    1, 42562        ;"0(@$5R"
004310:  202040006632  movem    1, 6632         ;"00@ V:"
004311:  201240615523  movei    5, 615523       ;"0*@QM3"
004312:  260740615531  pushj    17, 615531      ;"6'@QM9"
004313:  201240615526  movei    5, 615526       ;"0*@QM6"
004314:  260740615531  pushj    17, 615531      ;"6'@QM9"
004315:  261740000001  push     17, 1           ;"6/@  !"
004316:  260740615515  pushj    17, 615515      ;"6'@QM-"
004317:  260740615667  pushj    17, 615667      ;"6'@QNW"
004320:  201300617325  movei    6, 617325       ;"0+ Q[5"
004321:  260740615662  pushj    17, 615662      ;"6'@QNR"
004322:  135300617331  ldb      6, 617331       ;"+K Q[9"
004323:  260740615655  pushj    17, 615655      ;"6'@QNM"
004324:  262740000006  pop      17, 6           ;"67@  &"
004325:  405300001777  andi     6, 1777         ;"@K  /_"
004326:  201240000050  movei    5, 50           ;"0*@  H"
004327:  260740616033  pushj    17, 616033      ;"6'@QP;"
004330:  260740615655  pushj    17, 615655      ;"6'@QNM"
004331:  201240000051  movei    5, 51           ;"0*@  I"
004332:  260740616033  pushj    17, 616033      ;"6'@QP;"
004333:  201300617332  movei    6, 617332       ;"0+ Q[:"
004334:  260740615662  pushj    17, 615662      ;"6'@QNR"
004335:  254000616011  jrst     616011          ;"5@ QP)"
004336:  201040130001  movei    1, 130001       ;"0(@+ !"
004337:  661040314000  tlo      1, 314000       ;"V(@9@ "
004340:  260740615432  pushj    17, 615432      ;"6'@QL:"
004341:  201040000004  movei    1, 4            ;"0(@  $"
004342:  661040034000  tlo      1, 34000        ;"V(@#@ "
004343:  254000615432  jrst     615432          ;"5@ QL:"
004344:  314000060000  cama     0, 60000        ;"9@ &  "
004345:  000000615432                           ;"   QL:"
004346:  000000617341                           ;"   Q[A"
004347:  314000120000  cama     0, 120000       ;"9@ *  "
004350:  000000617343                           ;"   Q[C"
004351:  000000617351                           ;"   Q[I"
004352:  205100773134  movsi    2, 773134       ;"0I _9<"
004353:  335002006621  skipge   6621(2)         ;";H" V1"
004354:  254000615544  jrst     615544          ;"5@ QMD"
004355:  550040000002  hrrz     1, 2            ;"M @  ""
004356:  434045000000  ior      1, (5)          ;"C@E   "
004357:  260740615432  pushj    17, 615432      ;"6'@QL:"
004360:  200042006621  move     1, 6621(2)      ;"0 B V1"
004361:  405040177777  andi     1, 177777       ;"@H@/__"
004362:  661040304000  tlo      1, 304000       ;"V(@8@ "
004363:  260765000001  pushj    17, @1(5)       ;"6'U  !"
004364:  253100615532  aobjn    2, 615532       ;"59 QM:"
004365:  252100615751  aobjp    2, 615751       ;"51 QOI"
004366:  201040120000  movei    1, 120000       ;"0(@*  "
004367:  661040314000  tlo      1, 314000       ;"V(@9@ "
004370:  260740615432  pushj    17, 615432      ;"6'@QL:"
004371:  205040300000  movsi    1, 300000       ;"0H@8  "
004372:  260740615431  pushj    17, 615431      ;"6'@QL9"
004373:  261740000001  push     17, 1           ;"6/@  !"
004374:  201040001000  movei    1, 1000         ;"0(@ ( "
004375:  260740615572  pushj    17, 615572      ;"6'@QMZ"
004376:  201040000400  movei    1, 400          ;"0(@ $ "
004377:  260740615572  pushj    17, 615572      ;"6'@QMZ"
004400:  200042006621  move     1, 6621(2)      ;"0 B V1"
004401:  405040000377  andi     1, 377          ;"@H@ #_"
004402:  260765000002  pushj    17, @2(5)       ;"6'U  ""
004403:  253100615557  aobjn    2, 615557       ;"59 QMO"
004404:  201040060000  movei    1, 60000        ;"0(@&  "
004405:  661040314000  tlo      1, 314000       ;"V(@9@ "
004406:  260740615432  pushj    17, 615432      ;"6'@QL:"
004407:  262740000001  pop      17, 1           ;"67@  !"
004410:  405040177777  andi     1, 177777       ;"@H@/__"
004411:  661040304000  tlo      1, 304000       ;"V(@8@ "
004412:  254000615432  jrst     615432          ;"5@ QL:"
004413:  261740000001  push     17, 1           ;"6/@  !"
004414:  201040000020  movei    1, 20           ;"0(@  0"
004415:  661040034000  tlo      1, 34000        ;"V(@#@ "
004416:  260740615432  pushj    17, 615432      ;"6'@QL:"
004417:  201040060000  movei    1, 60000        ;"0(@&  "
004420:  661040314000  tlo      1, 314000       ;"V(@9@ "
004421:  260740615432  pushj    17, 615432      ;"6'@QL:"
004422:  262740000001  pop      17, 1           ;"67@  !"
004423:  661040304000  tlo      1, 304000       ;"V(@8@ "
004424:  260740615432  pushj    17, 615432      ;"6'@QL:"
004425:  201040110000  movei    1, 110000       ;"0(@)  "
004426:  661040314000  tlo      1, 314000       ;"V(@9@ "
004427:  260740615432  pushj    17, 615432      ;"6'@QL:"
004430:  201040000024  movei    1, 24           ;"0(@  4"
004431:  661040034000  tlo      1, 34000        ;"V(@#@ "
004432:  260740615432  pushj    17, 615432      ;"6'@QL:"
004433:  205040034000  movsi    1, 34000        ;"0H@#@ "
004434:  254000615432  jrst     615432          ;"5@ QL:"
004435:  120300617362                           ;"*# Q[R"
004436:  254000615617  jrst     615617          ;"5@ QN/"
004437:  120300617364                           ;"*# Q[T"
004440:  261740000001  push     17, 1           ;"6/@  !"
004441:  201240000077  movei    5, 77           ;"0*@  _"
004442:  260740616033  pushj    17, 616033      ;"6'@QP;"
004443:  260740615667  pushj    17, 615667      ;"6'@QNW"
004444:  260740616003  pushj    17, 616003      ;"6'@QP#"
004445:  200300000007  move     6, 7            ;"0#   '"
004446:  260740616003  pushj    17, 616003      ;"6'@QP#"
004447:  260740616011  pushj    17, 616011      ;"6'@QP)"
004450:  200300617366  move     6, 617366       ;"0# Q[V"
004451:  260740616003  pushj    17, 616003      ;"6'@QP#"
004452:  200300000003  move     6, 3            ;"0#   #"
004453:  260740615645  pushj    17, 615645      ;"6'@QNE"
004454:  200300617367  move     6, 617367       ;"0# Q[W"
004455:  260740616003  pushj    17, 616003      ;"6'@QP#"
004456:  200317000000  move     6, (17)         ;"0#/   " " \fx\0\0"
004457:  260740615645  pushj    17, 615645      ;"6'@QNE"
004460:  200300617370  move     6, 617370       ;"0# Q[X"
004461:  260740616003  pushj    17, 616003      ;"6'@QP#"
004462:  262740000006  pop      17, 6           ;"67@  &"
004463:  430300000003  xor      6, 3            ;"C#   #"
004464:  260740615645  pushj    17, 615645      ;"6'@QNE"
004465:  254000615232  jrst     615232          ;"5@ QJ:"
004466:  201240000040  movei    5, 40           ;"0*@  @"
004467:  200340617371  move     7, 617371       ;"0#@Q[Y"
004470:  260740616033  pushj    17, 616033      ;"6'@QP;"
004471:  607340770000  tlnn     7, 770000       ;"P[@_  "
004472:  263740000000  popj     17,             ;"6?@   "
004473:  134240000007  ildb     5, 7            ;"+B@  '"
004474:  271240000060  addi     5, 60           ;"7*@  P"
004475:  254000615647  jrst     615647          ;"5@ QNG"
004476:  200340617371  move     7, 617371       ;"0#@Q[Y"
004477:  134240000007  ildb     5, 7            ;"+B@  '"
004500:  603340770000  tlne     7, 770000       ;"P;@_  "
004501:  322240615656  jumpe    5, 615656       ;":2@QNN"
004502:  254000615653  jrst     615653          ;"5@ QNK"
004503:  505300440700  hrli     6, 440700       ;"HK D' "
004504:  134240000006  ildb     5, 6            ;"+B@  &"
004505:  322240615752  jumpe    5, 615752       ;":2@QOJ"
004506:  260740616033  pushj    17, 616033      ;"6'@QP;"
004507:  254000615663  jrst     615663          ;"5@ QNS"
004510:  261740000006  push     17, 6           ;"6/@  &"
004511:  201300617372  movei    6, 617372       ;"0+ Q[Z"
004512:  260740615662  pushj    17, 615662      ;"6'@QNR"
004513:  200300000010  move     6, 10           ;"0#   ("
004514:  260740615655  pushj    17, 615655      ;"6'@QNM"
004515:  201300617373  movei    6, 617373       ;"0+ Q[["
004516:  260740615662  pushj    17, 615662      ;"6'@QNR"
004517:  200300000011  move     6, 11           ;"0#   )"
004520:  260740615655  pushj    17, 615655      ;"6'@QNM"
004521:  201240000040  movei    5, 40           ;"0*@  @"
004522:  262740000006  pop      17, 6           ;"67@  &"
004523:  254000616033  jrst     616033          ;"5@ QP;"
004524:  120040617375                           ;"* @Q[]"
004525:  254000615457  jrst     615457          ;"5@ QLO"
004526:  120040617377                           ;"* @Q[_"
004527:  254000615457  jrst     615457          ;"5@ QLO"
004530:  120040617401                           ;"* @Q\!"
004531:  254000615457  jrst     615457          ;"5@ QLO"
004532:  120040617403                           ;"* @Q\#"
004533:  254000615457  jrst     615457          ;"5@ QLO"
004534:  120040617405                           ;"* @Q\%"
004535:  254000615457  jrst     615457          ;"5@ QLO"
004536:  350000604502  aos      604502          ;"=  PE""
004537:  254020604502  jrst     @604502         ;"5@0PE""
004540:  200040614200  move     1, 614200       ;"0 @QB "
004541:  312040617407  came     1, 617407       ;"90@Q\'"
004542:  263740000000  popj     17,             ;"6?@   "
004543:  200040614376  move     1, 614376       ;"0 @QC^"
004544:  302040707070  caie     1, 707070       ;"80@XXX"
004545:  263740000000  popj     17,             ;"6?@   "
004546:  200040614203  move     1, 614203       ;"0 @QB#"
004547:  312040615114  came     1, 615114       ;"90@QI,"
004550:  263740000000  popj     17,             ;"6?@   "
004551:  200040614204  move     1, 614204       ;"0 @QB$"
004552:  332001615117  skipe    615117(1)       ;";0!QI/"
004553:  254000615703  jrst     615703          ;"5@ QO#"
004554:  552441615117  hrrzm    11, 615117(1)   ;"M4AQI/"
004555:  201110400000  movei    2, 400000(10)   ;"0)(@  " " $D\0\0"
004556:  506101615117  hrlm     2, 615117(1)    ;"HQ!QI/"
004557:  554040000001  hlrz     1, 1            ;"M@@  !"
004560:  370000000001  sos      1               ;"?    !"
004561:  336000615110  skipn    615110          ;";P QI("
004562:  202040615110  movem    1, 615110       ;"00@QI("
004563:  312040615110  came     1, 615110       ;"90@QI("
004564:  254000615707  jrst     615707          ;"5@ QO'"
004565:  200100614210  move     2, 614210       ;"0! QB("
004566:  336000615130  skipn    615130          ;";P QI8"
004567:  202100615130  movem    2, 615130       ;"01 QI8"
004570:  312100615130  came     2, 615130       ;"91 QI8"
004571:  254000615707  jrst     615707          ;"5@ QO'"
004572:  350017000000  aos      (17)            ;"= /   "
004573:  263740000000  popj     17,             ;"6?@   "
004574:  200340617410  move     7, 617410       ;"0#@Q\("
004575:  200040000007  move     1, 7            ;"0 @  '"
004576:  332100615133  skipe    2, 615133       ;";1 QI;"
004577:  254000616015  jrst     616015          ;"5@ QP-"
004600:  260740616024  pushj    17, 616024      ;"6'@QP4"
004601:  302240000025  caie     5, 25           ;"82@  5"
004602:  306240000177  cain     5, 177          ;"8R@ !_"
004603:  254000617411  jrst     617411          ;"5@ Q\)"
004604:  301240000140  cail     5, 140          ;"8*@ !@"
004605:  275240000040  subi     5, 40           ;"7J@  @"
004606:  306240000015  cain     5, 15           ;"8R@  -"
004607:  254000615775  jrst     615775          ;"5@ QO]"
004610:  136240000007  idpb     5, 7            ;"+R@  '"
004611:  302240000072  caie     5, 72           ;"82@  Z"
004612:  254000615757  jrst     615757          ;"5@ QOO"
004613:  202040615112  movem    1, 615112       ;"00@QI*"
004614:  200040000007  move     1, 7            ;"0 @  '"
004615:  254000615757  jrst     615757          ;"5@ QOO"
004616:  136240000007  idpb     5, 7            ;"+R@  '"
004617:  260740616011  pushj    17, 616011      ;"6'@QP)"
004620:  401100000000  setzi    2,              ;"@)    " "@$\0\0\0"
004621:  136100000007  idpb     2, 7            ;"+Q   '"
004622:  263740000000  popj     17,             ;"6?@   "
004623:  200300000001  move     6, 1            ;"0#   !"
004624:  400240000000  setz     5,              ;"@"@   " "@\n\0\0\0"
004625:  246240000006  lshc     5, 6            ;"4R@  &"
004626:  271240000040  addi     5, 40           ;"7*@  @"
004627:  260740616033  pushj    17, 616033      ;"6'@QP;"
004630:  326300616003  jumpn    6, 616003       ;":S QP#"
004631:  263740000000  popj     17,             ;"6?@   "
004632:  201240000215  movei    5, 215          ;"0*@ "-"
004633:  260740616033  pushj    17, 616033      ;"6'@QP;"
004634:  201240000012  movei    5, 12           ;"0*@  *"
004635:  254000616033  jrst     616033          ;"5@ QP;"
004636:  623100200000  tlze     2, 200000       ;"R9 0  "
004637:  254000617415  jrst     617415          ;"5@ Q\-"
004640:  623100400000  tlze     2, 400000       ;"R9 @  "
004641:  254000617420  jrst     617420          ;"5@ Q\0"
004642:  202140615045  movem    3, 615045       ;"01@QHE"
004643:  202100615133  movem    2, 615133       ;"01 QI;"
004644:  263740000000  popj     17,             ;"6?@   "
004645:  336000604456  skipn    604456          ;";P PDN"
004646:  254000616024  jrst     616024          ;"5@ QP4"
004647:  200240604450  move     5, 604450       ;"0"@PDH"
004650:  260740616033  pushj    17, 616033      ;"6'@QP;"
004651:  200240604450  move     5, 604450       ;"0"@PDH"
004652:  402000604456  setzm    604456          ;"@0 PDN"
004653:  263740000000  popj     17,             ;"6?@   "
004654:  402000604455  setzm    604455          ;"@0 PDM"
004655:  660240004000  tro      5, 4000         ;"V"@ @ "
004656:  202240604451  movem    5, 604451       ;"02@PDI"
004657:  201240020000  movei    5, 20000        ;"0*@"  "
004660:  256000615154  xct      615154          ;"5P QIL"
004661:  336000604455  skipn    604455          ;";P PDM"
004662:  254000616040  jrst     616040          ;"5@ QP@"
004663:  263740000000  popj     17,             ;"6?@   "
004664:  334540617422  skipa    13, 617422      ;";E@Q\2"
004665:  200540617423  move     13, 617423      ;"0%@Q\3"
004666:  201140000005  movei    3, 5            ;"0)@  %"
004667:  200040617424  move     1, 617424       ;"0 @Q\4"
004670:  260740615432  pushj    17, 615432      ;"6'@QL:"
004671:  205040010000  movsi    1, 10000        ;"0H@!  "
004672:  260740615431  pushj    17, 615431      ;"6'@QL9"
004673:  606040000200  trnn     1, 200          ;"PP@ " "
004674:  254000616050  jrst     616050          ;"5@ QPH"
004675:  200040617425  move     1, 617425       ;"0 @Q\5"
004676:  260740615432  pushj    17, 615432      ;"6'@QL:"
004677:  402000000021  setzm    21              ;"@0   1"
004700:  200200617426  move     4, 617426       ;"0" Q\6"
004701:  211040000004  movni    1, 4            ;"1(@  $"
004702:  137040617427  dpb      1, 617427       ;"+X@Q\7"
004703:  200040000013  move     1, 13           ;"0 @  +"
004704:  260740615432  pushj    17, 615432      ;"6'@QL:"
004705:  200040000004  move     1, 4            ;"0 @  $"
004706:  201100141520  movei    2, 141520       ;"0) ,-0"
004707:  260740615432  pushj    17, 615432      ;"6'@QL:"
004710:  260740615440  pushj    17, 615440      ;"6'@QL@"
004711:  606040000010  trnn     1, 10           ;"PP@  ("
004712:  367100616067  sojg     2, 616067       ;">Y QPW"
004713:  201040005410  movei    1, 5410         ;"0(@ L("
004714:  260740615443  pushj    17, 615443      ;"6'@QLC"
004715:  323100616104  jumple   2, 616104       ;":9 QQ$"
004716:  205040010000  movsi    1, 10000        ;"0H@!  "
004717:  260740615431  pushj    17, 615431      ;"6'@QL9"
004720:  602040100000  trne     1, 100000       ;"P0@(  "
004721:  254000616104  jrst     616104          ;"5@ QQ$"
004722:  260740615440  pushj    17, 615440      ;"6'@QL@"
004723:  606040775120  trnn     1, 775120       ;"PP@_I0"
004724:  263740000000  popj     17,             ;"6?@   "
004725:  201040003420  movei    1, 3420         ;"0(@ <0"
004726:  260740615443  pushj    17, 615443      ;"6'@QLC"
004727:  201040000400  movei    1, 400          ;"0(@ $ "
004730:  260740615443  pushj    17, 615443      ;"6'@QLC"
004731:  200040617430  move     1, 617430       ;"0 @Q\8"
004732:  260740615432  pushj    17, 615432      ;"6'@QL:"
004733:  367140616046  sojg     3, 616046       ;">Y@QPF"
004734:  263740000000  popj     17,             ;"6?@   "
004735:  777760615133  conso    774, @615133    ;"__PQI;"
004736:  402000615156  setzm    615156          ;"@0 QIN"
004737:  403000615155  setzb    0, 615155       ;"@8 QIM"
004740:  200640615115  move     15, 615115      ;"0&@QI-"
004741:  202040615000  movem    1, 615000       ;"00@QH "
004742:  260740616204  pushj    17, 616204      ;"6'@QR$"
004743:  607000020000  tlnn     0, 20000        ;"PX "  "
004744:  254000616133  jrst     616133          ;"5@ QQ;"
004745:  260740616413  pushj    17, 616413      ;"6'@QT+"
004746:  325000616130  jumpge   0, 616130       ;":H QQ8"
004747:  260740617131  pushj    17, 617131      ;"6'@QY9"
004750:  254016000001  jrst     1(16)           ;"5@.  !"
004751:  260740617045  pushj    17, 617045      ;"6'@QXE"
004752:  402000604456  setzm    604456          ;"@0 PDN"
004753:  260740616140  pushj    17, 616140      ;"6'@QQ@"
004754:  402000000020  setzm    20              ;"@0   0"
004755:  260740616624  pushj    17, 616624      ;"6'@QV4"
004756:  603000040000  tlne     0, 40000        ;"P8 $  "
004757:  254020615001  jrst     @615001         ;"5@0QH!"
004760:  254016000001  jrst     1(16)           ;"5@.  !"
004761:  551040617000  hrrzi    1, 617000       ;"M(@QX "
004762:  505040602000  hrli     1, 602000       ;"HH@P0 "
004763:  202040000202  movem    1, 202          ;"00@ """
004764:  551040605000  hrrzi    1, 605000       ;"M(@PH "
004765:  505040604000  hrli     1, 604000       ;"HH@P@ "
004766:  202040000203  movem    1, 203          ;"00@ "#"
004767:  200040615132  move     1, 615132       ;"0 @QI:"
004770:  201041774000  movei    1, 774000(1)    ;"0(A_@ "
004771:  505040777773  hrli     1, 777773       ;"HH@__["
004772:  202040000204  movem    1, 204          ;"00@ "$"
004773:  201040613000  movei    1, 613000       ;"0(@Q8 "
004774:  202040000205  movem    1, 205          ;"00@ "%"
004775:  200340617431  move     7, 617431       ;"0#@Q\9"
004776:  201240000074  movei    5, 74           ;"0*@  \"
004777:  136240000007  idpb     5, 7            ;"+R@  '"
005000:  200300615003  move     6, 615003       ;"0# QH#"
005001:  260740616200  pushj    17, 616200      ;"6'@QR "
005002:  201240000076  movei    5, 76           ;"0*@  ^"
005003:  136240000007  idpb     5, 7            ;"+R@  '"
005004:  200300615002  move     6, 615002       ;"0# QH""
005005:  260740616200  pushj    17, 616200      ;"6'@QR "
005006:  201240000056  movei    5, 56           ;"0*@  N"
005007:  136240000007  idpb     5, 7            ;"+R@  '"
005010:  200300615004  move     6, 615004       ;"0# QH$"
005011:  260740616200  pushj    17, 616200      ;"6'@QR "
005012:  336000615102  skipn    615102          ;";P QI""
005013:  254000616317  jrst     616317          ;"5@ QS/"
005014:  201240000056  movei    5, 56           ;"0*@  N"
005015:  136240000007  idpb     5, 7            ;"+R@  '"
005016:  200300615005  move     6, 615005       ;"0# QH%"
005017:  260740616200  pushj    17, 616200      ;"6'@QR "
005020:  254000616317  jrst     616317          ;"5@ QS/"
005021:  134240000006  ildb     5, 6            ;"+B@  &"
005022:  322240615752  jumpe    5, 615752       ;":2@QOJ"
005023:  136240000007  idpb     5, 7            ;"+R@  '"
005024:  254000616200  jrst     616200          ;"5@ QR "
005025:  200040617432  move     1, 617432       ;"0 @Q\:"
005026:  251040615010  blt      1, 615010       ;"5(@QH("
005027:  200300615000  move     6, 615000       ;"0# QH "
005030:  201600616337  movei    14, 616337      ;"0. QS?"
005031:  260740616266  pushj    17, 616266      ;"6'@QRV"
005032:  322600616216  jumpe    14, 616216      ;":6 QR."
005033:  306600000777  cain     14, 777         ;"8V  '_"
005034:  254000617010  jrst     617010          ;"5@ QX("
005035:  435600616000  iori     14, 616000      ;"CN QP "
005036:  254000616210  jrst     616210          ;"5@ QR("
005037:  200300615005  move     6, 615005       ;"0# QH%"
005040:  260740616370  pushj    17, 616370      ;"6'@QSX"
005041:  202500615102  movem    12, 615102      ;"05 QI""
005042:  200300615010  move     6, 615010       ;"0# QH("
005043:  260740616372  pushj    17, 616372      ;"6'@QSZ"
005044:  202500615103  movem    12, 615103      ;"05 QI#"
005045:  200300615007  move     6, 615007       ;"0# QH'"
005046:  260740616372  pushj    17, 616372      ;"6'@QSZ"
005047:  202500615104  movem    12, 615104      ;"05 QI$"
005050:  200300615006  move     6, 615006       ;"0# QH&"
005051:  134040000006  ildb     1, 6            ;"+@@  &"
005052:  322040616622  jumpe    1, 616622       ;":0@QV2"
005053:  401100000000  setzi    2,              ;"@)    " "@$\0\0\0"
005054:  200140616255  move     3, 616255       ;"0!@QRM"
005055:  134200000003  ildb     4, 3            ;"+B   #"
005056:  322200617010  jumpe    4, 617010       ;":2 QX("
005057:  312040000004  came     1, 4            ;"90@  $"
005060:  344100616234  aoja     2, 616234       ;"<A QR<"
005061:  256002616260  xct      616260(2)       ;"5P"QRP"
005062:  332000615076  skipe    615076          ;";0 QH^"
005063:  254000616246  jrst     616246          ;"5@ QRF"
005064:  201040003777  movei    1, 3777         ;"0(@ ?_"
005065:  603000002000  tlne     0, 2000         ;"P8  0 "
005066:  202040615104  movem    1, 615104       ;"00@QI$"
005067:  607000400000  tlnn     0, 400000       ;"PX @  "
005070:  254000616253  jrst     616253          ;"5@ QRK"
005071:  120040616330                           ;"* @QS8"
005072:  316100615002  camn     2, 615002       ;"9Q QH""
005073:  202040615002  movem    1, 615002       ;"00@QH""
005074:  260740616372  pushj    17, 616372      ;"6'@QSZ"
005075:  254000616404  jrst     616404          ;"5@ QT$"
005076:  440700616256  andcb    16, 616256      ;"D' QRN"
005077:  466312242246  orcmm    6, 242246(12)   ;"FS*42F" "MLRDS"
005100:  434000000000  ior      0, 0            ;"C@    " "G\0\0\0\0"
005101:  661000020000  tlo      0, 20000        ;"V( "  "
005102:  661000120000  tlo      0, 120000       ;"V( *  "
005103:  661000160000  tlo      0, 160000       ;"V( .  "
005104:  661000422000  tlo      0, 422000       ;"V( B0 "
005105:  661000420000  tlo      0, 420000       ;"V( B  "
005106:  661000040000  tlo      0, 40000        ;"V( $  "
005107:  205200442214  movsi    4, 442214       ;"0J D2,"
005110:  134540000004  ildb     13, 4           ;"+E@  $"
005111:  134340000004  ildb     7, 4            ;"+C@  $"
005112:  505340440700  hrli     7, 440700       ;"HK@D' "
005113:  200100000007  move     2, 7            ;"0!   '"
005114:  641200003300  tlc      4, 3300         ;"T*  ; "
005115:  627000010000  tlzn     0, 10000        ;"RX !  "
005116:  134240000006  ildb     5, 6            ;"+B@  &"
005117:  322240617010  jumpe    5, 617010       ;":2@QX("
005120:  200140000004  move     3, 4            ;"0!@  $"
005121:  134040000003  ildb     1, 3            ;"+@@  #"
005122:  405040000177  andi     1, 177          ;"@H@ !_"
005123:  322040616307  jumpe    1, 616307       ;":0@QS'"
005124:  316240000001  camn     5, 1            ;"9R@  !"
005125:  254000616307  jrst     616307          ;"5@ QS'"
005126:  134040000003  ildb     1, 3            ;"+@@  #"
005127:  254000616300  jrst     616300          ;"5@ QS "
005130:  135040000003  ldb      1, 3            ;"+H@  #"
005131:  322040616322  jumpe    1, 616322       ;":0@QS2"
005132:  134600000003  ildb     14, 3           ;"+F   #"
005133:  242040777771  lsh      1, 777771       ;"40@__Y"
005134:  256001616325  xct      616325(1)       ;"5P!QS5"
005135:  627000004000  tlzn     0, 4000         ;"RX  @ "
005136:  263740000000  popj     17,             ;"6?@   "
005137:  202113000000  movem    2, (13)         ;"01+   " " DX\0\0"
005140:  400100000000  setz     2,              ;"@!    "
005141:  136100000007  idpb     2, 7            ;"+Q   '"
005142:  263740000000  popj     17,             ;"6?@   "
005143:  136240000007  idpb     5, 7            ;"+R@  '"
005144:  661000004000  tlo      0, 4000         ;"V(  @ "
005145:  254000616274  jrst     616274          ;"5@ QR\"
005146:  255000000000  jfcl                     ;"5H    " "+ \0\0\0"
005147:  661000010000  tlo      0, 10000        ;"V( !  "
005150:  661000004000  tlo      0, 4000         ;"V(  @ "
005151:  440700617433  andcb    16, 617433      ;"D' Q\;"
005152:  440700617434  andcb    16, 617434      ;"D' Q\<"
005153:  440700617436  andcb    16, 617436      ;"D' Q\>"
005154:  440700617440  andcb    16, 617440      ;"D' Q\@"
005157:  440700617441  andcb    16, 617441      ;"D' Q\A"
005160:  000000000000                           ;"      "
005161:  074343056352                           ;"'CC%SJ"
005162:  056355057360                           ;"%SM%[P"
005163:  015000200346                           ;"!H 0#F"
005164:  615003615021  tsna     0, 615021(3)    ;"QH#QH1"
005165:  076346015000                           ;"'SF!H "
005166:  000000000000                           ;"      "
005167:  615002615011  tsna     0, 615011(2)    ;"QH"QH)"
005170:  056352056355                           ;"%SJ%SM"
005171:  057360015000                           ;"%[P!H "
005172:  000000000000                           ;"      "
005173:  615004615031  tsna     0, 615031(4)    ;"QH$QH9"
005174:  456355457360  orcam    7, 457360(15)   ;"ESME[P" "KNl^x"
005175:  415000000000                           ;"AH    " "C \0\0\0"
005176:  615005615041  tsna     0, 615041(5)    ;"QH%QHA"
005177:  057360015000                           ;"%[P!H "
005200:  000000000000                           ;"      "
005201:  615006615043  tsna     0, 615043(6)    ;"QH&QHC"
005202:  015000050363                           ;"!H %#S"
005203:  000000000000                           ;"      "
005204:  615010615100  tsna     0, 615100(10)   ;"QH(QI "
005205:  051000054366                           ;"%( %CV"
005206:  015000000000                           ;"!H    "
005207:  615007615076  tsna     0, 615076(7)    ;"QH'QH^"
005210:  051000015000                           ;"%( !H "
005211:  201100000012  movei    2, 12           ;"0)   *"
005212:  254000616373  jrst     616373          ;"5@ QS["
005213:  201100000010  movei    2, 10           ;"0)   ("
005214:  401500000000  setzi    12,             ;"@-    " "@4\0\0\0"
005215:  134040000006  ildb     1, 6            ;"+@@  &"
005216:  322040615752  jumpe    1, 615752       ;":0@QOJ"
005217:  307042000057  caig     1, 57(2)        ;"8XB  O"
005220:  305040000060  caige    1, 60           ;"8H@  P"
005221:  254000617010  jrst     617010          ;"5@ QX("
005222:  220500000002  imul     12, 2           ;"2%   ""
005223:  271501777720  addi     12, 777720(1)   ;"7-!__0"
005224:  254000616374  jrst     616374          ;"5@ QS\"
005225:  552500615001  hrrzm    12, 615001      ;"M5 QH!"
005226:  336000615001  skipn    615001          ;";P QH!"
005227:  621000040000  tlz      0, 40000        ;"R( $  "
005230:  263740000000  popj     17,             ;"6?@   "
005231:  201540602000  movei    13, 602000      ;"0-@P0 "
005232:  200600613000  move     14, 613000      ;"0& Q8 "
005233:  254000616477  jrst     616477          ;"5@ QT_"
005234:  200600615130  move     14, 615130      ;"0& QI8"
005235:  201540613000  movei    13, 613000      ;"0-@Q8 "
005236:  260740616562  pushj    17, 616562      ;"6'@QUR"
005237:  254000617016  jrst     617016          ;"5@ QX."
005240:  260740616410  pushj    17, 616410      ;"6'@QT("
005241:  200040615003  move     1, 615003       ;"0 @QH#"
005242:  200100617444  move     2, 617444       ;"0! Q\D"
005243:  201140000000  movei    3, 0            ;"0)@   " " &\0\0\0"
005244:  260740616430  pushj    17, 616430      ;"6'@QT8"
005245:  260740616410  pushj    17, 616410      ;"6'@QT("
005246:  200040615002  move     1, 615002       ;"0 @QH""
005247:  200100615004  move     2, 615004       ;"0! QH$"
005250:  200140615102  move     3, 615102       ;"0!@QI""
005251:  202040615105  movem    1, 615105       ;"00@QI%"
005252:  124100615106                           ;"*A QI&"
005253:  260740616516  pushj    17, 616516      ;"6'@QU."
005254:  200300615106  move     6, 615106       ;"0# QI&"
005255:  260740616502  pushj    17, 616502      ;"6'@QU""
005256:  200341000027  move     7, 27(1)        ;"0#A  7"
005257:  505340440700  hrli     7, 440700       ;"HK@D' "
005260:  271340000001  addi     7, 1            ;"7+@  !"
005261:  260740616547  pushj    17, 616547      ;"6'@QUG"
005262:  304000000000  caia                     ;"8@    " "1\0\0\0\0"
005263:  254000616447  jrst     616447          ;"5@ QTG"
005264:  260740616502  pushj    17, 616502      ;"6'@QU""
005265:  135400617445  ldb      10, 617445      ;"+L Q\E"
005266:  326400616433  jumpn    10, 616433      ;":T QT;"
005267:  254000617012  jrst     617012          ;"5@ QX*"
005270:  260740616502  pushj    17, 616502      ;"6'@QU""
005271:  554041000007  hlrz     1, 7(1)         ;"M@A  '"
005272:  332000615107  skipe    615107          ;";0 QI'"
005273:  316040615107  camn     1, 615107       ;"9P@QI'"
005274:  254000616460  jrst     616460          ;"5@ QTP"
005275:  260740616502  pushj    17, 616502      ;"6'@QU""
005276:  135400617446  ldb      10, 617446      ;"+L Q\F"
005277:  322400617012  jumpe    10, 617012      ;":4 QX*"
005300:  254000616447  jrst     616447          ;"5@ QTG"
005301:  260740616502  pushj    17, 616502      ;"6'@QU""
005302:  200101000001  move     2, 1(1)         ;"0!!  !"
005303:  603100060000  tlne     2, 60000        ;"P9 &  "
005304:  254000616454  jrst     616454          ;"5@ QTL"
005305:  476000615131  setom    615131          ;"GP QI9"
005306:  200601000003  move     14, 3(1)        ;"0&!  #"
005307:  607100010000  tlnn     2, 10000        ;"PY !  "
005310:  254000616476  jrst     616476          ;"5@ QT^"
005311:  201540612000  movei    13, 612000      ;"0-@Q0 "
005312:  260740616562  pushj    17, 616562      ;"6'@QUR"
005313:  254000617016  jrst     617016          ;"5@ QX."
005314:  135600617447  ldb      14, 617447      ;"+N Q\G"
005315:  322600617022  jumpe    14, 617022      ;":6 QX2"
005316:  402000615131  setzm    615131          ;"@0 QI9"
005317:  201540613000  movei    13, 613000      ;"0-@Q8 "
005320:  260740616562  pushj    17, 616562      ;"6'@QUR"
005321:  254000617016  jrst     617016          ;"5@ QX."
005322:  263740000000  popj     17,             ;"6?@   "
005323:  550040000010  hrrz     1, 10           ;"M @  ("
005324:  242040777767  lsh      1, 777767       ;"40@__W"
005325:  200601613000  move     14, 613000(1)   ;"0&!Q8 "
005326:  201540603000  movei    13, 603000      ;"0-@P8 "
005327:  316600615127  camn     14, 615127      ;"9V QI7"
005330:  254000616512  jrst     616512          ;"5@ QU*"
005331:  260740616562  pushj    17, 616562      ;"6'@QUR"
005332:  254000617016  jrst     617016          ;"5@ QX."
005333:  135040617450  ldb      1, 617450       ;"+H@Q\H"
005334:  435040603000  iori     1, 603000       ;"CH@P8 "
005335:  202600615127  movem    14, 615127      ;"06 QI7"
005336:  263740000000  popj     17,             ;"6?@   "
005337:  200040602003  move     1, 602003       ;"0 @P0#"
005340:  274040602004  sub      1, 602004       ;"7@@P0$"
005341:  200400602003  move     10, 602003      ;"0$ P0#"
005342:  271400000002  addi     10, 2           ;"7,   ""
005343:  505401000002  hrli     10, 2(1)        ;"HL!  ""
005344:  200300615105  move     6, 615105       ;"0# QI%"
005345:  260740616502  pushj    17, 616502      ;"6'@QU""
005346:  135340617451  ldb      7, 617451       ;"+K@Q\I"
005347:  326340617012  jumpn    7, 617012       ;":S@QX*"
005350:  200341000001  move     7, 1(1)         ;"0#A  !"
005351:  312360615105  came     7, @615105      ;"93PQI%"
005352:  254000616543  jrst     616543          ;"5@ QUC"
005353:  135340617452  ldb      7, 617452       ;"+K@Q\J"
005354:  261740000010  push     17, 10          ;"6/@  ("
005355:  200400000007  move     10, 7           ;"0$   '"
005356:  260740616502  pushj    17, 616502      ;"6'@QU""
005357:  262740000010  pop      17, 10          ;"67@  ("
005360:  200341000026  move     7, 26(1)        ;"0#A  6"
005361:  505340440700  hrli     7, 440700       ;"HK@D' "
005362:  271340000001  addi     7, 1            ;"7+@  !"
005363:  260740616547  pushj    17, 616547      ;"6'@QUG"
005364:  254000617454  jrst     617454          ;"5@ Q\L"
005365:  260740616502  pushj    17, 616502      ;"6'@QU""
005366:  550401000000  hrrz     10, (1)         ;"M$!   "
005367:  263740000000  popj     17,             ;"6?@   "
005370:  261740000010  push     17, 10          ;"6/@  ("
005371:  200400000007  move     10, 7           ;"0$   '"
005372:  260740616502  pushj    17, 616502      ;"6'@QU""
005373:  262740000010  pop      17, 10          ;"67@  ("
005374:  540340000001  hrr      7, 1            ;"L#@  !"
005375:  134040000006  ildb     1, 6            ;"+@@  &"
005376:  134100000007  ildb     2, 7            ;"+A   '"
005377:  312040000002  came     1, 2            ;"90@  ""
005400:  263740000000  popj     17,             ;"6?@   "
005401:  326040616554  jumpn    1, 616554       ;":P@QUL"
005402:  254000615751  jrst     615751          ;"5@ QOI"
005403:  334040617457  skipa    1, 617457       ;";@@Q\O"
005404:  200040617460  move     1, 617460       ;"0 @Q\P"
005405:  350000615113  aos      615113          ;"=  QI+"
005406:  261740000011  push     17, 11          ;"6/@  )"
005407:  201440000005  movei    11, 5           ;"0,@  %"
005410:  260740616636  pushj    17, 616636      ;"6'@QV>"
005411:  367440616567  sojg     11, 616567      ;">\@QUW"
005412:  322440617016  jumpe    11, 617016      ;":4@QX."
005413:  260740616603  pushj    17, 616603      ;"6'@QV#"
005414:  260740616624  pushj    17, 616624      ;"6'@QV4"
005415:  250040000004  exch     1, 4            ;"5 @  $"
005416:  327200616600  jumpg    4, 616600       ;":Z QV "
005417:  367440616567  sojg     11, 616567      ;">\@QUW"
005420:  254000616601  jrst     616601          ;"5@ QV!"
005421:  350017777777  aos      777777(17)      ;"= /___"
005422:  262740000011  pop      17, 11          ;"67@  )"
005423:  263740000000  popj     17,             ;"6?@   "
005424:  260740615447  pushj    17, 615447      ;"6'@QLG"
005425:  700200002000  cono     apr, 2000       ;"X"  0 "
005426:  260740615447  pushj    17, 615447      ;"6'@QLG"
005427:  700200004600  cono     apr, 4600       ;"X"  F "
005430:  205040000002  movsi    1, 2            ;"0H@  ""
005431:  260740615447  pushj    17, 615447      ;"6'@QLG"
005432:  700140000004  datao    apr, 4          ;"X!@  $"
005433:  260740615447  pushj    17, 615447      ;"6'@QLG"
005434:  700340000010  conso    apr, 10         ;"X#@  ("
005435:  367040616612  sojg     1, 616612       ;">X@QV*"
005436:  323040615752  jumple   1, 615752       ;":8@QOJ"
005437:  260740615447  pushj    17, 615447      ;"6'@QLG"
005440:  700300775120  consz    apr, 775120     ;"X# _I0"
005441:  475040000000  setoi    1,              ;"GH@   " "O\"\0\0\0"
005442:  263740000000  popj     17,             ;"6?@   "
005443:  661000160000  tlo      0, 160000       ;"V( .  "
005444:  263740000000  popj     17,             ;"6?@   "
005445:  261740000001  push     17, 1           ;"6/@  !"
005446:  205040744000  movsi    1, 744000       ;"0H@\@ "
005447:  540040615156  hrr      1, 615156       ;"L @QIN"
005450:  260740615447  pushj    17, 615447      ;"6'@QLG"
005451:  700140000001  datao    apr, 1          ;"X!@  !"
005452:  200040615155  move     1, 615155       ;"0 @QIM"
005453:  260740615447  pushj    17, 615447      ;"6'@QLG"
005454:  700201000050  cono     apr, 50(1)      ;"X"!  H"
005455:  262740000001  pop      17, 1           ;"67@  !"
005456:  263740000000  popj     17,             ;"6?@   "
005457:  261740000001  push     17, 1           ;"6/@  !"
005460:  200040000014  move     1, 14           ;"0 @  ,"
005461:  621040777774  tlz      1, 777774       ;"R(@__\"
005462:  200100615115  move     2, 615115       ;"0! QI-"
005463:  306100000024  cain     2, 24           ;"8Q   4"
005464:  254000617461  jrst     617461          ;"5@ Q\Q"
005465:  231040000574  idivi    1, 574          ;"3(@ %\"
005466:  261740000002  push     17, 2           ;"6/@  ""
005467:  230040615116  idiv     1, 615116       ;"3 @QI."
005470:  550501615117  hrrz     12, 615117(1)   ;"M%!QI/"
005471:  554041615117  hlrz     1, 615117(1)    ;"M@AQI/"
005472:  620040400000  trz      1, 400000       ;"R @@  "
005473:  541001000130  hrri     0, 130(1)       ;"L(! !8"
005474:  242040000002  lsh      1, 2            ;"40@  ""
005475:  200140617316  move     3, 617316       ;"0!@Q[."
005476:  202141604000  movem    3, 604000(1)    ;"01AP@ "
005477:  260740615447  pushj    17, 615447      ;"6'@QLG"
005500:  700240000001  coni     apr, 1          ;"X"@  !"
005501:  405040000407  andi     1, 407          ;"@H@ $'"
005502:  202040615155  movem    1, 615155       ;"00@QIM"
005503:  205040740000  movsi    1, 740000       ;"0H@\  "
005504:  260740616724  pushj    17, 616724      ;"6'@QW4"
005505:  405040177777  andi     1, 177777       ;"@H@/__"
005506:  202040615156  movem    1, 615156       ;"00@QIN"
005507:  260740615447  pushj    17, 615447      ;"6'@QLG"
005510:  700200002000  cono     apr, 2000       ;"X"  0 "
005511:  260740615447  pushj    17, 615447      ;"6'@QLG"
005512:  700200004600  cono     apr, 4600       ;"X"  F "
005513:  205040124000  movsi    1, 124000       ;"0H@*@ "
005514:  540040000002  hrr      1, 2            ;"L @  ""
005515:  260740616725  pushj    17, 616725      ;"6'@QW5"
005516:  262740000001  pop      17, 1           ;"67@  !"
005517:  231040000024  idivi    1, 24           ;"3(@  4"
005520:  242040000010  lsh      1, 10           ;"40@  ("
005521:  434040000002  ior      1, 2            ;"C@@  ""
005522:  261740000001  push     17, 1           ;"6/@  !"
005523:  661040054000  tlo      1, 54000        ;"V(@%@ "
005524:  260740616725  pushj    17, 616725      ;"6'@QW5"
005525:  262740000001  pop      17, 1           ;"67@  !"
005526:  661040704000  tlo      1, 704000       ;"V(@X@ "
005527:  260740616725  pushj    17, 616725      ;"6'@QW5"
005530:  262740000004  pop      17, 4           ;"67@  $"
005531:  671200000012  tso      4, 12           ;"W*   *"
005532:  260740616733  pushj    17, 616733      ;"6'@QW;"
005533:  254000617020  jrst     617020          ;"5@ QX0"
005534:  326040616721  jumpn    1, 616721       ;":P@QW1"
005535:  205040400500  movsi    1, 400500       ;"0H@@% "
005536:  202040000020  movem    1, 20           ;"00@  0"
005537:  200040617463  move     1, 617463       ;"0 @Q\S"
005540:  202040000021  movem    1, 21           ;"00@  1"
005541:  254000615751  jrst     615751          ;"5@ QOI"
005542:  661040620000  tlo      1, 620000       ;"V(@R  "
005543:  202040000020  movem    1, 20           ;"00@  0"
005544:  254000615751  jrst     615751          ;"5@ QOI"
005545:  621040004000  tlz      1, 4000         ;"R(@ @ "
005546:  671040000012  tso      1, 12           ;"W(@  *"
005547:  260740615447  pushj    17, 615447      ;"6'@QLG"
005550:  700140000001  datao    apr, 1          ;"X!@  !"
005551:  260740615447  pushj    17, 615447      ;"6'@QLG"
005552:  700040000001  datai    apr, 1          ;"X @  !"
005553:  263740000000  popj     17,             ;"6?@   "
005554:  200040000013  move     1, 13           ;"0 @  +"
005555:  242040777767  lsh      1, 777767       ;"40@__W"
005556:  603000200000  tlne     0, 200000       ;"P8 0  "
005557:  254000616744  jrst     616744          ;"5@ QWD"
005560:  257053000000                           ;"5XK   " "+bX\0\0"
005561:  607040100000  tlnn     1, 100000       ;"PX@(  "
005562:  263740000000  popj     17,             ;"6?@   "
005563:  621040777760  tlz      1, 777760       ;"R(@__P"
005564:  242040777767  lsh      1, 777767       ;"40@__W"
005565:  661040124000  tlo      1, 124000       ;"V(@*@ "
005566:  261740605601  push     17, 605601      ;"6/@PN!"
005567:  202040605601  movem    1, 605601       ;"00@PN!"
005570:  701100601000  blko     pag, 601000     ;"X) P( "
005571:  700200022000  cono     apr, 22000      ;"X" "0 "
005572:  330000601000  skip     601000          ;";  P( "
005573:  550040605601  hrrz     1, 605601       ;"M @PN!"
005574:  242040000011  lsh      1, 11           ;"40@  )"
005575:  262740605601  pop      17, 605601      ;"67@PN!"
005576:  700340002000  conso    apr, 2000       ;"X#@ 0 "
005577:  254000615751  jrst     615751          ;"5@ QOI"
005600:  700200022000  cono     apr, 22000      ;"X" "0 "
005601:  263740000000  popj     17,             ;"6?@   "
005602:  200040000013  move     1, 13           ;"0 @  +"
005603:  242040777767  lsh      1, 777767       ;"40@__W"
005604:  317040615104  camg     1, 615104       ;"9X@QI$"
005605:  315040615103  camge    1, 615103       ;"9H@QI#"
005606:  263740000000  popj     17,             ;"6?@   "
005607:  260740616733  pushj    17, 616733      ;"6'@QW;"
005610:  263740000000  popj     17,             ;"6?@   "
005611:  261740000013  push     17, 13          ;"6/@  +"
005612:  261740000000  push     17, 0           ;"6/@   " ",>\0\0\0"
005613:  621000200000  tlz      0, 200000       ;"R( 0  "
005614:  200100000001  move     2, 1            ;"0!   !"
005615:  201540602000  movei    13, 602000      ;"0-@P0 "
005616:  260740616733  pushj    17, 616733      ;"6'@QW;"
005617:  254000617020  jrst     617020          ;"5@ QX0"
005620:  316040000002  camn     1, 2            ;"9P@  ""
005621:  254000617005  jrst     617005          ;"5@ QX%"
005622:  271540001000  addi     13, 1000        ;"7-@ ( "
005623:  307540617000  caig     13, 617000      ;"8]@QX "
005624:  254000616775  jrst     616775          ;"5@ QW]"
005625:  350017777776  aos      777776(17)      ;"= /__^"
005626:  262740000000  pop      17, 0           ;"67@   " ",^\0\0\0"
005627:  262740000013  pop      17, 13          ;"67@  +"
005630:  263740000000  popj     17,             ;"6?@   "
005631:  120040617464                           ;"* @Q\T"
005632:  254016000000  jrst     (16)            ;"5@.   "
005633:  120040617466                           ;"* @Q\V"
005634:  254016000000  jrst     (16)            ;"5@.   "
005635:  120040617470                           ;"* @Q\X"
005636:  254016000000  jrst     (16)            ;"5@.   "
005637:  120040617472                           ;"* @Q\Z"
005640:  254016000000  jrst     (16)            ;"5@.   "
005641:  120040617474                           ;"* @Q\\"
005642:  254016000000  jrst     (16)            ;"5@.   "
005643:  120040617476                           ;"* @Q\^"
005644:  254016000000  jrst     (16)            ;"5@.   "
005645:  475540000000  setoi    13,             ;"GM@   " "O6\0\0\0"
005646:  271540001000  addi     13, 1000        ;"7-@ ( "
005647:  603540777777  tlne     13, 777777      ;"P=@___"
005650:  263740000000  popj     17,             ;"6?@   "
005651:  260740616761  pushj    17, 616761      ;"6'@QWQ"
005652:  254000617025  jrst     617025          ;"5@ QX5"
005653:  200040000013  move     1, 13           ;"0 @  +"
005654:  620040000777  trz      1, 777          ;"R @ '_"
005655:  336000000001  skipn    1               ;";P   !"
005656:  201040000024  movei    1, 24           ;"0(@  4"
005657:  402001000000  setzm    (1)             ;"@0!   "
005660:  305053000000  caige    1, (13)         ;"8HK   " "1\"X\0\0"
005661:  344040617036  aoja     1, 617036       ;"<@@QX>"
005662:  254000617025  jrst     617025          ;"5@ QX5"
005663:  001776617066                           ;" /^QXV"
005664:  001777615752                           ;" /_QOJ"
005665:  001775617122                           ;" /]QY2"
005666:  402000615113  setzm    615113          ;"@0 QI+"
005667:  201540614000  movei    13, 614000      ;"0-@Q@ "
005670:  200600613000  move     14, 613000      ;"0& Q8 "
005671:  260740616562  pushj    17, 616562      ;"6'@QUR"
005672:  254000617016  jrst     617016          ;"5@ QX."
005673:  603000100000  tlne     0, 100000       ;"P8 (  "
005674:  260740617024  pushj    17, 617024      ;"6'@QX4"
005675:  201400614000  movei    10, 614000      ;"0, Q@ "
005676:  554050000000  hlrz     1, (10)         ;"M@H   "
005677:  205100777775  movsi    2, 777775       ;"0I __]"
005700:  554142617042  hlrz     3, 617042(2)    ;"MABQXB"
005701:  316140000001  camn     3, 1            ;"9Q@  !"
005702:  254000617064  jrst     617064          ;"5@ QXT"
005703:  253100617057  aobjn    2, 617057       ;"59 QXO"
005704:  254000617014  jrst     617014          ;"5@ QX,"
005705:  550042617042  hrrz     1, 617042(2)    ;"M BQXB"
005706:  254001000000  jrst     (1)             ;"5@!   "
005707:  550450000000  hrrz     11, (10)        ;"M$H   "
005710:  275440000001  subi     11, 1           ;"7L@  !"
005711:  271400000001  addi     10, 1           ;"7,   !"
005712:  135300617500  ldb      6, 617500       ;"+K Q] "
005713:  271300000001  addi     6, 1            ;"7+   !"
005714:  135540617501  ldb      13, 617501      ;"+M@Q]!"
005715:  242540000011  lsh      13, 11          ;"45@  )"
005716:  135240617502  ldb      5, 617502       ;"+J@Q]""
005717:  322240617113  jumpe    5, 617113       ;":2@QY+"
005720:  260740616761  pushj    17, 616761      ;"6'@QWQ"
005721:  254000617104  jrst     617104          ;"5@ QY$"
005722:  200605613000  move     14, 613000(5)   ;"0&%Q8 "
005723:  260740616562  pushj    17, 616562      ;"6'@QUR"
005724:  254000617016  jrst     617016          ;"5@ QX."
005725:  363300617107  sojle    6, 617107       ;">; QY'"
005726:  271540001000  addi     13, 1000        ;"7-@ ( "
005727:  344240617076  aoja     5, 617076       ;"<B@QX^"
005730:  271400000002  addi     10, 2           ;"7,   ""
005731:  275440000002  subi     11, 2           ;"7L@  ""
005732:  322440617055  jumpe    11, 617055      ;":4@QXM"
005733:  254000617071  jrst     617071          ;"5@ QXY"
005734:  260740616761  pushj    17, 616761      ;"6'@QWQ"
005735:  254000617121  jrst     617121          ;"5@ QY1"
005736:  402013000000  setzm    (13)            ;"@0+   " "@@X\0\0"
005737:  205053000000  movsi    1, (13)         ;"0HK   " "!\"X\0\0"
005740:  541053000001  hrri     1, 1(13)        ;"L(K  !"
005741:  251053000777  blt      1, 777(13)      ;"5(K '_"
005742:  364240617104  soja     5, 617104       ;">B@QY$"
005743:  336010000001  skipn    1(10)           ;";P(  !"
005744:  254000617022  jrst     617022          ;"5@ QX2"
005745:  200530000002  move     12, @2(10)      ;"0%8  ""
005746:  260740616404  pushj    17, 616404      ;"6'@QT$"
005747:  550050000000  hrrz     1, (10)         ;"M H   "
005750:  270400000001  add      10, 1           ;"7$   !"
005751:  254000617055  jrst     617055          ;"5@ QXM"
005752:  402440614000  setzm    11, 614000      ;"@4@Q@ "
005753:  200040617320  move     1, 617320       ;"0 @Q[0"
005754:  251040614777  blt      1, 614777       ;"5(@QG_"
005755:  621000001000  tlz      0, 1000         ;"R(  ( "
005756:  201440000002  movei    11, 2           ;"0,@  ""
005757:  403240000006  setzb    5, 6            ;"@:@  &"
005760:  475400000000  setoi    10,             ;"GL    " "O0\0\0\0"
005761:  603000002000  tlne     0, 2000         ;"P8  0 "
005762:  661000200000  tlo      0, 200000       ;"V( 0  "
005763:  201340614001  movei    7, 614001       ;"0+@Q@!"
005764:  271400001000  addi     10, 1000        ;"7,  ( "
005765:  607000200000  tlnn     0, 200000       ;"PX 0  "
005766:  607400777777  tlnn     10, 777777      ;"P\ ___"
005767:  334540000010  skipa    13, 10          ;";E@  ("
005770:  254000617226  jrst     617226          ;"5@ QZ6"
005771:  311400617503  caml     10, 617503      ;"9, Q]#"
005772:  254000617226  jrst     617226          ;"5@ QZ6"
005773:  260740616761  pushj    17, 616761      ;"6'@QWQ"
005774:  254000617210  jrst     617210          ;"5@ QZ("
005775:  200040000011  move     1, 11           ;"0 @  )"
005776:  270040000006  add      1, 6            ;"7 @  &"
005777:  135540617504  ldb      13, 617504      ;"+M@Q]$"
006000:  322540617175  jumpe    13, 617175      ;":5@QY]"
006001:  335000615131  skipge   615131          ;";H QI9"
006002:  254000617210  jrst     617210          ;"5@ QZ("
006003:  316540615131  camn     13, 615131      ;"9U@QI9"
006004:  254000617175  jrst     617175          ;"5@ QY]"
006005:  135600617505  ldb      14, 617505      ;"+N Q]%"
006006:  322600617210  jumpe    14, 617210      ;":6 QZ("
006007:  202540615131  movem    13, 615131      ;"05@QI9"
006010:  201540613000  movei    13, 613000      ;"0-@Q8 "
006011:  261740000000  push     17, 0           ;"6/@   " ",>\0\0\0"
006012:  621000200000  tlz      0, 200000       ;"R( 0  "
006013:  260740616562  pushj    17, 616562      ;"6'@QUR"
006014:  254000617016  jrst     617016          ;"5@ QX."
006015:  262740000000  pop      17, 0           ;"67@   " ",^\0\0\0"
006016:  200040000011  move     1, 11           ;"0 @  )"
006017:  270040000006  add      1, 6            ;"7 @  &"
006020:  231040001000  idivi    1, 1000         ;"3(@ ( "
006021:  200540000010  move     13, 10          ;"0%@  ("
006022:  135600617506  ldb      14, 617506      ;"+N Q]&"
006023:  322600617210  jumpe    14, 617210      ;":6 QZ("
006024:  260740616563  pushj    17, 616563      ;"6'@QUS"
006025:  661000001000  tlo      0, 1000         ;"V(  ( "
006026:  350000000006  aos      6               ;"=    &"
006027:  305300001000  caige    6, 1000         ;"8K  ( "
006030:  254000617143  jrst     617143          ;"5@ QYC"
006031:  322300617224  jumpe    6, 617224       ;":3 QZ4"
006032:  303340614771  caile    7, 614771       ;"8;@QGY"
006033:  254000617014  jrst     617014          ;"5@ QX,"
006034:  201040000100  movei    1, 100          ;"0(@ ! "
006035:  137040617507  dpb      1, 617507       ;"+X@Q]'"
006036:  137440617510  dpb      11, 617510      ;"+\@Q]("
006037:  370000000006  sos      6               ;"?    &"
006040:  137300617511  dpb      6, 617511       ;"+[ Q])"
006041:  137240617512  dpb      5, 617512       ;"+Z@Q]*"
006042:  271340000002  addi     7, 2            ;"7+@  ""
006043:  271246000001  addi     5, 1(6)         ;"7*F  !"
006044:  271446000001  addi     11, 1(6)        ;"7,F  !"
006045:  402000000006  setzm    6               ;"@0   &"
006046:  344240617143  aoja     5, 617143       ;"<B@QYC"
006047:  201040001776  movei    1, 1776         ;"0(@ /^"
006050:  506040614000  hrlm     1, 614000       ;"HP@Q@ "
006051:  201047164000  movei    1, 164000(7)    ;"0(G.@ " " \"9h\0"
006052:  542040614000  hrrm     1, 614000       ;"L0@Q@ "
006053:  201040001775  movei    1, 1775         ;"0(@ /]"
006054:  506047000000  hrlm     1, (7)          ;"HPG   " "QB8\0\0"
006055:  201040000004  movei    1, 4            ;"0(@  $"
006056:  542047000000  hrrm     1, (7)          ;"L0G   " "XB8\0\0"
006057:  201040000001  movei    1, 1            ;"0(@  !"
006060:  202047000001  movem    1, 1(7)         ;"00G  !"
006061:  201040000140  movei    1, 140          ;"0(@ !@"
006062:  202047000002  movem    1, 2(7)         ;"00G  ""
006063:  271340000004  addi     7, 4            ;"7+@  $"
006064:  201040001777  movei    1, 1777         ;"0(@ /_"
006065:  506047000000  hrlm     1, (7)          ;"HPG   " "QB8\0\0"
006066:  201040000001  movei    1, 1            ;"0(@  !"
006067:  542047000000  hrrm     1, (7)          ;"L0G   " "XB8\0\0"
006070:  621000200000  tlz      0, 200000       ;"R( 0  "
006071:  337000615131  skipg    615131          ;";X QI9"
006072:  254000617256  jrst     617256          ;"5@ QZN"
006073:  135600617447  ldb      14, 617447      ;"+N Q\G"
006074:  201540613000  movei    13, 613000      ;"0-@Q8 "
006075:  260740616562  pushj    17, 616562      ;"6'@QUR"
006076:  254000617016  jrst     617016          ;"5@ QX."
006077:  135600617513  ldb      14, 617513      ;"+N Q]+"
006100:  322600617022  jumpe    14, 617022      ;":6 QX2"
006101:  201540614000  movei    13, 614000      ;"0-@Q@ "
006102:  260740616563  pushj    17, 616563      ;"6'@QUS"
006103:  661000001000  tlo      0, 1000         ;"V(  ( "
006104:  603000001000  tlne     0, 1000         ;"P8  ( "
006105:  254000617016  jrst     617016          ;"5@ QX."
006106:  263740000000  popj     17,             ;"6?@   "
006107:  720340100000  conso    200, 100000     ;"Z#@(  "
006110:  720340000017  conso    200, 17         ;"Z#@  /"
006111:  720200000000  cono     200, 0          ;"Z"    "
006112:  541240000030  hrri     5, 30           ;"L*@  8"
006113:  256000000005  xct      5               ;"5P   %"
006114:  256000000003  xct      3               ;"5P   #"
006115:  254000615215  jrst     615215          ;"5@ QJ-"
006116:  620240000010  trz      5, 10           ;"R"@  ("
006117:  256000000005  xct      5               ;"5P   %"
006120:  254000615213  jrst     615213          ;"5@ QJ+"
006121:  720205000000  cono     200, (5)        ;"Z"%   "
006122:  201041000000  movei    1, (1)          ;"0(A   "
006123:  242040000032  lsh      1, 32           ;"40@  :"
006124:  270040617300  add      1, 617300       ;"7 @Q[ "
006125:  202040615154  movem    1, 615154       ;"00@QIL"
006126:  254000615222  jrst     615222          ;"5@ QJ2"
006127:  000400000000                           ;" $    "
006130:  615000615001  tsna     0, 615001       ;"QH QH!"
006131:  425757643600  setai    17, 643600(17)  ;"BOOT> " "E>~G@"
006132:  332000615117  skipe    615117          ;";0 QI/"
006133:  254000615453  jrst     615453          ;"5@ QLK"
006134:  254000615270  jrst     615270          ;"5@ QJX"
006135:  440600000011  andcb    14, 11          ;"D&   )"
006136:  615117615120  tsna     2, 615120(17)   ;"QI/QI0"
006137:  200000000020  move     0, 20           ;"0    0"
006140:  004000000023                           ;" @   3"
006141:  614000614001  tdna     0, 614001       ;"Q@ Q@!"
006142:  614000614200  tdna     0, 614200       ;"Q@ QB "
006143:  320737000000  jump     16, @(17)       ;":'?   "
006144:  535115565700  hrlei    2, 565700(15)   ;"KI-NO " "W$mk`"
006145:  644160450000  trca     3, @450000      ;"TAPE  "
006146:  466230351236  orcmm    4, @351236(10)  ;"FR8=*>" "MICRO"
006147:  416370442500  setmm    7, @442500(10)  ;"ASXD5 " "CODE "
006150:  532132251622  hllem    2, @251622(12)  ;"K1:5.2" "VERSI"
006151:  476344000000  setom    7, (4)          ;"GSD   " "ON \0\0"
006152:  120617000000                           ;"*&/   "
006153:  202311740610  movem    6, 740610(11)   ;"03)\&(" " LOAD"
006154:  426105420254  setam    2, 420254(5)    ;"BQ%B"L" "ED, V"
006155:  426451143222  setam    11, 143222(11)  ;"BTI,:2" "ERIFI"
006156:  426105420202  setam    2, 420202(5)    ;"BQ%B""" "ED, A"
006157:  472104051650  orcbm    2, 51650(4)     ;"G1$%.H" "ND ST"
006160:  406452442610  andm     11, 442610(12)  ;"@TJD6(" "ARTED"
006161:  000000000000                           ;"      "
006162:  660040011400  tro      1, 11400        ;"V @!, "
006163:  254000615572  jrst     615572          ;"5@ QMZ"
006164:  550140000001  hrrz     3, 1            ;"M!@  !"
006165:  260740615431  pushj    17, 615431      ;"6'@QL9"
006166:  405040177777  andi     1, 177777       ;"@H@/__"
006167:  306141000000  cain     3, (1)          ;"8QA   "
006170:  263740000000  popj     17,             ;"6?@   "
006171:  254000615614  jrst     615614          ;"5@ QN,"
006172:  550140000001  hrrz     3, 1            ;"M!@  !"
006173:  201040043411  movei    1, 43411        ;"0(@$<)"
006174:  260740615572  pushj    17, 615572      ;"6'@QMZ"
006175:  205040360000  movsi    1, 360000       ;"0H@>  "
006176:  260740615431  pushj    17, 615431      ;"6'@QL9"
006177:  405040000377  andi     1, 377          ;"@H@ #_"
006200:  306141000000  cain     3, (1)          ;"8QA   "
006201:  263740000000  popj     17,             ;"6?@   "
006202:  254000615616  jrst     615616          ;"5@ QN."
006203:  436241550066  iorm     5, 550066(1)    ;"CRAM V" "GJ\rP\033"
006204:  456251467100  orcam    5, 467100(11)   ;"ERIFY " "KJLn "
006205:  675762530055  tsoa     17, @530055(2)  ;"WORK M"
006206:  455500664562  orcai    12, 664562      ;"EM VER"
006207:  475757440000  setoi    17, 440000(17)  ;"GOOD  " "O>|@\0"
006210:  004241440000                           ;" BAD  "
006211:  007057620000                           ;" XOR  "
006212:  220300000006  imul     6, 6            ;"2#   &"
006213:  416211635000  setmm    4, 635000(11)   ;"AR)SH " "CHN:\0"
006214:  202113031140  movem    2, 31140(13)    ;"01+#)@" " DX20"
006215:  350000000000  aos      0               ;"=     " ":\0\0\0\0"
006216:  446560540063  eqvm     13, @540063     ;"DUPL S"
006217:  646200655651  trcn     4, 655651       ;"TR UNI"
006220:  555163635156  hlrzi    3, @635156(3)   ;"MISSIN"
006221:  470065565164  orcb     1, @565164(5)   ;"G UNIT"
006222:  505755004254  hrli     17, 4254(15)    ;"HOM BL"
006223:  536300424144  hrlem    6, 424144       ;"KS BAD"
006224:  445163530045  eqvi     3, @530045(3)   ;"DISK E"
006225:  626257620000  trzn     5, 620000(17)   ;"RROR  " "eJ~ \0"
006226:  644160450045  trca     3, @450045      ;"TAPE E"
006227:  626257620000  trzn     5, 620000(17)   ;"RROR  " "eJ~ \0"
006230:  505755000000  hrli     17, (15)        ;"HOM   " "Q>h\0\0"
006231:  440700615045  andcb    16, 615045      ;"D' QHE"
006232:  205040707070  movsi    1, 707070       ;"0H@XXX"
006233:  260740616002  pushj    17, 616002      ;"6'@QP""
006234:  254000615235  jrst     615235          ;"5@ QJ="
006235:  276101500000  subm     2, 500000(1)    ;"7Q!H  " "/D\r\0\0"
006236:  200140617414  move     3, 617414       ;"0!@Q\,"
006237:  254000616021  jrst     616021          ;"5@ QP1"
006240:  064000000000                           ;"&@    " "\r\0\0\0\0"
006241:  200140617417  move     3, 617417       ;"0!@Q\/"
006242:  254000616021  jrst     616021          ;"5@ QP1"
006243:  704000000012  blki     40, 12          ;"X@   *"
006244:  704000000000  blki     40, 0           ;"X@    " "q\0\0\0\0"
006245:  004000000007                           ;" @   '"
006246:  004000000021                           ;" @   1"
006247:  716200000071  cono     160, 71         ;"YR   Y"
006250:  061200000004                           ;"&*   $"
006251:  044000000377  .uset    0, 377          ;"$@  #_"
006252:  440700000163  andcb    16, 163         ;"D'  !S"
006253:  616331615002  tdnn     6, @615002(11)  ;"QS9QH""
006254:  422531550000  andcmm   12, @550000(11) ;"B59M  " "DUMP\0"
006255:  466371644650  orcmm    7, @644650(11)  ;"FSYTFH" "MONIT"
006256:  510000000000  hllz     0, 0            ;"I     " "R\0\0\0\0"
006257:  516632352212  hrlzm    14, @352212(12) ;"IV:=2*" "SYSTE"
006260:  464000000000  orcm     0, 0            ;"F@    " "M\0\0\0\0"
006261:  426610500000  setam    14, 500000(10)  ;"BV(H  " "EXE\0\0"
006262:  315506000000  camge    12, (6)         ;"9M&   " "340\0\0"
006263:  422232242606  andcmm   4, @242606(12)  ;"B2:46&" "DIREC"
006264:  522372254400  hllom    7, @254400(12)  ;"J3Z5D " "TORY\0"
006265:  440700617442  andcb    16, 617442      ;"D' Q\B"
006266:  004101000002                           ;" A!  ""
006267:  004101000025                           ;" A!  5"
006270:  003000612000                           ;" 8 Q0 "
006271:  001100000010                           ;" )   ("
006272:  410301000000  andca    6, (1)          ;"A#!   "
006273:  004101000000                           ;" A!   "
006274:  000001000001                           ;"  !  !"
006275:  270400617453  add      10, 617453      ;"7$ Q\K"
006276:  253400616523  aobjn    10, 616523      ;"5< QU3"
006277:  254000617012  jrst     617012          ;"5@ QX*"
006300:  716200177471  cono     160, 177471     ;"YR /\Y"
006301:  716200177461  cono     160, 177461     ;"YR /\Q"
006302:  231040000224  idivi    1, 224          ;"3(@ "4"
006303:  254000616645  jrst     616645          ;"5@ QVE"
006304:  617300000024  tsnn     6, 24           ;"Q[   4"
006305:  435755554156  iori     17, 554156(15)  ;"COMMAN" "G>mX7"
006306:  440045626200  andcb    1, 626200(5)    ;"D ERR "
006307:  465154005657  orcmi    3, 5657(14)     ;"FIL NO"
006310:  640046564400  trc      1, 564400(6)    ;"T FND "
006311:  424144004570  seta     3, 4570(4)      ;"BAD EX"
006312:  450044516200  setca    1, 516200(4)    ;"E DIR "
006313:  515700456262  hrlzi    16, 456262      ;"IO ERR"
006314:  576200000000  hlrem    4, 0            ;"OR    " "_H\0\0\0"
006315:  424144005545  seta     3, 5545(4)      ;"BAD ME"
006316:  550041444462  hrrz     1, 444462(1)    ;"M ADDR"
006317:  424144004651  seta     3, 4651(4)      ;"BAD FI"
006320:  540046556400  hrr      1, 556400(6)    ;"L FMT "
006321:  331110000001  skipl    2, 1(10)        ;";)(  !"
006322:  003310000001                           ;" ;(  !"
006323:  003310000000                           ;" ;(   "
006324:  000004000000                           ;"  $   "
006325:  112200000001                           ;")2   !"
006326:  003013612000                           ;" 8+Q0 "
006327:  003002613000                           ;" 8"Q8 "
006330:  331107000000  skipl    2, (7)          ;";)'   " "6$8\0\0"
006331:  003307000000                           ;" ;'   "
006332:  331107000001  skipl    2, 1(7)         ;";)'  !"
006333:  003307000001                           ;" ;'  !"
006334:  003000613000                           ;" 8 Q8 "
006620:  254000616115  jrst     616115          ;"5@ QQ-"
006621:  000002602013                           ;"  "P0+"
006622:  020002500012                           ;"" "H *"
006623:  020003100014                           ;"" #( ,"
006624:  020003500016                           ;"" #H ."
006625:  020004100020                           ;"" $( 0"
006626:  020002500012                           ;"" "H *"
006627:  020005100024                           ;"" %( 4"
006630:  012014050060                           ;"!0,% P"
006631:  000020000100                           ;"  0 ! "
006632:  000000000000                           ;"      "
006633:  000400002000                           ;" $  0 "
006634:  020004300021                           ;"" $8 1"
006635:  000400202001                           ;" $ 00!"
006636:  020004300021                           ;"" $8 1"
006637:  000440002200                           ;" $@ 2 "
006640:  020004300021                           ;"" $8 1"
006641:  000444002220                           ;" $D 20"
006642:  000100000400                           ;" !  $ "
006643:  000200201001                           ;" " 0(!"
006644:  016002270011                           ;"!P"7 )"
006645:  000434202161                           ;" $<01Q"
006646:  034046360231                           ;"#@F>"9"
006647:  000100000400                           ;" !  $ "
006650:  000200601003                           ;" " P(#"
006651:  002020010100                           ;" 00!! "
006652:  000420002100                           ;" $0 1 "
006653:  015476266371                           ;"!L^6SY"
006654:  000402202011                           ;" $"00)"
006655:  015476266371                           ;"!L^6SY"
006656:  023413516056                           ;""<+IPN"
006657:  023422516112                           ;""<2IQ*"
006660:  004400022000                           ;" D "0 "
006661:  003000014000                           ;" 8 !@ "
006662:  021031104144                           ;""(9(AD"
006663:  020777103774                           ;""'_(?\"
006664:  000100000400                           ;" !  $ "
006665:  000200201001                           ;" " 0(!"
006666:  010402242011                           ;"!$"40)"
006667:  021007304035                           ;""('8@="
006670:  000200601003                           ;" " P(#"
006671:  012402252011                           ;"!4"50)"
006672:  016001670007                           ;"!P!W '"
006673:  023013114054                           ;""8+)@L"
006674:  020007300035                           ;"" '8 ="
006675:  000451002244                           ;" $I 2D"
006676:  034346361631                           ;"#CF>.9"
006677:  004402022010                           ;" D""0("
006700:  022014310061                           ;""0,9 Q"
006701:  003400016000                           ;" < !P "
006702:  000200601003                           ;" " P(#"
006703:  002020010100                           ;" 00!! "
006704:  000444602223                           ;" $DP23"
006705:  016402272011                           ;"!T"70)"
006706:  004402022010                           ;" D""0("
006707:  014403462016                           ;"!D#F0."
006710:  022021710107                           ;""01Y!'"
006711:  006402032010                           ;" T"#0("
006712:  016401272005                           ;"!T!70%"
006713:  016401272005                           ;"!T!70%"
006714:  000100000400                           ;" !  $ "
006715:  000412402052                           ;" $*@0J"
006716:  014200061000                           ;"!B &( "
006717:  011726247531                           ;"!/64]9"
006720:  011722247511                           ;"!/24])"
006721:  011736247571                           ;"!/>4]Y"
006722:  011432246151                           ;"!,:4QI"
006723:  006402032010                           ;" T"#0("
006724:  000437602177                           ;" $?P1_"
006725:  014402662013                           ;"!D"V0+"
006726:  015042264211                           ;"!HB6B)"
006727:  003400016000                           ;" < !P "
006730:  000440002200                           ;" $@ 2 "
006731:  015042264211                           ;"!HB6B)"
006732:  020013500056                           ;"" +H N"
006733:  026400332001                           ;""T ;0!"
006734:  014001660007                           ;"!@!V '"
006735:  023023514116                           ;""83IA."
006736:  003400016000                           ;" < !P "
006737:  004400222001                           ;" D 20!"
006740:  022030710143                           ;""08Y!C"
006741:  003000014000                           ;" 8 !@ "
006742:  003000014000                           ;" 8 !@ "
006743:  021030704143                           ;""(8XAC"
006744:  000406602033                           ;" $&P0;"
006745:  015476266371                           ;"!L^6SY"
006746:  004401222005                           ;" D!20%"
006747:  003000014000                           ;" 8 !@ "
006750:  021426306131                           ;"",68Q9"
006751:  020027100134                           ;"" 7(!<"
006752:  000100000400                           ;" !  $ "
006753:  023704317421                           ;""?$9\1"
006754:  023027714137                           ;""87YA?"
006755:  000402202011                           ;" $"00)"
006756:  015476266371                           ;"!L^6SY"
006757:  003400016000                           ;" < !P "
006760:  000402202011                           ;" $"00)"
006761:  015476266371                           ;"!L^6SY"
006762:  000440002200                           ;" $@ 2 "
006763:  015006264031                           ;"!H&6@9"
006764:  003400016000                           ;" < !P "
006765:  000400002000                           ;" $  0 "
006766:  015006264031                           ;"!H&6@9"
006767:  015012264051                           ;"!H*6@I"
006770:  000100200401                           ;" ! 0$!"
006771:  006404032020                           ;" T$#00"
006772:  000437002174                           ;" $? 1\"
006773:  016406672033                           ;"!T&W0;"
006774:  000400002000                           ;" $  0 "
006775:  014204061020                           ;"!B$&(0"
006776:  012716253471                           ;"!7.5<Y"
006777:  012736253571                           ;"!7>5=Y"
007000:  020777103774                           ;""'_(?\"
007001:  030042340211                           ;"# B<")"
007002:  020044700223                           ;"" DX"3"
007003:  020001500006                           ;"" !H &"
007004:  020071500346                           ;"" YH#F"
007005:  020131500546                           ;""!9H%F"
007006:  020234301161                           ;"""<8)Q"
007007:  000400002000                           ;" $  0 "
007010:  034046360231                           ;"#@F>"9"
007011:  020036500172                           ;"" >H!Z"
007012:  020040300201                           ;"" @8"!"
007013:  023763717717                           ;""?SY_/"
007014:  023770317741                           ;""?X9_A"
007015:  000400002000                           ;" $  0 "
007016:  015076264371                           ;"!H^6CY"
007017:  000450402242                           ;" $H@2B"
007020:  015006264031                           ;"!H&6@9"
007021:  020005500026                           ;"" %H 6"
007022:  023763717717                           ;""?SY_/"
007023:  023770317741                           ;""?X9_A"
007024:  000400002000                           ;" $  0 "
007025:  015076264371                           ;"!H^6CY"
007026:  000404002020                           ;" $$ 00"
007027:  015006264031                           ;"!H&6@9"
007030:  000414002060                           ;" $, 0P"
007031:  015006264031                           ;"!H&6@9"
007032:  023770317741                           ;""?X9_A"
007033:  000410002040                           ;" $( 0@"
007034:  015006264031                           ;"!H&6@9"
007035:  000410202041                           ;" $(00A"
007036:  015006264031                           ;"!H&6@9"
007037:  004400022000                           ;" D "0 "
007040:  021043504216                           ;""(CHB."
007041:  000450402242                           ;" $H@2B"
007042:  015006264031                           ;"!H&6@9"
007043:  020005500026                           ;"" %H 6"
007044:  023763717717                           ;""?SY_/"
007045:  006426432132                           ;" T6C1:"
007046:  014436062170                           ;"!D>&1X"
007047:  022051710247                           ;""0IY"G"
007050:  000100200401                           ;" ! 0$!"
007051:  006406632033                           ;" T&S0;"
007052:  000403602017                           ;" $#P0/"
007053:  016406672033                           ;"!T&W0;"
007054:  000440002200                           ;" $@ 2 "
007055:  014204061020                           ;"!B$&(0"
007056:  012432252151                           ;"!4:51I"
007057:  023036514172                           ;""8>IAZ"
007060:  000100000400                           ;" !  $ "
007061:  014432062150                           ;"!D:&1H"
007062:  021050704243                           ;""(HXBC"
007063:  020051700247                           ;"" IX"G"
007064:  023656317271                           ;"">N9ZY"
007065:  020745703627                           ;""'EX>7"
007066:  023344315621                           ;"";D9N1"
007067:  023650317241                           ;"">H9ZA"
007070:  014435262165                           ;"!D=61U"
007071:  021454706263                           ;"",LXRS"
007072:  000405602027                           ;" $%P07"
007073:  016432272151                           ;"!T:71I"
007074:  023656317271                           ;"">N9ZY"
007075:  020745703627                           ;""'EX>7"
007076:  023344315621                           ;"";D9N1"
007077:  023642517212                           ;"">BIZ*"
007100:  023637717177                           ;"">?YY_"
007101:  020752103650                           ;""'J(>H"
007102:  023346515632                           ;"";FIN:"
007103:  023650317241                           ;"">H9ZA"
007104:  000402202011                           ;" $"00)"
007105:  015476266371                           ;"!L^6SY"
007106:  006423632117                           ;" T3S1/"
007107:  014416062070                           ;"!D.&0X"
007110:  016432272151                           ;"!T:71I"
007111:  023656317271                           ;"">N9ZY"
007112:  020745703627                           ;""'EX>7"
007113:  023344315621                           ;"";D9N1"
007114:  014435262165                           ;"!D=61U"
007115:  022064110320                           ;""0T)#0"
007116:  023642517212                           ;"">BIZ*"
007117:  023637717177                           ;"">?YY_"
007120:  020752103650                           ;""'J(>H"
007121:  023346515632                           ;"";FIN:"
007122:  014436062170                           ;"!D>&1X"
007123:  021464706323                           ;"",TXS3"
007124:  000402202011                           ;" $"00)"
007125:  015476266371                           ;"!L^6SY"
007126:  026400532002                           ;""T K0""
007127:  014400662003                           ;"!D V0#"
007130:  015412266051                           ;"!L*6PI"
007131:  026400732003                           ;""T [0#"
007132:  014401062004                           ;"!D!&0$"
007133:  015416266071                           ;"!L.6PY"
007134:  000406602033                           ;" $&P0;"
007135:  015476266371                           ;"!L^6SY"
007136:  022464712323                           ;""4TY33"
007137:  023650317241                           ;"">H9ZA"
007140:  020056100270                           ;"" N("X"
007141:  000401002004                           ;" $! 0$"
007142:  014436662173                           ;"!D>V1["
007143:  016423072114                           ;"!T3'1,"
007144:  000402202011                           ;" $"00)"
007145:  015476266371                           ;"!L^6SY"
007146:  014406062030                           ;"!D&&08"
007147:  015046264231                           ;"!HF6B9"
007150:  014422062110                           ;"!D2&1("
007151:  003000014000                           ;" 8 !@ "
007152:  021070704343                           ;""(XXCC"
007153:  023644517222                           ;"">DIZ2"
007154:  000402202011                           ;" $"00)"
007155:  015476266371                           ;"!L^6SY"
007156:  000400002000                           ;" $  0 "
007157:  015076264371                           ;"!H^6CY"
007160:  020777103774                           ;""'_(?\"
007161:  000440402202                           ;" $@@2""
007162:  015006264031                           ;"!H&6@9"
007163:  020005500026                           ;"" %H 6"
007164:  023770317741                           ;""?X9_A"
007165:  023734317561                           ;""?<9]Q"
007166:  020066700333                           ;"" VX#;"
007167:  000406002030                           ;" $& 08"
007170:  015006264031                           ;"!H&6@9"
007171:  000100000400                           ;" !  $ "
007172:  000201401006                           ;" "!@(&"
007173:  016016070070                           ;"!P.' X"
007174:  006406632033                           ;" T&S0;"
007175:  000403602017                           ;" $#P0/"
007176:  014406662033                           ;"!D&V0;"
007177:  016402272011                           ;"!T"70)"
007200:  000100200401                           ;" ! 0$!"
007201:  000440002200                           ;" $@ 2 "
007202:  014200061000                           ;"!B &( "
007203:  012432252151                           ;"!4:51I"
007204:  023041714207                           ;""8AYB'"
007205:  014406062030                           ;"!D&&08"
007206:  022041710207                           ;""0AY"'"
007207:  003000014000                           ;" 8 !@ "
007210:  003000014000                           ;" 8 !@ "
007211:  003000014000                           ;" 8 !@ "
007212:  003000014000                           ;" 8 !@ "
007213:  016406272031                           ;"!T&709"
007214:  000444002220                           ;" $D 20"
007215:  014204061020                           ;"!B$&(0"
007216:  012402252011                           ;"!4"50)"
007217:  023041714207                           ;""8AYB'"
007220:  023736717573                           ;""?>Y]["
007221:  014011660047                           ;"!@)V G"
007222:  023101114404                           ;""9!)D$"
007223:  016420672103                           ;"!T0W1#"
007224:  016415072064                           ;"!T-'0T"
007225:  014401262005                           ;"!D!60%"
007226:  021501706407                           ;""-!XT'"
007227:  020104300421                           ;""!$8$1"
007230:  016421272105                           ;"!T171%"
007231:  016415472066                           ;"!T-G0V"
007232:  014011660047                           ;"!@)V G"
007233:  023104314421                           ;""9$9D1"
007234:  000401202005                           ;" $!00%"
007235:  014013460056                           ;"!@+F N"
007236:  022504312421                           ;""5$941"
007237:  016415672067                           ;"!T-W0W"
007240:  016421672107                           ;"!T1W1'"
007241:  016415072064                           ;"!T-'0T"
007242:  000400002000                           ;" $  0 "
007243:  016412272051                           ;"!T*70I"
007244:  014422062110                           ;"!D2&1("
007245:  014413462056                           ;"!D+F0N"
007246:  016422272111                           ;"!T271)"
007247:  014416062070                           ;"!D.&0X"
007250:  014410462042                           ;"!D(F0B"
007251:  016416272071                           ;"!T.70Y"
007252:  000445602227                           ;" $EP27"
007253:  014204061020                           ;"!B$&(0"
007254:  010402242011                           ;"!$"40)"
007255:  000100000400                           ;" !  $ "
007256:  000202001010                           ;" "" (("
007257:  016321271505                           ;"!S17-%"
007260:  016315471466                           ;"!S-G,V"
007261:  016002270011                           ;"!P"7 )"
007262:  023763717717                           ;""?SY_/"
007263:  004400022000                           ;" D "0 "
007264:  021111504446                           ;""))HDF"
007265:  000407202035                           ;" $'00="
007266:  037446376231                           ;"#\F?R9"
007267:  006426432132                           ;" T6C1:"
007270:  014432062150                           ;"!D:&1H"
007271:  021112504452                           ;"")*HDJ"
007272:  020114100460                           ;""!,($P"
007273:  023656317271                           ;"">N9ZY"
007274:  020745703627                           ;""'EX>7"
007275:  023344315621                           ;"";D9N1"
007276:  023650317241                           ;"">H9ZA"
007277:  000402202011                           ;" $"00)"
007300:  015476266371                           ;"!L^6SY"
007301:  000201401006                           ;" "!@(&"
007302:  012432252151                           ;"!4:51I"
007303:  006423632117                           ;" T3S1/"
007304:  014435262165                           ;"!D=61U"
007305:  022116710473                           ;""1.Y$["
007306:  023656317271                           ;"">N9ZY"
007307:  020745703627                           ;""'EX>7"
007310:  023344315621                           ;"";D9N1"
007311:  023650317241                           ;"">H9ZA"
007312:  000400202001                           ;" $ 00!"
007313:  016432272151                           ;"!T:71I"
007314:  023656317271                           ;"">N9ZY"
007315:  020745703627                           ;""'EX>7"
007316:  023344315621                           ;"";D9N1"
007317:  023642517212                           ;"">BIZ*"
007320:  000201601007                           ;" "!P('"
007321:  011776247771                           ;"!/^4_Y"
007322:  025030524142                           ;""H8JAB"
007323:  025034724163                           ;""H<ZAS"
007324:  011322245511                           ;"!+24M)"
007325:  011326245531                           ;"!+64M9"
007326:  011342245611                           ;"!+B4N)"
007327:  011312245451                           ;"!+*4LI"
007330:  011002244011                           ;"!("4@)"
007331:  011056244271                           ;"!(N4BY"
007332:  011306245431                           ;"!+&4L9"
007333:  011776247771                           ;"!/^4_Y"
007334:  011306245431                           ;"!+&4L9"
007335:  011776247771                           ;"!/^4_Y"
007336:  020777103774                           ;""'_(?\"
007337:  004401022004                           ;" D!"0$"
007340:  021124304521                           ;"")48E1"
007341:  020123300515                           ;""!38%-"
007342:  011776247771                           ;"!/^4_Y"
007343:  011306245431                           ;"!+&4L9"
007344:  020615103064                           ;""&-(8T"
007345:  011776247771                           ;"!/^4_Y"
007346:  023640717203                           ;"">@YZ#"
007347:  020752103650                           ;""'J(>H"
007350:  023346515632                           ;"";FIN:"
007351:  011776247771                           ;"!/^4_Y"
007352:  006401632007                           ;" T!S0'"
007353:  014401262005                           ;"!D!60%"
007354:  021621307105                           ;"".18Y%"
007355:  011306245431                           ;"!+&4L9"
007360:  020130100540                           ;""!8(%@"
007361:  004400022000                           ;" D "0 "
007362:  021130704543                           ;"")8XEC"
007363:  020201501006                           ;"""!H(&"
007364:  011476246371                           ;"!,^4SY"
007365:  023650317241                           ;"">H9ZA"
007366:  020116700473                           ;""!.X$["
007367:  000404002020                           ;" $$ 00"
007370:  015006264031                           ;"!H&6@9"
007371:  000100000400                           ;" !  $ "
007372:  000201401006                           ;" "!@(&"
007373:  016016070070                           ;"!P.' X"
007374:  006406632033                           ;" T&S0;"
007375:  000403602017                           ;" $#P0/"
007376:  014406662033                           ;"!D&V0;"
007377:  016402272011                           ;"!T"70)"
007400:  000100200401                           ;" ! 0$!"
007401:  000440002200                           ;" $@ 2 "
007402:  014200061000                           ;"!B &( "
007403:  012432252151                           ;"!4:51I"
007404:  023041714207                           ;""8AYB'"
007405:  014406062030                           ;"!D&&08"
007406:  022041710207                           ;""0AY"'"
007407:  003000014000                           ;" 8 !@ "
007410:  003000014000                           ;" 8 !@ "
007411:  003000014000                           ;" 8 !@ "
007412:  003000014000                           ;" 8 !@ "
007413:  016406272031                           ;"!T&709"
007414:  000444002220                           ;" $D 20"
007415:  014204061020                           ;"!B$&(0"
007416:  010002240011                           ;"! "4 )"
007417:  023041714207                           ;""8AYB'"
007420:  014435262165                           ;"!D=61U"
007421:  022141110604                           ;""1A)&$"
007422:  000447002234                           ;" $G 2<"
007423:  014204061020                           ;"!B$&(0"
007424:  020142100610                           ;""!B(&("
007425:  023736717573                           ;""?>Y]["
007426:  000450202241                           ;" $H02A"
007427:  014204061020                           ;"!B$&(0"
007430:  010210041040                           ;"!"($(@"
007431:  010402242011                           ;"!$"40)"
007432:  000100000400                           ;" !  $ "
007433:  000206001030                           ;" "& (8"
007434:  016002270011                           ;"!P"7 )"
007435:  023763717717                           ;""?SY_/"
007436:  004400022000                           ;" D "0 "
007437:  021144304621                           ;"")D8F1"
007440:  000407202035                           ;" $'00="
007441:  037446376231                           ;"#\F?R9"
007442:  006426432132                           ;" T6C1:"
007443:  014432062150                           ;"!D:&1H"
007444:  021145304625                           ;"")E8F5"
007445:  020146700633                           ;""!FX&;"
007446:  023656317271                           ;"">N9ZY"
007447:  020745703627                           ;""'EX>7"
007450:  023230115140                           ;"":8)I@"
007451:  023650317241                           ;"">H9ZA"
007452:  000402202011                           ;" $"00)"
007453:  015476266371                           ;"!L^6SY"
007454:  006423632117                           ;" T3S1/"
007455:  014422062110                           ;"!D2&1("
007456:  021147704637                           ;"")GXF?"
007457:  020155300665                           ;""!M8&U"
007460:  000406602033                           ;" $&P0;"
007461:  016432272151                           ;"!T:71I"
007462:  006413432056                           ;" T+C0N"
007463:  023656317271                           ;"">N9ZY"
007464:  020745703627                           ;""'EX>7"
007465:  023230115140                           ;"":8)I@"
007466:  023642517212                           ;"">BIZ*"
007467:  014412062050                           ;"!D*&0H"
007470:  015046264231                           ;"!HF6B9"
007471:  004401222005                           ;" D!20%"
007472:  022152710653                           ;""1JY&K"
007473:  020152100650                           ;""!J(&H"
007474:  000472402352                           ;" $Z@3J"
007475:  015012264051                           ;"!H*6@I"
007476:  004401222005                           ;" D!20%"
007477:  022153310655                           ;""1K9&M"
007500:  000432402152                           ;" $:@1J"
007501:  015012264051                           ;"!H*6@I"
007502:  023637717177                           ;"">?YY_"
007503:  020754703663                           ;""'LX>S"
007504:  023230715143                           ;"":8YIC"
007505:  023650317241                           ;"">H9ZA"
007506:  000201401006                           ;" "!@(&"
007507:  012432252151                           ;"!4:51I"
007510:  023656317271                           ;"">N9ZY"
007511:  020745703627                           ;""'EX>7"
007512:  023230115140                           ;"":8)I@"
007513:  023642517212                           ;"">BIZ*"
007514:  000205401026                           ;" "%@(6"
007515:  011776247771                           ;"!/^4_Y"
007516:  025030524142                           ;""H8JAB"
007517:  025034724163                           ;""H<ZAS"
007520:  011022244111                           ;"!(24A)"
007521:  011326245531                           ;"!+64M9"
007522:  011342245611                           ;"!+B4N)"
007523:  011312245451                           ;"!+*4LI"
007524:  011002244011                           ;"!("4@)"
007525:  011056244271                           ;"!(N4BY"
007526:  011306245431                           ;"!+&4L9"
007527:  011776247771                           ;"!/^4_Y"
007530:  011306245431                           ;"!+&4L9"
007531:  011776247771                           ;"!/^4_Y"
007532:  006405432026                           ;" T%C06"
007533:  000420002100                           ;" $0 1 "
007534:  016422272111                           ;"!T271)"
007535:  000437602177                           ;" $?P1_"
007536:  016416272071                           ;"!T.70Y"
007537:  000437602177                           ;" $?P1_"
007540:  016412272051                           ;"!T*70I"
007541:  020777103774                           ;""'_(?\"
007542:  006400632003                           ;" T S0#"
007543:  014401262005                           ;"!D!60%"
007544:  021565306725                           ;""-U8W5"
007545:  020172300751                           ;""!Z8'I"
007546:  004401422006                           ;" D!B0&"
007547:  014007660037                           ;"!@'V ?"
007550:  023166314731                           ;""9V9G9"
007551:  020171300745                           ;""!Y8'E"
007552:  016411672047                           ;"!T)W0G"
007553:  023167114734                           ;""9W)G<"
007554:  020164100720                           ;""!T('0"
007555:  016415672067                           ;"!T-W0W"
007556:  023167714737                           ;""9WYG?"
007557:  020163500716                           ;""!SH'."
007560:  016421672107                           ;"!T1W1'"
007561:  023170514742                           ;""9XIGB"
007562:  020163100714                           ;""!S(',"
007563:  000421602107                           ;" $1P1'"
007564:  016402272011                           ;"!T"70)"
007565:  020272501352                           ;"""ZH+J"
007566:  020777103774                           ;""'_(?\"
007567:  006400632003                           ;" T S0#"
007570:  014401262005                           ;"!D!60%"
007571:  021571306745                           ;""-Y8WE"
007572:  020777103774                           ;""'_(?\"
007573:  004400222001                           ;" D 20!"
007574:  022173310755                           ;""1[9'M"
007575:  020172300751                           ;""!Z8'I"
007576:  011306245431                           ;"!+&4L9"
007577:  006415432066                           ;" T-C0V"
007600:  006411632047                           ;" T)S0G"
007601:  020625303125                           ;""&5895"
007602:  011776247771                           ;"!/^4_Y"
007603:  023637717177                           ;"">?YY_"
007604:  020755703667                           ;""'MX>W"
007605:  023231515146                           ;"":9IIF"
007606:  011776247771                           ;"!/^4_Y"
007607:  006401632007                           ;" T!S0'"
007610:  014401262005                           ;"!D!60%"
007611:  021627307135                           ;"".78Y="
007612:  014015660067                           ;"!@-V W"
007613:  023177114774                           ;""9_)G\"
007614:  020207101034                           ;"""'((<"
007615:  014011660047                           ;"!@)V G"
007616:  023177714777                           ;""9_YG_"
007617:  020207101034                           ;"""'((<"
007620:  011306245431                           ;"!+&4L9"
007623:  020200701003                           ;""" X(#"
007624:  004400022000                           ;" D "0 "
007625:  021206305031                           ;""*&8H9"
007626:  023612717053                           ;"">*YXK"
007627:  000402202011                           ;" $"00)"
007630:  015476266371                           ;"!L^6SY"
007631:  014406062030                           ;"!D&&08"
007632:  015046264231                           ;"!HF6B9"
007633:  014422062110                           ;"!D2&1("
007634:  003000014000                           ;" 8 !@ "
007635:  021205505026                           ;""*%HH6"
007636:  023644517222                           ;"">DIZ2"
007637:  000402202011                           ;" $"00)"
007640:  015476266371                           ;"!L^6SY"
007641:  000400002000                           ;" $  0 "
007642:  015076264371                           ;"!H^6CY"
007643:  020777103774                           ;""'_(?\"
007644:  000400402002                           ;" $ @0""
007645:  015006264031                           ;"!H&6@9"
007646:  020005500026                           ;"" %H 6"
007647:  023770317741                           ;""?X9_A"
007650:  023734317561                           ;""?<9]Q"
007651:  020203501016                           ;"""#H(."
007652:  011476246371                           ;"!,^4SY"
007653:  023650317241                           ;"">H9ZA"
007654:  020155700667                           ;""!MX&W"
007655:  023770317741                           ;""?X9_A"
007656:  023612317051                           ;"">*9XI"
007657:  000231401146                           ;" "9@)F"
007660:  010402242011                           ;"!$"40)"
007661:  003000014000                           ;" 8 !@ "
007662:  003000014000                           ;" 8 !@ "
007663:  021211305045                           ;""*)8HE"
007664:  000400402002                           ;" $ @0""
007665:  020211501046                           ;""")H(F"
007666:  000400602003                           ;" $ P0#"
007667:  015012264051                           ;"!H*6@I"
007670:  023734317561                           ;""?<9]Q"
007671:  020356701673                           ;""#NX.["
007672:  000402202011                           ;" $"00)"
007673:  015476266371                           ;"!L^6SY"
007674:  014406062030                           ;"!D&&08"
007675:  015046264231                           ;"!HF6B9"
007676:  024400522002                           ;""D J0""
007677:  014417462076                           ;"!D/F0^"
007700:  015412266051                           ;"!L*6PI"
007701:  024400722003                           ;""D Z0#"
007702:  014410462042                           ;"!D(F0B"
007703:  015416266071                           ;"!L.6PY"
007704:  003400016000                           ;" < !P "
007705:  023777117774                           ;""?_)_\"
007706:  023770317741                           ;""?X9_A"
007707:  023766317731                           ;""?V9_9"
007710:  023640717203                           ;"">@YZ#"
007711:  020752103650                           ;""'J(>H"
007712:  023346515632                           ;"";FIN:"
007713:  000402202011                           ;" $"00)"
007714:  015476266371                           ;"!L^6SY"
007715:  014406062030                           ;"!D&&08"
007716:  015046264231                           ;"!HF6B9"
007717:  023766317731                           ;""?V9_9"
007720:  023734317561                           ;""?<9]Q"
007721:  000402202011                           ;" $"00)"
007722:  015476266371                           ;"!L^6SY"
007723:  000401202005                           ;" $!00%"
007724:  015012264051                           ;"!H*6@I"
007725:  020356701673                           ;""#NX.["
007726:  023770317741                           ;""?X9_A"
007727:  014406062030                           ;"!D&&08"
007730:  015046264231                           ;"!HF6B9"
007731:  023734317561                           ;""?<9]Q"
007732:  000402202011                           ;" $"00)"
007733:  015476266371                           ;"!L^6SY"
007734:  000400002000                           ;" $  0 "
007735:  015006264031                           ;"!H&6@9"
007736:  015076264371                           ;"!H^6CY"
007737:  000400202001                           ;" $ 00!"
007740:  015006264031                           ;"!H&6@9"
007741:  004400022000                           ;" D "0 "
007742:  021224105120                           ;""*4(I0"
007743:  000440402202                           ;" $@@2""
007744:  015006264031                           ;"!H&6@9"
007745:  020005500026                           ;"" %H 6"
007746:  023777117774                           ;""?_)_\"
007747:  023770317741                           ;""?X9_A"
007750:  023766317731                           ;""?V9_9"
007751:  023637717177                           ;"">?YY_"
007752:  020755703667                           ;""'MX>W"
007753:  023231515146                           ;"":9IIF"
007754:  023612317051                           ;"">*9XI"
007755:  020217101074                           ;"""/((\"
007756:  023770317741                           ;""?X9_A"
007757:  023612717053                           ;"">*YXK"
007760:  020221501106                           ;"""1H)&"
007761:  023770317741                           ;""?X9_A"
007762:  023632717153                           ;"">:YYK"
007763:  020344501622                           ;""#DH.2"
007764:  023770317741                           ;""?X9_A"
007765:  023632717153                           ;"">:YYK"
007766:  020346701633                           ;""#FX.;"
007767:  023770317741                           ;""?X9_A"
007770:  000402202011                           ;" $"00)"
007771:  015476266371                           ;"!L^6SY"
007772:  023612717053                           ;"">*YXK"
007773:  020346701633                           ;""#FX.;"
007774:  000402202011                           ;" $"00)"
007775:  015476266371                           ;"!L^6SY"
007776:  000400002000                           ;" $  0 "
007777:  015412266051                           ;"!L*6PI"
010000:  015416266071                           ;"!L.6PY"
010001:  003400016000                           ;" < !P "
010002:  023763717717                           ;""?SY_/"
010003:  006426432132                           ;" T6C1:"
010004:  014416062070                           ;"!D.&0X"
010005:  016432272151                           ;"!T:71I"
010006:  023656317271                           ;"">N9ZY"
010007:  020745703627                           ;""'EX>7"
010010:  023344315621                           ;"";D9N1"
010011:  023724317521                           ;""?49]1"
010012:  000402202011                           ;" $"00)"
010013:  015476266371                           ;"!L^6SY"
010014:  014406062030                           ;"!D&&08"
010015:  015046264231                           ;"!HF6B9"
010016:  023770317741                           ;""?X9_A"
010017:  020066700333                           ;"" VX#;"
010020:  020777103774                           ;""'_(?\"
010021:  004401022004                           ;" D!"0$"
010022:  021240705203                           ;""*@XJ#"
010023:  020237701177                           ;"""?X)_"
010024:  006405632027                           ;" T%S07"
010025:  000403002014                           ;" $# 0,"
010026:  014406662033                           ;"!D&V0;"
010027:  014007660037                           ;"!@'V ?"
010030:  023242315211                           ;"":B9J)"
010031:  003477616377                           ;" <_QS_"
010032:  003400016000                           ;" < !P "
010033:  000473402356                           ;" $[@3N"
010034:  015012264051                           ;"!H*6@I"
010035:  020777103774                           ;""'_(?\"
010036:  004401022004                           ;" D!"0$"
010037:  021243105214                           ;""*C(J,"
010040:  000432402152                           ;" $:@1J"
010041:  015012264051                           ;"!H*6@I"
010042:  003400016000                           ;" < !P "
010043:  000406602033                           ;" $&P0;"
010044:  015476266371                           ;"!L^6SY"
010045:  000471002344                           ;" $Y 3D"
010046:  015012264051                           ;"!H*6@I"
010047:  020777103774                           ;""'_(?\"
010050:  004401022004                           ;" D!"0$"
010051:  021245505226                           ;""*EHJ6"
010052:  000431002144                           ;" $9 1D"
010053:  015012264051                           ;"!H*6@I"
010054:  020777103774                           ;""'_(?\"
010055:  004401022004                           ;" D!"0$"
010056:  022246711233                           ;""2FY*;"
010057:  000410002040                           ;" $( 0@"
010060:  015012264051                           ;"!H*6@I"
010061:  003400016000                           ;" < !P "
010062:  000450002240                           ;" $H 2@"
010063:  015016264071                           ;"!H.6@Y"
010064:  000471002344                           ;" $Y 3D"
010065:  015012264051                           ;"!H*6@I"
010066:  020777103774                           ;""'_(?\"
010067:  004401022004                           ;" D!"0$"
010070:  021251305245                           ;""*I8JE"
010071:  000431002144                           ;" $9 1D"
010072:  015012264051                           ;"!H*6@I"
010073:  020777103774                           ;""'_(?\"
010074:  004401022004                           ;" D!"0$"
010075:  022252511252                           ;""2JI*J"
010076:  003400016000                           ;" < !P "
010077:  000431202145                           ;" $901E"
010100:  015012264051                           ;"!H*6@I"
010101:  020777103774                           ;""'_(?\"
010102:  004401022004                           ;" D!"0$"
010103:  021254105260                           ;""*L(JP"
010104:  000431002144                           ;" $9 1D"
010105:  015012264051                           ;"!H*6@I"
010106:  020777103774                           ;""'_(?\"
010107:  004401022004                           ;" D!"0$"
010110:  022255311265                           ;""2M9*U"
010111:  003400016000                           ;" < !P "
010112:  000235401166                           ;" "=@)V"
010113:  016332071550                           ;"!S:'-H"
010114:  016026070130                           ;"!P6'!8"
010115:  000210601043                           ;" "(P(C"
010116:  011776247771                           ;"!/^4_Y"
010117:  014426062130                           ;"!D6&18"
010120:  015046264231                           ;"!HF6B9"
010121:  011312245451                           ;"!+*4LI"
010122:  011312245451                           ;"!+*4LI"
010123:  020777103774                           ;""'_(?\"
010124:  004401022004                           ;" D!"0$"
010125:  022262311311                           ;""2R9+)"
010126:  021300705403                           ;""+ XL#"
010127:  003000014000                           ;" 8 !@ "
010130:  021267105334                           ;""*W(K<"
010131:  020260501302                           ;"""PH+""
010132:  011312245451                           ;"!+*4LI"
010133:  020777103774                           ;""'_(?\"
010134:  004401022004                           ;" D!"0$"
010135:  021663507316                           ;"".SH[."
010136:  020262501312                           ;"""RH+*"
010137:  011316245471                           ;"!+.4LY"
010140:  004401622007                           ;" D!R0'"
010141:  020745103624                           ;""'E(>4"
010142:  014027660137                           ;"!@7V!?"
010143:  023265115324                           ;"":U)K4"
010144:  020272101350                           ;"""Z(+H"
010145:  014432062150                           ;"!D:&1H"
010146:  015046264231                           ;"!HF6B9"
010147:  011312245451                           ;"!+*4LI"
010150:  020777103774                           ;""'_(?\"
010151:  004401022004                           ;" D!"0$"
010152:  021665707327                           ;"".UX[7"
010153:  011312245451                           ;"!+*4LI"
010154:  020237701177                           ;"""?X)_"
010155:  023770317741                           ;""?X9_A"
010156:  000440002200                           ;" $@ 2 "
010157:  015016264071                           ;"!H.6@Y"
010160:  000400002000                           ;" $  0 "
010161:  015012264051                           ;"!H*6@I"
010162:  000402202011                           ;" $"00)"
010163:  015476266371                           ;"!L^6SY"
010164:  000401002004                           ;" $! 0$"
010165:  015012264051                           ;"!H*6@I"
010166:  000400002000                           ;" $  0 "
010167:  015046264231                           ;"!HF6B9"
010170:  020356701673                           ;""#NX.["
010171:  000401402006                           ;" $!@0&"
010172:  016402272011                           ;"!T"70)"
010173:  023770317741                           ;""?X9_A"
010174:  000406602033                           ;" $&P0;"
010175:  015476266371                           ;"!L^6SY"
010176:  000450002240                           ;" $H 2@"
010177:  015016264071                           ;"!H.6@Y"
010200:  000410002040                           ;" $( 0@"
010201:  015016264071                           ;"!H.6@Y"
010202:  000410002040                           ;" $( 0@"
010203:  015012264051                           ;"!H*6@I"
010204:  004401022004                           ;" D!"0$"
010205:  022274711363                           ;""2\Y+S"
010206:  000410002040                           ;" $( 0@"
010207:  015012264051                           ;"!H*6@I"
010210:  000450002240                           ;" $H 2@"
010211:  015016264071                           ;"!H.6@Y"
010212:  000440002200                           ;" $@ 2 "
010213:  015016264071                           ;"!H.6@Y"
010214:  023766317731                           ;""?V9_9"
010215:  000402202011                           ;" $"00)"
010216:  015476266371                           ;"!L^6SY"
010217:  014402062010                           ;"!D"&0("
010220:  015012264051                           ;"!H*6@I"
010221:  000400002000                           ;" $  0 "
010222:  015046264231                           ;"!HF6B9"
010223:  020356701673                           ;""#NX.["
010224:  000410002040                           ;" $( 0@"
010225:  015012264051                           ;"!H*6@I"
010226:  000440002200                           ;" $@ 2 "
010227:  015016264071                           ;"!H.6@Y"
010230:  020777103774                           ;""'_(?\"
010231:  004401222005                           ;" D!20%"
010232:  003000014000                           ;" 8 !@ "
010233:  021703107414                           ;""/#(\,"
010234:  020301701407                           ;""#!X,'"
010235:  023704317421                           ;""?$9\1"
010236:  000235401166                           ;" "=@)V"
010237:  012732253551                           ;"!7:5=I"
010240:  012426252131                           ;"!46519"
010241:  020257101274                           ;"""O(*\"
010242:  000433402156                           ;" $;@1N"
010243:  015012264051                           ;"!H*6@I"
010244:  020777103774                           ;""'_(?\"
010245:  004401022004                           ;" D!"0$"
010246:  022306311431                           ;""3&9,9"
010247:  003000014000                           ;" 8 !@ "
010250:  021314705463                           ;""+,XLS"
010251:  020304701423                           ;""#$X,3"
010252:  020777103774                           ;""'_(?\"
010253:  004401022004                           ;" D!"0$"
010254:  021707307435                           ;""/'8\="
010255:  020306301431                           ;""#&8,9"
010256:  000236201171                           ;" ">0)Y"
010257:  006001630007                           ;" P!S '"
010260:  000433602157                           ;" $;P1O"
010261:  015012264051                           ;"!H*6@I"
010262:  020777103774                           ;""'_(?\"
010263:  004401022004                           ;" D!"0$"
010264:  021710307441                           ;""/(8\A"
010265:  000433402156                           ;" $;@1N"
010266:  015012264051                           ;"!H*6@I"
010267:  020777103774                           ;""'_(?\"
010270:  004401022004                           ;" D!"0$"
010271:  021312505452                           ;""+*HLJ"
010272:  020311501446                           ;""#)H,F"
010273:  000236001170                           ;" "> )X"
010274:  006001630007                           ;" P!S '"
010275:  010402242011                           ;"!$"40)"
010276:  003000014000                           ;" 8 !@ "
010277:  021321305505                           ;""+18M%"
010300:  003000014000                           ;" 8 !@ "
010301:  021315505466                           ;""+-HLV"
010302:  023644517222                           ;"">DIZ2"
010303:  003400016000                           ;" < !P "
010304:  000410002040                           ;" $( 0@"
010305:  015012264051                           ;"!H*6@I"
010306:  003400016000                           ;" < !P "
010307:  000402202011                           ;" $"00)"
010310:  015476266371                           ;"!L^6SY"
010311:  026400332001                           ;""T ;0!"
010312:  014001660007                           ;"!@!V '"
010313:  023317715477                           ;"";/YL_"
010314:  000406602033                           ;" $&P0;"
010315:  015476266371                           ;"!L^6SY"
010316:  023653517256                           ;"">KIZN"
010317:  003400016000                           ;" < !P "
010320:  011706247431                           ;"!/&4\9"
010321:  011402246011                           ;"!,"4P)"
010322:  000406602033                           ;" $&P0;"
010323:  015476266371                           ;"!L^6SY"
010324:  023644517222                           ;"">DIZ2"
010325:  003477616377                           ;" <_QS_"
010326:  023650317241                           ;"">H9ZA"
010327:  000700203401                           ;" ' 0<!"
010330:  012426252131                           ;"!46519"
010331:  023722517512                           ;""?2I]*"
010332:  003400016000                           ;" < !P "
010333:  016412272051                           ;"!T*70I"
010334:  000401002004                           ;" $! 0$"
010335:  016432272151                           ;"!T:71I"
010336:  023657117274                           ;"">O)Z\"
010337:  023333715557                           ;"";;YMO"
010340:  014412062050                           ;"!D*&0H"
010341:  021330505542                           ;""+8HMB"
010342:  023642517212                           ;"">BIZ*"
010343:  000212401052                           ;" "*@(J"
010344:  020777103774                           ;""'_(?\"
010345:  004401022004                           ;" D!"0$"
010346:  021333505556                           ;""+;HMN"
010347:  004401222005                           ;" D!20%"
010350:  022326311531                           ;""369-9"
010351:  020324701523                           ;""#4X-3"
010352:  006301631407                           ;" S!S,'"
010353:  000473402356                           ;" $[@3N"
010354:  015012264051                           ;"!H*6@I"
010355:  020777103774                           ;""'_(?\"
010356:  004401222005                           ;" D!20%"
010357:  022327111534                           ;""37)-<"
010360:  000433402156                           ;" $;@1N"
010361:  015012264051                           ;"!H*6@I"
010362:  020324701523                           ;""#4X-3"
010363:  023642517212                           ;"">BIZ*"
010364:  020777103774                           ;""'_(?\"
010365:  004401222005                           ;" D!20%"
010366:  022331711547                           ;""39Y-G"
010367:  020330701543                           ;""#8X-C"
010370:  000433602157                           ;" $;P1O"
010371:  015012264051                           ;"!H*6@I"
010372:  020777103774                           ;""'_(?\"
010373:  004401222005                           ;" D!20%"
010374:  022332311551                           ;""3:9-I"
010375:  000433402156                           ;" $;@1N"
010376:  015012264051                           ;"!H*6@I"
010377:  023637717177                           ;"">?YY_"
010400:  023644517222                           ;"">DIZ2"
010401:  003400016000                           ;" < !P "
010402:  014422062110                           ;"!D2&1("
010403:  003000014000                           ;" 8 !@ "
010404:  003000014000                           ;" 8 !@ "
010405:  021333705557                           ;""+;XMO"
010406:  000406602033                           ;" $&P0;"
010407:  015476266371                           ;"!L^6SY"
010410:  023650317241                           ;"">H9ZA"
010411:  000400002000                           ;" $  0 "
010412:  023722517512                           ;""?2I]*"
010413:  003400016000                           ;" < !P "
010414:  000400002000                           ;" $  0 "
010415:  016412272051                           ;"!T*70I"
010416:  024400522002                           ;""D J0""
010417:  014413462056                           ;"!D+F0N"
010420:  016422272111                           ;"!T271)"
010421:  024400722003                           ;""D Z0#"
010422:  014410462042                           ;"!D(F0B"
010423:  016416272071                           ;"!T.70Y"
010424:  016411072044                           ;"!T)'0D"
010425:  000403602017                           ;" $#P0/"
010426:  016426272131                           ;"!T6719"
010427:  016421272105                           ;"!T171%"
010430:  016415472066                           ;"!T-G0V"
010431:  016411472046                           ;"!T)G0F"
010432:  010013440056                           ;"! +D N"
010433:  022743113614                           ;""7C)>,"
010434:  020343501616                           ;""#CH.."
010435:  012413452056                           ;"!4+E0N"
010436:  016420672103                           ;"!T0W1#"
010437:  016425672127                           ;"!T5W17"
010440:  022741513606                           ;""7AI>&"
010441:  003400016000                           ;" < !P "
010442:  023770317741                           ;""?X9_A"
010443:  000404202021                           ;" $$001"
010444:  020347101634                           ;""#G(.<"
010445:  023777117774                           ;""?_)_\"
010446:  000405402026                           ;" $%@06"
010447:  020272301351                           ;"""Z8+I"
010450:  023777117774                           ;""?_)_\"
010451:  000411402046                           ;" $)@0F"
010452:  020272301351                           ;"""Z8+I"
010453:  023770317741                           ;""?X9_A"
010454:  000400202001                           ;" $ 00!"
010455:  016402272011                           ;"!T"70)"
010456:  000402202011                           ;" $"00)"
010457:  015476266371                           ;"!L^6SY"
010460:  014402062010                           ;"!D"&0("
010461:  015012264051                           ;"!H*6@I"
010462:  014406062030                           ;"!D&&08"
010463:  015046264231                           ;"!HF6B9"
010464:  021751507646                           ;""/IH^F"
010465:  023734317561                           ;""?<9]Q"
010466:  020356701673                           ;""#NX.["
010467:  023644517222                           ;"">DIZ2"
010470:  020356701673                           ;""#NX.["
010471:  023777117774                           ;""?_)_\"
010472:  023770317741                           ;""?X9_A"
010473:  000402202011                           ;" $"00)"
010474:  015476266371                           ;"!L^6SY"
010475:  014406062030                           ;"!D&&08"
010476:  015046264231                           ;"!HF6B9"
010477:  000405202025                           ;" $%005"
010500:  015012264051                           ;"!H*6@I"
010501:  023766317731                           ;""?V9_9"
010502:  023734317561                           ;""?<9]Q"
010503:  020356701673                           ;""#NX.["
010504:  023777117774                           ;""?_)_\"
010505:  023770317741                           ;""?X9_A"
010506:  023632717153                           ;"">:YYK"
010507:  020353101654                           ;""#K(.L"
010510:  023777117774                           ;""?_)_\"
010511:  023770317741                           ;""?X9_A"
010512:  023612717053                           ;"">*YXK"
010513:  020353101654                           ;""#K(.L"
010514:  000402202011                           ;" $"00)"
010515:  015476266371                           ;"!L^6SY"
010516:  000400002000                           ;" $  0 "
010517:  015076264371                           ;"!H^6CY"
010520:  004400222001                           ;" D 20!"
010521:  021761107704                           ;""/Q(_$"
010522:  000460402302                           ;" $P@3""
010523:  015006264031                           ;"!H&6@9"
010524:  020005500026                           ;"" %H 6"
010525:  000424002120                           ;" $4 10"
010526:  015006264031                           ;"!H&6@9"
010527:  000420002100                           ;" $0 1 "
010530:  015006264031                           ;"!H&6@9"
010531:  000420202101                           ;" $001!"
010532:  015006264031                           ;"!H&6@9"
010533:  004400022000                           ;" D "0 "
010534:  021362505712                           ;""+RHO*"
010535:  000460402302                           ;" $P@3""
010536:  015006264031                           ;"!H&6@9"
010537:  020005500026                           ;"" %H 6"
010540:  000100000400                           ;" !  $ "
010541:  000212401052                           ;" "*@(J"
010542:  000405602027                           ;" $%P07"
010543:  016402272011                           ;"!T"70)"
010544:  002300011400                           ;" 3 !, "
010545:  016401672007                           ;"!T!W0'"
010546:  022764713723                           ;""7TY?3"
010547:  000440002200                           ;" $@ 2 "
010550:  015042264211                           ;"!HB6B)"
010551:  003400016000                           ;" < !P "
010552:  000404402022                           ;" $$@02"
010553:  015476266371                           ;"!L^6SY"
010554:  015006264031                           ;"!H&6@9"
010555:  015002264011                           ;"!H"6@)"
010556:  000406602033                           ;" $&P0;"
010557:  015476266371                           ;"!L^6SY"
010560:  015002264011                           ;"!H"6@)"
010561:  003400016000                           ;" < !P "
010562:  000100000400                           ;" !  $ "
010563:  000221001104                           ;" "1 )$"
010564:  026303531416                           ;""S#K,."
010565:  026303731417                           ;""S#[,/"
010566:  000402202011                           ;" $"00)"
010567:  015476266371                           ;"!L^6SY"
010570:  000461002304                           ;" $Q 3$"
010571:  037746377631                           ;"#_F?^9"
010572:  000463202315                           ;" $S03-"
010573:  037746377631                           ;"#_F?^9"
010574:  000465402326                           ;" $U@36"
010575:  037746377631                           ;"#_F?^9"
010576:  000406602033                           ;" $&P0;"
010577:  015476266371                           ;"!L^6SY"
010600:  000461002304                           ;" $Q 3$"
010601:  037746377631                           ;"#_F?^9"
010602:  000400602003                           ;" $ P0#"
010603:  015002264011                           ;"!H"6@)"
010604:  000404402022                           ;" $$@02"
010605:  015476266371                           ;"!L^6SY"
010606:  000461002304                           ;" $Q 3$"
010607:  037746377631                           ;"#_F?^9"
010610:  000463202315                           ;" $S03-"
010611:  037746377631                           ;"#_F?^9"
010612:  000221201105                           ;" "10)%"
010613:  011476246371                           ;"!,^4SY"
010614:  003400016000                           ;" < !P "
010615:  000414202061                           ;" $,00Q"
010616:  034046360231                           ;"#@F>"9"
010621:  200404002020  move     10, 2020(4)     ;"0$$ 00"
010622:  215006264031  movmi    0, 264031(6)    ;"1H&6@9"
010623:  204400022000  movs     10, 22000       ;"0D "0 "
010624:  221001304005  imuli    0, 304005(1)    ;"2(!8@%"
010625:  223407316035  imulb    10, 316035(7)   ;"2<'9P="
010626:  200411602047  move     10, 602047(11)  ;"0$)P0G"
010627:  216402272011  movmm    10, 272011(2)   ;"1T"70)"
010630:  200400002000  move     10, 2000        ;"0$  0 "
010631:  215036264171  movmi    0, @264171(16)  ;"1H>6AY"
010632:  200100000400  move     2, 400          ;"0!  $ "
010633:  200212401052  move     4, 401052(12)   ;"0"*@(J"
010634:  200405002024  move     10, 2024(5)     ;"0$% 04"
010635:  211332245551  movni    6, @245551(12)  ;"1+:4MI"
010636:  211326245531  movni    6, @245531(6)   ;"1+64M9"
010637:  215006264031  movmi    0, 264031(6)    ;"1H&6@9"
010640:  200000000000  move     0, 0            ;"0     " " \0\0\0\0"
010641:  216401672007  movmm    10, 672007(1)   ;"1T!W0'"
010642:  222403112014  imulm    10, 112014(3)   ;"24#)0,"
010643:  200404202021  move     10, 202021(4)   ;"0$$001"
010644:  215006264031  movmi    0, 264031(6)    ;"1H&6@9"
010645:  200400002000  move     10, 2000        ;"0$  0 "
010646:  215076264371  movmi    1, @264371(16)  ;"1H^6CY"
010647:  200000000000  move     0, 0            ;"0     " " \0\0\0\0"
010650:  204400022000  movs     10, 22000       ;"0D "0 "
010651:  221001304005  imuli    0, 304005(1)    ;"2(!8@%"
010652:  200400402002  move     10, 402002      ;"0$ @0""
010653:  215006264031  movmi    0, 264031(6)    ;"1H&6@9"
010654:  200405402026  move     10, 402026(5)   ;"0$%@06"
010655:  234042360211  div      1, 360211(2)    ;"3@B>")"
010656:  200472602353  move     11, @602353(12) ;"0$ZP3K"
010657:  216402272011  movmm    10, 272011(2)   ;"1T"70)"
010660:  200476002370  move     11, @2370(16)   ;"0$^ 3X"
010661:  216406272031  movmm    10, 272031(6)   ;"1T&709"
010662:  204400022000  movs     10, 22000       ;"0D "0 "
010663:  221023104114  imuli    0, @104114(3)   ;"2(3(A,"
010664:  216404672023  movmm    10, 672023(4)   ;"1T$W03"
010665:  216401072004  movmm    10, 72004(1)    ;"1T!'0$"
010666:  222411712047  imulm    10, 712047(11)  ;"24)Y0G"
010667:  220010300041  imul     0, 300041(10)   ;"2 (8 A"
010670:  200470202341  move     11, @202341(10) ;"0$X03A"
010671:  237742377611  divb     17, 377611(2)   ;"3_B?^)"
010672:  200415402066  move     10, 402066(15)  ;"0$-@0V"
010673:  215012264051  movmi    0, 264051(12)   ;"1H*6@I"
010674:  200400002000  move     10, 2000        ;"0$  0 "
010675:  215046264231  movmi    1, 264231(6)    ;"1HF6B9"
010676:  200434002160  move     10, @2160(14)   ;"0$< 1P"
010677:  215006264031  movmi    0, 264031(6)    ;"1H&6@9"
010700:  200456602273  move     11, 602273(16)  ;"0$NP2["
010701:  234342361611  div      7, 361611(2)    ;"3CB>.)"
010702:  226403732017  mulm     10, 732017(3)   ;"2T#[0/"
010703:  224403522016  mul      10, 522016(3)   ;"2D#J0."
010704:  221017304075  imuli    0, 304075(17)   ;"2(/8@]"
010705:  203000014000  moves    0, 14000        ;"08 !@ "
010706:  221020504102  imuli    0, @504102      ;"2(0HA""
010707:  203000014000  moves    0, 14000        ;"08 !@ "
010710:  221023304115  imuli    0, @304115(3)   ;"2(38A-"
010711:  203000014000  moves    0, 14000        ;"08 !@ "
010712:  221026304131  imuli    0, @304131(6)   ;"2(68A9"
010713:  214402062010  movm     10, 62010(2)    ;"1D"&0("
010714:  215476266371  movmi    11, @266371(16) ;"1L^6SY"
010715:  203400016000  moves    10, 16000       ;"0< !P "
010716:  200402202011  move     10, 202011(2)   ;"0$"00)"
010717:  215476266371  movmi    11, @266371(16) ;"1L^6SY"
010720:  200422002110  move     10, @2110(2)    ;"0$2 1("
010721:  215012264051  movmi    0, 264051(12)   ;"1H*6@I"
010722:  220021500106  imul     0, @500106(1)   ;"2 1H!&"
010723:  200402202011  move     10, 202011(2)   ;"0$"00)"
010724:  215476266371  movmi    11, @266371(16) ;"1L^6SY"
010725:  200416002070  move     10, 2070(16)    ;"0$. 0X"
010726:  215012264051  movmi    0, 264051(12)   ;"1H*6@I"
010727:  200420002100  move     10, @2100       ;"0$0 1 "
010730:  215476266371  movmi    11, @266371(16) ;"1L^6SY"
010731:  200402202011  move     10, 202011(2)   ;"0$"00)"
010732:  215476266371  movmi    11, @266371(16) ;"1L^6SY"
010733:  200420402102  move     10, @402102     ;"0$0@1""
010734:  215006264031  movmi    0, 264031(6)    ;"1H&6@9"
010735:  203400016000  moves    10, 16000       ;"0< !P "
010736:  200404402022  move     10, 402022(4)   ;"0$$@02"
010737:  215476266371  movmi    11, @266371(16) ;"1L^6SY"
010740:  204400022000  movs     10, 22000       ;"0D "0 "
010741:  221025304125  imuli    0, @304125(5)   ;"2(58A5"
010742:  224403522016  mul      10, 522016(3)   ;"2D#J0."
010743:  203000014000  moves    0, 14000        ;"08 !@ "
010744:  203000014000  moves    0, 14000        ;"08 !@ "
010745:  220016100070  imul     0, 100070(16)   ;"2 .( X"
010746:  200401602007  move     10, 602007(1)   ;"0$!P0'"
010747:  216402272011  movmm    10, 272011(2)   ;"1T"70)"
010750:  200472402352  move     11, @402352(12) ;"0$Z@3J"
010751:  234242361211  div      5, 361211(2)    ;"3BB>*)"
010752:  200406602033  move     10, 602033(6)   ;"0$&P0;"
010753:  215476266371  movmi    11, @266371(16) ;"1L^6SY"
010754:  204400022000  movs     10, 22000       ;"0D "0 "
010755:  221431306145  imuli    10, @306145(11) ;"2,98QE"
010756:  203000014000  moves    0, 14000        ;"08 !@ "
010757:  203000014000  moves    0, 14000        ;"08 !@ "
010760:  221432306151  imuli    10, @306151(12) ;"2,:8QI"
010761:  204401222005  movs     10, 222005(1)   ;"0D!20%"
010762:  203000014000  moves    0, 14000        ;"08 !@ "
010763:  203000014000  moves    0, 14000        ;"08 !@ "
010764:  221433306155  imuli    10, @306155(13) ;"2,;8QM"
010765:  220016500072  imul     0, 500072(16)   ;"2 .H Z"
010766:  200405602027  move     10, 602027(5)   ;"0$%P07"
010767:  216402272011  movmm    10, 272011(2)   ;"1T"70)"
010770:  200472402352  move     11, @402352(12) ;"0$Z@3J"
010771:  234242361211  div      5, 361211(2)    ;"3BB>*)"
010772:  200411602047  move     10, 602047(11)  ;"0$)P0G"
010773:  216402272011  movmm    10, 272011(2)   ;"1T"70)"
010774:  200472402352  move     11, @402352(12) ;"0$Z@3J"
010775:  234242361211  div      5, 361211(2)    ;"3BB>*)"
010776:  200415602067  move     10, 602067(15)  ;"0$-P0W"
010777:  216402272011  movmm    10, 272011(2)   ;"1T"70)"
011000:  200472402352  move     11, @402352(12) ;"0$Z@3J"
011001:  234242361211  div      5, 361211(2)    ;"3BB>*)"
011002:  200460002300  move     11, @2300       ;"0$P 3 "
011003:  215476266371  movmi    11, @266371(16) ;"1L^6SY"
011004:  200402202011  move     10, 202011(2)   ;"0$"00)"
011005:  215476266371  movmi    11, @266371(16) ;"1L^6SY"
011006:  200201001004  move     4, 1004(1)      ;"0"! ($"
011007:  200100000400  move     2, 400          ;"0!  $ "
011010:  206400632003  movsm    10, 632003      ;"0T S0#"
011011:  210003640017  movn     0, 640017(3)    ;"1 #T /"
011012:  223036714173  imulb    0, @714173(16)  ;"28>YA["
011013:  220357701677  imul     7, 701677(17)   ;"2#OX._"
011014:  206701033404  movsm    16, 33404(1)    ;"0W!#<$"
011015:  210003640017  movn     0, 640017(3)    ;"1 #T /"
011016:  223037714177  imulb    0, @714177(17)  ;"28?YA_"
011017:  220357701677  imul     7, 701677(17)   ;"2#OX._"
011020:  200400002000  move     10, 2000        ;"0$  0 "
011021:  215046264231  movmi    1, 264231(6)    ;"1HF6B9"
011022:  215042264211  movmi    1, 264211(2)    ;"1HB6B)"
011023:  215052264251  movmi    1, 264251(12)   ;"1HJ6BI"
011024:  215056264271  movmi    1, 264271(16)   ;"1HN6BY"
011025:  215066264331  movmi    1, @264331(6)   ;"1HV6C9"
011026:  215076264371  movmi    1, @264371(16)  ;"1H^6CY"
011027:  215072264351  movmi    1, @264351(12)  ;"1HZ6CI"
011030:  215406266031  movmi    10, 266031(6)   ;"1L&6P9"
011031:  215402266011  movmi    10, 266011(2)   ;"1L"6P)"
011032:  215416266071  movmi    10, 266071(16)  ;"1L.6PY"
011033:  215412266051  movmi    10, 266051(12)  ;"1L*6PI"
011034:  215426266131  movmi    10, @266131(6)  ;"1L66Q9"
011035:  215422266111  movmi    10, @266111(2)  ;"1L26Q)"
011036:  215436266171  movmi    10, @266171(16) ;"1L>6QY"
011037:  215432266151  movmi    10, @266151(12) ;"1L:6QI"
011040:  200424002120  move     10, @2120(4)    ;"0$4 10"
011041:  215062264311  movmi    1, @264311(2)   ;"1HR6C)"
011042:  200400402002  move     10, 402002      ;"0$ @0""
011043:  215006264031  movmi    0, 264031(6)    ;"1H&6@9"
011044:  200200401002  move     4, 401002       ;"0" @(""
011045:  202000010000  movem    0, 10000        ;"00 !  "
011046:  200400002000  move     10, 2000        ;"0$  0 "
011047:  216436272171  movmm    10, @272171(16) ;"1T>71Y"
011050:  210402242011  movn     10, 242011(2)   ;"1$"40)"
011051:  200200001000  move     4, 1000         ;"0"  ( "
011052:  200100000400  move     2, 400          ;"0!  $ "
011053:  237746377631  divb     17, 377631(6)   ;"3_F?^9"
011054:  200200201001  move     4, 201001       ;"0" 0(!"
011055:  210702243411  movn     16, 243411(2)   ;"1'"4<)"
011056:  203000014000  moves    0, 14000        ;"08 !@ "
011057:  221045304225  imuli    1, 304225(5)    ;"2(E8B5"
011060:  212402252011  movnm    10, 252011(2)   ;"14"50)"
011061:  216000670003  movmm    0, 670003       ;"1P W #"
011062:  220045300225  imul     1, 300225(5)    ;"2 E8"5"
011063:  200406602033  move     10, 602033(6)   ;"0$&P0;"
011064:  215476266371  movmi    11, @266371(16) ;"1L^6SY"
011065:  200400602003  move     10, 602003      ;"0$ P0#"
011066:  215006264031  movmi    0, 264031(6)    ;"1H&6@9"
011067:  200440002200  move     11, 2200        ;"0$@ 2 "
011070:  215016264071  movmi    0, 264071(16)   ;"1H.6@Y"
011071:  200410002040  move     10, 2040(10)    ;"0$( 0@"
011072:  215012264051  movmi    0, 264051(12)   ;"1H*6@I"
011073:  200404402022  move     10, 402022(4)   ;"0$$@02"
011074:  215476266371  movmi    11, @266371(16) ;"1L^6SY"
011075:  200400402002  move     10, 402002      ;"0$ @0""
011076:  215006264031  movmi    0, 264031(6)    ;"1H&6@9"
011077:  200463602317  move     11, @602317(3)  ;"0$SP3/"
011100:  237742377611  divb     17, 377611(2)   ;"3_B?^)"
011101:  200221001104  move     4, @1104(1)     ;"0"1 )$"
011102:  200415202065  move     10, 202065(15)  ;"0$-00U"
011103:  216402272011  movmm    10, 272011(2)   ;"1T"70)"
011104:  202300011400  movem    6, 11400        ;"03 !, "
011105:  216401672007  movmm    10, 672007(1)   ;"1T!W0'"
011106:  222454712263  imulm    11, 712263(14)  ;"24LY2S"
011107:  220414302061  imul     10, 302061(14)  ;"2$,80Q"
011110:  200405402026  move     10, 402026(5)   ;"0$%@06"
011111:  234042360211  div      1, 360211(2)    ;"3@B>")"
011112:  200000000000  move     0, 0            ;"0     " " \0\0\0\0"
011113:  223344715623  imulb    7, 715623(4)    ;"2;DYN3"
011114:  200477602377  move     11, @602377(17) ;"0$_P3_"
011115:  223057514276  imulb    1, 514276(17)   ;"28OIB^"
011116:  220344501622  imul     7, 501622(4)    ;"2#DH.2"
011117:  203400016000  moves    10, 16000       ;"0< !P "
011120:  200200001000  move     4, 1000         ;"0"  ( "
011121:  200100000400  move     2, 400          ;"0!  $ "
011122:  200400002000  move     10, 2000        ;"0$  0 "
011123:  216402272011  movmm    10, 272011(2)   ;"1T"70)"
011124:  216003670017  movmm    0, 670017(3)    ;"1P#W /"
011125:  223061514306  imulb    1, @514306(1)   ;"28QIC&"
011126:  220344301621  imul     7, 301621(4)    ;"2#D8.1"
011127:  200477602377  move     11, @602377(17) ;"0$_P3_"
011130:  216003670017  movmm    0, 670017(3)    ;"1P#W /"
011131:  223344115620  imulb    7, 115620(4)    ;"2;D)N0" "$n!\033H"
011132:  216402272011  movmm    10, 272011(2)   ;"1T"70)"
011133:  216003670017  movmm    0, 670017(3)    ;"1P#W /"
011134:  223063314315  imulb    1, @314315(3)   ;"28S9C-"
011135:  220343701617  imul     7, 701617(3)    ;"2#CX./"
011136:  203400016000  moves    10, 16000       ;"0< !P "
011137:  200400202001  move     10, 202001      ;"0$ 00!"
011140:  221064304321  imuli    1, @304321(4)   ;"2(T8C1"
011141:  220343501616  imul     7, 501616(3)    ;"2#CH.."
011142:  200477402376  move     11, @402376(17) ;"0$_@3^"
011143:  221343305615  imuli    7, 305615(3)    ;"2+C8N-"
011144:  200404002020  move     10, 2020(4)     ;"0$$ 00"
011145:  221465506326  imuli    11, @506326(5)  ;"2,UHS6" "$3-\fk"
011146:  220343101614  imul     7, 101614(3)    ;"2#C(.,"
011147:  200473602357  move     11, @602357(13) ;"0$[P3O"
011150:  221742707613  imuli    17, 707613(2)   ;"2/BX^+"
011151:  200440002200  move     11, 2200        ;"0$@ 2 "
011152:  222066710333  imulm    1, @710333(6)   ;"20VY#;"
011153:  220342501612  imul     7, 501612(2)    ;"2#BH.*"
011154:  200437602177  move     10, @602177(17) ;"0$?P1_"
011155:  222342311611  imulm    7, 311611(2)    ;"23B9.)"
011156:  203400016000  moves    10, 16000       ;"0< !P "
011157:  200477602377  move     11, @602377(17) ;"0$_P3_"
011160:  216402272011  movmm    10, 272011(2)   ;"1T"70)"
011161:  202077610377  movem    1, @610377(17)  ;"00_Q#_"
011162:  210403642017  movn     10, 642017(3)   ;"1$#T0/"
011163:  223071114344  imulb    1, @114344(11)  ;"28Y)CD"
011164:  220342101610  imul     7, 101610(2)    ;"2#B(.("
011165:  202000010000  movem    0, 10000        ;"00 !  "
011166:  210403642017  movn     10, 642017(3)   ;"1$#T0/"
011167:  223341715607  imulb    7, 715607(1)    ;"2;AYN'"
011170:  203400016000  moves    10, 16000       ;"0< !P "
011171:  202077610377  movem    1, @610377(17)  ;"00_Q#_"
011172:  212402252011  movnm    10, 252011(2)   ;"14"50)"
011173:  210403642017  movn     10, 642017(3)   ;"1$#T0/"
011174:  223073314355  imulb    1, @314355(13)  ;"28[9CM"
011175:  220341501606  imul     7, 501606(1)    ;"2#AH.&"
011176:  202004410022  movem    0, 410022(4)    ;"00$A 2"
011177:  212402252011  movnm    10, 252011(2)   ;"14"50)"
011200:  210403642017  movn     10, 642017(3)   ;"1$#T0/"
011201:  223074514362  imulb    1, @514362(14)  ;"28\ICR"
011202:  220341301605  imul     7, 301605(1)    ;"2#A8.%"
011203:  203400016000  moves    10, 16000       ;"0< !P "
011204:  202077610377  movem    1, @610377(17)  ;"00_Q#_"
011205:  212402252011  movnm    10, 252011(2)   ;"14"50)"
011206:  216400672003  movmm    10, 672003      ;"1T W0#"
011207:  200400002000  move     10, 2000        ;"0$  0 "
011210:  214003660017  movm     0, 660017(3)    ;"1@#V /"
011211:  223076514372  imulb    1, @514372(16)  ;"28^ICZ"
011212:  220341101604  imul     7, 101604(1)    ;"2#A(.$"
011213:  203400016000  moves    10, 16000       ;"0< !P "
011214:  200400002000  move     10, 2000        ;"0$  0 "
011215:  216402272011  movmm    10, 272011(2)   ;"1T"70)"
011216:  216401672007  movmm    10, 672007(1)   ;"1T!W0'"
011217:  214003660017  movm     0, 660017(3)    ;"1@#V /"
011220:  223340715603  imulb    7, 715603       ;"2;@YN#"
011221:  202077610377  movem    1, @610377(17)  ;"00_Q#_"
011222:  210003640017  movn     0, 640017(3)    ;"1 #T /"
011223:  223101114404  imulb    2, 114404(1)    ;"29!)D$"
011224:  220340501602  imul     7, 501602       ;"2#@H.""
011225:  203400016000  moves    10, 16000       ;"0< !P "
011226:  200477602377  move     11, @602377(17) ;"0$_P3_"
011227:  216402272011  movmm    10, 272011(2)   ;"1T"70)"
011230:  216400672003  movmm    10, 672003      ;"1T W0#"
011231:  222502512412  imulm    12, 512412(2)   ;"25"I4*"
011232:  220340301601  imul     7, 301601       ;"2#@8.!"
011233:  200400002000  move     10, 2000        ;"0$  0 "
011234:  222503312415  imulm    12, 312415(3)   ;"25#94-"
011235:  220340101600  imul     7, 101600       ;"2#@(. "
011236:  216400672003  movmm    10, 672003      ;"1T W0#"
011237:  222737713577  imulm    16, @713577(17) ;"27?Y=_"
011240:  200400002000  move     10, 2000        ;"0$  0 "
011241:  222737513576  imulm    16, @513576(17) ;"27?I=^"
011242:  216401672007  movmm    10, 672007(1)   ;"1T!W0'"
011243:  222505112424  imulm    12, 112424(5)   ;"25%)44"
011244:  220337301575  imul     6, @301575(17)  ;"2#?8-]"
011245:  216401672007  movmm    10, 672007(1)   ;"1T!W0'"
011246:  222737113574  imulm    16, @113574(17) ;"27?)=\"
011247:  203400016000  moves    10, 16000       ;"0< !P "
011250:  200400002000  move     10, 2000        ;"0$  0 "
011251:  216402272011  movmm    10, 272011(2)   ;"1T"70)"
011252:  214400662003  movm     10, 662003      ;"1D V0#"
011253:  216406272031  movmm    10, 272031(6)   ;"1T&709"
011254:  214007660037  movm     0, 660037(7)    ;"1@'V ?"
011255:  223107514436  imulb    2, 514436(7)    ;"29'ID>"
011256:  220336701573  imul     6, @701573(16)  ;"2#>X-["
011257:  214404662023  movm     10, 662023(4)   ;"1D$V03"
011260:  216412272051  movmm    10, 272051(12)  ;"1T*70I"
011261:  214013660057  movm     0, 660057(13)   ;"1@+V O"
011262:  223110714443  imulb    2, 714443(10)   ;"29(YDC"
011263:  220336501572  imul     6, @501572(16)  ;"2#>H-Z"
011264:  214410662043  movm     10, 662043(10)  ;"1D(V0C"
011265:  216416272071  movmm    10, 272071(16)  ;"1T.70Y"
011266:  214017660077  movm     0, 660077(17)   ;"1@/V _"
011267:  223112114450  imulb    2, 114450(12)   ;"29*)DH"
011270:  220336301571  imul     6, @301571(16)  ;"2#>8-Y"
011271:  214414662063  movm     10, 662063(14)  ;"1D,V0S"
011272:  216422272111  movmm    10, @272111(2)  ;"1T271)"
011273:  214023660117  movm     0, @660117(3)   ;"1@3V!/"
011274:  223113314455  imulb    2, 314455(13)   ;"29+9DM"
011275:  220336101570  imul     6, @101570(16)  ;"2#>(-X"
011276:  214420662103  movm     10, @662103     ;"1D0V1#"
011277:  216426272131  movmm    10, @272131(6)  ;"1T6719"
011300:  214027660137  movm     0, @660137(7)   ;"1@7V!?"
011301:  223114514462  imulb    2, 514462(14)   ;"29,IDR"
011302:  220335701567  imul     6, @701567(15)  ;"2#=X-W"
011303:  214424662123  movm     10, @662123(4)  ;"1D4V13"
011304:  216432272151  movmm    10, @272151(12) ;"1T:71I"
011305:  214033660157  movm     0, @660157(13)  ;"1@;V!O"
011306:  223115714467  imulb    2, 714467(15)   ;"29-YDW"
011307:  220335501566  imul     6, @501566(15)  ;"2#=H-V"
011310:  202001410006  movem    0, 410006(1)    ;"00!A &"
011311:  210033640157  movn     0, @640157(13)  ;"1 ;T!O"
011312:  223116714473  imulb    2, 714473(16)   ;"29.YD["
011313:  220335301565  imul     6, @301565(15)  ;"2#=8-U"
011314:  216031670147  movmm    0, @670147(11)  ;"1P9W!G"
011315:  210027640137  movn     0, @640137(7)   ;"1 7T!?"
011316:  223117714477  imulb    2, 714477(17)   ;"29/YD_"
011317:  220335101564  imul     6, @101564(15)  ;"2#=(-T"
011320:  216025670127  movmm    0, @670127(5)   ;"1P5W!7"
011321:  210023640117  movn     0, @640117(3)   ;"1 3T!/"
011322:  223120714503  imulb    2, @714503      ;"290YE#"
011323:  220334701563  imul     6, @701563(14)  ;"2#<X-S"
011324:  216021670107  movmm    0, @670107(1)   ;"1P1W!'"
011325:  210017640077  movn     0, 640077(17)   ;"1 /T _"
011326:  223121714507  imulb    2, @714507(1)   ;"291YE'"
011327:  220334501562  imul     6, @501562(14)  ;"2#<H-R"
011330:  216015670067  movmm    0, 670067(15)   ;"1P-W W"
011331:  210013640057  movn     0, 640057(13)   ;"1 +T O"
011332:  223122714513  imulb    2, @714513(2)   ;"292YE+"
011333:  220334301561  imul     6, @301561(14)  ;"2#<8-Q"
011334:  216011670047  movmm    0, 670047(11)   ;"1P)W G"
011335:  210007640037  movn     0, 640037(7)    ;"1 'T ?"
011336:  223123714517  imulb    2, @714517(3)   ;"293YE/"
011337:  220334101560  imul     6, @101560(14)  ;"2#<(-P"
011340:  216005670027  movmm    0, 670027(5)    ;"1P%W 7"
011341:  210003640017  movn     0, 640017(3)    ;"1 #T /"
011342:  223124714523  imulb    2, @714523(4)   ;"294YE3"
011343:  220333701557  imul     6, @701557(13)  ;"2#;X-O"
011344:  203400016000  moves    10, 16000       ;"0< !P "
011345:  200477402376  move     11, @402376(17) ;"0$_@3^"
011346:  216416272071  movmm    10, 272071(16)  ;"1T.70Y"
011347:  216414672063  movmm    10, 672063(14)  ;"1T,W0S"
011350:  214415062064  movm     10, 62064(15)   ;"1D-&0T"
011351:  223126514532  imulb    2, @514532(6)   ;"296IE:"
011352:  220333501556  imul     6, @501556(13)  ;"2#;H-N"
011353:  216414672063  movmm    10, 672063(14)  ;"1T,W0S"
011354:  216415072064  movmm    10, 72064(15)   ;"1T-'0T"
011355:  200400202001  move     10, 202001      ;"0$ 00!"
011356:  214017660077  movm     0, 660077(17)   ;"1@/V _"
011357:  223130114540  imulb    2, @114540(10)  ;"298)E@"
011360:  220333301555  imul     6, @301555(13)  ;"2#;8-M"
011361:  203400016000  moves    10, 16000       ;"0< !P "
011362:  200452402252  move     11, 402252(12)  ;"0$J@2J"
011363:  216426272131  movmm    10, @272131(6)  ;"1T6719"
011364:  216425272125  movmm    10, @272125(5)  ;"1T5715"
011365:  202025010124  movem    0, @10124(5)    ;"005!!4"
011366:  210027640137  movn     0, @640137(7)   ;"1 7T!?"
011367:  223132114550  imulb    2, @114550(12)  ;"29:)EH"
011370:  220333101554  imul     6, @101554(13)  ;"2#;(-L"
011371:  202025210125  movem    0, @210125(5)   ;"0051!5"
011372:  212426252131  movnm    10, @252131(6)  ;"146519"
011373:  216425272125  movmm    10, @272125(5)  ;"1T5715"
011374:  214027660137  movm     0, @660137(7)   ;"1@7V!?"
011375:  223133514556  imulb    2, @514556(13)  ;"29;IEN"
011376:  220332701553  imul     6, @701553(12)  ;"2#:X-K"
011377:  203400016000  moves    10, 16000       ;"0< !P "
011400:  202066610333  movem    1, @610333(6)   ;"00VQ#;"
011401:  212426252131  movnm    10, @252131(6)  ;"146519"
011402:  200422202111  move     10, @202111(2)  ;"0$201)"
011403:  216424072120  movmm    10, @72120(4)   ;"1T4'10" "#Q t("
011404:  222535312565  imulm    12, @312565(15) ;"25=95U"
011405:  220332501552  imul     6, @501552(12)  ;"2#:H-J"
011406:  202011010044  movem    0, 10044(11)    ;"00)! D"
011407:  210027640137  movn     0, @640137(7)   ;"1 7T!?"
011410:  223136314571  imulb    2, @314571(16)  ;"29>9EY"
011411:  220332301551  imul     6, @301551(12)  ;"2#:8-I"
011412:  203400016000  moves    10, 16000       ;"0< !P "
011413:  200477602377  move     11, @602377(17) ;"0$_P3_"
011414:  216412272051  movmm    10, 272051(12)  ;"1T*70I"
011415:  216410672043  movmm    10, 672043(10)  ;"1T(W0C"
011416:  200466602333  move     11, @602333(6)  ;"0$VP3;"
011417:  216410272041  movmm    10, 272041(10)  ;"1T(70A"
011420:  200467002334  move     11, @2334(7)    ;"0$W 3<"
011421:  214013660057  movm     0, 660057(13)   ;"1@+V O"
011422:  223140714603  imulb    3, 714603       ;"29@YF#"
011423:  220332101550  imul     6, @101550(12)  ;"2#:(-H"
011424:  203400016000  moves    10, 16000       ;"0< !P "
011425:  200452402252  move     11, 402252(12)  ;"0$J@2J"
011426:  203000014000  moves    0, 14000        ;"08 !@ "
011427:  202025210125  movem    0, @210125(5)   ;"0051!5"
011430:  212432252151  movnm    10, @252151(12) ;"14:51I"
011431:  214033660157  movm     0, @660157(13)  ;"1@;V!O"
011432:  223142714613  imulb    3, 714613(2)    ;"29BYF+"
011433:  220331701547  imul     6, @701547(11)  ;"2#9X-G"
011434:  203000014000  moves    0, 14000        ;"08 !@ "
011435:  202012410052  movem    0, 410052(12)   ;"00*A J"
011436:  212432252151  movnm    10, @252151(12) ;"14:51I"
011437:  214033660157  movm     0, @660157(13)  ;"1@;V!O"
011440:  223144314621  imulb    3, 314621(4)    ;"29D9F1"
011441:  220331501546  imul     6, @501546(11)  ;"2#9H-F"
011442:  203400016000  moves    10, 16000       ;"0< !P "
011443:  200452402252  move     11, 402252(12)  ;"0$J@2J"
011444:  216412272051  movmm    10, 272051(12)  ;"1T*70I"
011445:  200431402146  move     10, @402146(11) ;"0$9@1F"
011446:  216012670053  movmm    0, 670053(12)   ;"1P*W K"
011447:  212416252071  movnm    10, 252071(16)  ;"14.50Y"
011450:  202010410042  movem    0, 410042(10)   ;"00(A B"
011451:  210017640077  movn     0, 640077(17)   ;"1 /T _"
011452:  223146714633  imulb    3, 714633(6)    ;"29FYF;"
011453:  220331301545  imul     6, @301545(11)  ;"2#98-E"
011454:  216013070054  movmm    0, 70054(13)    ;"1P+' L"
011455:  212416252071  movnm    10, 252071(16)  ;"14.50Y"
011456:  202073410356  movem    1, @410356(13)  ;"00[A#N"
011457:  210017640077  movn     0, 640077(17)   ;"1 /T _"
011460:  223150314641  imulb    3, 314641(10)   ;"29H9FA"
011461:  220331101544  imul     6, @101544(11)  ;"2#9(-D"
011462:  216012470052  movmm    0, 470052(12)   ;"1P*G J"
011463:  212416252071  movnm    10, 252071(16)  ;"14.50Y"
011464:  202056610273  movem    1, 610273(16)   ;"00NQ"["
011465:  210017640077  movn     0, 640077(17)   ;"1 /T _"
011466:  223151714647  imulb    3, 714647(11)   ;"29IYFG"
011467:  220330701543  imul     6, @701543(10)  ;"2#8X-C"
011470:  216013270055  movmm    0, 270055(13)   ;"1P+7 M"
011471:  212416252071  movnm    10, 252071(16)  ;"14.50Y"
011472:  202063010314  movem    1, @10314(3)    ;"00S!#,"
011473:  210017640077  movn     0, 640077(17)   ;"1 /T _"
011474:  223153314655  imulb    3, 314655(13)   ;"29K9FM"
011475:  220330501542  imul     6, @501542(10)  ;"2#8H-B"
011476:  203400016000  moves    10, 16000       ;"0< !P "
011477:  200400002000  move     10, 2000        ;"0$  0 "
011500:  216402272011  movmm    10, 272011(2)   ;"1T"70)"
011501:  223555516666  imulb    13, 516666(15)  ;"2=MIVV"
011502:  200477602377  move     11, @602377(17) ;"0$_P3_"
011503:  214003660017  movm     0, 660017(3)    ;"1@#V /"
011504:  223155314665  imulb    3, 314665(15)   ;"29M9FU"
011505:  220330301541  imul     6, @301541(10)  ;"2#88-A"
011506:  203400016000  moves    10, 16000       ;"0< !P "
011507:  200400002000  move     10, 2000        ;"0$  0 "
011510:  214003660017  movm     0, 660017(3)    ;"1@#V /"
011511:  223156514672  imulb    3, 514672(16)   ;"29NIFZ"
011512:  220330101540  imul     6, @101540(10)  ;"2#8(-@"
011513:  200477602377  move     11, @602377(17) ;"0$_P3_"
011514:  216402272011  movmm    10, 272011(2)   ;"1T"70)"
011515:  203400016000  moves    10, 16000       ;"0< !P "
011516:  220327701537  imul     6, @701537(7)   ;"2#7X-?"
011517:  200400002000  move     10, 2000        ;"0$  0 "
011520:  224403522016  mul      10, 522016(3)   ;"2D#J0."
011521:  203000014000  moves    0, 14000        ;"08 !@ "
011522:  221727507536  imuli    16, @507536(7)  ;"2/7H]>"
011523:  200477602377  move     11, @602377(17) ;"0$_P3_"
011524:  224403522016  mul      10, 522016(3)   ;"2D#J0."
011525:  203000014000  moves    0, 14000        ;"08 !@ "
011526:  221561706707  imuli    13, @706707(1)  ;"2-QXW'"
011527:  220327301535  imul     6, @301535(7)   ;"2#78-="
011530:  200400002000  move     10, 2000        ;"0$  0 "
011531:  216402272011  movmm    10, 272011(2)   ;"1T"70)"
011532:  214000660003  movm     0, 660003       ;"1@ V #"
011533:  224403522016  mul      10, 522016(3)   ;"2D#J0."
011534:  221727107534  imuli    16, @107534(7)  ;"2/7(]<"
011535:  200477602377  move     11, @602377(17) ;"0$_P3_"
011536:  216402272011  movmm    10, 272011(2)   ;"1T"70)"
011537:  214000660003  movm     0, 660003       ;"1@ V #"
011540:  224403522016  mul      10, 522016(3)   ;"2D#J0."
011541:  221564506722  imuli    13, @506722(4)  ;"2-THW2" "$7%\ri"
011542:  220326701533  imul     6, @701533(6)   ;"2#6X-;"
011543:  203400016000  moves    10, 16000       ;"0< !P "
011544:  200400002000  move     10, 2000        ;"0$  0 "
011545:  215476266371  movmi    11, @266371(16) ;"1L^6SY"
011546:  226413732057  mulm     10, 732057(13)  ;"2T+[0O"
011547:  214013660057  movm     0, 660057(13)   ;"1@+V O"
011550:  223166314731  imulb    3, @314731(6)   ;"29V9G9"
011551:  220326501532  imul     6, @501532(6)   ;"2#6H-:"
011552:  200417602077  move     10, 602077(17)  ;"0$/P0_"
011553:  215476266371  movmi    11, @266371(16) ;"1L^6SY"
011554:  226413732057  mulm     10, 732057(13)  ;"2T+[0O"
011555:  214013660057  movm     0, 660057(13)   ;"1@+V O"
011556:  223167714737  imulb    3, @714737(7)   ;"29WYG?"
011557:  220326301531  imul     6, @301531(6)   ;"2#68-9"
011560:  203400016000  moves    10, 16000       ;"0< !P "
011561:  200404402022  move     10, 402022(4)   ;"0$$@02"
011562:  215476266371  movmi    11, @266371(16) ;"1L^6SY"
011563:  200452402252  move     11, 402252(12)  ;"0$J@2J"
011564:  215026264131  movmi    0, @264131(6)   ;"1H66A9"
011565:  205021224105  movsi    0, @224105(1)   ;"0H12A%"
011566:  206431032144  movsm    10, @32144(11)  ;"0T9#1D" "!QH42"
011567:  214033660157  movm     0, @660157(13)  ;"1@;V!O"
011570:  223172314751  imulb    3, @314751(12)  ;"29Z9GI"
011571:  220326101530  imul     6, @101530(6)   ;"2#6(-8"
011572:  203400016000  moves    10, 16000       ;"0< !P "
011573:  200404402022  move     10, 402022(4)   ;"0$$@02"
011574:  215476266371  movmi    11, @266371(16) ;"1L^6SY"
011575:  200425202125  move     10, @202125(5)  ;"0$5015"
011576:  215022264111  movmi    0, @264111(2)   ;"1H26A)"
011577:  206401032004  movsm    10, 32004(1)    ;"0T!#0$"
011600:  214003660017  movm     0, 660017(3)    ;"1@#V /"
011601:  223174514762  imulb    3, @514762(14)  ;"29\IGR"
011602:  220325701527  imul     6, @701527(5)   ;"2#5X-7"
011603:  203400016000  moves    10, 16000       ;"0< !P "
011604:  200406602033  move     10, 602033(6)   ;"0$&P0;"
011605:  215476266371  movmi    11, @266371(16) ;"1L^6SY"
011606:  206000230001  movsm    0, 230001       ;"0P 3 !"
011607:  212402252011  movnm    10, 252011(2)   ;"14"50)"
011610:  200400202001  move     10, 202001      ;"0$ 00!"
011611:  214403062014  movm     10, 62014(3)    ;"1D#&0,"
011612:  215006264031  movmi    0, 264031(6)    ;"1H&6@9"
011613:  200403602017  move     10, 602017(3)   ;"0$#P0/"
011614:  215026264131  movmi    0, @264131(6)   ;"1H66A9"
011615:  206401232005  movsm    10, 232005(1)   ;"0T!30%"
011616:  211006244031  movni    0, 244031(6)    ;"1(&4@9"
011617:  216402672013  movmm    10, 672013(2)   ;"1T"W0+"
011620:  214003660017  movm     0, 660017(3)    ;"1@#V /"
011621:  223200515002  imulb    4, 515002       ;"2: IH""
011622:  220325501526  imul     6, @501526(5)   ;"2#5H-6"
011623:  203400016000  moves    10, 16000       ;"0< !P "
011624:  200200201001  move     4, 201001       ;"0" 0(!"
011625:  212402252011  movnm    10, 252011(2)   ;"14"50)"
011626:  200200001000  move     4, 1000         ;"0"  ( "
011627:  214001660007  movm     0, 660007(1)    ;"1@!V '"
011630:  223226715133  imulb    4, @715133(6)   ;"2:6YI;"
011631:  200400602003  move     10, 602003      ;"0$ P0#"
011632:  215006264031  movmi    0, 264031(6)    ;"1H&6@9"
011633:  223755117664  imulb    17, 117664(15)  ;"2?M)^T"
011634:  200440002200  move     11, 2200        ;"0$@ 2 "
011635:  215016264071  movmi    0, 264071(16)   ;"1H.6@Y"
011636:  200400002000  move     10, 2000        ;"0$  0 "
011637:  215046264231  movmi    1, 264231(6)    ;"1HF6B9"
011640:  200404002020  move     10, 2020(4)     ;"0$$ 00"
011641:  215012264051  movmi    0, 264051(12)   ;"1H*6@I"
011642:  200406002030  move     10, 2030(6)     ;"0$& 08"
011643:  215012264051  movmi    0, 264051(12)   ;"1H*6@I"
011644:  200406402032  move     10, 402032(6)   ;"0$&@0:"
011645:  215012264051  movmi    0, 264051(12)   ;"1H*6@I"
011646:  200440002200  move     11, 2200        ;"0$@ 2 "
011647:  216406272031  movmm    10, 272031(6)   ;"1T&709"
011650:  204401022004  movs     10, 22004(1)    ;"0D!"0$"
011651:  222207111034  imulm    4, 111034(7)    ;"22')(<"
011652:  216405672027  movmm    10, 672027(5)   ;"1T%W07"
011653:  223325315525  imulb    6, @315525(5)   ;"2;59M5"
011654:  220205701027  imul     4, 701027(5)    ;"2"%X(7"
011655:  200402402012  move     10, 402012(2)   ;"0$"@0*"
011656:  215012264051  movmi    0, 264051(12)   ;"1H*6@I"
011657:  200440002200  move     11, 2200        ;"0$@ 2 "
011660:  216406272031  movmm    10, 272031(6)   ;"1T&709"
011661:  204401022004  movs     10, 22004(1)    ;"0D!"0$"
011662:  221611307045  imuli    14, 307045(11)  ;"2.)8XE"
011663:  216405672027  movmm    10, 672027(5)   ;"1T%W07"
011664:  223325115524  imulb    6, @115524(5)   ;"2;5)M4" "$m)\033*"
011665:  220210101040  imul     4, 101040(10)   ;"2"(((@"
011666:  206401632007  movsm    10, 632007(1)   ;"0T!S0'"
011667:  202000010000  movem    0, 10000        ;"00 !  "
011670:  210003640017  movn     0, 640017(3)    ;"1 #T /"
011671:  223212515052  imulb    4, 515052(12)   ;"2:*IHJ"
011672:  220324701523  imul     6, @701523(4)   ;"2#4X-3"
011673:  204400022000  movs     10, 22000       ;"0D "0 "
011674:  203000014000  moves    0, 14000        ;"08 !@ "
011675:  221324505522  imuli    6, @505522(4)   ;"2+4HM2"
011676:  200400002000  move     10, 2000        ;"0$  0 "
011677:  215046264231  movmi    1, 264231(6)    ;"1HF6B9"
011700:  200402602013  move     10, 602013(2)   ;"0$"P0+"
011701:  215012264051  movmi    0, 264051(12)   ;"1H*6@I"
011702:  200440002200  move     11, 2200        ;"0$@ 2 "
011703:  216406272031  movmm    10, 272031(6)   ;"1T&709"
011704:  204401022004  movs     10, 22004(1)    ;"0D!"0$"
011705:  221615507066  imuli    14, 507066(15)  ;"2.-HXV"
011706:  220216301071  imul     4, 301071(16)   ;"2".8(Y"
011707:  216405672027  movmm    10, 672027(5)   ;"1T%W07"
011710:  223324315521  imulb    6, @315521(4)   ;"2;49M1"
011711:  220214701063  imul     4, 701063(14)   ;"2",X(S"
011712:  200402402012  move     10, 402012(2)   ;"0$"@0*"
011713:  215012264051  movmi    0, 264051(12)   ;"1H*6@I"
011714:  200440002200  move     11, 2200        ;"0$@ 2 "
011715:  216406272031  movmm    10, 272031(6)   ;"1T&709"
011716:  204401022004  movs     10, 22004(1)    ;"0D!"0$"
011717:  221220505102  imuli    4, @505102      ;"2*0HI""
011720:  216405672027  movmm    10, 672027(5)   ;"1T%W07"
011721:  223324115520  imulb    6, @115520(4)   ;"2;4)M0" "$m!\033("
011722:  220217301075  imul     4, 301075(17)   ;"2"/8(]"
011723:  200442402212  move     11, 402212(2)   ;"0$B@2*"
011724:  215012264051  movmi    0, 264051(12)   ;"1H*6@I"
011725:  200440002200  move     11, 2200        ;"0$@ 2 "
011726:  216406272031  movmm    10, 272031(6)   ;"1T&709"
011727:  204401022004  movs     10, 22004(1)    ;"0D!"0$"
011730:  221222305111  imuli    4, @305111(2)   ;"2*28I)"
011731:  220223101114  imul     4, @101114(3)   ;"2"3(),"
011732:  216405672027  movmm    10, 672027(5)   ;"1T%W07"
011733:  223323715517  imulb    6, @715517(3)   ;"2;3YM/"
011734:  220221501106  imul     4, @501106(1)   ;"2"1H)&"
011735:  200402402012  move     10, 402012(2)   ;"0$"@0*"
011736:  215012264051  movmi    0, 264051(12)   ;"1H*6@I"
011737:  200400402002  move     10, 402002      ;"0$ @0""
011740:  215012264051  movmi    0, 264051(12)   ;"1H*6@I"
011741:  200400002000  move     10, 2000        ;"0$  0 "
011742:  215012264051  movmi    0, 264051(12)   ;"1H*6@I"
011743:  200440002200  move     11, 2200        ;"0$@ 2 "
011744:  216406272031  movmm    10, 272031(6)   ;"1T&709"
011745:  202000010000  movem    0, 10000        ;"00 !  "
011746:  206401032004  movsm    10, 32004(1)    ;"0T!#0$"
011747:  210003640017  movn     0, 640017(3)    ;"1 #T /"
011750:  223226715133  imulb    4, @715133(6)   ;"2:6YI;"
011751:  216405672027  movmm    10, 672027(5)   ;"1T%W07"
011752:  223323515516  imulb    6, @515516(3)   ;"2;3IM."
011753:  220225301125  imul     4, @301125(5)   ;"2"58)5"
011754:  203400016000  moves    10, 16000       ;"0< !P "
011755:  200200201001  move     4, 201001       ;"0" 0(!"
011756:  212402252011  movnm    10, 252011(2)   ;"14"50)"
011757:  200200001000  move     4, 1000         ;"0"  ( "
011760:  214001660007  movm     0, 660007(1)    ;"1@!V '"
011761:  223274315361  imulb    5, @315361(14)  ;"2:\9KQ"
011762:  200405602027  move     10, 602027(5)   ;"0$%P07"
011763:  216412272051  movmm    10, 272051(12)  ;"1T*70I"
011764:  200440002200  move     11, 2200        ;"0$@ 2 "
011765:  215016264071  movmi    0, 264071(16)   ;"1H.6@Y"
011766:  200400002000  move     10, 2000        ;"0$  0 "
011767:  215046264231  movmi    1, 264231(6)    ;"1HF6B9"
011770:  200200001000  move     4, 1000         ;"0"  ( "
011771:  200404002020  move     10, 2020(4)     ;"0$$ 00"
011772:  215012264051  movmi    0, 264051(12)   ;"1H*6@I"
011773:  200406002030  move     10, 2030(6)     ;"0$& 08"
011774:  215012264051  movmi    0, 264051(12)   ;"1H*6@I"
011775:  200406402032  move     10, 402032(6)   ;"0$&@0:"
011776:  215012264051  movmi    0, 264051(12)   ;"1H*6@I"
011777:  200440002200  move     11, 2200        ;"0$@ 2 "
012000:  216406272031  movmm    10, 272031(6)   ;"1T&709"
012001:  204401022004  movs     10, 22004(1)    ;"0D!"0$"
012002:  222235311165  imulm    4, @311165(15)  ;"22=9)U"
012003:  216405672027  movmm    10, 672027(5)   ;"1T%W07"
012004:  223323315515  imulb    6, @315515(3)   ;"2;39M-"
012005:  220234101160  imul     4, @101160(14)  ;"2"<()P"
012006:  200402402012  move     10, 402012(2)   ;"0$"@0*"
012007:  215012264051  movmi    0, 264051(12)   ;"1H*6@I"
012010:  200440002200  move     11, 2200        ;"0$@ 2 "
012011:  216406272031  movmm    10, 272031(6)   ;"1T&709"
012012:  204401022004  movs     10, 22004(1)    ;"0D!"0$"
012013:  221637507176  imuli    14, @507176(17) ;"2.?HY^"
012014:  216405672027  movmm    10, 672027(5)   ;"1T%W07"
012015:  223323115514  imulb    6, @115514(3)   ;"2;3)M,"
012016:  220236301171  imul     4, @301171(16)  ;"2">8)Y"
012017:  206401632007  movsm    10, 632007(1)   ;"0T!S0'"
012020:  202000010000  movem    0, 10000        ;"00 !  "
012021:  210003640017  movn     0, 640017(3)    ;"1 #T /"
012022:  223240715203  imulb    5, 715203       ;"2:@YJ#"
012023:  220322701513  imul     6, @701513(2)   ;"2#2X-+"
012024:  202000010000  movem    0, 10000        ;"00 !  "
012025:  204400022000  movs     10, 22000       ;"0D "0 "
012026:  203000014000  moves    0, 14000        ;"08 !@ "
012027:  221322505512  imuli    6, @505512(2)   ;"2+2HM*"
012030:  200401002004  move     10, 2004(1)     ;"0$! 0$"
012031:  215046264231  movmi    1, 264231(6)    ;"1HF6B9"
012032:  200402602013  move     10, 602013(2)   ;"0$"P0+"
012033:  215012264051  movmi    0, 264051(12)   ;"1H*6@I"
012034:  200440002200  move     11, 2200        ;"0$@ 2 "
012035:  216406272031  movmm    10, 272031(6)   ;"1T&709"
012036:  204401022004  movs     10, 22004(1)    ;"0D!"0$"
012037:  221644107220  imuli    15, 107220(4)   ;"2.D(Z0"
012040:  220244701223  imul     5, 701223(4)    ;"2"DX*3"
012041:  216405672027  movmm    10, 672027(5)   ;"1T%W07"
012042:  223322315511  imulb    6, @315511(2)   ;"2;29M)"
012043:  220243301215  imul     5, 301215(3)    ;"2"C8*-"
012044:  200402402012  move     10, 402012(2)   ;"0$"@0*"
012045:  215012264051  movmi    0, 264051(12)   ;"1H*6@I"
012046:  200440002200  move     11, 2200        ;"0$@ 2 "
012047:  216406272031  movmm    10, 272031(6)   ;"1T&709"
012050:  204401022004  movs     10, 22004(1)    ;"0D!"0$"
012051:  221247105234  imuli    5, 105234(7)    ;"2*G(J<" "$*9\nN"
012052:  216405672027  movmm    10, 672027(5)   ;"1T%W07"
012053:  223322115510  imulb    6, @115510(2)   ;"2;2)M("
012054:  220245701227  imul     5, 701227(5)    ;"2"EX*7"
012055:  202000010000  movem    0, 10000        ;"00 !  "
012056:  206401632007  movsm    10, 632007(1)   ;"0T!S0'"
012057:  210003640017  movn     0, 640017(3)    ;"1 #T /"
012060:  223250315241  imulb    5, 315241(10)   ;"2:H9JA"
012061:  220321701507  imul     6, @701507(1)   ;"2#1X-'"
012062:  204400022000  movs     10, 22000       ;"0D "0 "
012063:  203000014000  moves    0, 14000        ;"08 !@ "
012064:  221321505506  imuli    6, @505506(1)   ;"2+1HM&"
012065:  200442402212  move     11, 402212(2)   ;"0$B@2*"
012066:  215012264051  movmi    0, 264051(12)   ;"1H*6@I"
012067:  200440002200  move     11, 2200        ;"0$@ 2 "
012070:  216406272031  movmm    10, 272031(6)   ;"1T&709"
012071:  204401022004  movs     10, 22004(1)    ;"0D!"0$"
012072:  221252705253  imuli    5, 705253(12)   ;"2*JXJK"
012073:  220253501256  imul     5, 501256(13)   ;"2"KH*N"
012074:  216405672027  movmm    10, 672027(5)   ;"1T%W07"
012075:  223321315505  imulb    6, @315505(1)   ;"2;19M%"
012076:  220252101250  imul     5, 101250(12)   ;"2"J(*H"
012077:  200402402012  move     10, 402012(2)   ;"0$"@0*"
012100:  215012264051  movmi    0, 264051(12)   ;"1H*6@I"
012101:  200440002200  move     11, 2200        ;"0$@ 2 "
012102:  216406272031  movmm    10, 272031(6)   ;"1T&709"
012103:  204401222005  movs     10, 222005(1)   ;"0D!20%"
012104:  222255711267  imulm    5, 711267(15)   ;"22MY*W"
012105:  216405672027  movmm    10, 672027(5)   ;"1T%W07"
012106:  223321115504  imulb    6, @115504(1)   ;"2;1)M$" "$m\t\033\""
012107:  220254501262  imul     5, 501262(14)   ;"2"LH*R"
012110:  206401632007  movsm    10, 632007(1)   ;"0T!S0'"
012111:  204400022000  movs     10, 22000       ;"0D "0 "
012112:  203000014000  moves    0, 14000        ;"08 !@ "
012113:  221320705503  imuli    6, @705503      ;"2+0XM#"
012114:  200442402212  move     11, 402212(2)   ;"0$B@2*"
012115:  215012264051  movmi    0, 264051(12)   ;"1H*6@I"
012116:  200440002200  move     11, 2200        ;"0$@ 2 "
012117:  216406272031  movmm    10, 272031(6)   ;"1T&709"
012120:  204401222005  movs     10, 222005(1)   ;"0D!20%"
012121:  222260511302  imulm    5, @511302      ;"22PI+""
012122:  220261301305  imul     5, @301305(1)   ;"2"Q8+%"
012123:  216405672027  movmm    10, 672027(5)   ;"1T%W07"
012124:  223320515502  imulb    6, @515502      ;"2;0IM""
012125:  220257701277  imul     5, 701277(17)   ;"2"OX*_"
012126:  200402402012  move     10, 402012(2)   ;"0$"@0*"
012127:  215012264051  movmi    0, 264051(12)   ;"1H*6@I"
012130:  216411672047  movmm    10, 672047(11)  ;"1T)W0G"
012131:  223264315321  imulb    5, @315321(4)   ;"2:T9K1"
012132:  200440002200  move     11, 2200        ;"0$@ 2 "
012133:  216406272031  movmm    10, 272031(6)   ;"1T&709"
012134:  204401222005  movs     10, 222005(1)   ;"0D!20%"
012135:  222264111320  imulm    5, @111320(4)   ;"22T)+0"
012136:  216405672027  movmm    10, 672027(5)   ;"1T%W07"
012137:  223320315501  imulb    6, @315501      ;"2;09M!"
012140:  220262701313  imul     5, @701313(2)   ;"2"RX++"
012141:  220255701267  imul     5, 701267(15)   ;"2"MX*W"
012142:  200440002200  move     11, 2200        ;"0$@ 2 "
012143:  216406272031  movmm    10, 272031(6)   ;"1T&709"
012144:  204401022004  movs     10, 22004(1)    ;"0D!"0$"
012145:  221266105330  imuli    5, @105330(6)   ;"2*V(K8" "$+1\nl"
012146:  216405672027  movmm    10, 672027(5)   ;"1T%W07"
012147:  223320115500  imulb    6, @115500      ;"2;0)M "
012150:  220264701323  imul     5, @701323(4)   ;"2"TX+3"
012151:  200442402212  move     11, 402212(2)   ;"0$B@2*"
012152:  215012264051  movmi    0, 264051(12)   ;"1H*6@I"
012153:  200440002200  move     11, 2200        ;"0$@ 2 "
012154:  216406272031  movmm    10, 272031(6)   ;"1T&709"
012155:  204401022004  movs     10, 22004(1)    ;"0D!"0$"
012156:  221267705337  imuli    5, @705337(7)   ;"2*WXK?"
012157:  220270501342  imul     5, @501342(10)  ;"2"XH+B"
012160:  216405672027  movmm    10, 672027(5)   ;"1T%W07"
012161:  223317715477  imulb    6, 715477(17)   ;"2;/YL_"
012162:  220267101334  imul     5, @101334(7)   ;"2"W(+<"
012163:  200402402012  move     10, 402012(2)   ;"0$"@0*"
012164:  215012264051  movmi    0, 264051(12)   ;"1H*6@I"
012165:  200400402002  move     10, 402002      ;"0$ @0""
012166:  215012264051  movmi    0, 264051(12)   ;"1H*6@I"
012167:  200400002000  move     10, 2000        ;"0$  0 "
012170:  215012264051  movmi    0, 264051(12)   ;"1H*6@I"
012171:  200440002200  move     11, 2200        ;"0$@ 2 "
012172:  216406272031  movmm    10, 272031(6)   ;"1T&709"
012173:  200400002000  move     10, 2000        ;"0$  0 "
012174:  206401032004  movsm    10, 32004(1)    ;"0T!#0$"
012175:  214003660017  movm     0, 660017(3)    ;"1@#V /"
012176:  223274315361  imulb    5, @315361(14)  ;"2:\9KQ"
012177:  216405672027  movmm    10, 672027(5)   ;"1T%W07"
012200:  223317515476  imulb    6, 515476(17)   ;"2;/IL^"
012201:  220272701353  imul     5, @701353(12)  ;"2"ZX+K"
012202:  203400016000  moves    10, 16000       ;"0< !P "
012221:  220056300271  imul     1, 300271(16)   ;"2 N8"Y"
012222:  220057700277  imul     1, 700277(17)   ;"2 OX"_"
012223:  220063500316  imul     1, @500316(3)   ;"2 SH#."
012224:  220067500336  imul     1, @500336(7)   ;"2 WH#>"
012225:  220072100350  imul     1, @100350(12)  ;"2 Z(#H"
012226:  220074700363  imul     1, @700363(14)  ;"2 \X#S"
012227:  220076700373  imul     1, @700373(16)  ;"2 ^X#["
012230:  220101300405  imul     2, 300405(1)    ;"2!!8$%"
012231:  220105700427  imul     2, 700427(5)    ;"2!%X$7"
012232:  220125100524  imul     2, @100524(5)   ;"2!5(%4"
012233:  220130300541  imul     2, @300541(10)  ;"2!88%A"
012234:  220133700557  imul     2, @700557(13)  ;"2!;X%O"
012235:  220136500572  imul     2, @500572(16)  ;"2!>H%Z"
012236:  220141100604  imul     3, 100604(1)    ;"2!A(&$"
012237:  220144500622  imul     3, 500622(4)    ;"2!DH&2"
012240:  220153500656  imul     3, 500656(13)   ;"2!KH&N"
012241:  220157500676  imul     3, 500676(17)   ;"2!OH&^"
012242:  220164700723  imul     3, @700723(4)   ;"2!TX'3"
012243:  220170100740  imul     3, @100740(10)  ;"2!X('@"
012244:  220172500752  imul     3, @500752(12)  ;"2!ZH'J"
012245:  220174700763  imul     3, @700763(14)  ;"2!\X'S"
012246:  220200701003  imul     4, 701003       ;"2" X(#"
012247:  220227101134  imul     4, @101134(7)   ;"2"7()<"
012250:  220306101430  imul     6, 101430(6)    ;"2#&(,8"
012251:  200420002100  move     10, @2100       ;"0$0 1 "
012252:  215476266371  movmi    11, @266371(16) ;"1L^6SY"
012253:  200200201001  move     4, 201001       ;"0" 0(!"
012254:  210702243411  movn     16, 243411(2)   ;"1'"4<)"
012255:  221707707437  imuli    16, 707437(7)   ;"2/'X\?"
012256:  202010410042  movem    0, 410042(10)   ;"00(A B"
012257:  220050500242  imul     1, 500242(10)   ;"2 HH"B"
012260:  200402202011  move     10, 202011(2)   ;"0$"00)"
012261:  215476266371  movmi    11, @266371(16) ;"1L^6SY"
012262:  220045100224  imul     1, 100224(5)    ;"2 E("4"
012263:  220056300271  imul     1, 300271(16)   ;"2 N8"Y"
012264:  220057700277  imul     1, 700277(17)   ;"2 OX"_"
012265:  220063500316  imul     1, @500316(3)   ;"2 SH#."
012266:  220067500336  imul     1, @500336(7)   ;"2 WH#>"
012267:  220072100350  imul     1, @100350(12)  ;"2 Z(#H"
012270:  220074700363  imul     1, @700363(14)  ;"2 \X#S"
012271:  220076700373  imul     1, @700373(16)  ;"2 ^X#["
012272:  220101300405  imul     2, 300405(1)    ;"2!!8$%"
012273:  220105700427  imul     2, 700427(5)    ;"2!%X$7"
012274:  220125100524  imul     2, @100524(5)   ;"2!5(%4"
012275:  220130300541  imul     2, @300541(10)  ;"2!88%A"
012276:  220133700557  imul     2, @700557(13)  ;"2!;X%O"
012277:  220136500572  imul     2, @500572(16)  ;"2!>H%Z"
012300:  220141100604  imul     3, 100604(1)    ;"2!A(&$"
012301:  220144500622  imul     3, 500622(4)    ;"2!DH&2"
012302:  220153500656  imul     3, 500656(13)   ;"2!KH&N"
012303:  220157500676  imul     3, 500676(17)   ;"2!OH&^"
012304:  220164700723  imul     3, @700723(4)   ;"2!TX'3"
012305:  220170100740  imul     3, @100740(10)  ;"2!X('@"
012306:  220172500752  imul     3, @500752(12)  ;"2!ZH'J"
012307:  220174700763  imul     3, @700763(14)  ;"2!\X'S"
012310:  200416202071  move     10, 202071(16)  ;"0$.00Y"
012311:  234346361631  div      7, 361631(6)    ;"3CF>.9"
012312:  200200401002  move     4, 401002       ;"0" @(""
012313:  202310411442  movem    6, 411442(10)   ;"03(A,B"
012314:  202000010000  movem    0, 10000        ;"00 !  "
012315:  200406202031  move     10, 202031(6)   ;"0$&009"
012316:  234042360211  div      1, 360211(2)    ;"3@B>")"
012317:  216434672163  movmm    10, @672163(14) ;"1T<W1S"
012320:  216434672163  movmm    10, @672163(14) ;"1T<W1S"
012321:  216434672163  movmm    10, @672163(14) ;"1T<W1S"
012322:  216434672163  movmm    10, @672163(14) ;"1T<W1S"
012323:  216434672163  movmm    10, @672163(14) ;"1T<W1S"
012324:  216434672163  movmm    10, @672163(14) ;"1T<W1S"
012325:  216434672163  movmm    10, @672163(14) ;"1T<W1S"
012326:  216434672163  movmm    10, @672163(14) ;"1T<W1S"
012327:  216434672163  movmm    10, @672163(14) ;"1T<W1S"
012330:  216434672163  movmm    10, @672163(14) ;"1T<W1S"
012331:  216434672163  movmm    10, @672163(14) ;"1T<W1S"
012332:  216434672163  movmm    10, @672163(14) ;"1T<W1S"
012333:  216434672163  movmm    10, @672163(14) ;"1T<W1S"
012334:  216434672163  movmm    10, @672163(14) ;"1T<W1S"
012335:  216434672163  movmm    10, @672163(14) ;"1T<W1S"
012336:  216434672163  movmm    10, @672163(14) ;"1T<W1S"
012337:  216434672163  movmm    10, @672163(14) ;"1T<W1S"
012340:  216434672163  movmm    10, @672163(14) ;"1T<W1S"
012341:  216434672163  movmm    10, @672163(14) ;"1T<W1S"
012342:  216434672163  movmm    10, @672163(14) ;"1T<W1S"
012343:  216434672163  movmm    10, @672163(14) ;"1T<W1S"
012344:  216434672163  movmm    10, @672163(14) ;"1T<W1S"
012345:  216434672163  movmm    10, @672163(14) ;"1T<W1S"
012346:  216434672163  movmm    10, @672163(14) ;"1T<W1S"
012347:  216434672163  movmm    10, @672163(14) ;"1T<W1S"
012350:  216434672163  movmm    10, @672163(14) ;"1T<W1S"
012351:  216434672163  movmm    10, @672163(14) ;"1T<W1S"
012352:  216434672163  movmm    10, @672163(14) ;"1T<W1S"
012353:  216434672163  movmm    10, @672163(14) ;"1T<W1S"
012354:  216434672163  movmm    10, @672163(14) ;"1T<W1S"
012355:  216434672163  movmm    10, @672163(14) ;"1T<W1S"
012356:  216434672163  movmm    10, @672163(14) ;"1T<W1S"
012357:  216434672163  movmm    10, @672163(14) ;"1T<W1S"
012360:  216434672163  movmm    10, @672163(14) ;"1T<W1S"
012361:  216434672163  movmm    10, @672163(14) ;"1T<W1S"
012362:  216434672163  movmm    10, @672163(14) ;"1T<W1S"
012363:  216434672163  movmm    10, @672163(14) ;"1T<W1S"
012364:  216434672163  movmm    10, @672163(14) ;"1T<W1S"
012365:  216434672163  movmm    10, @672163(14) ;"1T<W1S"
012366:  216434672163  movmm    10, @672163(14) ;"1T<W1S"
012367:  216434672163  movmm    10, @672163(14) ;"1T<W1S"
012370:  216434672163  movmm    10, @672163(14) ;"1T<W1S"
012371:  216434672163  movmm    10, @672163(14) ;"1T<W1S"
012372:  216434672163  movmm    10, @672163(14) ;"1T<W1S"
012373:  216434672163  movmm    10, @672163(14) ;"1T<W1S"
012374:  216434672163  movmm    10, @672163(14) ;"1T<W1S"
012375:  216434672163  movmm    10, @672163(14) ;"1T<W1S"
012376:  216434672163  movmm    10, @672163(14) ;"1T<W1S"
012377:  216434672163  movmm    10, @672163(14) ;"1T<W1S"
012400:  216434672163  movmm    10, @672163(14) ;"1T<W1S"
012401:  216434672163  movmm    10, @672163(14) ;"1T<W1S"
012402:  216434672163  movmm    10, @672163(14) ;"1T<W1S"
012403:  216434672163  movmm    10, @672163(14) ;"1T<W1S"
012404:  216434672163  movmm    10, @672163(14) ;"1T<W1S"
012405:  216434672163  movmm    10, @672163(14) ;"1T<W1S"
012406:  216434672163  movmm    10, @672163(14) ;"1T<W1S"
012407:  216434672163  movmm    10, @672163(14) ;"1T<W1S"
012410:  216434672163  movmm    10, @672163(14) ;"1T<W1S"
012411:  216434672163  movmm    10, @672163(14) ;"1T<W1S"
012412:  216434672163  movmm    10, @672163(14) ;"1T<W1S"
012413:  216434672163  movmm    10, @672163(14) ;"1T<W1S"
012414:  216434672163  movmm    10, @672163(14) ;"1T<W1S"
012415:  216434672163  movmm    10, @672163(14) ;"1T<W1S"
012416:  216434672163  movmm    10, @672163(14) ;"1T<W1S"
012417:  216434672163  movmm    10, @672163(14) ;"1T<W1S"
012420:  216434672163  movmm    10, @672163(14) ;"1T<W1S"
012421:  216434672163  movmm    10, @672163(14) ;"1T<W1S"
012422:  216434672163  movmm    10, @672163(14) ;"1T<W1S"
012423:  216434672163  movmm    10, @672163(14) ;"1T<W1S"
012424:  216434672163  movmm    10, @672163(14) ;"1T<W1S"
012425:  216434672163  movmm    10, @672163(14) ;"1T<W1S"
012426:  216434672163  movmm    10, @672163(14) ;"1T<W1S"
012427:  216434672163  movmm    10, @672163(14) ;"1T<W1S"
012430:  216434672163  movmm    10, @672163(14) ;"1T<W1S"
012431:  216434672163  movmm    10, @672163(14) ;"1T<W1S"
012432:  216434672163  movmm    10, @672163(14) ;"1T<W1S"
012433:  216434672163  movmm    10, @672163(14) ;"1T<W1S"
012434:  216434672163  movmm    10, @672163(14) ;"1T<W1S"
012435:  216434672163  movmm    10, @672163(14) ;"1T<W1S"
012436:  216434672163  movmm    10, @672163(14) ;"1T<W1S"
012437:  216434672163  movmm    10, @672163(14) ;"1T<W1S"
012440:  216434672163  movmm    10, @672163(14) ;"1T<W1S"
012441:  216434672163  movmm    10, @672163(14) ;"1T<W1S"
012442:  216434672163  movmm    10, @672163(14) ;"1T<W1S"
012443:  216434672163  movmm    10, @672163(14) ;"1T<W1S"
012444:  200402202011  move     10, 202011(2)   ;"0$"00)"
012445:  215476266371  movmi    11, @266371(16) ;"1L^6SY"
012446:  214436062170  movm     10, @62170(16)  ;"1D>&1X"
012447:  215422266111  movmi    10, @266111(2)  ;"1L26Q)"
012450:  200400002000  move     10, 2000        ;"0$  0 "
012451:  215426266131  movmi    10, @266131(6)  ;"1L66Q9"
012452:  200402202011  move     10, 202011(2)   ;"0$"00)"
012453:  215012264051  movmi    0, 264051(12)   ;"1H*6@I"
012454:  200200201001  move     4, 201001       ;"0" 0(!"
012455:  210402242011  movn     10, 242011(2)   ;"1$"40)"
012456:  222347711637  imulm    7, 711637(7)    ;"23GY.?"
012457:  220021500106  imul     0, @500106(1)   ;"2 1H!&"
012460:  216436272171  movmm    10, @272171(16) ;"1T>71Y"
012461:  200400402002  move     10, 402002      ;"0$ @0""
012462:  214437062174  movm     10, @62174(17)  ;"1D?&1\"
012463:  216302271411  movmm    6, 271411(2)    ;"1S"7,)"
012464:  203400016000  moves    10, 16000       ;"0< !P "
012465:  200400002000  move     10, 2000        ;"0$  0 "
012466:  216436272171  movmm    10, @272171(16) ;"1T>71Y"
012467:  200200401002  move     4, 401002       ;"0" @(""
012470:  210402242011  movn     10, 242011(2)   ;"1$"40)"
012471:  200200001000  move     4, 1000         ;"0"  ( "
012472:  200100000400  move     2, 400          ;"0!  $ "
012473:  237746377631  divb     17, 377631(6)   ;"3_F?^9"
012474:  200200201001  move     4, 201001       ;"0" 0(!"
012475:  210702243411  movn     16, 243411(2)   ;"1'"4<)"
012476:  203000014000  moves    0, 14000        ;"08 !@ "
012477:  221351105644  imuli    7, 105644(11)   ;"2+I(ND"
012500:  212402252011  movnm    10, 252011(2)   ;"14"50)"
012501:  216300671403  movmm    6, 671403       ;"1S W,#"
012502:  202000010000  movem    0, 10000        ;"00 !  "
012503:  200406602033  move     10, 602033(6)   ;"0$&P0;"
012504:  234042360211  div      1, 360211(2)    ;"3@B>")"
012505:  200407402036  move     10, 402036(7)   ;"0$'@0>"
012506:  216402272011  movmm    10, 272011(2)   ;"1T"70)"
012507:  200463602317  move     11, @602317(3)  ;"0$SP3/"
012510:  216406272031  movmm    10, 272031(6)   ;"1T&709"
012511:  216405672027  movmm    10, 672027(5)   ;"1T%W07"
012512:  223356715673  imulb    7, 715673(16)   ;"2;NYN["
012513:  220356101670  imul     7, 101670(16)   ;"2#N(.X"
012514:  216401672007  movmm    10, 672007(1)   ;"1T!W0'"
012515:  223357515676  imulb    7, 515676(17)   ;"2;OIN^" "$n}\033_"
012516:  220355501666  imul     7, 501666(15)   ;"2#MH.V"
012517:  203400016000  moves    10, 16000       ;"0< !P "
012520:  200402002010  move     10, 2010(2)     ;"0$" 0("
012521:  215012264051  movmi    0, 264051(12)   ;"1H*6@I"
012522:  200420402102  move     10, @402102     ;"0$0@1""
012523:  215006264031  movmi    0, 264031(6)    ;"1H&6@9"
012524:  203400016000  moves    10, 16000       ;"0< !P "
012525:  206300031400  movsm    6, 31400        ;"0S #, "
012526:  206300231401  movsm    6, 231401       ;"0S 3,!"
012527:  206300431402  movsm    6, 431402       ;"0S C,""
012530:  206300631403  movsm    6, 631403       ;"0S S,#"
012531:  206301031404  movsm    6, 31404(1)     ;"0S!#,$"
012532:  206301231405  movsm    6, 231405(1)    ;"0S!3,%"
012533:  206301431406  movsm    6, 431406(1)    ;"0S!C,&"
012534:  206301631407  movsm    6, 631407(1)    ;"0S!S,'"
012535:  203400016000  moves    10, 16000       ;"0< !P "
012536:  206302031410  movsm    6, 31410(2)     ;"0S"#,("
012537:  206302231411  movsm    6, 231411(2)    ;"0S"3,)"
012540:  206302431412  movsm    6, 431412(2)    ;"0S"C,*"
012541:  206302631413  movsm    6, 631413(2)    ;"0S"S,+"
012542:  206303031414  movsm    6, 31414(3)     ;"0S##,,"
012543:  206303231415  movsm    6, 231415(3)    ;"0S#3,-"
012544:  206303431416  movsm    6, 431416(3)    ;"0S#C,."
012545:  206303631417  movsm    6, 631417(3)    ;"0S#S,/"
012546:  203400016000  moves    10, 16000       ;"0< !P "
012547:  226300131400  mulm     6, 131400       ;"2S +, "
012550:  226300331401  mulm     6, 331401       ;"2S ;,!"
012551:  226300531402  mulm     6, 531402       ;"2S K,""
012552:  226300731403  mulm     6, 731403       ;"2S [,#"
012553:  226301131404  mulm     6, 131404(1)    ;"2S!+,$"
012554:  226301331405  mulm     6, 331405(1)    ;"2S!;,%"
012555:  226301531406  mulm     6, 531406(1)    ;"2S!K,&"
012556:  226301731407  mulm     6, 731407(1)    ;"2S![,'"
012557:  203400016000  moves    10, 16000       ;"0< !P "
012560:  777777777777  conso    774, @777777(17);"______"
012565:  000000000060                           ;"     P"
012566:  000000000120                           ;"    !0"
012567:  000000000000                           ;"      "
012570:  000000000021                           ;"     1"
012574:  000000000006                           ;"     &"
012575:  000000000003                           ;"     #"
012576:  000000000011                           ;"     )"
012577:  000000000034                           ;"     <"
012600:  000000000033                           ;"     ;"
012601:  000000000022                           ;"     2"
012602:  000000000002                           ;"     ""
012603:  000000000033                           ;"     ;"
012604:  000000000011                           ;"     )"
012605:  000000000031                           ;"     9"
012606:  000000000033                           ;"     ;"
012607:  000000000021                           ;"     1"
012612:  000000000010                           ;"     ("
012613:  000000000003                           ;"     #"
012614:  000000000011                           ;"     )"
012615:  000000000024                           ;"     4"
012616:  000000000022                           ;"     2"
012617:  000000000002                           ;"     ""
012620:  000000000033                           ;"     ;"
012621:  000000000011                           ;"     )"
012622:  000000000021                           ;"     1"
012623:  000000000033                           ;"     ;"
012624:  000000000033                           ;"     ;"
012625:  000000000164                           ;"    !T"
012626:  000000000176                           ;"    !^"
012627:  000000000156                           ;"    !N"
012630:  000000000200                           ;"    " "
012631:  000000000157                           ;"    !O"
012632:  000000000156                           ;"    !N"
012663:  000000000004                           ;"     $"
012664:  000000000013                           ;"     +"
013161:  000000000003                           ;"     #"
013162:  000000000331                           ;"    #9"
013163:  000000000161                           ;"    !Q"
013164:  000000000000                           ;"      "
013165:  000000000017                           ;"     /"
013166:  000000000335                           ;"    #="
013167:  000000000161                           ;"    !Q"
013170:  000000000000                           ;"      "
013171:  777777777777  conso    774, @777777(17);"______"
013172:  000000000001                           ;"     !"
013173:  000000000170                           ;"    !X"
013174:  000000000000                           ;"      "
013175:  000000000007                           ;"     '"
013176:  000000000335                           ;"    #="
013177:  000000000161                           ;"    !Q"
013202:  000000000001                           ;"     !"
013203:  000000000162                           ;"    !R"
013204:  000000000000                           ;"      "
013205:  000000000324                           ;"    #4"
013206:  000000000001                           ;"     !"
013207:  000000000165                           ;"    !U"
013210:  000000000000                           ;"      "
013211:  777777777777  conso    774, @777777(17);"______"
013212:  000000000001                           ;"     !"
013213:  000000000170                           ;"    !X"
013214:  000000000000                           ;"      "
013215:  777777777777  conso    774, @777777(17);"______"
013216:  000000000001                           ;"     !"
013217:  000000000170                           ;"    !X"
013220:  000000000000                           ;"      "
013221:  777777777777  conso    774, @777777(17);"______"
013222:  000000000001                           ;"     !"
013223:  000000000170                           ;"    !X"
013224:  000000000000                           ;"      "
013225:  777777777777  conso    774, @777777(17);"______"
013226:  000000000001                           ;"     !"
013227:  000000000170                           ;"    !X"
013230:  000000000000                           ;"      "
013231:  000000000027                           ;"     7"
013232:  000000000011                           ;"     )"
013233:  000000000161                           ;"    !Q"
013234:  000000000000                           ;"      "
013235:  000000000037                           ;"     ?"
013236:  000000000011                           ;"     )"
013237:  000000000161                           ;"    !Q"
013240:  000000000000                           ;"      "
013241:  000000000067                           ;"     W"
013242:  000000000011                           ;"     )"
013243:  000000000161                           ;"    !Q"
013244:  000000000000                           ;"      "
013245:  000000000047                           ;"     G"
013246:  000000000011                           ;"     )"
013247:  000000000161                           ;"    !Q"
013250:  000000000000                           ;"      "
013251:  000000000077                           ;"     _"
013252:  000000000011                           ;"     )"
013253:  000000000161                           ;"    !Q"
013254:  000000000000                           ;"      "
013255:  000000000057                           ;"     O"
013256:  000000000011                           ;"     )"
013257:  000000000161                           ;"    !Q"
013262:  000000000331                           ;"    #9"
013263:  000000000161                           ;"    !Q"
013264:  000000000000                           ;"      "
013265:  000000000227                           ;"    "7"
013266:  000000000021                           ;"     1"
013267:  000000000161                           ;"    !Q"
013270:  000000000000                           ;"      "
013271:  000000000004                           ;"     $"
013272:  000000000001                           ;"     !"
013273:  000000000165                           ;"    !U"
013274:  000000000000                           ;"      "
013275:  000000000364                           ;"    #T"
013276:  000000000001                           ;"     !"
013277:  000000000165                           ;"    !U"
013300:  000000000000                           ;"      "
013301:  777777777777  conso    774, @777777(17);"______"
013302:  000000000001                           ;"     !"
013303:  000000000171                           ;"    !Y"
013304:  000000000000                           ;"      "
013305:  777777777777  conso    774, @777777(17);"______"
013306:  000000000001                           ;"     !"
013307:  000000000171                           ;"    !Y"
013310:  000000000000                           ;"      "
013311:  777777777777  conso    774, @777777(17);"______"
013312:  000000000001                           ;"     !"
013313:  000000000171                           ;"    !Y"
013314:  000000000000                           ;"      "
013315:  777777777777  conso    774, @777777(17);"______"
013316:  000000000001                           ;"     !"
013317:  000000000171                           ;"    !Y"
013320:  000000000000                           ;"      "
013321:  000000000001                           ;"     !"
013322:  000000000101                           ;"    !!"
013323:  000000000163                           ;"    !S"
013324:  000000000000                           ;"      "
013325:  000000000013                           ;"     +"
013326:  000000000001                           ;"     !"
013327:  000000000163                           ;"    !S"
013330:  000000000000                           ;"      "
013331:  000000000213                           ;"    "+"
013332:  000000000101                           ;"    !!"
013333:  000000000163                           ;"    !S"
013334:  000000000000                           ;"      "
013335:  777777777777  conso    774, @777777(17);"______"
013336:  000000000001                           ;"     !"
013337:  000000000171                           ;"    !Y"
013340:  000000000000                           ;"      "
013341:  000000000002                           ;"     ""
013342:  000000000000                           ;"      "
013343:  000000000164                           ;"    !T"
013344:  000000000000                           ;"      "
013345:  777777777777  conso    774, @777777(17);"______"
013346:  000000000001                           ;"     !"
013347:  000000000171                           ;"    !Y"
013352:  000000000001                           ;"     !"
013353:  000000000166                           ;"    !V"
013354:  000000000000                           ;"      "
013355:  000000000014                           ;"     ,"
013356:  000000000100                           ;"    ! "
013357:  000000000164                           ;"    !T"
013362:  000000000063                           ;"     S"
013363:  000000000163                           ;"    !S"
013364:  000000000263                           ;"    "S"
013365:  777777777777  conso    774, @777777(17);"______"
013366:  000000000043                           ;"     C"
013367:  000000000143                           ;"    !C"
013370:  000000000243                           ;"    "C"
013371:  777777777777  conso    774, @777777(17);"______"
013372:  777777777777  conso    774, @777777(17);"______"
013373:  777777777777  conso    774, @777777(17);"______"
013374:  000000000313                           ;"    #+"
013375:  000000000303                           ;"    ##"
013376:  000000000323                           ;"    #3"
013377:  777777777777  conso    774, @777777(17);"______"
013400:  777777777777  conso    774, @777777(17);"______"
013401:  777777777777  conso    774, @777777(17);"______"
013402:  000000000005                           ;"     %"
013403:  000000000004                           ;"     $"
013404:  000000000006                           ;"     &"
013405:  000000000005                           ;"     %"
013406:  000000000011                           ;"     )"
013407:  777777777777  conso    774, @777777(17);"______"
013410:  777777777777  conso    774, @777777(17);"______"
013411:  000000000030                           ;"     8"
013412:  000000000000                           ;"      "
013413:  000000000140                           ;"    !@"
013414:  000000000230                           ;"    "8"
013415:  000000000060                           ;"     P"
013416:  000000000040                           ;"     @"
013417:  000000000010                           ;"     ("
013420:  000000000150                           ;"    !H"
013421:  000000000240                           ;"    "@"
013422:  000000000100                           ;"    ! "
013423:  000000000647                           ;"    &G"
013424:  000000000654                           ;"    &L"
013425:  000000000660                           ;"    &P"
013426:  000000000666                           ;"    &V"
013427:  000000000673                           ;"    &["
013430:  000000000050                           ;"     H"
013431:  000000000057                           ;"     O"
013432:  000000000053                           ;"     K"
013433:  000000000052                           ;"     J"
013434:  000000000051                           ;"     I"
013435:  000000000020                           ;"     0"
013436:  000000000027                           ;"     7"
013437:  000000000022                           ;"     2"
013440:  000000000021                           ;"     1"
013441:  000000000160                           ;"    !P"
013442:  000000000177                           ;"    !_"
013443:  000000000176                           ;"    !^"
013444:  000000000163                           ;"    !S"
013445:  000000000162                           ;"    !R"
013446:  000000000161                           ;"    !Q"
013447:  000000000250                           ;"    "H"
013450:  000000000257                           ;"    "O"
013451:  000000000253                           ;"    "K"
013452:  000000000252                           ;"    "J"
013453:  000000000251                           ;"    "I"
013454:  000000000120                           ;"    !0"
013455:  000000000137                           ;"    !?"
013456:  000000000131                           ;"    !9"
013457:  000000000130                           ;"    !8"
013460:  000000000127                           ;"    !7"
013461:  000000000136                           ;"    !>"
013462:  000000000123                           ;"    !3"
013463:  000000000122                           ;"    !2"
013464:  000000000121                           ;"    !1"
