Nonsharable/compressed SAVE format

Highest lowseg location: 43777
DDT from 43777 to 0
Start address: 015617
Symbol table:
    Symbol pat.. = 33763   ( halfkilled global)
    Symbol  = 33763   ()
    Symbol .xct = 256000000000   ( local)
    Symbol xrcusr = 33616   ( global)
    Symbol xrcdir = 33460   ( global)
    Symbol xmtopr = 33447   ( global)
    Symbol xmtop2 = 33454   ( local)
    Symbol xbout3 = 33443   ( local)
    Symbol xbout2 = 33431   ( local)
    Symbol xbout = 33424   ( global)
    Symbol xbin = 33416   ( global)
    Symbol upstlp = 33547   ( local)
    Symbol updstr = 33546   ( local)
    Symbol strx08 = 602143   ( local)
    Symbol stdir = 104000000040   ( local)
    Symbol stdev = 104000000120   ( local)
    Symbol setacs = 33673   ( local)
    Symbol rjscal = 33374   ( local)
    Symbol rfmod = 104000000107   ( local)
    Symbol rfcoc = 104000000112   ( local)
    Symbol retpl1 = 33402   ( local)
    Symbol ret = 263740000000   ( local)
    Symbol rcusr = 104000000554   ( global)
    Symbol rcuret = 33633   ( local)
    Symbol rcduer = 33537   ( local)
    Symbol rcdix2 = 601377   ( local)
    Symbol rcdir = 104000000553   ( global)
    Symbol rcderr = 33467   ( local)
    Symbol rcdamb = 33533   ( local)
    Symbol pupnm = 104000000443   ( local)
    Symbol p = 17   ( local)
    Symbol osbkt = 133   ( local)
    Symbol obktok = 33475   ( local)
    Symbol obkt = 74   ( local)
    Symbol nomstu = 33642   ( local)
    Symbol njscal = 33410   ( local)
    Symbol nin = 104000000225   ( local)
    Symbol jsys = 104000000000   ( local)
    Symbol istdev = 33370   ( global)
    Symbol ircusr = 33406   ( global)
    Symbol ircdir = 33404   ( global)
    Symbol ipupnm = 33372   ( global)
    Symbol interr = 33645   ( local)
    Symbol injsys = 33700   ( local)
    Symbol inin = 33366   ( global)
    Symbol iidtnc = 33364   ( global)
    Symbol iidcnv = 33362   ( global)
    Symbol igtjfn = 33360   ( global)
    Symbol iflin = 33356   ( global)
    Symbol idtnc = 104000000231   ( local)
    Symbol idcnv = 104000000223   ( local)
    Symbol gtsts = 104000000024   ( local)
    Symbol gtjfn = 104000000020   ( local)
    Symbol getacs = 33666   ( local)
    Symbol flin = 104000000232   ( local)
    Symbol exterr = 33646   ( local)
    Symbol errorj = 33662   ( local)
    Symbol erjmp = 320700000000   ( local)
    Symbol ercal = 320740000000   ( local)
    Symbol e = 5   ( local)
    Symbol d = 4   ( local)
    Symbol csbkt = 135   ( local)
    Symbol ckstnx = 33567   ( local)
    Symbol ckstlp = 33570   ( local)
    Symbol ckster = 33564   ( local)
    Symbol ckstdn = 33613   ( local)
    Symbol chkstr = 33556   ( local)
    Symbol cbktok = 33514   ( local)
    Symbol cbktnn = 33520   ( local)
    Symbol cbkt = 76   ( local)
    Symbol call = 260740000000   ( local)
    Symbol c = 3   ( local)
    Symbol b = 2   ( local)
    Symbol ambstu = 33635   ( local)
    Symbol a = 1   ( local)
    Symbol t2jsim = 33356   ()
    Symbol  = 33356   ()
    Symbol .xct = 256000000000   ( local)
    Symbol .uimp = 32023   ( local)
    Symbol .svacs = 32250   ( local)
    Symbol .stak = 31667   ( local)
    Symbol .sgrf0 = 31541   ( local)
    Symbol .sgref = 31536   ( local)
    Symbol .rtacs = 32256   ( local)
    Symbol .priou = 101   ( local)
    Symbol .mref2 = 40   ( halfkilled local)
    Symbol .mref1 = 200   ( halfkilled local)
    Symbol .mentr = 32452   ( local)
    Symbol .immed = 31557   ( local)
    Symbol .ilgl2 = 32020   ( local)
    Symbol .ilgl0 = 32015   ( local)
    Symbol .ilgl = 32014   ( local)
    Symbol .ilcsq = 32042   ( local)
    Symbol .ibp = 133000000000   ( local)
    Symbol .fhslf = 400000   ( local)
    Symbol .eprev = 200000   ( halfkilled local)
    Symbol .emxct = 32321   ( local)
    Symbol .emtop = 31461   ( halfkilled local)
    Symbol .emtac = 10   ( local)
    Symbol .emtab = 31453   ( local)
    Symbol .emstk = 32343   ( local)
    Symbol .emraw = 32316   ( local)
    Symbol .emjsr = 32320   ( local)
    Symbol .emiad = 32315   ( local)
    Symbol .emcad = 32314   ( local)
    Symbol .embyt = 32322   ( local)
    Symbol .emadr = 32317   ( local)
    Symbol .emacs = 32323   ( local)
    Symbol .efad2 = 100   ( halfkilled local)
    Symbol .efad1 = 400   ( halfkilled local)
    Symbol .doit0 = 31532   ( local)
    Symbol .doit = 31524   ( local)
    Symbol .dbref = 31544   ( local)
    Symbol .crlf = 32266   ( local)
    Symbol .ckrf1 = 32007   ( local)
    Symbol .byte = 31562   ( local)
    Symbol .blt0 = 31652   ( local)
    Symbol .blt = 31630   ( local)
    Symbol .block = 32517   ( local)
    Symbol .bdpx = 32025   ( local)
    Symbol .aindr = 400000   ( halfkilled local)
    Symbol .adjbp = 133000000000   ( local)
    Symbol $pxct = 31453   ( global)
    Symbol $ibp = 31455   ( global)
    Symbol $cksq0 = 31740   ( local)
    Symbol $ckseq = 31712   ( local)
    Symbol $bhndl = 32061   ( local)
    Symbol $bhlt = 32055   ( global)
    Symbol $bchk = 32050   ( global)
    Symbol $adjsp = 31457   ( global)
    Symbol $adjbp = 31455   ( global)
    Symbol $.del = 32223   ( local)
    Symbol $.bpw = 32224   ( local)
    Symbol $.adr = 32222   ( local)
    Symbol $$pxct = 31461   ( local)
    Symbol $$pxc0 = 31500   ( local)
    Symbol $$jsrt = 32245   ( local)
    Symbol $$jser = 32242   ( local)
    Symbol $$inia = 31701   ( local)
    Symbol $$bpst = 32160   ( local)
    Symbol $$bprt = 32161   ( local)
    Symbol $$bpnm = 32150   ( local)
    Symbol $$bpng = 32163   ( local)
    Symbol $$bpj0 = 32145   ( local)
    Symbol $$bpfx = 32205   ( local)
    Symbol $$bpff = 32200   ( local)
    Symbol $$bper = 32215   ( local)
    Symbol $$bpbd = 32156   ( local)
    Symbol $$adjs = 32225   ( local)
    Symbol $$adjb = 32075   ( local)
    Symbol z = 0   ( local)
    Symbol xx = 44   ( halfkilled local)
    Symbol uupdl = 32344   ( local)
    Symbol usracs = 33175   ( global)
    Symbol un = 6   ( halfkilled local)
    Symbol ufpc = 33005   ( global)
    Symbol uadjac = 31771   ( local)
    Symbol topac = 16   ( local)
    Symbol temp = 33011   ( local)
    Symbol st = 4   ( halfkilled local)
    Symbol sr = 0   ( halfkilled local)
    Symbol skmrtn = 32475   ( global)
    Symbol savt = 32771   ( global)
    Symbol savq = 32740   ( global)
    Symbol savpq = 32752   ( global)
    Symbol savp = 32722   ( global)
    Symbol restt = 32776   ( global)
    Symbol restq = 32744   ( global)
    Symbol restpq = 32762   ( global)
    Symbol restp = 32731   ( global)
    Symbol q3 = 7   ( local)
    Symbol q2 = 6   ( local)
    Symbol q1 = 5   ( local)
    Symbol psout = 104000000076   ( local)
    Symbol prinst = 31514   ( local)
    Symbol pntpc = 32271   ( local)
    Symbol pntoct = 32307   ( local)
    Symbol pntipc = 32264   ( local)
    Symbol pnthw = 32276   ( local)
    Symbol p6 = 15   ( local)
    Symbol p5 = 14   ( local)
    Symbol p4 = 13   ( local)
    Symbol p3 = 12   ( local)
    Symbol p2 = 11   ( local)
    Symbol p1 = 10   ( local)
    Symbol p = 17   ( local)
    Symbol nout = 104000000224   ( local)
    Symbol nibits = 3   ( local)
    Symbol mretne = 32576   ( global)
    Symbol mretn = 32477   ( global)
    Symbol mpp = 33007   ( local)
    Symbol mentr = 32630   ( global)
    Symbol madjac = 31765   ( local)
    Symbol luupdl = 24   ( halfkilled local)
    Symbol ljpdl = 144   ( halfkilled local)
    Symbol jpdl = 33031   ( local)
    Symbol itrsx = 32627   ( local)
    Symbol itrsim = 32614   ( local)
    Symbol itrret = 32606   ( local)
    Symbol itrap1 = 32540   ( global)
    Symbol itrap = 32541   ( global)
    Symbol intpbp = 32370   ( local)
    Symbol intdf = 33010   ( global)
    Symbol instyp = 32404   ( local)
    Symbol im = 2   ( halfkilled local)
    Symbol il = 7   ( halfkilled local)
    Symbol haltf = 104000000170   ( local)
    Symbol h = 10   ( local)
    Symbol g = 7   ( local)
    Symbol fxuref = 32003   ( local)
    Symbol fpc = 33006   ( local)
    Symbol f = 6   ( local)
    Symbol exinit = 31442   ( global)
    Symbol erjmp = 320700000000   ( local)
    Symbol ercal = 320740000000   ( local)
    Symbol emret1 = 32600   ( global)
    Symbol emret0 = 32577   ( global)
    Symbol effadr = 31743   ( local)
    Symbol effad1 = 31757   ( local)
    Symbol effad0 = 31745   ( local)
    Symbol e = 5   ( local)
    Symbol dr = 1   ( halfkilled local)
    Symbol die = 32574   ( local)
    Symbol dbp = 32632   ( global)
    Symbol d = 4   ( local)
    Symbol chkopc = 31774   ( local)
    Symbol c = 3   ( local)
    Symbol by = 5   ( halfkilled local)
    Symbol bwd = 0   ( local)
    Symbol btslft = 44   ( local)
    Symbol block1 = 32631   ( global)
    Symbol bl = 3   ( halfkilled local)
    Symbol bits = 32656   ( global)
    Symbol bhc = 32636   ( global)
    Symbol b = 2   ( local)
    Symbol adjac = 31763   ( local)
    Symbol a = 1   ( local)
    Symbol t20sup = 777274031442   ()
    Symbol  = 31442   ()
    Symbol .stp = 377   ( halfkilled global)
    Symbol .curup = 0   ( halfkilled global)
    Symbol .curhm = 4   ( halfkilled global)
    Symbol .curfw = 3   ( halfkilled global)
    Symbol .cures = 5   ( halfkilled global)
    Symbol .curel = 6   ( halfkilled global)
    Symbol .curdn = 1   ( halfkilled global)
    Symbol .curbk = 2   ( halfkilled global)
    Symbol vt52tb = 31360   ( global)
    Symbol vt50tb = 31360   ( global)
    Symbol vt05tb = 31351   ( global)
    Symbol ttype1 = 31321   ( global)
    Symbol ttype0 = 31271   ( global)
    Symbol symblx = 1   ( halfkilled local)
    Symbol sumex = 0   ( local)
    Symbol stansw = 0   ( local)
    Symbol nttyps = 30   ( halfkilled global)
    Symbol dsptb = 777777   ( halfkilled local)
    Symbol dmtb = 31405   ( global)
    Symbol c100tb = 31376   ( global)
    Symbol ansitb = 31367   ( global)
    Symbol anntb = 31414   ( local)
    Symbol t20tab = 777720031271   ()
    Symbol  = 31271   ()
    Symbol .xct = 256000000000   ( local)
    Symbol .ttdam = 13   ( local)
    Symbol .ttasc = 1   ( halfkilled global)
    Symbol .texti = 25662   ( global)
    Symbol .tbluk = 25504   ( global)
    Symbol .tbdel = 25427   ( global)
    Symbol .tbadd = 25452   ( global)
    Symbol .stcmp = 25373   ( global)
    Symbol .rdtxt = 25645   ( global)
    Symbol .rdtty = 25626   ( global)
    Symbol .rdrty = 6   ( halfkilled global)
    Symbol .rdioj = 2   ( halfkilled global)
    Symbol .rdflg = 1   ( halfkilled global)
    Symbol .rddbp = 3   ( halfkilled global)
    Symbol .rddbc = 4   ( halfkilled global)
    Symbol .rdcwb = 0   ( halfkilled global)
    Symbol .rdbrk = 7   ( halfkilled global)
    Symbol .rdbkl = 10   ( halfkilled global)
    Symbol .rdbfp = 5   ( halfkilled global)
    Symbol .priou = 101   ( local)
    Symbol .priin = 100   ( local)
    Symbol .morlw = 30   ( halfkilled global)
    Symbol .ibp = 133000000000   ( local)
    Symbol .gjsrc = 1   ( halfkilled global)
    Symbol .gjrty = 14   ( halfkilled global)
    Symbol .gjjfn = 10   ( halfkilled global)
    Symbol .gjgen = 0   ( halfkilled global)
    Symbol .gjf2 = 11   ( halfkilled global)
    Symbol .gjdev = 2   ( halfkilled global)
    Symbol .gjcpp = 12   ( halfkilled global)
    Symbol .gjcpc = 13   ( halfkilled global)
    Symbol .fp = 15   ( halfkilled local)
    Symbol .fhslf = 400000   ( local)
    Symbol .comnd = 22715   ( global)
    Symbol .cmuqs = 22   ( halfkilled global)
    Symbol .cmtxt = 17   ( halfkilled global)
    Symbol .cmtok = 23   ( halfkilled global)
    Symbol .cmtad = 20   ( halfkilled global)
    Symbol .cmswi = 3   ( halfkilled global)
    Symbol .cmrty = 2   ( halfkilled global)
    Symbol .cmqst = 21   ( halfkilled global)
    Symbol .cmpup = 30   ( halfkilled global)
    Symbol .cmptr = 4   ( halfkilled global)
    Symbol .cmofi = 5   ( halfkilled global)
    Symbol .cmnux = 24   ( halfkilled global)
    Symbol .cmnoi = 2   ( halfkilled global)
    Symbol .cmnod = 26   ( halfkilled global)
    Symbol .cmioj = 1   ( halfkilled global)
    Symbol .cminc = 6   ( halfkilled global)
    Symbol .cmifi = 4   ( halfkilled global)
    Symbol .cmhlp = 2   ( halfkilled global)
    Symbol .cmgjb = 11   ( halfkilled global)
    Symbol .cmfnp = 0   ( halfkilled global)
    Symbol .cmflt = 15   ( halfkilled global)
    Symbol .cmflg = 0   ( halfkilled global)
    Symbol .cmfld = 7   ( halfkilled global)
    Symbol .cmfil = 6   ( halfkilled global)
    Symbol .cmdir = 11   ( halfkilled global)
    Symbol .cmdev = 16   ( halfkilled global)
    Symbol .cmdef = 3   ( halfkilled global)
    Symbol .cmdat = 1   ( halfkilled global)
    Symbol .cmcnt = 5   ( halfkilled global)
    Symbol .cmcma = 13   ( halfkilled global)
    Symbol .cmchr = 27   ( halfkilled global)
    Symbol .cmbfp = 3   ( halfkilled global)
    Symbol .cmact = 25   ( halfkilled global)
    Symbol .cmabp = 7   ( halfkilled global)
    Symbol .cmabc = 10   ( halfkilled global)
    Symbol .adjbp = 133000000000   ( local)
    Symbol .a16 = 16   ( halfkilled local)
    Symbol ..pst = 3   ( halfkilled local)
    Symbol ..ift = 2000001   ( halfkilled local)
    Symbol ..csn = 3   ( halfkilled local)
    Symbol ..csc = 4   ( halfkilled local)
    Symbol ..bt = 2000000   ( halfkilled local)
    Symbol $wrd = 17777776   ( halfkilled local)
    Symbol $twid = 17777776   ( halfkilled local)
    Symbol $tba = 15000001   ( halfkilled local)
    Symbol $tabsi = 15000010   ( halfkilled local)
    Symbol $tabdo = 15000012   ( halfkilled local)
    Symbol $strg = 15000002   ( halfkilled local)
    Symbol $stkp = 15000011   ( halfkilled local)
    Symbol $stkfe = 15000003   ( halfkilled local)
    Symbol $savp4 = 17777774   ( halfkilled local)
    Symbol $savp3 = 17777775   ( halfkilled local)
    Symbol $remst = 15000003   ( halfkilled local)
    Symbol $rcflg = 15000017   ( halfkilled local)
    Symbol $pwrd = 17777775   ( halfkilled local)
    Symbol $pwidt = 15000007   ( halfkilled local)
    Symbol $ourco = 15000006   ( halfkilled local)
    Symbol $nups = 17777775   ( halfkilled local)
    Symbol $noprn = 17777776   ( halfkilled local)
    Symbol $mod = 15000010   ( halfkilled local)
    Symbol $md = 17777774   ( halfkilled local)
    Symbol $keysi = 15000015   ( halfkilled local)
    Symbol $fnarg = 15000004   ( halfkilled local)
    Symbol $ent = 15000002   ( halfkilled local)
    Symbol $datpt = 15000011   ( halfkilled local)
    Symbol $curso = 15000013   ( halfkilled local)
    Symbol $curpo = 15000014   ( halfkilled local)
    Symbol $ctrlw = 17777775   ( halfkilled local)
    Symbol $crptr = 15000003   ( halfkilled local)
    Symbol $crpos = 17777775   ( halfkilled local)
    Symbol $coc = 15000004   ( halfkilled local)
    Symbol $cmrbr = 15000020   ( halfkilled local)
    Symbol $cmfmo = 15000021   ( halfkilled local)
    Symbol $cmcsf = 17777776   ( halfkilled local)
    Symbol $cmcsc = 17777766   ( halfkilled local)
    Symbol $cmcsa = 17777767   ( halfkilled local)
    Symbol $cmccm = 15000005   ( halfkilled local)
    Symbol $cmcbl = 17777765   ( halfkilled local)
    Symbol $clms = 17777776   ( halfkilled local)
    Symbol $ccptr = 15000002   ( halfkilled local)
    Symbol $ccnt = 15000001   ( halfkilled local)
    Symbol $cchrx = 17777776   ( halfkilled local)
    Symbol $bigsi = 15000016   ( halfkilled local)
    Symbol $atbsi = 15000002   ( halfkilled local)
    Symbol $atbpt = 15000001   ( halfkilled local)
    Symbol $armf = 17777774   ( halfkilled local)
    Symbol zero = 26310   ( local)
    Symbol zer = 2   ( halfkilled local)
    Symbol xx = 47   ( halfkilled local)
    Symbol xtlook = 25514   ( global)
    Symbol xtlok0 = 25515   ( local)
    Symbol xtdel = 25434   ( global)
    Symbol xtadd2 = 25477   ( local)
    Symbol xtadd = 25460   ( local)
    Symbol xnod3 = 25020   ( local)
    Symbol xnod2 = 25013   ( local)
    Symbol xnod1 = 25007   ( local)
    Symbol xnod0 = 24777   ( local)
    Symbol xcomxr = 23156   ( local)
    Symbol xcomxl = 23134   ( local)
    Symbol xcomxi = 23160   ( local)
    Symbol xcomx2 = 23171   ( local)
    Symbol xcomx1 = 23174   ( local)
    Symbol xcomrp = 23145   ( local)
    Symbol xcomrf = 23117   ( local)
    Symbol xcomnp = 23211   ( local)
    Symbol xcomne = 23210   ( local)
    Symbol xcomnd = 22725   ( global)
    Symbol xcomn1 = 23233   ( local)
    Symbol xcomn0 = 22760   ( local)
    Symbol xcom5 = 22764   ( local)
    Symbol xcom4 = 23034   ( local)
    Symbol xcom3 = 23024   ( local)
    Symbol xcom2 = 23031   ( local)
    Symbol xcom1 = 23036   ( local)
    Symbol xcom0 = 23025   ( local)
    Symbol xcmusr = 25200   ( local)
    Symbol xcmuqs = 24750   ( local)
    Symbol xcmtxt = 24421   ( local)
    Symbol xcmtok = 25160   ( local)
    Symbol xcmtad = 24627   ( local)
    Symbol xcmswi = 24150   ( local)
    Symbol xcmqst = 24736   ( local)
    Symbol xcmpup = 25317   ( local)
    Symbol xcmofi = 25035   ( local)
    Symbol xcmnux = 24546   ( local)
    Symbol xcmnum = 24547   ( local)
    Symbol xcmnoi = 24425   ( local)
    Symbol xcmnod = 24767   ( local)
    Symbol xcmkey = 24164   ( local)
    Symbol xcmini = 24101   ( local)
    Symbol xcmifi = 25036   ( local)
    Symbol xcmflt = 24531   ( local)
    Symbol xcmfld = 24760   ( local)
    Symbol xcmfil = 25032   ( local)
    Symbol xcmdir = 25201   ( local)
    Symbol xcmdev = 24702   ( local)
    Symbol xcmcma = 25277   ( local)
    Symbol xcmcfm = 24512   ( local)
    Symbol xcmact = 24764   ( local)
    Symbol wrapx1 = 26060   ( local)
    Symbol wrapx = 26050   ( local)
    Symbol wrape = 26033   ( local)
    Symbol wrap1 = 26044   ( local)
    Symbol wrap0 = 26040   ( local)
    Symbol wrap = 26035   ( local)
    Symbol ustcmp = 25407   ( global)
    Symbol usrbrk = 23372   ( local)
    Symbol uncrlf = 23751   ( local)
    Symbol typtb2 = 24365   ( local)
    Symbol typtb1 = 24376   ( local)
    Symbol typtab = 24361   ( local)
    Symbol txti = 20000000   ( halfkilled local)
    Symbol txibad = 26063   ( local)
    Symbol tt%wkp = 20000   ( halfkilled global)
    Symbol tt%wkn = 40000   ( halfkilled global)
    Symbol tt%wkf = 100000   ( halfkilled global)
    Symbol tt%wka = 10000   ( halfkilled global)
    Symbol tt%wak = 170000   ( halfkilled global)
    Symbol tt%uoc = 40   ( halfkilled global)
    Symbol tt%eco = 4000   ( halfkilled global)
    Symbol tops10 = 26316   ( local)
    Symbol top = 0   ( halfkilled local)
    Symbol tlukx1 = 601237   ( local)
    Symbol tl%nom = 400000000000   ( halfkilled global)
    Symbol tl%exm = 40000000000   ( halfkilled global)
    Symbol tl%amb = 200000000000   ( halfkilled global)
    Symbol tl%abr = 100000000000   ( halfkilled global)
    Symbol tielch = 23564   ( local)
    Symbol tiecmd = 23756   ( local)
    Symbol tdelz = 25450   ( local)
    Symbol tdelx2 = 601403   ( local)
    Symbol tdelx1 = 601234   ( local)
    Symbol tblkn1 = 25621   ( local)
    Symbol tblk2a = 25602   ( local)
    Symbol taddx2 = 601236   ( local)
    Symbol taddx1 = 601235   ( local)
    Symbol tablkx = 25550   ( local)
    Symbol tablkn = 25611   ( local)
    Symbol tablkm = 25547   ( local)
    Symbol tablkf = 25541   ( local)
    Symbol tablka = 25551   ( local)
    Symbol tablk3 = 25555   ( local)
    Symbol tablk2 = 25570   ( local)
    Symbol tablk1 = 25553   ( local)
    Symbol tablk0 = 25534   ( local)
    Symbol t4 = 4   ( global)
    Symbol t3 = 3   ( global)
    Symbol t2 = 2   ( global)
    Symbol t1 = 1   ( global)
    Symbol sumex = 1   ( local)
    Symbol subbp = 23720   ( local)
    Symbol stsrc = 26570   ( local)
    Symbol strc2 = 25422   ( local)
    Symbol stp6 = 26612   ( local)
    Symbol stp3 = 26624   ( local)
    Symbol stolch = 23555   ( local)
    Symbol stflg = 26600   ( local)
    Symbol stansw = 1   ( local)
    Symbol sout = 104000000053   ( global)
    Symbol sobe = 104000000103   ( global)
    Symbol sibe = 104000000102   ( local)
    Symbol sfpos = 104000000526   ( local)
    Symbol sfmod = 104000000110   ( local)
    Symbol sfcoc = 104000000113   ( local)
    Symbol sc%sub = 200000000000   ( halfkilled global)
    Symbol sc%lss = 400000000000   ( halfkilled global)
    Symbol sc%gtr = 100000000000   ( halfkilled global)
    Symbol safe = 5   ( halfkilled local)
    Symbol rubo = 6   ( halfkilled local)
    Symbol rtypp = 26513   ( local)
    Symbol rtypes = 26514   ( local)
    Symbol rtype = 26506   ( local)
    Symbol rtyp4 = 26562   ( local)
    Symbol rtyp33 = 26550   ( local)
    Symbol rtyp3 = 26556   ( local)
    Symbol rtyp20 = 26543   ( local)
    Symbol rtyp1 = 26563   ( local)
    Symbol rtyp0 = 26547   ( local)
    Symbol rtyp = 7   ( halfkilled local)
    Symbol rtxt = 10000000   ( halfkilled local)
    Symbol rtty = 4000000   ( halfkilled local)
    Symbol rtsw1 = 26201   ( local)
    Symbol rtsetw = 26176   ( local)
    Symbol rptb = 26215   ( local)
    Symbol rfpos = 104000000111   ( global)
    Symbol rfmod = 104000000107   ( global)
    Symbol rfcoc = 104000000112   ( global)
    Symbol ret = 263740000000   ( global)
    Symbol rdtxt2 = 25654   ( local)
    Symbol rdtxt1 = 25752   ( local)
    Symbol rdtx1 = 601010   ( local)
    Symbol rdtopm = 25764   ( local)
    Symbol rdsout = 26156   ( local)
    Symbol rdqtc = 13   ( halfkilled local)
    Symbol rdqt = 26341   ( local)
    Symbol rdcrlf = 23576   ( local)
    Symbol rdcrc = 12   ( halfkilled local)
    Symbol rdcr2 = 26335   ( local)
    Symbol rdcr1 = 26330   ( local)
    Symbol rdcr = 26322   ( local)
    Symbol rdcbp = 26164   ( local)
    Symbol rdbout = 26150   ( local)
    Symbol rdbkin = 26232   ( local)
    Symbol rdbin2 = 26132   ( local)
    Symbol rdbin1 = 26140   ( local)
    Symbol rdbin = 26130   ( local)
    Symbol rd%top = 200000000000   ( halfkilled global)
    Symbol rd%sui = 100000000   ( halfkilled global)
    Symbol rd%rnd = 10000000000   ( halfkilled global)
    Symbol rd%rie = 2000000000   ( halfkilled global)
    Symbol rd%rai = 200000000   ( halfkilled global)
    Symbol rd%pun = 100000000000   ( halfkilled global)
    Symbol rd%jfn = 4000000000   ( halfkilled global)
    Symbol rd%crf = 20000000000   ( halfkilled global)
    Symbol rd%btm = 40000000   ( halfkilled global)
    Symbol rd%brk = 400000000000   ( halfkilled global)
    Symbol rd%blr = 10000000   ( halfkilled global)
    Symbol rd%bfe = 20000000   ( halfkilled global)
    Symbol rd%bel = 40000000000   ( halfkilled global)
    Symbol rd%bbg = 1000000000   ( halfkilled global)
    Symbol rcomn = 25716   ( local)
    Symbol rc%par = 10000000   ( halfkilled global)
    Symbol rc%nom = 40000000000   ( halfkilled global)
    Symbol rc%awl = 2000000   ( halfkilled global)
    Symbol rc%amb = 20000000000   ( halfkilled global)
    Symbol ratb = 26220   ( local)
    Symbol qw = 214000000000   ( halfkilled local)
    Symbol qq = 7   ( halfkilled local)
    Symbol q3 = 7   ( local)
    Symbol q2 = 6   ( local)
    Symbol q1 = 5   ( local)
    Symbol pupsw = 1   ( local)
    Symbol pupnx2 = 602031   ( halfkilled local)
    Symbol punc = 26317   ( local)
    Symbol pun = 4   ( halfkilled local)
    Symbol p5 = 14   ( local)
    Symbol p4 = 13   ( local)
    Symbol p3 = 12   ( local)
    Symbol p2 = 11   ( local)
    Symbol p1 = 10   ( local)
    Symbol p = 17   ( global)
    Symbol openf = 104000000021   ( local)
    Symbol of%bsz = 770000000000   ( halfkilled global)
    Symbol odcnv = 104000000222   ( global)
    Symbol nuxbrk = 24573   ( local)
    Symbol numbrk = 24567   ( local)
    Symbol nrptb = 3   ( halfkilled local)
    Symbol npxnul = 602047   ( local)
    Symbol npxnsw = 602045   ( local)
    Symbol npxnqs = 602054   ( local)
    Symbol npxnom = 602046   ( local)
    Symbol npxnmt = 602055   ( local)
    Symbol npxnmd = 602056   ( local)
    Symbol npxnc = 602051   ( local)
    Symbol npxinw = 602050   ( local)
    Symbol npxidt = 602053   ( local)
    Symbol npxicn = 602052   ( local)
    Symbol npxcma = 602057   ( local)
    Symbol npxamb = 602044   ( local)
    Symbol nout = 104000000224   ( local)
    Symbol noiech = 51   ( halfkilled local)
    Symbol noicom = 24477   ( local)
    Symbol noibch = 50   ( halfkilled local)
    Symbol nline = 23006   ( local)
    Symbol ninsrt = 25775   ( local)
    Symbol mtopr = 104000000077   ( local)
    Symbol measur = 27060   ( local)
    Symbol maxcfn = 31   ( halfkilled local)
    Symbol lcomnd = 27133   ( local)
    Symbol kwrd = 11   ( halfkilled local)
    Symbol klword = 26450   ( local)
    Symbol kll = 10   ( halfkilled local)
    Symbol keyw4 = 24227   ( local)
    Symbol keyw3 = 24215   ( local)
    Symbol keyw2 = 24221   ( local)
    Symbol keyw0 = 24165   ( local)
    Symbol keytab = 24317   ( local)
    Symbol key5 = 24351   ( local)
    Symbol key4 = 24350   ( local)
    Symbol key3 = 24333   ( local)
    Symbol key2 = 24335   ( local)
    Symbol key1 = 24412   ( local)
    Symbol jsys = 104000000000   ( global)
    Symbol itexti = 25715   ( local)
    Symbol intt = 40000000   ( halfkilled local)
    Symbol insrt1 = 26023   ( local)
    Symbol insrt = 26012   ( local)
    Symbol inilch = 23546   ( local)
    Symbol inilc1 = 23550   ( local)
    Symbol ifiw = 400000000000   ( halfkilled global)
    Symbol gttyp = 104000000303   ( local)
    Symbol gtsts = 104000000024   ( local)
    Symbol gs%eof = 1000000000   ( halfkilled global)
    Symbol gjfx48 = 602064   ( global)
    Symbol gj%xtn = 4000000   ( halfkilled global)
    Symbol gj%msg = 40000000000   ( halfkilled global)
    Symbol gj%fou = 400000000000   ( halfkilled global)
    Symbol getwth = 27053   ( local)
    Symbol getpos = 24404   ( local)
    Symbol getcoc = 27046   ( local)
    Symbol g1%rnd = 400000000000   ( halfkilled global)
    Symbol g1%rie = 20000000000   ( halfkilled global)
    Symbol g1%rcm = 40000000000   ( halfkilled global)
    Symbol g1%rbf = 200000000000   ( halfkilled global)
    Symbol fndln2 = 26302   ( local)
    Symbol fndln1 = 26261   ( local)
    Symbol fndlin = 26252   ( local)
    Symbol fltbrk = 24542   ( local)
    Symbol fldbrk = 23360   ( local)
    Symbol filbrk = 23366   ( local)
    Symbol f = 0   ( global)
    Symbol erstr = 104000000011   ( local)
    Symbol erjmp = 320700000000   ( local)
    Symbol eolc = 3   ( halfkilled local)
    Symbol eolbrk = 23376   ( local)
    Symbol eol1 = 26336   ( local)
    Symbol dspmf = 2000000   ( halfkilled local)
    Symbol dpctl1 = 26753   ( local)
    Symbol dpctl = 26735   ( global)
    Symbol dohlp = 24001   ( local)
    Symbol dobe = 104000000104   ( global)
    Symbol disptc = 26103   ( local)
    Symbol ding = 26030   ( local)
    Symbol delin3 = 26447   ( local)
    Symbol delin2 = 26443   ( local)
    Symbol delin1 = 26441   ( local)
    Symbol delin0 = 26414   ( local)
    Symbol delin = 26405   ( local)
    Symbol delc4 = 26370   ( local)
    Symbol delc2 = 26371   ( local)
    Symbol delc1 = 26400   ( local)
    Symbol delc = 26351   ( local)
    Symbol d = 4   ( local)
    Symbol cx = 16   ( global)
    Symbol curup = 26640   ( local)
    Symbol curspt = 26713   ( local)
    Symbol curnrm = 26672   ( local)
    Symbol curdn = 26636   ( local)
    Symbol curbkw = 26650   ( local)
    Symbol curbk2 = 26710   ( local)
    Symbol curbk1 = 26702   ( local)
    Symbol curbk0 = 26653   ( local)
    Symbol curbk = 26652   ( local)
    Symbol ctbl = 26111   ( local)
    Symbol comx20 = 602212   ( global)
    Symbol comx19 = 602135   ( global)
    Symbol comx18 = 602134   ( global)
    Symbol comx17 = 602043   ( local)
    Symbol comx16 = 602042   ( local)
    Symbol comx15 = 602041   ( local)
    Symbol comx14 = 602040   ( local)
    Symbol comx13 = 602037   ( local)
    Symbol comx12 = 602036   ( local)
    Symbol comx11 = 602035   ( local)
    Symbol comx10 = 601767   ( local)
    Symbol comnx9 = 601413   ( local)
    Symbol comnx8 = 601321   ( local)
    Symbol comnx3 = 601261   ( local)
    Symbol comnx2 = 601260   ( local)
    Symbol comnx1 = 601257   ( local)
    Symbol comn1 = 22724   ( local)
    Symbol colup = 27022   ( local)
    Symbol colums = 26761   ( local)
    Symbol coltr = 27077   ( local)
    Symbol colti = 27123   ( local)
    Symbol colte = 27075   ( local)
    Symbol coltab = 27030   ( local)
    Symbol colt2 = 27037   ( local)
    Symbol colt1 = 27066   ( local)
    Symbol colr1 = 27102   ( local)
    Symbol colnc = 27010   ( local)
    Symbol coldn = 27001   ( local)
    Symbol colacc = 27112   ( local)
    Symbol col2 = 27004   ( local)
    Symbol col1 = 27002   ( local)
    Symbol col0 = 27006   ( local)
    Symbol cmusrf = 100000   ( halfkilled local)
    Symbol cmusou = 24045   ( local)
    Symbol cmuso1 = 24051   ( local)
    Symbol cmuqs1 = 24750   ( local)
    Symbol cmtset = 24660   ( local)
    Symbol cmtok2 = 25166   ( local)
    Symbol cmtok1 = 25164   ( local)
    Symbol cmtf1 = 2000   ( halfkilled local)
    Symbol cmtadh = 24673   ( local)
    Symbol cmtab2 = 24265   ( local)
    Symbol cmtab1 = 24257   ( local)
    Symbol cmtab = 24355   ( local)
    Symbol cmswtm = 72   ( halfkilled local)
    Symbol cmswf = 200000   ( halfkilled local)
    Symbol cmswch = 57   ( halfkilled local)
    Symbol cmsout = 24040   ( local)
    Symbol cmsksp = 23713   ( local)
    Symbol cmrtyp = 23237   ( local)
    Symbol cmrty6 = 23276   ( local)
    Symbol cmrty5 = 23275   ( local)
    Symbol cmrty4 = 23270   ( local)
    Symbol cmrty3 = 23263   ( local)
    Symbol cmrty2 = 23267   ( local)
    Symbol cmrty1 = 23262   ( local)
    Symbol cmrty0 = 23254   ( local)
    Symbol cmrstr = 23470   ( local)
    Symbol cmrsqt = 23514   ( local)
    Symbol cmrspc = 23471   ( local)
    Symbol cmrsp3 = 23500   ( local)
    Symbol cmrsp1 = 23474   ( local)
    Symbol cmrset = 23127   ( local)
    Symbol cmrs1 = 23512   ( local)
    Symbol cmrqut = 23440   ( local)
    Symbol cmrqst = 23517   ( local)
    Symbol cmrqs2 = 23544   ( local)
    Symbol cmrqs1 = 23531   ( local)
    Symbol cmroom = 23445   ( local)
    Symbol cmrfld = 23402   ( local)
    Symbol cmrfil = 23364   ( local)
    Symbol cmrdoc = 10   ( halfkilled local)
    Symbol cmrdo1 = 177   ( halfkilled local)
    Symbol cmrdf1 = 23464   ( local)
    Symbol cmrdef = 23457   ( local)
    Symbol cmratt = 23453   ( local)
    Symbol cmratr = 23452   ( local)
    Symbol cmratm = 23356   ( local)
    Symbol cmrat3 = 23436   ( local)
    Symbol cmrat2 = 23413   ( local)
    Symbol cmrat1 = 23405   ( local)
    Symbol cmquot = 26   ( halfkilled local)
    Symbol cmques = 400000   ( halfkilled local)
    Symbol cmque2 = 10000   ( halfkilled local)
    Symbol cmqtch = 42   ( halfkilled local)
    Symbol cmq5 = 24272   ( local)
    Symbol cmq4 = 24313   ( local)
    Symbol cmq3 = 24242   ( local)
    Symbol cmq2 = 24300   ( local)
    Symbol cmq1 = 24241   ( local)
    Symbol cmpups = 25325   ( local)
    Symbol cmpuph = 25351   ( local)
    Symbol cmpupe = 25360   ( local)
    Symbol cmpup2 = 25343   ( local)
    Symbol cmpup1 = 25337   ( local)
    Symbol cmpup0 = 25330   ( local)
    Symbol cmnxte = 24277   ( local)
    Symbol cmnumr = 24561   ( local)
    Symbol cmnumh = 24577   ( local)
    Symbol cmnoi4 = 24435   ( local)
    Symbol cmnoi3 = 24440   ( local)
    Symbol cmnoi2 = 24454   ( local)
    Symbol cmnoi1 = 24445   ( local)
    Symbol cmnod = 400000000000   ( halfkilled local)
    Symbol cmnh8 = 24622   ( local)
    Symbol cmnh10 = 24624   ( local)
    Symbol cmnh = 24625   ( local)
    Symbol cmkey0 = 24165   ( local)
    Symbol cmini5 = 24111   ( local)
    Symbol cmini4 = 24132   ( local)
    Symbol cmini3 = 24141   ( local)
    Symbol cmini2 = 24112   ( local)
    Symbol cmini1 = 24116   ( local)
    Symbol cmindf = 1000   ( halfkilled local)
    Symbol cminde = 23337   ( local)
    Symbol cmindc = 100   ( halfkilled local)
    Symbol cmind2 = 23326   ( local)
    Symbol cmind1 = 23313   ( local)
    Symbol cmind = 23302   ( local)
    Symbol cmhlpc = 77   ( halfkilled local)
    Symbol cmgtln = 24411   ( local)
    Symbol cmgje = 25120   ( local)
    Symbol cmgjc = 25127   ( local)
    Symbol cmgj1 = 25130   ( local)
    Symbol cmgdp = 23043   ( local)
    Symbol cmgdef = 23454   ( local)
    Symbol cmfxl1 = 25033   ( local)
    Symbol cmfset = 23123   ( local)
    Symbol cmfrec = 6   ( halfkilled local)
    Symbol cmfld1 = 24761   ( local)
    Symbol cmfil2 = 25071   ( local)
    Symbol cmfil1 = 25070   ( local)
    Symbol cmfil0 = 25044   ( local)
    Symbol cmfhlp = 25144   ( local)
    Symbol cmfh1 = 25156   ( local)
    Symbol cmdrec = 25267   ( local)
    Symbol cmdirh = 25237   ( local)
    Symbol cmdir9 = 25225   ( local)
    Symbol cmdir8 = 25257   ( local)
    Symbol cmdir7 = 25233   ( local)
    Symbol cmdir6 = 25262   ( local)
    Symbol cmdir5 = 25247   ( local)
    Symbol cmdir4 = 25207   ( local)
    Symbol cmdir3 = 25221   ( local)
    Symbol cmdir2 = 25227   ( local)
    Symbol cmdir1 = 25202   ( local)
    Symbol cmdip = 23737   ( local)
    Symbol cmdibq = 23766   ( local)
    Symbol cmdib = 23765   ( local)
    Symbol cmdevh = 24731   ( local)
    Symbol cmdev3 = 24725   ( local)
    Symbol cmdev2 = 24721   ( local)
    Symbol cmdev1 = 24713   ( local)
    Symbol cmdemo = 25265   ( local)
    Symbol cmdeff = 40000   ( halfkilled local)
    Symbol cmdefc = 43   ( halfkilled local)
    Symbol cmdch = 23731   ( local)
    Symbol cmcout = 24031   ( local)
    Symbol cmconc = 55   ( halfkilled local)
    Symbol cmcom2 = 73   ( halfkilled local)
    Symbol cmcom1 = 41   ( halfkilled local)
    Symbol cmcom = 23053   ( local)
    Symbol cmcmt2 = 23051   ( local)
    Symbol cmcmt1 = 23052   ( local)
    Symbol cmcint = 23611   ( local)
    Symbol cmcin4 = 23706   ( local)
    Symbol cmcin3 = 23675   ( local)
    Symbol cmcin2 = 23646   ( local)
    Symbol cmcin1 = 23620   ( local)
    Symbol cmcin = 23572   ( local)
    Symbol cmchr = 25301   ( local)
    Symbol cmcfm0 = 24515   ( local)
    Symbol cmcff = 20000   ( halfkilled local)
    Symbol cmbol = 4000   ( halfkilled local)
    Symbol cmatfi = 25026   ( local)
    Symbol cmapc = 23773   ( local)
    Symbol cmamb = 24020   ( local)
    Symbol cm%xif = 2000000000   ( halfkilled global)
    Symbol cm%wkf = 1000000000   ( halfkilled global)
    Symbol cm%swt = 20000000000   ( halfkilled global)
    Symbol cm%sdh = 1000000   ( halfkilled global)
    Symbol cm%rpt = 40000000000   ( halfkilled global)
    Symbol cm%rai = 4000000000   ( halfkilled global)
    Symbol cm%po = 10000000   ( halfkilled global)
    Symbol cm%pfe = 10000000000   ( halfkilled global)
    Symbol cm%nsp = 400000000   ( halfkilled global)
    Symbol cm%nor = 2   ( halfkilled global)
    Symbol cm%nci = 100000000000   ( halfkilled global)
    Symbol cm%lst = 777777   ( halfkilled global)
    Symbol cm%itm = 200000000000   ( halfkilled global)
    Symbol cm%inv = 1   ( halfkilled global)
    Symbol cm%ida = 400000000000   ( halfkilled global)
    Symbol cm%hpp = 4000000   ( halfkilled global)
    Symbol cm%gjb = 777777   ( halfkilled global)
    Symbol cm%fw = 2000000000   ( halfkilled global)
    Symbol cm%fnc = 777000000000   ( halfkilled global)
    Symbol cm%fix = 200000000   ( halfkilled global)
    Symbol cm%ffl = 777000000   ( halfkilled global)
    Symbol cm%esc = 400000000000   ( halfkilled global)
    Symbol cm%eoc = 100000000000   ( halfkilled global)
    Symbol cm%dwc = 400000000000   ( halfkilled global)
    Symbol cm%dpp = 2000000   ( halfkilled global)
    Symbol cm%abr = 4   ( halfkilled global)
    Symbol clrpgq = 26721   ( local)
    Symbol clrpag = 26731   ( local)
    Symbol closf = 104000000022   ( local)
    Symbol chrwrd = 11   ( halfkilled local)
    Symbol chktbs = 25365   ( local)
    Symbol chklch = 23561   ( local)
    Symbol chkbp = 24067   ( local)
    Symbol chkblp = 26240   ( local)
    Symbol chkbl1 = 26250   ( local)
    Symbol chkabp = 24055   ( local)
    Symbol chkab1 = 24057   ( local)
    Symbol cfntab = 23066   ( local)
    Symbol cfibf = 104000000100   ( global)
    Symbol ccbtab = 26072   ( local)
    Symbol ccbits = 4   ( halfkilled local)
    Symbol callre = 254000000000   ( halfkilled global)
    Symbol call = 260740000000   ( global)
    Symbol c = 3   ( local)
    Symbol bwrd4 = 26456   ( local)
    Symbol bwrd3 = 26475   ( local)
    Symbol bwrd2 = 26477   ( local)
    Symbol bwrd1 = 26465   ( local)
    Symbol brk = 1   ( halfkilled local)
    Symbol brflgs = 740000000000   ( halfkilled local)
    Symbol breaks = 26313   ( local)
    Symbol bout = 104000000051   ( global)
    Symbol bnull = 26026   ( local)
    Symbol bkjfn = 104000000042   ( local)
    Symbol bin = 104000000050   ( local)
    Symbol back = 26223   ( local)
    Symbol b = 2   ( local)
    Symbol a = 1   ( local)
    Symbol comnd = 775342021715   ()
    Symbol  = 21715   ()
    Symbol .trset = 21555   ( global)
    Symbol .trret = 21562   ( global)
    Symbol .stkst = 21532   ( global)
    Symbol .stkrt = 21536   ( global)
    Symbol .sav8 = 21644   ( global)
    Symbol .sav4 = 21630   ( global)
    Symbol .sav3 = 21630   ( global)
    Symbol .sav2 = 21620   ( global)
    Symbol .sav1 = 21612   ( global)
    Symbol .sac = 16   ( local)
    Symbol .rlend = 21714   ( halfkilled global)
    Symbol .rhalf = 777777   ( halfkilled global)
    Symbol .priou = 101   ( local)
    Symbol .priin = 100   ( local)
    Symbol .npac = 10   ( halfkilled local)
    Symbol .minfi = 400000000000   ( halfkilled global)
    Symbol .lhalf = 777777000000   ( halfkilled global)
    Symbol .infin = 377777777777   ( halfkilled global)
    Symbol .fword = 777777777777   ( halfkilled global)
    Symbol .fpac = 5   ( halfkilled local)
    Symbol .fp = 15   ( halfkilled local)
    Symbol .fhslf = 400000   ( local)
    Symbol .chvtb = 13   ( halfkilled global)
    Symbol .chtab = 11   ( halfkilled global)
    Symbol .chnul = 0   ( halfkilled global)
    Symbol .chlfd = 12   ( halfkilled global)
    Symbol .chffd = 14   ( halfkilled global)
    Symbol .chesc = 33   ( halfkilled global)
    Symbol .chdel = 177   ( halfkilled global)
    Symbol .chcun = 37   ( halfkilled global)
    Symbol .chcrt = 15   ( halfkilled global)
    Symbol .chcrb = 35   ( halfkilled global)
    Symbol .chcnz = 32   ( halfkilled global)
    Symbol .chcny = 31   ( halfkilled global)
    Symbol .chcnx = 30   ( halfkilled global)
    Symbol .chcnw = 27   ( halfkilled global)
    Symbol .chcnv = 26   ( halfkilled global)
    Symbol .chcnu = 25   ( halfkilled global)
    Symbol .chcnt = 24   ( halfkilled global)
    Symbol .chcns = 23   ( halfkilled global)
    Symbol .chcnr = 22   ( halfkilled global)
    Symbol .chcnq = 21   ( halfkilled global)
    Symbol .chcnp = 20   ( halfkilled global)
    Symbol .chcno = 17   ( halfkilled global)
    Symbol .chcnn = 16   ( halfkilled global)
    Symbol .chcnf = 6   ( halfkilled global)
    Symbol .chcne = 5   ( halfkilled global)
    Symbol .chcnd = 4   ( halfkilled global)
    Symbol .chcnc = 3   ( halfkilled global)
    Symbol .chcnb = 2   ( halfkilled global)
    Symbol .chcna = 1   ( halfkilled global)
    Symbol .chccf = 36   ( halfkilled global)
    Symbol .chcbs = 34   ( halfkilled global)
    Symbol .chbsp = 10   ( halfkilled global)
    Symbol .chbel = 7   ( halfkilled global)
    Symbol .chalt = 175   ( halfkilled global)
    Symbol .chal2 = 176   ( halfkilled global)
    Symbol .asset = 21576   ( global)
    Symbol .asret = 21605   ( global)
    Symbol .ac3 = 3   ( halfkilled local)
    Symbol .ac2 = 2   ( halfkilled local)
    Symbol .ac1 = 1   ( halfkilled local)
    Symbol .a16 = 16   ( halfkilled local)
    Symbol xsfm = 254600000000   ( local)
    Symbol xmovei = 415000000000   ( local)
    Symbol xjrstf = 254240000000   ( local)
    Symbol vi%who = 700000000000   ( halfkilled global)
    Symbol vi%min = 77000000   ( halfkilled global)
    Symbol vi%maj = 77700000000   ( halfkilled global)
    Symbol vi%edn = 777777   ( halfkilled global)
    Symbol trsov1 = 21571   ( local)
    Symbol trsov = 21567   ( local)
    Symbol trset1 = 21561   ( local)
    Symbol stksov = 21546   ( local)
    Symbol stkso1 = 21550   ( local)
    Symbol stkse1 = 21534   ( local)
    Symbol stkrt0 = 21543   ( local)
    Symbol rskp = 21663   ( global)
    Symbol ret = 263740000000   ( local)
    Symbol r = 21664   ( global)
    Symbol psout = 104000000076   ( local)
    Symbol pc%usr = 10000000000   ( halfkilled global)
    Symbol pc%uio = 4000000000   ( halfkilled global)
    Symbol pc%ovf = 400000000000   ( halfkilled global)
    Symbol pc%ndv = 40000000   ( halfkilled global)
    Symbol pc%lip = 2000000000   ( halfkilled global)
    Symbol pc%fuf = 100000000   ( halfkilled global)
    Symbol pc%fov = 40000000000   ( halfkilled global)
    Symbol pc%cy1 = 100000000000   ( halfkilled global)
    Symbol pc%cy0 = 200000000000   ( halfkilled global)
    Symbol pc%bis = 20000000000   ( halfkilled global)
    Symbol pc%atn = 600000000   ( halfkilled global)
    Symbol pc%afi = 1000000000   ( halfkilled global)
    Symbol p = 17   ( local)
    Symbol jsmsg0 = 21514   ( global)
    Symbol jshlt1 = 21526   ( local)
    Symbol jshlt0 = 21525   ( global)
    Symbol jserr0 = 21506   ( global)
    Symbol haltf = 104000000170   ( local)
    Symbol erstr = 104000000011   ( local)
    Symbol dobe = 104000000104   ( local)
    Symbol d = 4   ( local)
    Symbol cfibf = 104000000100   ( local)
    Symbol callre = 254000000000   ( local)
    Symbol call = 260740000000   ( local)
    Symbol c = 3   ( local)
    Symbol b = 2   ( local)
    Symbol asset1 = 21604   ( local)
    Symbol a = 1   ( local)
    Symbol macrel = 777442021506   ()
    Symbol  = 21506   ()
    Symbol .priou = 101   ( local)
    Symbol .fhslf = 400000   ( local)
    Symbol usrhnd = 21467   ( local)
    Symbol usracs = 21254   ( local)
    Symbol uslv1 = 21247   ( local)
    Symbol usinst = 21243   ( local)
    Symbol usinon = 21242   ( local)
    Symbol usch15 = 21241   ( local)
    Symbol uatchm = 21244   ( local)
    Symbol tmploc = 21250   ( local)
    Symbol stkflg = 21251   ( local)
    Symbol sterpc = 21437   ( local)
    Symbol skpir = 104000000127   ( global)
    Symbol sir = 104000000125   ( local)
    Symbol savacs = 21272   ( local)
    Symbol rstacs = 21277   ( local)
    Symbol rlsdon = 21401   ( local)
    Symbol rir = 104000000144   ( local)
    Symbol rcm = 104000000134   ( local)
    Symbol psitab = 21246   ( local)
    Symbol pri1 = 1   ( local)
    Symbol p = 17   ( local)
    Symbol lvtblc = 7   ( local)
    Symbol lsterr = 21252   ( global)
    Symbol levtab = 21171   ( local)
    Symbol lev1 = 0   ( local)
    Symbol jmphnd = 21451   ( local)
    Symbol haltf = 104000000170   ( local)
    Symbol geter = 104000000012   ( local)
    Symbol getabs = 21304   ( local)
    Symbol ertrap = 21240   ( global)
    Symbol ertplc = 21245   ( local)
    Symbol erstr = 104000000011   ( local)
    Symbol errlse = 21360   ( global)
    Symbol errloc = 21253   ( global)
    Symbol erjmp = 320700000000   ( local)
    Symbol erinit = 21316   ( global)
    Symbol erhndl = 21404   ( local)
    Symbol ercal = 320740000000   ( local)
    Symbol eir = 104000000126   ( local)
    Symbol dir = 104000000130   ( global)
    Symbol debrk = 104000000136   ( global)
    Symbol d = 4   ( local)
    Symbol chtblc = 5   ( local)
    Symbol chntab = 21174   ( local)
    Symbol ch15 = 17   ( local)
    Symbol calhnd = 21454   ( local)
    Symbol c = 3   ( local)
    Symbol b = 2   ( local)
    Symbol aic = 104000000131   ( local)
    Symbol a = 1   ( local)
    Symbol .main = 777626021171   ()
    Symbol  = 21171   ()
    Symbol .main = 777774021171   ()
    Symbol  = 21171   ()
    Symbol it%nti = 4000000000   ( halfkilled global)
    Symbol pm%rd = 100000000000   ( halfkilled global)
    Symbol .priou = 101   ( halfkilled global)
    Symbol .ttdes = 400000   ( halfkilled global)
    Symbol .cmusr = 12   ( halfkilled global)
    Symbol .fhslf = 400000   ( halfkilled global)
    Symbol .nulio = 377777   ( halfkilled global)
    Symbol fl%one = 20000000000   ( halfkilled global)
    Symbol .cmini = 14   ( halfkilled global)
    Symbol .icpov = 11   ( halfkilled global)
    Symbol pm%wr = 40000000000   ( halfkilled global)
    Symbol .jiuno = 2   ( halfkilled global)
    Symbol of%app = 20000   ( halfkilled global)
    Symbol no%lfl = 100000000000   ( halfkilled global)
    Symbol .icili = 17   ( halfkilled global)
    Symbol gj%old = 100000000000   ( halfkilled global)
    Symbol .cmnum = 1   ( halfkilled global)
    Symbol cm%nop = 200000000000   ( halfkilled global)
    Symbol fl%pnt = 4000000000   ( halfkilled global)
    Symbol .fbctl = 1   ( halfkilled global)
    Symbol co%nrj = 400000000000   ( halfkilled global)
    Symbol .fbsiz = 12   ( halfkilled global)
    Symbol gj%sht = 1000000   ( halfkilled global)
    Symbol of%rd = 200000   ( halfkilled global)
    Symbol pm%cpy = 400000000   ( halfkilled global)
    Symbol .snpsy = 6   ( halfkilled global)
    Symbol rc%emo = 1000000   ( halfkilled global)
    Symbol tt%dam = 300   ( halfkilled global)
    Symbol .cmkey = 0   ( halfkilled global)
    Symbol of%thw = 2000   ( halfkilled global)
    Symbol .cmcfm = 10   ( halfkilled global)
    Symbol of%wr = 100000   ( halfkilled global)
    Symbol fb%nxf = 20000000000   ( halfkilled global)
    Symbol ot%scl = 1000000   ( halfkilled global)
    Symbol no%zro = 40000000000   ( halfkilled global)
    Symbol pm%cnt = 400000000000   ( halfkilled global)
    Symbol rfmod = 104000000107   ( local)
    Symbol sfptr = 104000000027   ( local)
    Symbol gtad = 104000000227   ( local)
    Symbol sfmod = 104000000110   ( local)
    Symbol odtim = 104000000220   ( local)
    Symbol idle = 104000000701   ( local)
    Symbol snoop = 104000000516   ( local)
    Symbol rin = 104000000054   ( local)
    Symbol dirst = 104000000041   ( local)
    Symbol lgout = 104000000003   ( local)
    Symbol psout = 104000000076   ( local)
    Symbol dic = 104000000133   ( local)
    Symbol chfdb = 104000000064   ( local)
    Symbol erjmp = 320700000000   ( local)
    Symbol gtfdb = 104000000063   ( local)
    Symbol flout = 104000000233   ( local)
    Symbol sizef = 104000000036   ( local)
    Symbol gtblt = 104000000634   ( local)
    Symbol uerr = 1000000000   ( local)
    Symbol dobe = 104000000104   ( local)
    Symbol rfcoc = 104000000112   ( local)
    Symbol ttmsg = 104000000775   ( local)
    Symbol nout = 104000000224   ( local)
    Symbol sfcoc = 104000000113   ( local)
    Symbol rpcap = 104000000150   ( local)
    Symbol z = 0   ( local)
    Symbol get = 104000000200   ( local)
    Symbol gttyp = 104000000303   ( local)
    Symbol call = 260740000000   ( local)
    Symbol gevec = 104000000205   ( local)
    Symbol pmap = 104000000056   ( local)
    Symbol aic = 104000000131   ( local)
    Symbol rcusr = 104000000554   ( local)
    Symbol openf = 104000000021   ( local)
    Symbol bout = 104000000051   ( local)
    Symbol reset = 104000000147   ( local)
    Symbol peek = 104000000311   ( local)
    Symbol ret = 263740000000   ( local)
    Symbol sysgt = 104000000016   ( local)
    Symbol debrk = 104000000136   ( local)
    Symbol sin = 104000000052   ( local)
    Symbol sobe = 104000000103   ( local)
    Symbol haltf = 104000000170   ( local)
    Symbol getji = 104000000507   ( local)
    Symbol sir = 104000000125   ( local)
    Symbol erstr = 104000000011   ( local)
    Symbol idtnc = 104000000231   ( local)
    Symbol $pmap = 104000000056   ( local)
    Symbol closf = 104000000022   ( local)
    Symbol ercal = 320740000000   ( local)
    Symbol time = 104000000014   ( local)
    Symbol odcnv = 104000000222   ( local)
    Symbol sout = 104000000053   ( local)
    Symbol epcap = 104000000151   ( local)
    Symbol getab = 104000000010   ( local)
    Symbol rfptr = 104000000043   ( local)
    Symbol disms = 104000000167   ( local)
    Symbol gtjfn = 104000000020   ( local)
    Symbol eir = 104000000126   ( local)
    Symbol gjfx28 = 600110   ( local)
    Symbol cfdbx4 = 600433   ( local)
    Symbol smonx1 = 600515   ( local)
    Symbol waddr = 13141   ( local)
    Symbol repind = 15727   ( local)
    Symbol decsw = 0   ( halfkilled local)
    Symbol inqjfn = 145   ( local)
    Symbol rusrlg = 17521   ( local)
    Symbol hstini = 17701   ( local)
    Symbol gjfx27 = 600107   ( local)
    Symbol clsx1 = 600160   ( local)
    Symbol cfdbx3 = 600432   ( local)
    Symbol sizmxz = 3   ( halfkilled local)
    Symbol upbirx = 17065   ( local)
    Symbol movstl = 20125   ( local)
    Symbol gjfx26 = 600106   ( local)
    Symbol clsx2 = 600161   ( local)
    Symbol cfdbx2 = 600431   ( local)
    Symbol usattt = 13033   ( local)
    Symbol gjfx1 = 600055   ( local)
    Symbol gjfx25 = 600105   ( local)
    Symbol mntx1 = 600345   ( local)
    Symbol cfdbx1 = 600430   ( local)
    Symbol pagez = 547   ( halfkilled local)
    Symbol cmdblk = 12641   ( local)
    Symbol fkwsp = 10752   ( local)
    Symbol dpymsg = 16513   ( local)
    Symbol inqcls = 17325   ( local)
    Symbol eofdsp = 154   ( local)
    Symbol gjfx2 = 600056   ( local)
    Symbol gjfx24 = 600104   ( local)
    Symbol mntx2 = 600346   ( local)
    Symbol ffufx3 = 600546   ( local)
    Symbol pnvtlo = 500006   ( local)
    Symbol winp = 12621   ( local)
    Symbol gjfx3 = 600057   ( local)
    Symbol gjfx23 = 600103   ( local)
    Symbol mntx3 = 600347   ( local)
    Symbol ffufx2 = 600545   ( local)
    Symbol ssavx2 = 600601   ( local)
    Symbol wphonp = 15565   ( local)
    Symbol upbirt = 16766   ( local)
    Symbol $brday = 10   ( halfkilled local)
    Symbol jobrt0 = 12675   ( local)
    Symbol lnkchk = 17564   ( local)
    Symbol gjfx4 = 600060   ( local)
    Symbol gjfx22 = 600102   ( local)
    Symbol ttyx1 = 600360   ( local)
    Symbol sactx4 = 600533   ( local)
    Symbol ffufx1 = 600544   ( local)
    Symbol ssavx1 = 600600   ( local)
    Symbol nvthi = 500004   ( local)
    Symbol uslgot = 13031   ( local)
    Symbol jobfks = 543000   ( local)
    Symbol ndhl = 12660   ( local)
    Symbol badnap = 20072   ( local)
    Symbol errdsp = 155   ( local)
    Symbol gjfx5 = 600061   ( local)
    Symbol gjfx21 = 600101   ( local)
    Symbol sactx3 = 600532   ( local)
    Symbol rlogp = 12704   ( local)
    Symbol npages = 47   ( halfkilled local)
    Symbol typmsz = 16506   ( local)
    Symbol maxbir = 10   ( halfkilled local)
    Symbol birtsw = 777777777777   ( halfkilled local)
    Symbol gjfx6 = 600062   ( local)
    Symbol gjfx20 = 600100   ( local)
    Symbol sactx2 = 600531   ( local)
    Symbol xxsw = 0   ( halfkilled local)
    Symbol mkimgl = 16641   ( local)
    Symbol date = 167   ( local)
    Symbol gjfx7 = 600063   ( local)
    Symbol sactx1 = 600530   ( local)
    Symbol maxfld = 22   ( halfkilled local)
    Symbol rindet = 15764   ( local)
    Symbol filpag = 500   ( halfkilled local)
    Symbol nfs = 500   ( halfkilled local)
    Symbol clrtb = 16520   ( local)
    Symbol idlmsg = 12421   ( halfkilled local)
    Symbol gjfx8 = 600064   ( local)
    Symbol opnx19 = 600142   ( local)
    Symbol gactx2 = 600541   ( local)
    Symbol $wphon = 4   ( halfkilled local)
    Symbol idle = 16425   ( local)
    Symbol birtst = 200   ( local)
    Symbol gjfx9 = 600065   ( local)
    Symbol opnx18 = 600141   ( local)
    Symbol gtabx2 = 600270   ( local)
    Symbol gactx1 = 600540   ( local)
    Symbol cmdtab = 15663   ( local)
    Symbol fkjob0 = 12665   ( local)
    Symbol opnx17 = 600140   ( local)
    Symbol gtabx1 = 600267   ( local)
    Symbol flinx4 = 600653   ( local)
    Symbol ttnetw = 3252   ( local)
    Symbol ournam = 140   ( local)
    Symbol inqrd1 = 17332   ( local)
    Symbol ntrtab = 1   ( halfkilled local)
    Symbol opnx16 = 600137   ( local)
    Symbol dsmx1 = 600555   ( local)
    Symbol flinx3 = 600652   ( local)
    Symbol atpx1 = 600710   ( local)
    Symbol ttylad = 505000   ( local)
    Symbol opnx15 = 600136   ( local)
    Symbol flinx2 = 600651   ( local)
    Symbol atpx2 = 600711   ( local)
    Symbol jobbsz = 200   ( halfkilled local)
    Symbol filnam = 12705   ( local)
    Symbol nfks = 12657   ( local)
    Symbol idladr = 501000   ( local)
    Symbol tmrint = 20017   ( local)
    Symbol opnx14 = 600135   ( local)
    Symbol flinx1 = 600650   ( local)
    Symbol atpx3 = 600712   ( local)
    Symbol $hname = 1   ( halfkilled local)
    Symbol usrdet = 526000   ( local)
    Symbol fkjob = 11452   ( local)
    Symbol movsle = 20133   ( local)
    Symbol opnx13 = 600134   ( local)
    Symbol frkhx6 = 600255   ( local)
    Symbol atpx4 = 600713   ( local)
    Symbol usrpag = 510   ( halfkilled local)
    Symbol $remrk = 15   ( halfkilled local)
    Symbol reap = 17370   ( local)
    Symbol rdeftm = 162   ( local)
    Symbol opnx12 = 600133   ( local)
    Symbol frkhx5 = 600254   ( local)
    Symbol atpx5 = 600714   ( local)
    Symbol jobid1 = 6052   ( local)
    Symbol pdlint = 20045   ( local)
    Symbol efctx3 = 600052   ( local)
    Symbol opnx11 = 600132   ( local)
    Symbol pmapx2 = 600241   ( local)
    Symbol frkhx4 = 600253   ( local)
    Symbol atpx6 = 600715   ( local)
    Symbol nperpg = 10   ( halfkilled local)
    Symbol repin2 = 15755   ( local)
    Symbol filjfn = 143   ( local)
    Symbol wtlst = 12661   ( local)
    Symbol jobltd = 544000   ( local)
    Symbol rchkrt = 17472   ( local)
    Symbol ttlnk1 = 2252   ( local)
    Symbol npdl = 177   ( halfkilled local)
    Symbol go = 15617   ( local)
    Symbol efctx2 = 600051   ( local)
    Symbol opnx10 = 600131   ( local)
    Symbol pmapx1 = 600240   ( local)
    Symbol frkhx3 = 600252   ( local)
    Symbol atpx7 = 600716   ( local)
    Symbol ttlnk0 = 12666   ( local)
    Symbol updt16 = 16251   ( local)
    Symbol dom = 163   ( local)
    Symbol efctx1 = 600050   ( local)
    Symbol frkhx2 = 600251   ( local)
    Symbol dchrx1 = 600330   ( local)
    Symbol zonex1 = 600461   ( local)
    Symbol atpx8 = 600717   ( local)
    Symbol updt15 = 16247   ( local)
    Symbol reapnx = 17426   ( local)
    Symbol timron = 17751   ( local)
    Symbol frkhx1 = 600250   ( local)
    Symbol atpx9 = 600720   ( local)
    Symbol updt14 = 16211   ( local)
    Symbol fkpt = 7052   ( local)
    Symbol vt1msg = 16612   ( local)
    Symbol holupd = 17070   ( local)
    Symbol gfrnam = 17717   ( local)
    Symbol brdayp = 15571   ( local)
    Symbol nidlps = 12702   ( local)
    Symbol nojobs = 152   ( local)
    Symbol cfrkx3 = 600363   ( local)
    Symbol $naddr = 7   ( halfkilled local)
    Symbol looptm = 150   ( local)
    Symbol cnvtlo = 500010   ( local)
    Symbol goutt0 = 16420   ( local)
    Symbol opruno = 500005   ( local)
    Symbol usgchk = 17673   ( local)
    Symbol eofh2 = 20015   ( local)
    Symbol cfrkx2 = 600362   ( local)
    Symbol sttx1 = 600744   ( local)
    Symbol nusgpg = 1   ( halfkilled local)
    Symbol rlogfl = 12717   ( local)
    Symbol atix1 = 600352   ( local)
    Symbol remrkp = 15576   ( local)
    Symbol relat = 13311   ( local)
    Symbol oldtod = 147   ( local)
    Symbol ntlnam = 1   ( halfkilled local)
    Symbol atix2 = 600353   ( local)
    Symbol haddr = 13173   ( local)
    Symbol levtab = 12761   ( local)
    Symbol rlogit = 17502   ( local)
    Symbol movst3 = 20002   ( local)
    Symbol numfld = 17   ( halfkilled local)
    Symbol nwinnr = 20   ( halfkilled local)
    Symbol movst2 = 17777   ( local)
    Symbol jobadr = 542000   ( local)
    Symbol dname = 13072   ( local)
    Symbol lnkch4 = 17630   ( local)
    Symbol timrof = 17761   ( local)
    Symbol movst1 = 17771   ( local)
    Symbol uuoh = 20052   ( local)
    Symbol holtab = 17256   ( local)
    Symbol lnkch3 = 17627   ( local)
    Symbol movst0 = 17775   ( local)
    Symbol varsz = 2156   ( halfkilled local)
    Symbol waddrp = 15564   ( local)
    Symbol reap0 = 17371   ( local)
    Symbol lnkch2 = 17573   ( local)
    Symbol chasw = 1   ( halfkilled local)
    Symbol psipc3 = 160   ( local)
    Symbol arpasw = 0   ( halfkilled local)
    Symbol psipc2 = 157   ( local)
    Symbol jobdno = 542200   ( local)
    Symbol usratt = 530000   ( local)
    Symbol cpopj1 = 17132   ( local)
    Symbol reap1 = 17411   ( local)
    Symbol lnkch1 = 17565   ( local)
    Symbol updatm = 500000   ( local)
    Symbol upbir9 = 17061   ( local)
    Symbol reap2 = 17413   ( local)
    Symbol adlsit = 1   ( halfkilled local)
    Symbol psipc1 = 156   ( local)
    Symbol .pmap = 20134   ( local)
    Symbol devx1 = 600335   ( local)
    Symbol termx1 = 600350   ( local)
    Symbol eesw = 0   ( halfkilled local)
    Symbol updatl = 16421   ( local)
    Symbol reap3 = 17417   ( local)
    Symbol tmrchn = 3   ( halfkilled local)
    Symbol a = 1   ( local)
    Symbol devx2 = 600336   ( local)
    Symbol gfdbx3 = 600426   ( local)
    Symbol nidlpg = 4   ( halfkilled local)
    Symbol rineof = 16027   ( local)
    Symbol updt41 = 16413   ( local)
    Symbol upbir7 = 17051   ( local)
    Symbol b = 2   ( local)
    Symbol lginx5 = 600014   ( local)
    Symbol devx3 = 600337   ( local)
    Symbol gfdbx2 = 600425   ( local)
    Symbol atpx13 = 600724   ( local)
    Symbol nsysgt = 6   ( halfkilled local)
    Symbol updt40 = 16377   ( local)
    Symbol upbir6 = 17042   ( local)
    Symbol var = 13403   ( local)
    Symbol ttidle = 546000   ( local)
    Symbol c = 3   ( local)
    Symbol movsl1 = 20126   ( local)
    Symbol lginx4 = 600013   ( local)
    Symbol gfdbx1 = 600424   ( local)
    Symbol atpx12 = 600723   ( local)
    Symbol $hphon = 6   ( halfkilled local)
    Symbol $accnt = 13   ( halfkilled local)
    Symbol upbir5 = 17041   ( local)
    Symbol holup5 = 17117   ( local)
    Symbol d = 4   ( local)
    Symbol lginx3 = 600012   ( local)
    Symbol getx1 = 600373   ( local)
    Symbol atpx11 = 600722   ( local)
    Symbol altbyp = 15577   ( local)
    Symbol cmdjfn = 12642   ( local)
    Symbol stlsys = 1   ( halfkilled local)
    Symbol addadr = 0   ( halfkilled local)
    Symbol lginx2 = 600011   ( local)
    Symbol getx2 = 600374   ( local)
    Symbol ifixx3 = 600416   ( local)
    Symbol atpx10 = 600721   ( local)
    Symbol savacs = 12655   ( local)
    Symbol brday = 13242   ( local)
    Symbol f = 0   ( local)
    Symbol hstpag = 400   ( halfkilled local)
    Symbol lginx1 = 600010   ( local)
    Symbol ifixx2 = 600415   ( local)
    Symbol usgend = 545401   ( halfkilled local)
    Symbol zrovar = 152   ( halfkilled local)
    Symbol nreaps = 12703   ( local)
    Symbol rkill = 17463   ( local)
    Symbol ttyjob = 1652   ( local)
    Symbol dtix1 = 600355   ( local)
    Symbol ifixx1 = 600414   ( local)
    Symbol pg0adr = 500000   ( halfkilled local)
    Symbol update = 16164   ( local)
    Symbol jobfk1 = 6252   ( local)
    Symbol idltty = 652   ( local)
    Symbol upbir1 = 17010   ( local)
    Symbol holup1 = 17104   ( local)
    Symbol rdettm = 161   ( local)
    Symbol blkadr = 13375   ( local)
    Symbol rwarnc = 5652   ( local)
    Symbol stlnam = 0   ( halfkilled local)
    Symbol gjfx33 = 600115   ( local)
    Symbol j = 5   ( local)
    Symbol gjfx32 = 600114   ( local)
    Symbol wphon = 13156   ( local)
    Symbol npeekt = 7   ( halfkilled local)
    Symbol nw%arp = 12   ( halfkilled local)
    Symbol diedie = 20104   ( local)
    Symbol gjfx31 = 600113   ( local)
    Symbol $projn = 12   ( halfkilled local)
    Symbol day = 166   ( local)
    Symbol holeas = 17152   ( local)
    Symbol jobtno = 542400   ( local)
    Symbol netnum = 0   ( halfkilled local)
    Symbol .pmap0 = 20141   ( local)
    Symbol gjfx30 = 600112   ( local)
    Symbol nlfks = 30   ( halfkilled local)
    Symbol $nname = 2   ( halfkilled local)
    Symbol ptypar = 242   ( local)
    Symbol idllen = 10   ( halfkilled local)
    Symbol sfrvx1 = 600377   ( local)
    Symbol rnamx2 = 600451   ( local)
    Symbol nusrs = 2000   ( halfkilled local)
    Symbol relatp = 15575   ( local)
    Symbol rindft = 15763   ( local)
    Symbol idlini = 16054   ( local)
    Symbol f%f1 = 400000   ( halfkilled local)
    Symbol crjbx7 = 600026   ( local)
    Symbol rnamx1 = 600450   ( local)
    Symbol f%f2 = 200000   ( halfkilled local)
    Symbol $super = 11   ( halfkilled local)
    Symbol fkpt0 = 12662   ( local)
    Symbol ibufp = 15600   ( local)
    Symbol adrcdr = 1   ( halfkilled local)
    Symbol crjbx6 = 600025   ( local)
    Symbol hname = 13107   ( local)
    Symbol p = 17   ( local)
    Symbol crjbx5 = 600024   ( local)
    Symbol remrk = 13343   ( local)
    Symbol gtab1t = 12673   ( halfkilled local)
    Symbol q = 16   ( local)
    Symbol usgch1 = 17674   ( local)
    Symbol nusgs = 545000   ( local)
    Symbol eofh = 20012   ( local)
    Symbol dieblt = 20120   ( local)
    Symbol crjbx4 = 600023   ( local)
    Symbol noutx2 = 600410   ( local)
    Symbol usgpag = 545   ( halfkilled local)
    Symbol gtab1s = 12672   ( local)
    Symbol ttylen = 6   ( halfkilled local)
    Symbol usrlgo = 524000   ( local)
    Symbol idle0 = 16427   ( local)
    Symbol crjbx3 = 600022   ( local)
    Symbol noutx1 = 600407   ( local)
    Symbol crdix6 = 600625   ( local)
    Symbol projnp = 15573   ( local)
    Symbol chntab = 12764   ( local)
    Symbol ttnet0 = 12670   ( local)
    Symbol fkq2 = 7552   ( local)
    Symbol fkpgst = 10252   ( local)
    Symbol s = 15   ( local)
    Symbol namptr = 10   ( halfkilled local)
    Symbol crjbx2 = 600021   ( local)
    Symbol sfptx3 = 600177   ( local)
    Symbol crdix5 = 600624   ( local)
    Symbol usrper = 510000   ( local)
    Symbol todclk = 146   ( local)
    Symbol idle2 = 16436   ( local)
    Symbol t = 6   ( local)
    Symbol crjbx1 = 600020   ( local)
    Symbol sfptx2 = 600176   ( local)
    Symbol crdix4 = 600623   ( local)
    Symbol ncmds = 5   ( halfkilled local)
    Symbol mkimsg = 16635   ( local)
    Symbol holmem = 17244   ( local)
    Symbol strsiz = 77   ( halfkilled local)
    Symbol u = 7   ( local)
    Symbol tmpacs = 12202   ( local)
    Symbol opnx22 = 600145   ( local)
    Symbol sfptx1 = 600175   ( local)
    Symbol atacx5 = 600324   ( local)
    Symbol whelx1 = 600614   ( local)
    Symbol crdix3 = 600622   ( local)
    Symbol jobtty = 6452   ( local)
    Symbol v = 10   ( local)
    Symbol opnx21 = 600144   ( local)
    Symbol csynx1 = 600312   ( local)
    Symbol atacx4 = 600323   ( local)
    Symbol crdix2 = 600621   ( local)
    Symbol ttidl1 = 2652   ( local)
    Symbol noreap = 17430   ( local)
    Symbol w = 11   ( local)
    Symbol opnx20 = 600143   ( local)
    Symbol atacx3 = 600322   ( local)
    Symbol stdvx1 = 600332   ( local)
    Symbol crdix1 = 600620   ( local)
    Symbol dnamep = 15561   ( local)
    Symbol naddr = 13225   ( local)
    Symbol ttidl0 = 12667   ( local)
    Symbol ttycpj = 1252   ( local)
    Symbol usrlgi = 522000   ( local)
    Symbol updt26 = 16330   ( local)
    Symbol vtmsg = 16603   ( local)
    Symbol lodavs = 244   ( local)
    Symbol inqrd = 17333   ( local)
    Symbol errtim = 151   ( local)
    Symbol x = 12   ( local)
    Symbol atacx2 = 600321   ( local)
    Symbol ibufz = 13374   ( halfkilled local)
    Symbol pupsw = 0   ( halfkilled local)
    Symbol updt25 = 16325   ( local)
    Symbol y = 13   ( local)
    Symbol atacx1 = 600320   ( local)
    Symbol gfrkx1 = 600371   ( local)
    Symbol hphonp = 15567   ( local)
    Symbol accntp = 15574   ( local)
    Symbol updt24 = 16320   ( local)
    Symbol jobpct = 543200   ( local)
    Symbol year = 164   ( local)
    Symbol blkdir = 13376   ( local)
    Symbol rwarn2 = 17454   ( local)
    Symbol lnkmsg = 17640   ( local)
    Symbol z = 14   ( local)
    Symbol updt23 = 16307   ( local)
    Symbol hldayh = 17134   ( local)
    Symbol nw%dln = 26   ( halfkilled local)
    Symbol ipcfsw = 0   ( halfkilled local)
    Symbol ttylpg = 505   ( halfkilled local)
    Symbol $altby = 16   ( halfkilled local)
    Symbol ..xx = 12000000000   ( halfkilled local)
    Symbol updt22 = 16270   ( local)
    Symbol rwarn = 17432   ( local)
    Symbol rlogi2 = 17512   ( local)
    Symbol iox1 = 600215   ( local)
    Symbol superp = 15572   ( local)
    Symbol tabini = 16060   ( local)
    Symbol updt21 = 16261   ( local)
    Symbol ntts = 400   ( halfkilled local)
    Symbol iox2 = 600216   ( local)
    Symbol dilfx1 = 600464   ( local)
    Symbol page0 = 500   ( halfkilled local)
    Symbol tidpag = 546   ( halfkilled local)
    Symbol updt20 = 16253   ( local)
    Symbol gjfx19 = 600077   ( local)
    Symbol iox3 = 600217   ( local)
    Symbol njbpgs = 3   ( halfkilled local)
    Symbol jobort = 6652   ( local)
    Symbol nw%chs = 7   ( halfkilled local)
    Symbol gjfx18 = 600076   ( local)
    Symbol iox4 = 600220   ( local)
    Symbol datex6 = 600473   ( local)
    Symbol pnvthi = 500007   ( local)
    Symbol gjfx17 = 600075   ( local)
    Symbol iox5 = 600221   ( local)
    Symbol datex5 = 600472   ( local)
    Symbol sizmx = 13400   ( local)
    Symbol holstr = 220   ( local)
    Symbol typing = 240   ( local)
    Symbol gjfx16 = 600074   ( local)
    Symbol iox6 = 600222   ( local)
    Symbol datex4 = 600471   ( local)
    Symbol nvtlo = 500003   ( local)
    Symbol njbs = 200   ( halfkilled local)
    Symbol gjfx15 = 600073   ( local)
    Symbol desx1 = 600150   ( local)
    Symbol rjfnx3 = 600167   ( local)
    Symbol datex3 = 600470   ( local)
    Symbol loop = 15644   ( local)
    Symbol rintty = 15775   ( local)
    Symbol idldob = 16502   ( local)
    Symbol rttytb = 252   ( local)
    Symbol gjfx14 = 600072   ( local)
    Symbol desx2 = 600151   ( local)
    Symbol rjfnx2 = 600166   ( local)
    Symbol datex2 = 600467   ( local)
    Symbol jobpnm = 543400   ( local)
    Symbol $waddr = 3   ( halfkilled local)
    Symbol hstsid = 0   ( halfkilled local)
    Symbol gjfx13 = 600071   ( local)
    Symbol desx3 = 600152   ( local)
    Symbol rjfnx1 = 600165   ( local)
    Symbol datex1 = 600466   ( local)
    Symbol hphon = 13210   ( local)
    Symbol accnt = 13326   ( local)
    Symbol chafrn = 12671   ( local)
    Symbol noburn = 241   ( local)
    Symbol vtclr = 16600   ( local)
    Symbol stfsrv = 400000   ( halfkilled local)
    Symbol nmlsit = 0   ( halfkilled local)
    Symbol nmrnam = 0   ( halfkilled local)
    Symbol hstadr = 400000   ( halfkilled local)
    Symbol intret = 20024   ( local)
    Symbol gjfx12 = 600070   ( local)
    Symbol desx4 = 600153   ( local)
    Symbol odtnx1 = 600462   ( local)
    Symbol tmpbuf = 12421   ( local)
    Symbol gjfx11 = 600067   ( local)
    Symbol desx5 = 600154   ( local)
    Symbol ibuf = 13072   ( local)
    Symbol read1 = 17356   ( local)
    Symbol gjfx10 = 600066   ( local)
    Symbol desx6 = 600155   ( local)
    Symbol cndix5 = 600204   ( local)
    Symbol adate = 13377   ( local)
    Symbol filini = 16037   ( local)
    Symbol sysgtb = 13034   ( local)
    Symbol fkwsp0 = 12664   ( local)
    Symbol zroend = 153   ( halfkilled local)
    Symbol pntrs = 15561   ( local)
    Symbol desx7 = 600156   ( local)
    Symbol cndix4 = 600203   ( local)
    Symbol rfrkx1 = 600367   ( local)
    Symbol rddix1 = 600560   ( local)
    Symbol strdx3 = 600742   ( local)
    Symbol winner = 12723   ( local)
    Symbol cndix3 = 600202   ( local)
    Symbol dpx1 = 600734   ( local)
    Symbol strdx2 = 600741   ( local)
    Symbol ngtb1t = 5   ( halfkilled local)
    Symbol rwsout = 17453   ( local)
    Symbol cndix2 = 600201   ( local)
    Symbol spacx1 = 600245   ( local)
    Symbol asndx3 = 600302   ( local)
    Symbol dpx2 = 600735   ( local)
    Symbol strdx1 = 600740   ( local)
    Symbol ngtb1s = 1   ( halfkilled local)
    Symbol cndix1 = 600200   ( local)
    Symbol asndx2 = 600301   ( local)
    Symbol repfil = 12712   ( local)
    Symbol hldath = 17124   ( local)
    Symbol stradr = 0   ( halfkilled local)
    Symbol asndx1 = 600300   ( local)
    Symbol cprtx1 = 600520   ( local)
    Symbol ppsw = 0   ( halfkilled local)
    Symbol tmpbsz = 200   ( halfkilled local)
    Symbol projn = 13274   ( local)
    Symbol snootb = 13042   ( local)
    Symbol njobs = 500002   ( local)
    Symbol rlogjf = 144   ( local)
    Symbol cactx2 = 600046   ( local)
    Symbol opnx1 = 600120   ( local)
    Symbol gtdix2 = 600641   ( local)
    Symbol fdfrx2 = 600701   ( local)
    Symbol nname = 13124   ( local)
    Symbol nuptty = 545001   ( local)
    Symbol cactx1 = 600045   ( local)
    Symbol opnx2 = 600121   ( local)
    Symbol gtdix1 = 600640   ( local)
    Symbol fdfrx1 = 600700   ( local)
    Symbol usrtts = 520000   ( local)
    Symbol snooad = 12657   ( halfkilled local)
    Symbol lnptrs = 17634   ( local)
    Symbol opnx3 = 600122   ( local)
    Symbol sirx1 = 600570   ( local)
    Symbol ilins3 = 600772   ( local)
    Symbol super = 13257   ( local)
    Symbol rinnvr = 16006   ( local)
    Symbol aaaclr = 16623   ( local)
    Symbol ttlink = 500400   ( local)
    Symbol opnx4 = 600123   ( local)
    Symbol ilins2 = 600771   ( local)
    Symbol ntidpg = 1   ( halfkilled local)
    Symbol ttyjb0 = 12673   ( local)
    Symbol tnxsw = 1   ( halfkilled local)
    Symbol opnx5 = 600124   ( local)
    Symbol delfx1 = 600170   ( local)
    Symbol ilins1 = 600770   ( local)
    Symbol naddrp = 15570   ( local)
    Symbol mitsw = 0   ( halfkilled local)
    Symbol mki0 = 16644   ( local)
    Symbol buf = 13377   ( local)
    Symbol opnx6 = 600125   ( local)
    Symbol bkjfx1 = 600454   ( local)
    Symbol nttypg = 3   ( halfkilled local)
    Symbol haddrp = 15566   ( local)
    Symbol tabin3 = 16101   ( local)
    Symbol cnvthi = 500011   ( local)
    Symbol goutty = 16417   ( local)
    Symbol mki1 = 16657   ( local)
    Symbol loutx2 = 600036   ( local)
    Symbol opnx7 = 600126   ( local)
    Symbol tmonx1 = 600515   ( local)
    Symbol idlpag = 501   ( halfkilled local)
    Symbol nuspgs = 32   ( halfkilled local)
    Symbol tabin2 = 16073   ( local)
    Symbol mki2 = 16673   ( local)
    Symbol strmch = 1   ( halfkilled local)
    Symbol dbugsw = 12700   ( local)
    Symbol loutx1 = 600035   ( local)
    Symbol opnx8 = 600127   ( local)
    Symbol rttyt0 = 251   ( local)
    Symbol tabin1 = 16061   ( local)
    Symbol idlmes = 16440   ( local)
    Symbol mki3 = 16717   ( local)
    Symbol opnx9 = 600130   ( local)
    Symbol gtab2t = 13056   ( local)
    Symbol gfrnm4 = 17743   ( local)
    Symbol gtab2s = 13055   ( local)
    Symbol fkpgs0 = 12663   ( local)
    Symbol updt02 = 16201   ( local)
    Symbol uslgit = 13030   ( local)
    Symbol gfrnm3 = 17736   ( local)
    Symbol movsix = 20004   ( local)
    Symbol pdl = 12222   ( local)
    Symbol sfbsx2 = 600211   ( local)
    Symbol nnamep = 15563   ( local)
    Symbol rinwnr = 16015   ( local)
    Symbol sysgt2 = 12672   ( halfkilled local)
    Symbol nsnoop = 13   ( halfkilled local)
    Symbol updt01 = 16172   ( local)
    Symbol gnutty = 16415   ( local)
    Symbol sitptr = 11   ( halfkilled local)
    Symbol gfrnm2 = 17732   ( local)
    Symbol sfbsx1 = 600210   ( local)
    Symbol hnamep = 15562   ( local)
    Symbol usdett = 13032   ( local)
    Symbol msgtb = 16550   ( local)
    Symbol month = 165   ( local)
    Symbol jobuno = 542000   ( local)
    Symbol gfrnm1 = 17724   ( local)
    Symbol kfrkx2 = 600366   ( local)
    Symbol flotx3 = 600662   ( local)
    Symbol chnmsk = 740347200000   ( halfkilled local)
    Symbol nap = 15654   ( local)
    Symbol mkimln = 16753   ( local)
    Symbol inqopn = 17313   ( local)
    Symbol kfrkx1 = 600365   ( local)
    Symbol flotx2 = 600661   ( local)
    Symbol lhostn = 247   ( local)
    Symbol jobidl = 542600   ( local)
    Symbol dpyclr = 16507   ( local)
    Symbol cpop1j = 17757   ( local)
    Symbol flotx1 = 600660   ( local)
    Symbol netptr = 12   ( halfkilled local)
    Symbol cpopj = 17760   ( local)
    Symbol tilfx1 = 600465   ( local)
    Symbol $relat = 14   ( halfkilled local)
    Symbol altby = 13360   ( local)
    Symbol repinl = 15742   ( local)
    Symbol cvtptr = 243   ( local)
    Symbol aaamsg = 16626   ( local)
    Symbol nujobs = 153   ( local)
    Symbol holdis = 17120   ( local)
    Symbol rkilms = 12743   ( local)
    Symbol lsterr = 20030   ( local)
    Symbol runtx1 = 600273   ( local)
    Symbol $haddr = 5   ( halfkilled local)
    Symbol updt35 = 16367   ( local)
    Symbol hlspch = 17150   ( local)
    Symbol jobrt = 543600   ( local)
    Symbol stlflg = 2   ( halfkilled local)
    Symbol jobtt0 = 12674   ( local)
    Symbol peekt2 = 13063   ( local)
    Symbol $dname = 0   ( halfkilled local)
    Symbol repini = 15671   ( local)
    Symbol peekt1 = 12662   ( halfkilled local)
    Symbol movstr = 17767   ( local)
    Symbol illint = 20046   ( local)
    Symbol dumpx4 = 600443   ( local)
    Symbol cvskx2 = 600731   ( local)
    Symbol frktab = 12152   ( local)
    Symbol nttys = 500001   ( local)
    Symbol dumpx3 = 600442   ( local)
    Symbol cvskx1 = 600730   ( local)
    Symbol jobpag = 542   ( halfkilled local)
    Symbol updt31 = 16363   ( local)
    Symbol .uuoh = 12653   ( local)
    Symbol stadx2 = 600276   ( local)
    Symbol dumpx2 = 600441   ( local)
    Symbol updt30 = 16343   ( local)
    Symbol busers = 170   ( local)
    Symbol rusrtb = 3652   ( local)
    Symbol gjfx29 = 600111   ( local)
    Symbol stadx1 = 600275   ( local)
    Symbol dumpx1 = 600440   ( local)
    Symbol timex1 = 600460   ( local)
    Symbol sevex1 = 600610   ( local)
    Symbol persln = 4   ( halfkilled local)
    Symbol symsw = 777777777777   ( halfkilled local)
    Symbol intrvl = 12701   ( local)
    Symbol cerber = 1   ( local global)
    Symbol cerber = 775002000140   ()
(After parsed data, there were 239 more words.)

Disassembly:

.cmtad:
000020:  541103000700  hrri     b, 700(c)       ;"L)# ' "
.cmqst:
000021:  104000000056                           ;"(@   N"
.cmuqs:
000022:  253140000020  aobjn    c, .cmtad       ;"59@  0"
.cmtok:
000023:  200040000030  move     a, nttyps       ;"0 @  8"
luupdl:
000024:  200100000031  move     b, maxcfn       ;"0!   9"
.cmact:
000025:  200140000032  move     c, .chcnz       ;"0!@  :"
.cmnod:
000026:  104000000170                           ;"(@  !X"
.cmchr:
000027:  254000000026  jrst     .cmnod          ;"5@   6"
nttyps:
000030:  047600000011  .access  .chffd, w       ;"$^   )"
maxcfn:
000031:  255000000000  jfcl                     ;"5H    " "+ \0\0\0"
.chcnz:
000032:  403000000007  setzb    z, g            ;"@8   '"
cmcom1:
000041:  264000012653  jsr      .uuoh           ;"6@ !6K"
btslft:
000044:  000000043777                           ;"   $?_"
000045:  310000000006  cam      z, f            ;"9    &"
000116:  770614034063  cono     704, 34063(z)   ;"_&,#@S"
000117:  000000000000                           ;"      "
000120:  043247015617  .utran   go(g)           ;"$:G!N/"
000121:  000000043247                           ;"   $:G"
000130:  310000000006  cam      z, f            ;"9    &"
osbkt:
000133:  043246000000  .utran   (f)             ;"$:F   "
ournam:
000140:  516072241532  hrlzm    a, @241532(x)   ;"IPZ4-:" "SCRC-"
000141:  522131642660  hllom    b, @642660(w)   ;"J19T6P" "TENEX"
rdettm:
000161:  000003335640  c,,                      ;"  #;N@"
rdeftm:
000162:  000024462700  luupdl,,                 ;"  4F7 "
winp:
012621:  777777777777  conso    774, @dsptb(p)  ;"______"
012622:  777777777777  conso    774, @dsptb(p)  ;"______"
012623:  777777777777  conso    774, @dsptb(p)  ;"______"
012624:  777777777777  conso    774, @dsptb(p)  ;"______"
012625:  777777777777  conso    774, @dsptb(p)  ;"______"
012626:  777777777777  conso    774, @dsptb(p)  ;"______"
012627:  777777777777  conso    774, @dsptb(p)  ;"______"
012630:  777777777777  conso    774, @dsptb(p)  ;"______"
012631:  777777777777  conso    774, @dsptb(p)  ;"______"
012632:  777777777777  conso    774, @dsptb(p)  ;"______"
012633:  777777777777  conso    774, @dsptb(p)  ;"______"
012634:  777777777777  conso    774, @dsptb(p)  ;"______"
012635:  777777777777  conso    774, @dsptb(p)  ;"______"
012636:  777777777777  conso    774, @dsptb(p)  ;"______"
012637:  777777777777  conso    774, @dsptb(p)  ;"______"
012640:  777777777777  conso    774, @dsptb(p)  ;"______"
cmdblk:
012641:  000000000000                           ;"      "
cmdjfn:
012642:  000000377777  .nulio                   ;"   ?__"
012643:  440700020173  andcb    q, 20173        ;"D' "!["
012644:  440700012421  andcb    q, tmpbuf       ;"D' !41"
012645:  440700012421  andcb    q, tmpbuf       ;"D' !41"
012646:  000000000500  filpag                   ;"    % "
012647:  000000000000                           ;"      "
012650:  440700012521  andcb    q, 12521        ;"D' !51"
012651:  000000000500  filpag                   ;"    % "
012654:  254000020052  jrst     uuoh            ;"5@ " J"
savacs:
012655:  000000000000                           ;"      "
012656:  254000020636  jrst     20636           ;"5@ "&>"
gtab1s:
012672:  777777000000  conso    774, @(p)       ;"___   "
ttyjb0:
012673:  777777000000  conso    774, @(p)       ;"___   "
jobtt0:
012674:  777777000000  conso    774, @(p)       ;"___   "
jobrt0:
012675:  777777000000  conso    774, @(p)       ;"___   "
012676:  777777000000  conso    774, @(p)       ;"___   "
012677:  000003000000                           ;"  #   "
dbugsw:
012700:  777777777777  conso    774, @dsptb(p)  ;"______"
intrvl:
012701:  000000072460                           ;"   '4P"
nidlps:
012702:  000000000012  x                        ;"     *"
nreaps:
012703:  000000000024  luupdl                   ;"     4"
rlogp:
012704:  777777777777  conso    774, @dsptb(p)  ;"______"
filnam:
012705:  362231650652  soje     d, @650652(w)   ;">29U&J" "<INQU"
012706:  446447641612  eqvm     w, 641612(g)    ;"DTGT.*" "IR>CE"
012707:  512050551252  hllzm    a, 551252(h)    ;"I0HM*J" "RBERU"
012710:  515352046602  hrlzi    g, 46602(x)     ;"IKJ$V"" "S.PMA"
012711:  500000000000  hll      z, z            ;"H     " "P\0\0\0\0"
repfil:
012712:  362231650652  soje     d, @650652(w)   ;">29U&J" "<INQU"
012713:  446447641612  eqvm     w, 641612(g)    ;"DTGT.*" "IR>CE"
012714:  512050551252  hllzm    a, 551252(h)    ;"I0HM*J" "RBERU"
012715:  515350346610  hrlzi    g, 346610(h)    ;"IKH<V(" "S.CMD"
012716:  000000000000                           ;"      "
rlogfl:
012717:  362231650652  soje     d, @650652(w)   ;">29U&J" "<INQU"
012720:  446447651212  eqvm     w, 651212(g)    ;"DTGU**" "IR>RE"
012721:  406410551134  andm     h, 551134(h)    ;"@T(M)<" "APER."
012722:  462370700000  setcmm   g, @700000(h)   ;"F3XX  " "LOG\0\0"
winner:
012723:  777777777777  conso    774, @dsptb(p)  ;"______"
012724:  777777777777  conso    774, @dsptb(p)  ;"______"
012725:  777777777777  conso    774, @dsptb(p)  ;"______"
012726:  777777777777  conso    774, @dsptb(p)  ;"______"
012727:  777777777777  conso    774, @dsptb(p)  ;"______"
012730:  777777777777  conso    774, @dsptb(p)  ;"______"
012731:  777777777777  conso    774, @dsptb(p)  ;"______"
012732:  777777777777  conso    774, @dsptb(p)  ;"______"
012733:  777777777777  conso    774, @dsptb(p)  ;"______"
012734:  777777777777  conso    774, @dsptb(p)  ;"______"
012735:  777777777777  conso    774, @dsptb(p)  ;"______"
012736:  777777777777  conso    774, @dsptb(p)  ;"______"
012737:  777777777777  conso    774, @dsptb(p)  ;"______"
012740:  777777777777  conso    774, @dsptb(p)  ;"______"
012741:  777777777777  conso    774, @dsptb(p)  ;"______"
012742:  777777777777  conso    774, @dsptb(p)  ;"______"
rkilms:
012743:  064240703416                           ;"&B@X<."
012744:  251244040752  blt      e, 40752(d)     ;"5*D$'J" "** Au"
012745:  723375467716  conso    230, @467716(s) ;"Z;]F_." "tolog"
012746:  677536420322  tson     x, @420322(q)   ;"W]>B#2" "out i"
012747:  671006130100  tso      z, 130100(f)    ;"W(&+! " "n 10 "
012750:  667235672750  tlon     d, @672750(s)   ;"VZ=W7H" "minut"
012751:  627464064714  tlzn     w, @64714(d)    ;"R\T&G," "es if"
012752:  203515064746  moves    x, 64746(s)     ;"0=-&GF" " this"
012753:  203255761100  moves    e, 761100(s)    ;"0:M^) " " job "
012754:  713135560722  blko     130, @560722(s) ;"Y9=N'2" "remai"
012755:  673464064710  tsoe     w, @64710(d)    ;"W<T&G(" "ns id"
012756:  663124025124  tloe     b, @25124(d)    ;"V94"I4" "le **"
012757:  250160703432  exch     c, @703432      ;"5!PX<:"
012760:  050000000000                           ;"%     " "\n\0\0\0\0"
levtab:
012761:  000000000156  psipc1                   ;"    !N"
012762:  000000000157  psipc2                   ;"    !O"
012763:  000000000160  psipc3                   ;"    !P"
012767:  000003020017  c,,                      ;"  #" /"
012775:  000001020045  a,,                      ;"  !" E"
012776:  000003020012  c,,                      ;"  #" *"
013003:  000001020046  a,,                      ;"  !" F"
013004:  000001020046  a,,                      ;"  !" F"
013005:  000001020046  a,,                      ;"  !" F"
uslgit:
013030:  331107520000  skipl    b, usrtts(g)    ;";)'J  " "6$= \0"
uslgot:
013031:  221107520000  imuli    b, usrtts(g)    ;"2)'J  " "$$= \0"
usdett:
013032:  111107520000                           ;"))'J  "
usattt:
013033:  001107520000                           ;" )'J  "
sysgtb:
013034:  545057636456  hlri     a, 636456(p)    ;"LHOSTN"
013035:  646471525742  trcn     w, @525742(w)   ;"TTYJOB" "iSM+q"
013036:  525742646471  hrloi    p, 646471(b)    ;"JOBTTY"
013037:  525742626400  hrloi    p, 626400(b)    ;"JOBRT "
013040:  525742565522  hrloi    p, 565522(b)    ;"JOBNM2"
013041:  545741446442  hlri     p, 446442(a)    ;"LOADTB"
snootb:
013042:  000005753545  e,,                      ;"  %]=E"
013043:  000361706425                           ;" #QXT5"
013044:  000511565046                           ;" %)NHF"
013045:  000004023556  d,,                      ;"  $"=N"
013046:  014475421346                           ;"!D]B+F"
013047:  000241452342  noburn,,                 ;" "AE3B"
013050:  000241401364  noburn,,                 ;" "A@+T"
013051:  027361153225                           ;""[Q-:5"
013052:  027360344377                           ;""[P<C_"
013053:  027361531221                           ;""[QK*1"
013054:  012210543170                           ;"!2(L9X"
gtab2s:
013055:  000000000247  lhostn                   ;"    "G"
gtab2t:
013056:  000000001652  ttyjob                   ;"    .J"
013057:  000000006452  jobtty                   ;"    TJ"
013060:  000000543600  jobrt                    ;"   L> "
013061:  000000543400  jobpnm                   ;"   L< "
013062:  000003000244  c,,                      ;"  # "D"
peekt2:
013063:  000000007052  fkpt                     ;"    XJ"
013064:  000000010252  fkpgst                   ;"   !"J"
013065:  000000010752  fkwsp                    ;"   !'J"
013066:  000000011452  fkjob                    ;"   !,J"
013067:  000000002252  ttlnk1                   ;"    2J"
013070:  000000002652  ttidl1                   ;"    6J"
013071:  000000003252  ttnetw                   ;"    :J"
dnamep:
015561:  360600013400  soj      z, sizmx        ;">& !< "
hnamep:
015562:  300600013400  cai      z, sizmx        ;"8& !< "
nnamep:
015563:  220600013400  imul     z, sizmx        ;"2& !< "
waddrp:
015564:  140600013400  fad      z, sizmx        ;",& !< "
wphonp:
015565:  060600013400                           ;"&& !< "
haddrp:
015566:  000600013400                           ;" & !< "
hphonp:
015567:  360600013401  soj      z, 13401        ;">& !<!"
naddrp:
015570:  300600013401  cai      z, 13401        ;"8& !<!"
brdayp:
015571:  220600013401  imul     z, 13401        ;"2& !<!"
superp:
015572:  140600013401  fad      z, 13401        ;",& !<!"
projnp:
015573:  060600013401                           ;"&& !<!"
accntp:
015574:  000600013401                           ;" & !<!"
relatp:
015575:  360600013402  soj      z, 13402        ;">& !<""
remrkp:
015576:  300600013402  cai      z, 13402        ;"8& !<""
altbyp:
015577:  220600013402  imul     z, 13402        ;"2& !<""
ibufp:
015600:  440700013072  andcb    q, dname        ;"D' !8Z"
015601:  440700013107  andcb    q, hname        ;"D' !9'"
015602:  440700013124  andcb    q, nname        ;"D' !94"
015603:  440700013141  andcb    q, waddr        ;"D' !9A"
015604:  440700013156  andcb    q, wphon        ;"D' !9N"
015605:  440700013173  andcb    q, haddr        ;"D' !9["
015606:  440700013210  andcb    q, hphon        ;"D' !:("
015607:  440700013225  andcb    q, naddr        ;"D' !:5"
015610:  440700013242  andcb    q, brday        ;"D' !:B"
015611:  440700013257  andcb    q, super        ;"D' !:O"
015612:  440700013274  andcb    q, projn        ;"D' !:\"
015613:  440700013326  andcb    q, accnt        ;"D' !;6"
015614:  440700013311  andcb    q, relat        ;"D' !;)"
015615:  440700013343  andcb    q, remrk        ;"D' !;C"
015616:  440700013360  andcb    q, altby        ;"D' !;P"
go:
015617:  104000000147                           ;"(@  !G"
015620:  200740020170  move     p, 20170        ;"0'@"!X"
015621:  201040020104  movei    a, diedie       ;"0(@"!$"
015622:  202040000155  movem    a, errdsp       ;"00@ !M"
015623:  400000000000  setz     z,              ;"@     " "@\0\0\0\0"
015624:  201040400000  movei    a, .fhslf       ;"0(@@  "
015625:  104000000150                           ;"(@  !H"
015626:  434140000002  ior      c, b            ;"CA@  ""
015627:  104000000151                           ;"(@  !I"
015630:  200100020216  move     b, 20216        ;"0! ""."
015631:  104000000125                           ;"(@  !5"
015632:  104000000126                           ;"(@  !6"
015633:  200100020167  move     b, 20167        ;"0! "!W"
015634:  104000000131                           ;"(@  !9"
015635:  260740016037  pushj    p, filini       ;"6'@!P?"
015636:  260740016060  pushj    p, tabini       ;"6'@!PP"
015637:  260740015671  pushj    p, repini       ;"6'@!NY"
015640:  260740016054  pushj    p, idlini       ;"6'@!PL"
015641:  260740017701  pushj    p, hstini       ;"6'@!_!"
015642:  201040015644  movei    a, loop         ;"0(@!ND"
015643:  202040000155  movem    a, errdsp       ;"00@ !M"
loop:
015644:  104000000014                           ;"(@   ,"
015645:  202040000150  movem    a, looptm       ;"00@ !H"
015646:  260740016164  pushj    p, update       ;"6'@!QT"
015647:  260740017370  pushj    p, reap         ;"6'@![X"
015650:  260740016425  pushj    p, idle         ;"6'@!T5"
015651:  260740017564  pushj    p, lnkchk       ;"6'@!]T"
015652:  260740017673  pushj    p, usgchk       ;"6'@!^["
015653:  260740016421  pushj    p, updatl       ;"6'@!T1"
nap:
015654:  104000000014                           ;"(@   ,"
015655:  274040000150  sub      a, looptm       ;"7@@ !H"
015656:  274040012701  sub      a, intrvl       ;"7@@!7!"
015657:  325040015644  jumpge   a, loop         ;":H@!ND"
015660:  214040000001  movm     a, a            ;"1@@  !"
015661:  104000000167                           ;"(@  !W"
015662:  254000015644  jrst     loop            ;"5@ !ND"
cmdtab:
015663:  000005000005  e,,                      ;"  %  %"
015664:  020245015763                           ;"""E!OS"
015665:  020247015764                           ;"""G!OT"
015666:  020477015775                           ;""$_!O]"
015667:  020513016006                           ;""%+!P&"
015670:  020271016015                           ;"""Y!P-"
repini:
015671:  476000005652  setom    rwarnc          ;"GP  NJ"
015672:  200040020210  move     a, 20210        ;"0 @""("
015673:  251040006051  blt      a, 6051         ;"5(@ PI"
015674:  336000012704  skipn    rlogp           ;";P !7$"
015675:  254000015727  jrst     repind          ;"5@ !O7"
015676:  205040000001  movsi    a, t1           ;"0H@  !"
015677:  561100012717  hrroi    b, rlogfl       ;"N) !7/"
015700:  104000000020                           ;"(@   0"
015701:  001000020554  cmindf,,                 ;" ( "%L"
015702:  200100020223  move     b, 20223        ;"0! ""3"
015703:  104000000021                           ;"(@   1"
015704:  001000020671  cmindf,,                 ;" ( "&Y"
015705:  202040000144  movem    a, rlogjf       ;"00@ !D"
015706:  474100000000  seto     b,              ;"GA    "
015707:  400140000000  setz     c,              ;"@!@   "
015710:  104000000220                           ;"(@  "0"
015711:  561100020650  hrroi    b, 20650        ;"N) "&H"
015712:  104000000053                           ;"(@   K"
015713:  200100020175  move     b, 20175        ;"0! "!]"
015714:  201140000003  movei    c, nibits       ;"0)@  #"
015715:  104000000063                           ;"(@   S"
015716:  607140020000  tlnn     c, tt%wkp       ;"PY@"  "
015717:  254000015727  jrst     repind          ;"5@ !O7"
015720:  505040400000  hrli     a, .fhslf       ;"HH@@  "
015721:  104000000022                           ;"(@   2"
015722:  600000000000  trn      z, bwd          ;"P     " "`\0\0\0\0"
015723:  405040777777  andi     a, dsptb        ;"@H@___"
015724:  200100020223  move     b, 20223        ;"0! ""3"
015725:  104000000021                           ;"(@   1"
015726:  600000000000  trn      z, bwd          ;"P     " "`\0\0\0\0"
repind:
015727:  205040100001  movsi    a, 100001       ;"0H@( !"
015730:  561100012712  hrroi    b, repfil       ;"N) !7*"
015731:  104000000020                           ;"(@   0"
015732:  001000020760  cmindf,,                 ;" ( "'P"
015733:  200100020224  move     b, 20224        ;"0! ""4"
015734:  104000000021                           ;"(@   1"
015735:  001000020767  cmindf,,                 ;" ( "'W"
015736:  506040012642  hrlm     a, cmdjfn       ;"HP@!6B"
015737:  201040016027  movei    a, rineof       ;"0(@!P7"
015740:  202040000154  movem    a, eofdsp       ;"00@ !L"
015741:  474300000000  seto     f,              ;"GC    " "O\f\0\0\0"
repinl:
015742:  201040012641  movei    a, cmdblk       ;"0(@!6A"
015743:  201100020217  movei    b, 20217        ;"0) ""/"
015744:  104000022715                           ;"(@ "7-"
015745:  320700016027  jump     q, rineof       ;":' !P7"
015746:  201100020273  movei    b, 20273        ;"0) ""["
015747:  104000022715                           ;"(@ "7-"
015750:  320700016027  jump     q, rineof       ;":' !P7"
015751:  603040200000  tlne     a, .eprev       ;"P8@0  "
015752:  001000021025  cmindf,,                 ;" ( "(5"
015753:  550102000000  hrrz     b, (b)          ;"M!"   "
015754:  254002000000  jrst     (b)             ;"5@"   "
repin2:
015755:  201100020214  movei    b, 20214        ;"0) "","
015756:  104000022715                           ;"(@ "7-"
015757:  320700016027  jump     q, rineof       ;":' !P7"
015760:  607040200000  tlnn     a, .eprev       ;"PX@0  "
015761:  254000015742  jrst     repinl          ;"5@ !OB"
015762:  001000020751  cmindf,,                 ;" ( "'I"
rindft:
015763:  334200020174  skipa    d, 20174        ;";B "!\"
rindet:
015764:  201200000161  movei    d, rdettm       ;"0*  !Q"
015765:  201100020277  movei    b, 20277        ;"0) ""_"
015766:  104000022715                           ;"(@ "7-"
015767:  320700016027  jump     q, rineof       ;":' !P7"
015770:  603040200000  tlne     a, .eprev       ;"P8@0  "
015771:  334100020172  skipa    b, 20172        ;";A "!Z"
015772:  221100165140  imuli    b, 165140       ;"2) .I@"
015773:  202104000000  movem    b, (d)          ;"01$   " " D \0\0"
015774:  254000015755  jrst     repin2          ;"5@ !OM"
rintty:
015775:  201100020275  movei    b, 20275        ;"0) ""]"
015776:  104000022715                           ;"(@ "7-"
015777:  320700016027  jump     q, rineof       ;":' !P7"
016000:  603040200000  tlne     a, .eprev       ;"P8@0  "
016001:  001000021124  cmindf,,                 ;" ( ")4"
016002:  301100000400  cail     b, .efad1       ;"8)  $ "
016003:  001000021110  cmindf,,                 ;" ( ")("
016004:  476002000252  setom    rttytb(b)       ;"GP" "J"
016005:  254000015755  jrst     repin2          ;"5@ !OM"
rinnvr:
016006:  201100020215  movei    b, 20215        ;"0) ""-"
016007:  104000022715                           ;"(@ "7-"
016010:  320700016027  jump     q, rineof       ;":' !P7"
016011:  603040200000  tlne     a, .eprev       ;"P8@0  "
016012:  001000021061  cmindf,,                 ;" ( "(Q"
016013:  476002003652  setom    rusrtb(b)       ;"GP" >J"
016014:  254000015755  jrst     repin2          ;"5@ !OM"
rinwnr:
016015:  350000000006  aos      f               ;"=    &"
016016:  301300000020  cail     f, .cmtad       ;"8+   0"
016017:  001000021047  cmindf,,                 ;" ( "(G"
016020:  201100020215  movei    b, 20215        ;"0) ""-"
016021:  104000022715                           ;"(@ "7-"
016022:  320700016027  jump     q, rineof       ;":' !P7"
016023:  603040200000  tlne     a, .eprev       ;"P8@0  "
016024:  001000021074  cmindf,,                 ;" ( "(\"
016025:  202106012723  movem    b, winner(f)    ;"01&!73"
016026:  254000015755  jrst     repin2          ;"5@ !OM"
rineof:
016027:  402000000154  setzm    eofdsp          ;"@0  !L"
016030:  201040400000  movei    a, .fhslf       ;"0(@@  "
016031:  205100000200  movsi    b, birtst       ;"0I  " "
016032:  104000000133                           ;"(@  !;"
016033:  554040012642  hlrz     a, cmdjfn       ;"M@@!6B"
016034:  104000000022                           ;"(@   2"
016035:  600000000000  trn      z, bwd          ;"P     " "`\0\0\0\0"
016036:  263740000000  popj     p,              ;"6?@   "
filini:
016037:  205040100001  movsi    a, 100001       ;"0H@( !"
016040:  561100012705  hrroi    b, filnam       ;"N) !7%"
016041:  104000000020                           ;"(@   0"
016042:  001000020413  cmindf,,                 ;" ( "$+"
016043:  201100302000  movei    b, 302000       ;"0) 80 "
016044:  104000000021                           ;"(@   1"
016045:  001000020417  cmindf,,                 ;" ( "$/"
016046:  202040000143  movem    a, filjfn       ;"00@ !C"
016047:  514040000001  hrlz     a, a            ;"I@@  !"
016050:  200100020152  move     b, 20152        ;"0! "!J"
016051:  200140020164  move     c, 20164        ;"0!@"!T"
016052:  260740020134  pushj    p, .pmap        ;"6'@"!<"
016053:  263740000000  popj     p,              ;"6?@   "
idlini:
016054:  476000000652  setom    idltty          ;"GP  &J"
016055:  200040020201  move     a, 20201        ;"0 @""!"
016056:  251040001251  blt      a, 1251         ;"5(@ *I"
016057:  263740000000  popj     p,              ;"6?@   "
tabini:
016060:  205300777772  movsi    f, 777772       ;"0K __Z"
tabin1:
016061:  200046013034  move     a, sysgtb(f)    ;"0 F!8<"
016062:  104000000016                           ;"(@   ."
016063:  322100020204  jumpe    b, 20204        ;":1 ""$"
016064:  542106012672  hrrm     b, gtab1s(f)    ;"L1&!6Z"
016065:  335006012672  skipge   gtab1s(f)       ;";H&!6Z"
016066:  502106012672  hllm     b, gtab1s(f)    ;"H1&!6Z"
016067:  253300016061  aobjn    f, tabin1       ;"5; !PQ"
016070:  205300777765  movsi    f, 777765       ;"0K __U"
016071:  201040000006  movei    a, q2           ;"0(@  &"
016072:  400140000000  setz     c,              ;"@!@   "
tabin2:
016073:  200106013042  move     b, snootb(f)    ;"0!&!8B"
016074:  104000000516                           ;"(@  %."
016075:  001000020727  cmindf,,                 ;" ( "'7"
016076:  542106012657  hrrm     b, nfks(f)      ;"L1&!6O"
016077:  253300016073  aobjn    f, tabin2       ;"5; !P["
016100:  205300777777  movsi    f, dsptb        ;"0K ___"
tabin3:
016101:  335046012672  skipge   a, gtab1s(f)    ;";HF!6Z"
016102:  505040777777  hrli     a, dsptb        ;"HH@___"
016103:  200106013055  move     b, gtab2s(f)    ;"0!&!8M"
016104:  104000000634                           ;"(@  &<"
016105:  001000020561  cmindf,,                 ;" ( "%Q"
016106:  253300016101  aobjn    f, tabin3       ;"5; !Q!"
016107:  574040012674  hlre     a, jobtt0       ;"O@@!6\"
016110:  506040500002  hrlm     a, njobs        ;"HP@H ""
016111:  214040000001  movm     a, a            ;"1@@  !"
016112:  303040000200  caile    a, birtst       ;"88@ " "
016113:  001000020612  cmindf,,                 ;" ( "&*"
016114:  542040500002  hrrm     a, njobs        ;"L0@H ""
016115:  200040000250  move     a, 250          ;"0 @ "H"
016116:  202040000243  movem    a, cvtptr       ;"00@ "C"
016117:  550040000250  hrrz     a, 250          ;"M @ "H"
016120:  202040500010  movem    a, cnvtlo       ;"00@H ("
016121:  574100000250  hlre     b, 250          ;"OA  "H"
016122:  274040000002  sub      a, b            ;"7@@  ""
016123:  202040500011  movem    a, cnvthi       ;"00@H )"
016124:  574040012673  hlre     a, ttyjb0       ;"O@@!6["
016125:  506040500001  hrlm     a, nttys        ;"HP@H !"
016126:  214040000001  movm     a, a            ;"1@@  !"
016127:  303040000400  caile    a, .efad1       ;"88@ $ "
016130:  001000020617  cmindf,,                 ;" ( "&/"
016131:  542040500001  hrrm     a, nttys        ;"L0@H !"
016132:  506040012666  hrlm     a, ttlnk0       ;"HP@!6V"
016133:  506040012667  hrlm     a, ttidl0       ;"HP@!6W"
016134:  506040012670  hrlm     a, ttnet0       ;"HP@!6X"
016135:  200040012657  move     a, nfks         ;"0 @!6O"
016136:  303040000500  caile    a, filpag       ;"88@ % "
016137:  001000020605  cmindf,,                 ;" ( "&%"
016140:  506040012662  hrlm     a, fkpt0        ;"HP@!6R"
016141:  506040012663  hrlm     a, fkpgs0       ;"HP@!6S"
016142:  506040012664  hrlm     a, fkwsp0       ;"HP@!6T"
016143:  506040012665  hrlm     a, fkjob0       ;"HP@!6U"
016144:  210040000001  movn     a, a            ;"1 @  !"
016145:  506040012657  hrlm     a, nfks         ;"HP@!6O"
016146:  205040000001  movsi    a, t1           ;"0H@  !"
016147:  561100020265  hrroi    b, 20265        ;"N) ""U"
016150:  104000000554                           ;"(@  %L"
016151:  202140500005  movem    c, opruno       ;"01@H %"
016152:  554040000242  hlrz     a, ptypar       ;"M@@ "B"
016153:  210040000001  movn     a, a            ;"1 @  !"
016154:  506040000242  hrlm     a, ptypar       ;"HP@ "B"
016155:  476000001252  setom    ttycpj          ;"GP  *J"
016156:  200040020206  move     a, 20206        ;"0 @""&"
016157:  251040001651  blt      a, 1651         ;"5(@ .I"
016160:  550040012660  hrrz     a, ndhl         ;"M @!6P"
016161:  210040000001  movn     a, a            ;"1 @  !"
016162:  506040012660  hrlm     a, ndhl         ;"HP@!6P"
016163:  263740000000  popj     p,              ;"6?@   "
update:
016164:  402000000152  setzm    nojobs          ;"@0  !J"
016165:  200040020177  move     a, 20177        ;"0 @"!_"
016166:  251040000153  blt      a, nujobs       ;"5(@ !K"
016167:  104000000227                           ;"(@  "7"
016170:  202040500000  movem    a, updatm       ;"00@H  "
016171:  205300777773  movsi    f, 777773       ;"0K __["
updt01:
016172:  337046012673  skipg    a, ttyjb0(f)    ;";XF!6["
016173:  505040777777  hrli     a, dsptb        ;"HH@___"
016174:  200106013056  move     b, gtab2t(f)    ;"0!&!8N"
016175:  104000000634                           ;"(@  &<"
016176:  001000020566  cmindf,,                 ;" ( "%V"
016177:  253300016172  aobjn    f, updt01       ;"5; !QZ"
016200:  205300777771  movsi    f, 777771       ;"0K __Y"
updt02:
016201:  200046012662  move     a, fkpt0(f)     ;"0 F!6R"
016202:  200106013063  move     b, peekt2(f)    ;"0!&!8S"
016203:  104000000311                           ;"(@  #)"
016204:  001000020573  cmindf,,                 ;" ( "%["
016205:  253300016201  aobjn    f, updt02       ;"5; !R!"
016206:  104000000014                           ;"(@   ,"
016207:  202040000146  movem    a, todclk       ;"00@ !F"
016210:  200700000243  move     q, cvtptr       ;"0'  "C"
updt14:
016211:  200116003252  move     b, ttnetw(q)    ;"0!. :J"
016212:  607100004000  tlnn     b, tt%eco       ;"PY  @ "
016213:  254000016251  jrst     updt16          ;"5@ !RI"
016214:  550040000002  hrrz     a, b            ;"M @  ""
016215:  322040016251  jumpe    a, updt16       ;":0@!RI"
016216:  270040012671  add      a, chafrn       ;"7 @!6Y"
016217:  505040000001  hrli     a, t1           ;"HH@  !"
016220:  201100000002  movei    b, t2           ;"0)   ""
016221:  104000000311                           ;"(@  #)"
016222:  001000020713  cmindf,,                 ;" ( "'+"
016223:  135140020233  ldb      c, 20233        ;"+I@"";"
016224:  261740000003  push     p, c            ;"6/@  #"
016225:  505140007000  hrli     c, 7000         ;"HI@ X "
016226:  260740017717  pushj    p, gfrnam       ;"6'@!_/"
016227:  200117000000  move     b, (p)          ;"0!/   "
016230:  202117000000  movem    b, (p)          ;"01/   " " Dx\0\0"
016231:  551316000000  hrrzi    f, (q)          ;"M+.   " "Z,p\0\0"
016232:  201046000000  movei    a, (f)          ;"0(F   " " \"0\0\0"
016233:  221040000006  imuli    a, q2           ;"2(@  &"
016234:  201041505000  movei    a, ttylad(a)    ;"0(AHH " " \"\r\n\0"
016235:  505040440700  hrli     a, 440700       ;"HH@D' "
016236:  201100020337  movei    b, 20337        ;"0) "#?"
016237:  260740017767  pushj    p, movstr       ;"6'@!_W"
016240:  262740000002  pop      p, b            ;"67@  ""
016241:  321100020315  jumpl    b, 20315        ;":) "#-"
016242:  201140000043  movei    c, cmdefc       ;"0)@  C"
016243:  136140000001  idpb     c, a            ;"+Q@  !"
016244:  201140000010  movei    c, .emtac       ;"0)@  ("
016245:  104000000224                           ;"(@  "4"
016246:  255000000000  jfcl                     ;"5H    " "+ \0\0\0"
updt15:
016247:  400100000000  setz     b,              ;"@!    "
016250:  136100000001  idpb     b, a            ;"+Q   !"
updt16:
016251:  253700016211  aobjn    q, updt14       ;"5? !R)"
016252:  510240500002  hllz     e, njobs        ;"I"@H ""
updt20:
016253:  335005543600  skipge   jobrt(e)        ;";H%L> " "7 -G@"
016254:  254000016261  jrst     updt21          ;"5@ !RQ"
016255:  201045000000  movei    a, (e)          ;"0(E   " " \"(\0\0"
016256:  200100020171  move     b, 20171        ;"0! "!Y"
016257:  201140000002  movei    c, t2           ;"0)@  ""
016260:  104000000507                           ;"(@  %'"
updt21:
016261:  403340000010  setzb    g, h            ;"@;@  ("
016262:  200200500000  move     d, updatm       ;"0" H  "
016263:  200140000146  move     c, todclk       ;"0!@ !F"
016264:  322340016270  jumpe    g, updt22       ;":3@!RX"
016265:  316340500005  camn     g, opruno       ;"9S@H %"
016266:  354000000152  aosa     nojobs          ;"=@  !J"
016267:  350000000153  aos      nujobs          ;"=   !K"
updt22:
016270:  202405542200  movem    h, jobdno(e)    ;"04%L2 " " P-D@"
016271:  574305006452  hlre     f, jobtty(e)    ;"OC% TJ"
016272:  316345542000  camn     g, jobadr(e)    ;"9SEL0 " "3N-D\0"
016273:  254000016307  jrst     updt23          ;"5@ !S'"
016274:  202145544000  movem    c, jobltd(e)    ;"01EL@ " " F-H\0"
016275:  202207522000  movem    d, usrlgi(g)    ;"02'J0 " " H=$\0"
016276:  260740016415  pushj    p, gnutty       ;"6'@!T-"
016277:  137640013030  dpb      s, uslgit       ;"+^@!88"
016300:  250345542000  exch     g, jobadr(e)    ;"5#EL0 "
016301:  202207524000  movem    d, usrlgo(g)    ;"02'J@ " " H=(\0"
016302:  570645542400  hrre     s, jobtno(e)    ;"O&EL4 "
016303:  260740016420  pushj    p, goutt0       ;"6'@!T0"
016304:  137640013031  dpb      s, uslgot       ;"+^@!89"
016305:  542305542400  hrrm     f, jobtno(e)    ;"L3%L4 " "XL-E\0"
016306:  254000016325  jrst     updt25          ;"5@ !S5"
updt23:
016307:  570045542400  hrre     a, jobtno(e)    ;"O EL4 "
016310:  316040000006  camn     a, f            ;"9P@  &"
016311:  254000016325  jrst     updt25          ;"5@ !S5"
016312:  321300016320  jumpl    f, updt24       ;":+ !S0"
016313:  202207530000  movem    d, usratt(g)    ;"02'K  " " H=0\0"
016314:  542305542400  hrrm     f, jobtno(e)    ;"L3%L4 " "XL-E\0"
016315:  260740016415  pushj    p, gnutty       ;"6'@!T-"
016316:  137640013033  dpb      s, usattt       ;"+^@!8;"
016317:  254000016325  jrst     updt25          ;"5@ !S5"
updt24:
016320:  250305542400  exch     f, jobtno(e)    ;"5#%L4 " "*\f-E\0"
016321:  202207526000  movem    d, usrdet(g)    ;"02'JP " " H=,\0"
016322:  260740016417  pushj    p, goutty       ;"6'@!T/"
016323:  137640013032  dpb      s, usdett       ;"+^@!8:"
016324:  254000016330  jrst     updt26          ;"5@ !S8"
updt25:
016325:  321300016330  jumpl    f, updt26       ;":+ !S8"
016326:  570046001652  hrre     a, ttyjob(f)    ;"O F .J"
016327:  506045542400  hrlm     a, jobtno(e)    ;"HPEL4 " "QB-E\0"
updt26:
016330:  253240016253  aobjn    e, updt20       ;"5:@!RK"
016331:  525040377777  hrloi    a, .nulio       ;"JH@?__"
016332:  202040006052  movem    a, jobid1       ;"00@ PJ"
016333:  200040020211  move     a, 20211        ;"0 @"")"
016334:  251040006251  blt      a, 6251         ;"5(@ RI"
016335:  402000006252  setzm    jobfk1          ;"@0  RJ"
016336:  200040020213  move     a, 20213        ;"0 @""+"
016337:  251040006451  blt      a, 6451         ;"5(@ TI"
016340:  510700012657  hllz     q, nfks         ;"I' !6O"
016341:  200140000146  move     c, todclk       ;"0!@ !F"
016342:  200200012661  move     d, wtlst        ;"0" !6Q"
updt30:
016343:  554116007052  hlrz     b, fkpt(q)      ;"MA. XJ"
016344:  602100400000  trne     b, .fhslf       ;"P1 @  "
016345:  254000016363  jrst     updt31          ;"5@ !SS"
016346:  550116007552  hrrz     b, fkq2(q)      ;"M!. ]J"
016347:  554256011452  hlrz     e, fkjob(q)     ;"MBN!,J"
016350:  550056010752  hrrz     a, fkwsp(q)     ;"M N!'J"
016351:  505040000001  hrli     a, t1           ;"HH@  !"
016352:  272045006252  addm     a, jobfk1(e)    ;"70E RJ" ".B(\fU"
016353:  200056010252  move     a, fkpgst(q)    ;"0 N!"J"
016354:  306104000000  cain     b, (d)          ;"8Q$   " "1D \0\0"
016355:  317045544000  camg     a, jobltd(e)    ;"9XEL@ " "3b-H\0"
016356:  634040000001  tdza     a, a            ;"S@@  !"
016357:  276140000001  subm     c, a            ;"7Q@  !"
016360:  321040020243  jumpl    a, 20243        ;":(@""C"
016361:  315045006052  camge    a, jobid1(e)    ;"9HE PJ"
016362:  202045006052  movem    a, jobid1(e)    ;"00E PJ"
updt31:
016363:  253700016343  aobjn    q, updt30       ;"5? !SC"
016364:  200040020212  move     a, 20212        ;"0 @""*"
016365:  251040543177  blt      a, 543177       ;"5(@L9_"
016366:  510300500001  hllz     f, nttys        ;"I# H !"
updt35:
016367:  200106002652  move     b, ttidl1(f)    ;"0!& 6J"
016370:  274100000146  sub      b, todclk       ;"7A  !F"
016371:  212106546000  movnm    b, ttidle(f)    ;"11&LP " "\"D5L\0"
016372:  253300016367  aobjn    f, updt35       ;"5; !SW"
016373:  200140000146  move     c, todclk       ;"0!@ !F"
016374:  276140000147  subm     c, oldtod       ;"7Q@ !G"
016375:  250140000147  exch     c, oldtod       ;"5!@ !G"
016376:  510240500002  hllz     e, njobs        ;"I"@H ""
updt40:
016377:  335045543600  skipge   a, jobrt(e)     ;";HEL> " "7\"-G@"
016400:  254000016413  jrst     updt41          ;"5@ !T+"
016401:  274045006652  sub      a, jobort(e)    ;"7@E VJ"
016402:  221040001750  imuli    a, 1750         ;"2(@ /H"
016403:  230040000003  idiv     a, c            ;"3 @  #"
016404:  542045543200  hrrm     a, jobpct(e)    ;"L0EL: " "XB-F@"
016405:  200045543600  move     a, jobrt(e)     ;"0 EL> "
016406:  221040001750  imuli    a, 1750         ;"2(@ /H"
016407:  200100000146  move     b, todclk       ;"0!  !F"
016410:  274105544000  sub      b, jobltd(e)    ;"7A%L@ "
016411:  230040000002  idiv     a, b            ;"3 @  ""
016412:  506045543200  hrlm     a, jobpct(e)    ;"HPEL: " "QB-F@"
updt41:
016413:  253240016377  aobjn    e, updt40       ;"5:@!S_"
016414:  263740000000  popj     p,              ;"6?@   "
gnutty:
016415:  200640000006  move     s, f            ;"0&@  &"
016416:  263740000000  popj     p,              ;"6?@   "
goutty:
016417:  200640000006  move     s, f            ;"0&@  &"
goutt0:
016420:  263740000000  popj     p,              ;"6?@   "
updatl:
016421:  200040020165  move     a, 20165        ;"0 @"!U"
016422:  550100500002  hrrz     b, njobs        ;"M! H ""
016423:  251042006651  blt      a, 6651(b)      ;"5(B VI"
016424:  263740000000  popj     p,              ;"6?@   "
idle:
016425:  510300012660  hllz     f, ndhl         ;"I# !6P"
016426:  402000012421  setzm    tmpbuf          ;"@0 !41"
idle0:
016427:  331006001652  skipl    ttyjob(f)       ;";(& .J"
016430:  254000020263  jrst     20263           ;"5@ ""S"
016431:  356706000652  aosn     q, idltty(f)    ;"=W& &J"
016432:  254000016436  jrst     idle2           ;"5@ !T>"
016433:  302700000001  caie     q, t1           ;"87   !"
016434:  311700012702  caml     q, nidlps       ;"9/ !7""
016435:  260740016440  pushj    p, idlmes       ;"6'@!T@"
idle2:
016436:  253300016427  aobjn    f, idle0        ;"5; !T7"
016437:  263740000000  popj     p,              ;"6?@   "
idlmes:
016440:  350000000241  aos      noburn          ;"=   "A"
016441:  201040000001  movei    a, t1           ;"0(@  !"
016442:  202046000652  movem    a, idltty(f)    ;"00F &J"
016443:  201046400000  movei    a, .fhslf(f)    ;"0(F@  " " \"4\0\0"
016444:  104000000303                           ;"(@  ##"
016445:  320700017760  jump     q, cpopj        ;":' !_P"
016446:  332102016520  skipe    b, clrtb(b)     ;";1"!U0"
016447:  104000000103                           ;"(@  !#"
016450:  263740000000  popj     p,              ;"6?@   "
016451:  201706777777  movei    q, dsptb(f)     ;"0/&___"
016452:  221700000010  imuli    q, .emtac       ;"2/   ("
016453:  561716501000  hrroi    q, idladr(q)    ;"N/.H( "
016454:  200116000000  move     b, (q)          ;"0!.   "
016455:  316100020172  camn     b, 20172        ;"9Q "!Z"
016456:  263740000000  popj     p,              ;"6?@   "
016457:  260740017751  pushj    p, timron       ;"6'@!_I"
016460:  104000000107                           ;"(@  !'"
016461:  261740000002  push     p, b            ;"6/@  ""
016462:  620100000300  trz      b, tt%dam       ;"R!  # "
016463:  104000000110                           ;"(@  !("
016464:  320700020325  jump     q, 20325        ;":' "#5"
016465:  200200000241  move     d, noburn       ;"0"  "A"
016466:  405200000003  andi     d, nibits       ;"@J   #"
016467:  336000012421  skipn    tmpbuf          ;";P !41"
016470:  260740016635  pushj    p, mkimsg       ;"6'@!V="
016471:  476000000240  setom    typing          ;"GP  "@"
016472:  260740016507  pushj    p, dpyclr       ;"6'@!U'"
016473:  400140000000  setz     c,              ;"@!@   "
016474:  561100012421  hrroi    b, tmpbuf       ;"N) !41"
016475:  104000000053                           ;"(@   K"
016476:  332016000000  skipe    (q)             ;";0.   " "6@p\0\0"
016477:  334100000016  skipa    b, q            ;";A   ."
016500:  561100020503  hrroi    b, 20503        ;"N) "%#"
016501:  260740016513  pushj    p, dpymsg       ;"6'@!U+"
idldob:
016502:  104000000104                           ;"(@  !$"
016503:  402000000240  setzm    typing          ;"@0  "@"
016504:  262740000002  pop      p, b            ;"67@  ""
016505:  104000000110                           ;"(@  !("
typmsz:
016506:  254000017761  jrst     timrof          ;"5@ !_Q"
dpyclr:
016507:  104000000303                           ;"(@  ##"
016510:  400140000000  setz     c,              ;"@!@   "
016511:  256002016520  xct      clrtb(b)        ;"5P"!U0"
016512:  263740000000  popj     p,              ;"6?@   "
dpymsg:
016513:  200200000002  move     d, b            ;"0"   ""
016514:  104000000303                           ;"(@  ##"
016515:  400140000000  setz     c,              ;"@!@   "
016516:  256002016550  xct      msgtb(b)        ;"5P"!UH"
016517:  263740000000  popj     p,              ;"6?@   "
016536:  260740016600  pushj    p, vtclr        ;"6'@!V "
016537:  000000000000                           ;"      "
016540:  260740016600  pushj    p, vtclr        ;"6'@!V "
016541:  000000000000                           ;"      "
016542:  260740016600  pushj    p, vtclr        ;"6'@!V "
016543:  260740016600  pushj    p, vtclr        ;"6'@!V "
016544:  260740016600  pushj    p, vtclr        ;"6'@!V "
016545:  260740016623  pushj    p, aaaclr       ;"6'@!V3"
016566:  260740016603  pushj    p, vtmsg        ;"6'@!V#"
016567:  000000000000                           ;"      "
016570:  260740016603  pushj    p, vtmsg        ;"6'@!V#"
016571:  000000000000                           ;"      "
016572:  260740016612  pushj    p, vt1msg       ;"6'@!V*"
016573:  260740016603  pushj    p, vtmsg        ;"6'@!V#"
016574:  260740016603  pushj    p, vtmsg        ;"6'@!V#"
016575:  260740016626  pushj    p, aaamsg       ;"6'@!V6"
vtclr:
016600:  561100020227  hrroi    b, 20227        ;"N) ""7"
016601:  104000000053                           ;"(@   K"
016602:  263740000000  popj     p,              ;"6?@   "
vtmsg:
016603:  561100020230  hrroi    b, 20230        ;"N) ""8"
016604:  104000000053                           ;"(@   K"
016605:  200100000004  move     b, d            ;"0!   $"
016606:  104000000053                           ;"(@   K"
016607:  561100020226  hrroi    b, 20226        ;"N) ""6"
016610:  104000000053                           ;"(@   K"
016611:  263740000000  popj     p,              ;"6?@   "
vt1msg:
016612:  104000000053                           ;"(@   K"
016613:  200100000004  move     b, d            ;"0!   $"
016614:  104000000053                           ;"(@   K"
016615:  561100020375  hrroi    b, 20375        ;"N) "#]"
016616:  104000000053                           ;"(@   K"
016617:  200100000004  move     b, d            ;"0!   $"
016620:  104000000053                           ;"(@   K"
016621:  104000000053                           ;"(@   K"
016622:  263740000000  popj     p,              ;"6?@   "
aaaclr:
016623:  561100020643  hrroi    b, 20643        ;"N) "&C"
016624:  104000000053                           ;"(@   K"
016625:  263740000000  popj     p,              ;"6?@   "
aaamsg:
016626:  561100020303  hrroi    b, 20303        ;"N) "##"
016627:  104000000053                           ;"(@   K"
016630:  200100000004  move     b, d            ;"0!   $"
016631:  104000000053                           ;"(@   K"
016632:  561100020231  hrroi    b, 20231        ;"N) ""9"
016633:  104000000053                           ;"(@   K"
016634:  263740000000  popj     p,              ;"6?@   "
mkimsg:
016635:  261740000001  push     p, a            ;"6/@  !"
016636:  261740000005  push     p, e            ;"6/@  %"
016637:  201240000003  movei    e, nibits       ;"0*@  #"
016640:  200040020157  move     a, 20157        ;"0 @"!O"
mkimgl:
016641:  271200000001  addi     d, t1           ;"7*   !"
016642:  405200000003  andi     d, nibits       ;"@J   #"
016643:  254024020527  jrst     @20527(d)       ;"5@4"%7"
mki0:
016644:  201100000140  movei    b, ournam       ;"0)  !@"
016645:  260740017767  pushj    p, movstr       ;"6'@!_W"
016646:  201100000040  movei    b, .mref2       ;"0)   @"
016647:  136100000001  idpb     b, a            ;"+Q   !"
016650:  474100000000  seto     b,              ;"GA    "
016651:  205140000001  movsi    c, t1           ;"0I@  !"
016652:  104000000220                           ;"(@  "0"
016653:  201100000040  movei    b, .mref2       ;"0)   @"
016654:  136100000001  idpb     b, a            ;"+Q   !"
016655:  136100000001  idpb     b, a            ;"+Q   !"
016656:  254000016753  jrst     mkimln          ;"5@ !WK"
mki1:
016657:  200100000153  move     b, nujobs       ;"0!  !K"
016660:  201140000012  movei    c, p3           ;"0)@  *"
016661:  104000000224                           ;"(@  "4"
016662:  600000000000  trn      z, bwd          ;"P     " "`\0\0\0\0"
016663:  201100000053  movei    b, 53           ;"0)   K"
016664:  136100000001  idpb     b, a            ;"+Q   !"
016665:  200100000152  move     b, nojobs       ;"0!  !J"
016666:  104000000224                           ;"(@  "4"
016667:  600000000000  trn      z, bwd          ;"P     " "`\0\0\0\0"
016670:  201100020313  movei    b, 20313        ;"0) "#+"
016671:  260740017767  pushj    p, movstr       ;"6'@!_W"
016672:  254000016753  jrst     mkimln          ;"5@ !WK"
mki2:
016673:  201100020261  movei    b, 20261        ;"0) ""Q"
016674:  260740017767  pushj    p, movstr       ;"6'@!_W"
016675:  200140020221  move     c, 20221        ;"0!@""1"
016676:  200100000244  move     b, lodavs       ;"0!  "D"
016677:  104000000233                           ;"(@  ";"
016700:  600000000000  trn      z, bwd          ;"P     " "`\0\0\0\0"
016701:  201100000040  movei    b, .mref2       ;"0)   @"
016702:  136100000001  idpb     b, a            ;"+Q   !"
016703:  200100000245  move     b, 245          ;"0!  "E"
016704:  104000000233                           ;"(@  ";"
016705:  600000000000  trn      z, bwd          ;"P     " "`\0\0\0\0"
016706:  201100000040  movei    b, .mref2       ;"0)   @"
016707:  136100000001  idpb     b, a            ;"+Q   !"
016710:  200100000246  move     b, 246          ;"0!  "F"
016711:  104000000233                           ;"(@  ";"
016712:  600000000000  trn      z, bwd          ;"P     " "`\0\0\0\0"
016713:  201100000040  movei    b, .mref2       ;"0)   @"
016714:  136100000001  idpb     b, a            ;"+Q   !"
016715:  136100000001  idpb     b, a            ;"+Q   !"
016716:  254000016753  jrst     mkimln          ;"5@ !WK"
mki3:
016717:  201100020163  movei    b, 20163        ;"0) "!S"
016720:  260740017767  pushj    p, movstr       ;"6'@!_W"
016721:  261740000001  push     p, a            ;"6/@  !"
016722:  104000000014                           ;"(@   ,"
016723:  230040000002  idiv     a, b            ;"3 @  ""
016724:  200100000001  move     b, a            ;"0!   !"
016725:  262740000001  pop      p, a            ;"67@  !"
016726:  231100007020  idivi    b, 7020         ;"3)  X0"
016727:  261740000003  push     p, c            ;"6/@  #"
016730:  201140000012  movei    c, p3           ;"0)@  *"
016731:  104000000224                           ;"(@  "4"
016732:  600000000000  trn      z, bwd          ;"P     " "`\0\0\0\0"
016733:  201100000072  movei    b, cmswtm       ;"0)   Z"
016734:  136100000001  idpb     b, a            ;"+Q   !"
016735:  262740000002  pop      p, b            ;"67@  ""
016736:  231100000074  idivi    b, obkt         ;"3)   \"
016737:  261740000003  push     p, c            ;"6/@  #"
016740:  200140020225  move     c, 20225        ;"0!@""5"
016741:  104000000224                           ;"(@  "4"
016742:  600000000000  trn      z, bwd          ;"P     " "`\0\0\0\0"
016743:  201100000072  movei    b, cmswtm       ;"0)   Z"
016744:  136100000001  idpb     b, a            ;"+Q   !"
016745:  262740000002  pop      p, b            ;"67@  ""
016746:  104000000224                           ;"(@  "4"
016747:  600000000000  trn      z, bwd          ;"P     " "`\0\0\0\0"
016750:  201100000040  movei    b, .mref2       ;"0)   @"
016751:  136100000001  idpb     b, a            ;"+Q   !"
016752:  136100000001  idpb     b, a            ;"+Q   !"
mkimln:
016753:  365240016641  sojge    e, mkimgl       ;">J@!VA"
016754:  261740000001  push     p, a            ;"6/@  !"
016755:  260740016766  pushj    p, upbirt       ;"6'@!WV"
016756:  262740000001  pop      p, a            ;"67@  !"
016757:  201100000200  movei    b, birtst       ;"0)  " "
016760:  260740017767  pushj    p, movstr       ;"6'@!_W"
016761:  201100000220  movei    b, holstr       ;"0)  "0"
016762:  260740017775  pushj    p, movst0       ;"6'@!_]"
016763:  262740000005  pop      p, e            ;"67@  %"
016764:  262740000001  pop      p, a            ;"67@  !"
016765:  263740000000  popj     p,              ;"6?@   "
upbirt:
016766:  474100000000  seto     b,              ;"GA    "
016767:  400200000000  setz     d,              ;"@"    "
016770:  104000000222                           ;"(@  "2"
016771:  540140000002  hrr      c, b            ;"L!@  ""
016772:  316140000163  camn     c, dom          ;"9Q@ !S"
016773:  263740000000  popj     p,              ;"6?@   "
016774:  202140000163  movem    c, dom          ;"01@ !S"
016775:  556100000164  hlrzm    b, year         ;"MQ  !T"
016776:  260740017070  pushj    p, holupd       ;"6'@!XX"
016777:  260740017313  pushj    p, inqopn       ;"6'@![+"
017000:  263740000000  popj     p,              ;"6?@   "
017001:  400140000000  setz     c,              ;"@!@   "
017002:  104000000054                           ;"(@   L"
017003:  554300000002  hlrz     f, b            ;"MC   ""
017004:  211306000000  movni    f, (f)          ;"1+&   " "\",0\0\0"
017005:  205306000000  movsi    f, (f)          ;"0K&   " "!,0\0\0"
017006:  340300000000  aoj      f, z            ;"<#    " "8\f\0\0\0"
017007:  205700777770  movsi    q, 777770       ;"0O __X"
upbir1:
017010:  551346000000  hrrzi    g, (f)          ;"M+F   " "Z.0\0\0"
017011:  261740000006  push     p, f            ;"6/@  &"
017012:  260740017333  pushj    p, inqrd        ;"6'@![;"
017013:  254000020327  jrst     20327           ;"5@ "#7"
017014:  262740000006  pop      p, f            ;"67@  &"
017015:  200040020160  move     a, 20160        ;"0 @"!P"
017016:  134100000001  ildb     b, a            ;"+A   !"
017017:  326100017016  jumpn    b, 17016        ;":Q !X."
017020:  201100000040  movei    b, .mref2       ;"0)   @"
017021:  137100000001  dpb      b, a            ;"+Y   !"
017022:  200100000164  move     b, year         ;"0!  !T"
017023:  201140000012  movei    c, p3           ;"0)@  *"
017024:  104000000224                           ;"(@  "4"
017025:  001000020173  cmindf,,                 ;" ( "!["
017026:  400100000000  setz     b,              ;"@!    "
017027:  136100000001  idpb     b, a            ;"+Q   !"
017030:  561040013242  hrroi    a, brday        ;"N(@!:B"
017031:  205100004000  movsi    b, tt%eco       ;"0I  @ "
017032:  104000000231                           ;"(@  "9"
017033:  254000017041  jrst     upbir5          ;"5@ !XA"
017034:  540140000002  hrr      c, b            ;"L!@  ""
017035:  312140000163  came     c, dom          ;"91@ !S"
017036:  254000017041  jrst     upbir5          ;"5@ !XA"
017037:  552316000170  hrrzm    f, busers(q)    ;"M3. !X"
017040:  252700017042  aobjp    q, upbir6       ;"57 !XB"
upbir5:
017041:  253300017010  aobjn    f, upbir1       ;"5; !X("
upbir6:
017042:  621700777777  tlz      q, dsptb        ;"R/ ___"
017043:  322700017065  jumpe    q, upbirx       ;":7 !XU"
017044:  200040020155  move     a, 20155        ;"0 @"!M"
017045:  201100020631  movei    b, 20631        ;"0) "&9"
017046:  260740017767  pushj    p, movstr       ;"6'@!_W"
017047:  211716000000  movni    q, (q)          ;"1/.   " "\"<p\0\0"
017050:  205716000000  movsi    q, (q)          ;"0O.   " "!<p\0\0"
upbir7:
017051:  200116000170  move     b, busers(q)    ;"0!. !X"
017052:  500100500005  hll      b, opruno       ;"H! H %"
017053:  104000000041                           ;"(@   A"
017054:  320700020400  jump     q, 20400        ;":' "$ "
017055:  252700017061  aobjp    q, upbir9       ;"57 !XQ"
017056:  201100020234  movei    b, 20234        ;"0) ""<"
017057:  260740017767  pushj    p, movstr       ;"6'@!_W"
017060:  254000017051  jrst     upbir7          ;"5@ !XI"
upbir9:
017061:  400100000000  setz     b,              ;"@!    "
017062:  136100000001  idpb     b, a            ;"+Q   !"
017063:  260740017325  pushj    p, inqcls       ;"6'@![5"
017064:  263740000000  popj     p,              ;"6?@   "
upbirx:
017065:  402000000200  setzm    birtst          ;"@0  " "
017066:  260740017325  pushj    p, inqcls       ;"6'@![5"
017067:  263740000000  popj     p,              ;"6?@   "
holupd:
017070:  400300000000  setz     f,              ;"@#    " "@\f\0\0\0"
017071:  402000000220  setzm    holstr          ;"@0  "0"
017072:  474100000000  seto     b,              ;"GA    "
017073:  400200000000  setz     d,              ;"@"    "
017074:  104000000222                           ;"(@  "2"
017075:  556100000164  hlrzm    b, year         ;"MQ  !T"
017076:  552100000165  hrrzm    b, month        ;"M1  !U"
017077:  556140000167  hlrzm    c, date         ;"MQ@ !W"
017100:  552140000166  hrrzm    c, day          ;"M1@ !V"
017101:  350000000165  aos      month           ;"=   !U"
017102:  350000000167  aos      date            ;"=   !W"
017103:  350000000166  aos      day             ;"=   !V"
holup1:
017104:  336606017256  skipn    z, holtab(f)    ;";V&!ZN"
017105:  263740000000  popj     p,              ;"6?@   "
017106:  135040020153  ldb      a, 20153        ;"+H@"!K"
017107:  256001017120  xct      holdis(a)       ;"5P!!Y0"
017110:  254000017117  jrst     holup5          ;"5@ !Y/"
017111:  200040020156  move     a, 20156        ;"0 @"!N"
017112:  201100020222  movei    b, 20222        ;"0) ""2"
017113:  260740017767  pushj    p, movstr       ;"6'@!_W"
017114:  201114000000  movei    b, (z)          ;"0),   " " $`\0\0"
017115:  260740017775  pushj    p, movst0       ;"6'@!_]"
017116:  263740000000  popj     p,              ;"6?@   "
holup5:
017117:  344300017104  aoja     f, holup1       ;"<C !Y$"
holdis:
017120:  001000020407  cmindf,,                 ;" ( "$'"
017121:  260740017124  pushj    p, hldath       ;"6'@!Y4"
017122:  260740017134  pushj    p, hldayh       ;"6'@!Y<"
017123:  260740017150  pushj    p, hlspch       ;"6'@!YH"
hldath:
017124:  135040020241  ldb      a, 20241        ;"+H@""A"
017125:  312040000165  came     a, month        ;"90@ !U"
017126:  263740000000  popj     p,              ;"6?@   "
017127:  135040020237  ldb      a, 20237        ;"+H@""?"
017130:  312040000167  came     a, date         ;"90@ !W"
017131:  263740000000  popj     p,              ;"6?@   "
cpopj1:
017132:  350017000000  aos      (p)             ;"= /   "
017133:  263740000000  popj     p,              ;"6?@   "
hldayh:
017134:  135040020241  ldb      a, 20241        ;"+H@""A"
017135:  312040000165  came     a, month        ;"90@ !U"
017136:  263740000000  popj     p,              ;"6?@   "
017137:  135040020240  ldb      a, 20240        ;"+H@""@"
017140:  312040000166  came     a, day          ;"90@ !V"
017141:  263740000000  popj     p,              ;"6?@   "
017142:  200040000167  move     a, date         ;"0 @ !W"
017143:  231040000007  idivi    a, q3           ;"3(@  '"
017144:  135100020236  ldb      b, 20236        ;"+I "">"
017145:  302042777777  caie     a, dsptb(b)     ;"80B___"
017146:  263740000000  popj     p,              ;"6?@   "
017147:  254000017132  jrst     cpopj1          ;"5@ !Y:"
hlspch:
017150:  135040020232  ldb      a, 20232        ;"+H@"":"
017151:  254001000000  jrst     (a)             ;"5@!   "
holeas:
017152:  200040000165  move     a, month        ;"0 @ !U"
017153:  301040000003  cail     a, nibits       ;"8(@  #"
017154:  303040000004  caile    a, t4           ;"88@  $"
017155:  263740000000  popj     p,              ;"6?@   "
017156:  200040000166  move     a, day          ;"0 @ !V"
017157:  302040000007  caie     a, q3           ;"80@  '"
017160:  263740000000  popj     p,              ;"6?@   "
017161:  200140000164  move     c, year         ;"0!@ !T"
017162:  231140000023  idivi    c, .cmtok       ;"3)@  3"
017163:  350400000004  aos      h, d            ;"=$   $"
017164:  200100000164  move     b, year         ;"0!  !T"
017165:  231100000144  idivi    b, rlogjf       ;"3)  !D"
017166:  201442000001  movei    w, t1(b)        ;"0,B  !"
017167:  201511000000  movei    x, (w)          ;"0-)   " " 4H\0\0"
017170:  221500000003  imuli    x, nibits       ;"2-   #"
017171:  231500000004  idivi    x, t4           ;"3-   $"
017172:  275500000014  subi     x, p5           ;"7M   ,"
017173:  201051000000  movei    a, (w)          ;"0(I   " " \"H\0\0"
017174:  221040000010  imuli    a, .emtac       ;"2(@  ("
017175:  271040000005  addi     a, q1           ;"7(@  %"
017176:  231040000031  idivi    a, maxcfn       ;"3(@  9"
017177:  275040000005  subi     a, q1           ;"7H@  %"
017200:  200540000001  move     y, a            ;"0%@  !"
017201:  200040000164  move     a, year         ;"0 @ !T"
017202:  221040000005  imuli    a, q1           ;"2(@  %"
017203:  231040000004  idivi    a, t4           ;"3(@  $"
017204:  275052000012  subi     a, p3(x)        ;"7HJ  *"
017205:  200600000001  move     z, a            ;"0&   !"
017206:  200040000010  move     a, h            ;"0 @  ("
017207:  221040000013  imuli    a, p4           ;"2(@  +"
017210:  271053000024  addi     a, luupdl(y)    ;"7(K  4"
017211:  275052000000  subi     a, (x)          ;"7HJ   " "/\"P\0\0"
017212:  231040000036  idivi    a, .chccf       ;"3(@  >"
017213:  335000000002  skipge   b               ;";H   ""
017214:  271100000036  addi     b, .chccf       ;"7)   >"
017215:  302100000031  caie     b, maxcfn       ;"81   9"
017216:  302100000030  caie     b, nttyps       ;"81   8"
017217:  303200000013  caile    d, p4           ;"8:   +"
017220:  340000000002  aoj      z, b            ;"<    ""
017221:  213000000002  movns    z, b            ;"18   ""
017222:  271100000054  addi     b, 54           ;"7)   L"
017223:  305100000025  caige    b, .cmact       ;"8I   5"
017224:  271100000036  addi     b, .chccf       ;"7)   >"
017225:  200040000002  move     a, b            ;"0 @  ""
017226:  270100000014  add      b, z            ;"7!   ,"
017227:  231100000007  idivi    b, q3           ;"3)   '"
017230:  271040000007  addi     a, q3           ;"7(@  '"
017231:  274040000003  sub      a, c            ;"7@@  #"
017232:  201100000003  movei    b, nibits       ;"0)   #"
017233:  307040000037  caig     a, .chcun       ;"8X@  ?"
017234:  254000017236  jrst     17236           ;"5@ !Z>"
017235:  340100000000  aoj      b, z            ;"<!    "
017236:  275040000037  subi     a, .chcun       ;"7H@  ?"
017237:  312040000167  came     a, date         ;"90@ !W"
017240:  263740000000  popj     p,              ;"6?@   "
017241:  316100000165  camn     b, month        ;"9Q  !U"
017242:  340017000000  aoj      z, (p)          ;"< /   "
017243:  263740000000  popj     p,              ;"6?@   "
holmem:
017244:  200040000165  move     a, month        ;"0 @ !U"
017245:  302040000005  caie     a, q1           ;"80@  %"
017246:  263740000000  popj     p,              ;"6?@   "
017247:  200040000166  move     a, day          ;"0 @ !V"
017250:  302040000001  caie     a, t1           ;"80@  !"
017251:  263740000000  popj     p,              ;"6?@   "
017252:  200040000166  move     a, day          ;"0 @ !V"
017253:  303040000024  caile    a, luupdl       ;"88@  4"
017254:  350017000000  aos      (p)             ;"= /   "
017255:  263740000000  popj     p,              ;"6?@   "
holtab:
017256:  210200020350  movn     d, 20350        ;"1" "#H"
017257:  213600020705  movns    z, 20705        ;"1> "'%"
017260:  220400020437  imul     h, 20437        ;"2$ "$?"
017261:  225400020624  muli     h, 20624        ;"2L "&4"
017262:  421300020735  andcmi   f, 20735        ;"B+ "'="
017263:  223400020517  imulb    h, 20517        ;"2< "%/"
017264:  227200020257  mulb     d, 20257        ;"2Z ""O"
017265:  234200020463  div      d, 20463        ;"3B "$S"
017266:  235200020364  divi     d, 20364        ;"3J "#T"
017267:  236200020427  divm     d, 20427        ;"3R "$7"
017270:  617152020345  tsnn     c, 20345(x)     ;"QYJ"#E"
017271:  240200020331  ash      d, 20331        ;"4" "#9"
017272:  441300020361  andcbi   f, 20361        ;"D+ "#Q"
017273:  617244020353  tsnn     e, 20353(d)     ;"QZD"#K"
017274:  250200020776  exch     d, 20776        ;"5" "'^"
017275:  271000020447  addi     z, 20447        ;"7( "$G"
017276:  273400020334  addb     h, 20334        ;"7< "#<"
017277:  265200020473  jsp      d, 20473        ;"6J "$["
017300:  511100020255  hllzi    b, 20255        ;"I) ""M"
017301:  315200020423  camge    d, 20423        ;"9J "$3"
017302:  521200020342  hlloi    d, 20342        ;"J* "#B"
017303:  327600020253  jumpg    z, 20253        ;":^ ""K"
017304:  330200020403  skip     d, 20403        ;";" "$#"
017305:  331200020433  skipl    d, 20433        ;";* "$;"
017306:  332600021014  skipe    z, 21014        ;";6 "(,"
017307:  534400020507  hrle     h, 20507        ;"KD "%'"
017310:  345200020523  aojge    d, 20523        ;"<J "%3"
017311:  346200020453  aojn     d, 20453        ;"<R "$K"
017312:  000000000000                           ;"      "
inqopn:
017313:  205040100001  movsi    a, 100001       ;"0H@( !"
017314:  561100020537  hrroi    b, 20537        ;"N) "%?"
017315:  104000000020                           ;"(@   0"
017316:  263740000000  popj     p,              ;"6?@   "
017317:  200100020154  move     b, 20154        ;"0! "!L"
017320:  104000000021                           ;"(@   1"
017321:  263740000000  popj     p,              ;"6?@   "
017322:  202040000145  movem    a, inqjfn       ;"00@ !E"
017323:  350017000000  aos      (p)             ;"= /   "
017324:  263740000000  popj     p,              ;"6?@   "
inqcls:
017325:  200040000145  move     a, inqjfn       ;"0 @ !E"
017326:  104000000022                           ;"(@   2"
017327:  001000020547  cmindf,,                 ;" ( "%G"
017330:  476000000145  setom    inqjfn          ;"GP  !E"
017331:  263740000000  popj     p,              ;"6?@   "
inqrd1:
017332:  664000400000  troa     z, .fhslf       ;"V@ @  "
inqrd:
017333:  620000400000  trz      z, .fhslf       ;"R  @  "
017334:  202340013376  movem    g, blkdir       ;"03@!;^"
017335:  201147000000  movei    c, (g)          ;"0)G   " " &8\0\0"
017336:  200040000145  move     a, inqjfn       ;"0 @ !E"
017337:  104000000054                           ;"(@   L"
017340:  202100013375  movem    b, blkadr       ;"01 !;]"
017341:  322100020235  jumpe    b, 20235        ;":1 ""="
017342:  554300000002  hlrz     f, b            ;"MC   ""
017343:  621100777777  tlz      b, dsptb        ;"R) ___"
017344:  104000000027                           ;"(@   7"
017345:  001000020173  cmindf,,                 ;" ( "!["
017346:  200100020162  move     b, 20162        ;"0! "!R"
017347:  211146000000  movni    c, (f)          ;"1)F   " "\"&0\0\0"
017350:  104000000052                           ;"(@   J"
017351:  205040777761  movsi    a, 777761       ;"0H@__Q"
017352:  602000400000  trne     z, .fhslf       ;"P0 @  "
017353:  205040777767  movsi    a, 777767       ;"0H@__W"
017354:  261740000007  push     p, g            ;"6/@  '"
017355:  200340020161  move     g, 20161        ;"0#@"!Q"
read1:
017356:  135301015561  ldb      f, dnamep(a)    ;"+K!!MQ"
017357:  201440000077  movei    w, cmhlpc       ;"0,@  _"
017360:  200501015600  move     x, ibufp(a)     ;"0%!!N "
017361:  260740020125  pushj    p, movstl       ;"6'@"!5"
017362:  400100000000  setz     b,              ;"@!    "
017363:  136100000012  idpb     b, x            ;"+Q   *"
017364:  253040017356  aobjn    a, read1        ;"58@![N"
017365:  262740000007  pop      p, g            ;"67@  '"
017366:  350017000000  aos      (p)             ;"= /   "
017367:  263740000000  popj     p,              ;"6?@   "
reap:
017370:  510240500002  hllz     e, njobs        ;"I"@H ""
reap0:
017371:  570305542400  hrre     f, jobtno(e)    ;"O#%L4 " "^\f-E\0"
017372:  331005543600  skipl    jobrt(e)        ;";(%L> " "6 -G@"
017373:  336706546000  skipn    q, ttidle(f)    ;";W&LP " "7\\5L\0"
017374:  254000017430  jrst     noreap          ;"5@ !\8"
017375:  200045543600  move     a, jobrt(e)     ;"0 EL> "
017376:  274045006652  sub      a, jobort(e)    ;"7@E VJ"
017377:  301040000426  cail     a, 426          ;"8(@ $6"
017400:  254000017430  jrst     noreap          ;"5@ !\8"
017401:  200045542000  move     a, jobadr(e)    ;"0 EL0 "
017402:  335041003652  skipge   a, rusrtb(a)    ;";HA >J"
017403:  254000017430  jrst     noreap          ;"5@ !\8"
017404:  335106000252  skipge   b, rttytb(f)    ;";I& "J"
017405:  254000017430  jrst     noreap          ;"5@ !\8"
017406:  322040017413  jumpe    a, reap2        ;":0@!\+"
017407:  322100017417  jumpe    b, reap3        ;":1 !\/"
017410:  313040000002  camle    a, b            ;"98@  ""
reap1:
017411:  200040000002  move     a, b            ;"0 @  ""
017412:  254000017417  jrst     reap3           ;"5@ !\/"
reap2:
017413:  326100017411  jumpn    b, reap1        ;":Q !\)"
017414:  325300017416  jumpge   f, 17416        ;":K !\."
017415:  334040000161  skipa    a, rdettm       ;";@@ !Q"
017416:  200040000162  move     a, rdeftm       ;"0 @ !R"
reap3:
017417:  317700000001  camg     q, a            ;"9_   !"
017420:  254000017430  jrst     noreap          ;"5@ !\8"
017421:  321300017463  jumpl    f, rkill        ;":+ !\S"
017422:  356705005652  aosn     q, rwarnc(e)    ;"=W% NJ"
017423:  254000017432  jrst     rwarn           ;"5@ !\:"
017424:  311700012703  caml     q, nreaps       ;"9/ !7#"
017425:  254000017463  jrst     rkill           ;"5@ !\S"
reapnx:
017426:  253240017371  aobjn    e, reap0        ;"5:@![Y"
017427:  263740000000  popj     p,              ;"6?@   "
noreap:
017430:  476005005652  setom    rwarnc(e)       ;"GP% NJ"
017431:  254000017426  jrst     reapnx          ;"5@ !\6"
rwarn:
017432:  260740017472  pushj    p, rchkrt       ;"6'@!\Z"
017433:  561100020267  hrroi    b, 20267        ;"N) ""W"
017434:  260740017521  pushj    p, rusrlg       ;"6'@!]1"
017435:  201046400000  movei    a, .fhslf(f)    ;"0(F@  " " \"4\0\0"
017436:  104000000112                           ;"(@  !*"
017437:  261740000002  push     p, b            ;"6/@  ""
017440:  261740000003  push     p, c            ;"6/@  #"
017441:  630100020200  tdz      b, 20200        ;"S! "" "
017442:  670100020176  tdo      b, 20176        ;"W! "!^"
017443:  104000000113                           ;"(@  !+"
017444:  320740020307  jump     p, 20307        ;":'@"#'"
017445:  104000000103                           ;"(@  !#"
017446:  254000017454  jrst     rwarn2          ;"5@ !\L"
017447:  476000000240  setom    typing          ;"GP  "@"
017450:  260740017751  pushj    p, timron       ;"6'@!_I"
017451:  561100012743  hrroi    b, rkilms       ;"N) !7C"
017452:  400140000000  setz     c,              ;"@!@   "
rwsout:
017453:  104000000053                           ;"(@   K"
rwarn2:
017454:  262740000003  pop      p, c            ;"67@  #"
017455:  262740000002  pop      p, b            ;"67@  ""
017456:  104000000113                           ;"(@  !+"
017457:  320700017460  jump     q, 17460        ;":' !\P"
017460:  402000000240  setzm    typing          ;"@0  "@"
017461:  260740017761  pushj    p, timrof       ;"6'@!_Q"
017462:  254000017426  jrst     reapnx          ;"5@ !\6"
rkill:
017463:  260740017472  pushj    p, rchkrt       ;"6'@!\Z"
017464:  561100020251  hrroi    b, 20251        ;"N) ""I"
017465:  260740017521  pushj    p, rusrlg       ;"6'@!]1"
017466:  201045000000  movei    a, (e)          ;"0(E   " " \"(\0\0"
017467:  104000000003                           ;"(@   #"
017470:  001000020721  cmindf,,                 ;" ( "'1"
017471:  254000017430  jrst     noreap          ;"5@ !\8"
rchkrt:
017472:  200040012675  move     a, jobrt0       ;"0 @!6]"
017473:  505045000000  hrli     a, (e)          ;"HHE   " "Q\"(\0\0"
017474:  104000000010                           ;"(@   ("
017475:  474040000000  seto     a,              ;"G@@   "
017476:  316045006652  camn     a, jobort(e)    ;"9PE VJ" "3B(\rU"
017477:  312045543600  came     a, jobrt(e)     ;"90EL> " "2B-G@"
017500:  254000020301  jrst     20301           ;"5@ "#!"
017501:  263740000000  popj     p,              ;"6?@   "
rlogit:
017502:  337040000144  skipg    a, rlogjf       ;";X@ !D"
017503:  263740000000  popj     p,              ;"6?@   "
017504:  400140000000  setz     c,              ;"@!@   "
017505:  261740000002  push     p, b            ;"6/@  ""
017506:  474100000000  seto     b,              ;"GA    "
017507:  104000000220                           ;"(@  "0"
017510:  262740000002  pop      p, b            ;"67@  ""
017511:  104000000053                           ;"(@   K"
rlogi2:
017512:  104000000043                           ;"(@   C"
017513:  634140000003  tdza     c, c            ;"SA@  #"
017514:  200140000002  move     c, b            ;"0!@  ""
017515:  474100000000  seto     b,              ;"GA    "
017516:  505040000012  hrli     a, p3           ;"HH@  *"
017517:  104000000064                           ;"(@   T"
017520:  263740000000  popj     p,              ;"6?@   "
rusrlg:
017521:  337040000144  skipg    a, rlogjf       ;";X@ !D"
017522:  263740000000  popj     p,              ;"6?@   "
017523:  400140000000  setz     c,              ;"@!@   "
017524:  261740000002  push     p, b            ;"6/@  ""
017525:  474100000000  seto     b,              ;"GA    "
017526:  104000000220                           ;"(@  "0"
017527:  201100000040  movei    b, .mref2       ;"0)   @"
017530:  104000000051                           ;"(@   I"
017531:  262740000002  pop      p, b            ;"67@  ""
017532:  104000000053                           ;"(@   K"
017533:  561100020311  hrroi    b, 20311        ;"N) "#)"
017534:  104000000053                           ;"(@   K"
017535:  201105000000  movei    b, (e)          ;"0)%   " " $(\0\0"
017536:  201140000012  movei    c, p3           ;"0)@  *"
017537:  104000000224                           ;"(@  "4"
017540:  600000000000  trn      z, bwd          ;"P     " "`\0\0\0\0"
017541:  561100020323  hrroi    b, 20323        ;"N) "#3"
017542:  400140000000  setz     c,              ;"@!@   "
017543:  104000000053                           ;"(@   K"
017544:  200105542000  move     b, jobadr(e)    ;"0!%L0 "
017545:  104000000041                           ;"(@   A"
017546:  320700020305  jump     q, 20305        ;":' "#%"
017547:  570105542400  hrre     b, jobtno(e)    ;"O!%L4 "
017550:  321100020367  jumpl    b, 20367        ;":) "#W"
017551:  261740000002  push     p, b            ;"6/@  ""
017552:  561100020321  hrroi    b, 20321        ;"N) "#1"
017553:  104000000053                           ;"(@   K"
017554:  262740000002  pop      p, b            ;"67@  ""
017555:  201140000010  movei    c, .emtac       ;"0)@  ("
017556:  104000000224                           ;"(@  "4"
017557:  600000000000  trn      z, bwd          ;"P     " "`\0\0\0\0"
017560:  561100020222  hrroi    b, 20222        ;"N) ""2"
017561:  400140000000  setz     c,              ;"@!@   "
017562:  104000000053                           ;"(@   K"
017563:  254000017512  jrst     rlogi2          ;"5@ !]*"
lnkchk:
017564:  510300500001  hllz     f, nttys        ;"I# H !"
lnkch1:
017565:  201046000000  movei    a, (f)          ;"0(F   " " \"0\0\0"
017566:  200101002252  move     b, ttlnk1(a)    ;"0!! 2J"
017567:  316100020172  camn     b, 20172        ;"9Q "!Z"
017570:  254000017630  jrst     lnkch4          ;"5@ !^8"
017571:  200640000002  move     s, b            ;"0&@  ""
017572:  205540777774  movsi    y, 777774       ;"0M@__\"
lnkch2:
017573:  400600000000  setz     z,              ;"@&    "
017574:  246600000011  lshc     z, w            ;"4V   )"
017575:  306600000777  cain     z, 777          ;"8V  '_"
017576:  254000017627  jrst     lnkch3          ;"5@ !^7"
017577:  201054000000  movei    a, (z)          ;"0(L   " " \"`\0\0"
017600:  200101002252  move     b, ttlnk1(a)    ;"0!! 2J"
017601:  201046000000  movei    a, (f)          ;"0(F   " " \"0\0\0"
017602:  242040000011  lsh      a, w            ;"40@  )"
017603:  435046000000  iori     a, (f)          ;"CHF   " "G\"0\0\0"
017604:  504040000001  hrl      a, a            ;"H@@  !"
017605:  447040000002  eqvb     a, b            ;"DX@  ""
017606:  255200017607  jcry0    17607           ;"5J !^'"
017607:  270040020205  add      a, 20205        ;"7 @""%"
017610:  444040000002  eqv      a, b            ;"D@@  ""
017611:  255200017627  jcry0    lnkch3          ;"5J !^7"
017612:  612040020205  tdne     a, 20205        ;"Q0@""%"
017613:  254000017627  jrst     lnkch3          ;"5@ !^7"
017614:  201040000777  movei    a, 777          ;"0(@ '_"
017615:  137053017634  dpb      a, lnptrs(y)    ;"+XK!^<"
017616:  574246001652  hlre     e, ttyjob(f)    ;"OBF .J"
017617:  321240017627  jumpl    e, lnkch3       ;":*@!^7"
017620:  200345542000  move     g, jobadr(e)    ;"0#EL0 "
017621:  205040777760  movsi    a, 777760       ;"0H@__P"
017622:  312341012723  came     g, winner(a)    ;"93A!73"
017623:  253040017622  aobjn    a, 17622        ;"58@!^2"
017624:  325040017627  jumpge   a, lnkch3       ;":H@!^7"
017625:  356001012621  aosn     winp(a)         ;"=P!!61"
017626:  260740017640  pushj    p, lnkmsg       ;"6'@!^@"
lnkch3:
017627:  253540017573  aobjn    y, lnkch2       ;"5=@!]["
lnkch4:
017630:  253300017565  aobjn    f, lnkch1       ;"5; !]U"
017631:  200040020207  move     a, 20207        ;"0 @""'"
017632:  251040500777  blt      a, 500777       ;"5(@H'_"
017633:  263740000000  popj     p,              ;"6?@   "
lnptrs:
017634:  331106002252  skipl    b, ttlnk1(f)    ;";)& 2J"
017635:  221106002252  imuli    b, ttlnk1(f)    ;"2)& 2J"
017636:  111106002252                           ;"))& 2J"
017637:  001106002252                           ;" )& 2J"
lnkmsg:
017640:  574254001652  hlre     e, ttyjob(z)    ;"OBL .J"
017641:  321240017760  jumpl    e, cpopj        ;":*@!_P"
017642:  200040020157  move     a, 20157        ;"0 @"!O"
017643:  201100020743  movei    b, 20743        ;"0) "'C"
017644:  260740017767  pushj    p, movstr       ;"6'@!_W"
017645:  201105000000  movei    b, (e)          ;"0)%   " " $(\0\0"
017646:  201140000012  movei    c, p3           ;"0)@  *"
017647:  104000000224                           ;"(@  "4"
017650:  600000000000  trn      z, bwd          ;"P     " "`\0\0\0\0"
017651:  201100020321  movei    b, 20321        ;"0) "#1"
017652:  260740017767  pushj    p, movstr       ;"6'@!_W"
017653:  201114000000  movei    b, (z)          ;"0),   " " $`\0\0"
017654:  201140000010  movei    c, .emtac       ;"0)@  ("
017655:  104000000224                           ;"(@  "4"
017656:  600000000000  trn      z, bwd          ;"P     " "`\0\0\0\0"
017657:  201100020234  movei    b, 20234        ;"0) ""<"
017660:  260740017767  pushj    p, movstr       ;"6'@!_W"
017661:  200105542000  move     b, jobadr(e)    ;"0!%L0 "
017662:  104000000041                           ;"(@   A"
017663:  320700017664  jump     q, 17664        ;":' !^T"
017664:  201100020166  movei    b, 20166        ;"0) "!V"
017665:  260740017775  pushj    p, movst0       ;"6'@!_]"
017666:  201046400000  movei    a, .fhslf(f)    ;"0(F@  " " \"4\0\0"
017667:  561100012421  hrroi    b, tmpbuf       ;"N) !41"
017670:  104000000775                           ;"(@  ']"
017671:  600000000000  trn      z, bwd          ;"P     " "`\0\0\0\0"
017672:  263740000000  popj     p,              ;"6?@   "
usgchk:
017673:  510040500001  hllz     a, nttys        ;"I @H !"
usgch1:
017674:  331001001652  skipl    ttyjob(a)       ;";(! .J"
017675:  350001545001  aos      nuptty(a)       ;"= !LH!"
017676:  253040017674  aobjn    a, usgch1       ;"58@!^\"
017677:  350000545000  aos      nusgs           ;"=  LH "
017700:  263740000000  popj     p,              ;"6?@   "
hstini:
017701:  205040100001  movsi    a, 100001       ;"0H@( !"
017702:  561100020543  hrroi    b, 20543        ;"N) "%C"
017703:  104000000020                           ;"(@   0"
017704:  001000020655  cmindf,,                 ;" ( "&M"
017705:  201100200000  movei    b, .eprev       ;"0) 0  "
017706:  104000000021                           ;"(@   1"
017707:  001000020677  cmindf,,                 ;" ( "&_"
017710:  104000000036                           ;"(@   >"
017711:  001000020663  cmindf,,                 ;" ( "&S"
017712:  514040000001  hrlz     a, a            ;"I@@  !"
017713:  200100020151  move     b, 20151        ;"0! "!I"
017714:  505140500400  hrli     c, ttlink       ;"HI@H$ "
017715:  260740020134  pushj    p, .pmap        ;"6'@"!<"
017716:  263740000000  popj     p,              ;"6?@   "
gfrnam:
017717:  261740000003  push     p, c            ;"6/@  #"
017720:  200040400012  move     a, 400012       ;"0 @@ *"
017721:  120301400000                           ;"*#!@  "
017722:  271040000002  addi     a, t2           ;"7(@  ""
017723:  242140777745  lsh      c, 777745       ;"41@__E"
gfrnm1:
017724:  316141400000  camn     c, .fhslf(a)    ;"9QA@  " "3F\f\0\0"
017725:  254000017732  jrst     gfrnm2          ;"5@ !_:"
017726:  270040000007  add      a, g            ;"7 @  '"
017727:  367300017724  sojg     f, gfrnm1       ;">[ !_4"
017730:  262757000000  pop      p, (p)          ;"67O   " ",^x\0\0"
017731:  263740000000  popj     p,              ;"6?@   "
gfrnm2:
017732:  550041400001  hrrz     a, 400001(a)    ;"M A@ !"
017733:  120301400000                           ;"*#!@  "
017734:  271040000002  addi     a, t2           ;"7(@  ""
017735:  262740000003  pop      p, c            ;"67@  #"
gfrnm3:
017736:  316141400000  camn     c, .fhslf(a)    ;"9QA@  " "3F\f\0\0"
017737:  254000017743  jrst     gfrnm4          ;"5@ !_C"
017740:  270040000007  add      a, g            ;"7 @  '"
017741:  367300017736  sojg     f, gfrnm3       ;">[ !_>"
017742:  263740000000  popj     p,              ;"6?@   "
gfrnm4:
017743:  554041400001  hlrz     a, 400001(a)    ;"M@A@ !"
017744:  554101400000  hlrz     b, .fhslf(a)    ;"MA!@  "
017745:  271100400000  addi     b, .fhslf       ;"7) @  "
017746:  505100440700  hrli     b, 440700       ;"HI D' "
017747:  350017000000  aos      (p)             ;"= /   "
017750:  263740000000  popj     p,              ;"6?@   "
timron:
017751:  261740000001  push     p, a            ;"6/@  !"
017752:  201040400000  movei    a, .fhslf       ;"0(@@  "
017753:  205100000000  movsi    b, bwd          ;"0I    " "!$\0\0\0"
017754:  201140165140  movei    c, 165140       ;"0)@.I@"
017755:  104000000630                           ;"(@  &8"
017756:  600000000000  trn      z, bwd          ;"P     " "`\0\0\0\0"
cpop1j:
017757:  262740000001  pop      p, a            ;"67@  !"
cpopj:
017760:  263740000000  popj     p,              ;"6?@   "
timrof:
017761:  201040400000  movei    a, .fhslf       ;"0(@@  "
017762:  205100000000  movsi    b, bwd          ;"0I    " "!$\0\0\0"
017763:  400140000000  setz     c,              ;"@!@   "
017764:  104000000630                           ;"(@  &8"
017765:  600000000000  trn      z, bwd          ;"P     " "`\0\0\0\0"
017766:  263740000000  popj     p,              ;"6?@   "
movstr:
017767:  505100440700  hrli     b, 440700       ;"HI D' "
017770:  261740000004  push     p, d            ;"6/@  $"
movst1:
017771:  134200000002  ildb     d, b            ;"+B   ""
017772:  322200020002  jumpe    d, movst3       ;":2 " ""
017773:  136200000001  idpb     d, a            ;"+R   !"
017774:  254000017771  jrst     movst1          ;"5@ !_Y"
movst0:
017775:  505100440700  hrli     b, 440700       ;"HI D' "
017776:  261740000004  push     p, d            ;"6/@  $"
movst2:
017777:  134200000002  ildb     d, b            ;"+B   ""
tt%wkp:
020000:  136200000001  idpb     d, a            ;"+R   !"
020001:  326200017777  jumpn    d, movst2       ;":R !__"
movst3:
020002:  262740000004  pop      p, d            ;"67@  $"
020003:  263740000000  popj     p,              ;"6?@   "
movsix:
020004:  322140017760  jumpe    c, cpopj        ;":1@!_P"
020005:  400100000000  setz     b,              ;"@!    "
020006:  246100000006  lshc     b, f            ;"4Q   &"
020007:  271100000040  addi     b, .mref2       ;"7)   @"
020010:  136100000001  idpb     b, a            ;"+Q   !"
020011:  254000020004  jrst     movsix          ;"5@ " $"
eofh:
020012:  261740000012  push     p, x            ;"6/@  *"
020013:  332500000154  skipe    x, eofdsp       ;";5  !L"
020014:  202500000160  movem    x, psipc3       ;"05  !P"
eofh2:
020015:  262740000012  pop      p, x            ;"67@  *"
020016:  104000000136                           ;"(@  !>"
tmrint:
020017:  261740000012  push     p, x            ;"6/@  *"
020020:  205500010000  movsi    x, tt%wka       ;"0M !  "
020021:  332000000240  skipe    typing          ;";0  "@"
020022:  436500000160  iorm     x, psipc3       ;"CU  !P"
020023:  254000020015  jrst     eofh2           ;"5@ " -"
intret:
020024:  205717777762  movsi    q, 777762(p)    ;"0O/__R"
020025:  251700000016  blt      q, q            ;"5/   ."
020026:  105740777761                           ;"(O@__Q"
020027:  104000000136                           ;"(@  !>"
lsterr:
020030:  561040020533  hrroi    a, 20533        ;"N(@"%;"
020031:  104000000076                           ;"(@   ^"
020032:  201040000101  movei    a, .priou       ;"0(@ !!"
020033:  525100400000  hrloi    b, .fhslf       ;"JI @  "
020034:  400140000000  setz     c,              ;"@!@   "
020035:  104000000011                           ;"(@   )"
020036:  304000000000  caia                     ;"8@    " "1\0\0\0\0"
020037:  600000000000  trn      z, bwd          ;"P     " "`\0\0\0\0"
020040:  561100020222  hrroi    b, 20222        ;"N) ""2"
020041:  104000000053                           ;"(@   K"
020042:  474100000000  seto     b,              ;"GA    "
020043:  104000000220                           ;"(@  "0"
020044:  263740000000  popj     p,              ;"6?@   "
pdlint:
020045:  334500020203  skipa    x, 20203        ;";E ""#"
illint:
020046:  200500020202  move     x, 20202        ;"0% """"
020047:  202500000040  movem    x, .mref2       ;"05   @"
020050:  200500000156  move     x, psipc1       ;"0%  !N"
020051:  202500012653  movem    x, .uuoh        ;"05 !6K"
uuoh:
020052:  201040000101  movei    a, .priou       ;"0(@ !!"
020053:  104000000104                           ;"(@  !$"
020054:  561040021036  hrroi    a, 21036        ;"N(@"(>"
020055:  104000000076                           ;"(@   ^"
020056:  560040000040  hrro     a, .mref2       ;"N @  @"
020057:  104000000076                           ;"(@   ^"
020060:  561040020372  hrroi    a, 20372        ;"N(@"#Z"
020061:  104000000076                           ;"(@   ^"
020062:  201040000101  movei    a, .priou       ;"0(@ !!"
020063:  550100012653  hrrz     b, .uuoh        ;"M! !6K"
020064:  201140000010  movei    c, .emtac       ;"0)@  ("
020065:  104000000224                           ;"(@  "4"
020066:  600000000000  trn      z, bwd          ;"P     " "`\0\0\0\0"
020067:  260740020030  pushj    p, lsterr       ;"6'@" 8"
020070:  561040021005  hrroi    a, 21005        ;"N(@"(%"
020071:  104000000076                           ;"(@   ^"
badnap:
020072:  332000012700  skipe    dbugsw          ;";0 !7 "
020073:  104000000170                           ;"(@  !X"
020074:  200740020170  move     p, 20170        ;"0'@"!X"
020075:  104000000014                           ;"(@   ,"
020076:  250040000151  exch     a, errtim       ;"5 @ !I"
020077:  322060000155  jumpe    a, @errdsp      ;":0P !M"
020100:  274040000151  sub      a, errtim       ;"7@@ !I"
020101:  214040000001  movm     a, a            ;"1@@  !"
020102:  301040165140  cail     a, 165140       ;"8(@.I@"
020103:  254020000155  jrst     @errdsp         ;"5@0 !M"
diedie:
020104:  561040021141  hrroi    a, 21141        ;"N(@")A"
020105:  104000000076                           ;"(@   ^"
020106:  201040223700  movei    a, 223700       ;"0(@2? "
020107:  104000000167                           ;"(@  !W"
020110:  205040100001  movsi    a, 100001       ;"0H@( !"
020111:  561100020457  hrroi    b, 20457        ;"N) "$O"
020112:  104000000020                           ;"(@   0"
020113:  104000000170                           ;"(@  !X"
020114:  505040400000  hrli     a, .fhslf       ;"HH@@  "
020115:  200100020220  move     b, 20220        ;"0! ""0"
020116:  251100000007  blt      b, g            ;"5)   '"
020117:  254000000003  jrst     c               ;"5@   #"
dieblt:
020120:  104000000200                           ;"(@  " "
020121:  104000000147                           ;"(@  !G"
020122:  201040400000  movei    a, .fhslf       ;"0(@@  "
020123:  104000000205                           ;"(@  "%"
020124:  254002000000  jrst     (b)             ;"5@"   "
movstl:
020125:  261740000001  push     p, a            ;"6/@  !"
movsl1:
020126:  361300017757  sojl     f, cpop1j       ;">+ !_O"
020127:  361440020133  sojl     w, movsle       ;">,@"!;"
020130:  134040000007  ildb     a, g            ;"+@@  '"
020131:  136040000012  idpb     a, x            ;"+P@  *"
020132:  254000020126  jrst     movsl1          ;"5@ "!6"
movsle:
020133:  001000020467  cmindf,,                 ;" ( "$W"
.pmap:
020134:  124040012203                           ;"*@@!2#"
020135:  124140012205                           ;"*A@!2%"
020136:  201200000001  movei    d, t1           ;"0*   !"
020137:  603140400000  tlne     c, .fhslf       ;"P9@@  "
020140:  550200000003  hrrz     d, c            ;"M"   #"
.pmap0:
020141:  104000000056                           ;"(@   N"
020142:  312040020172  came     a, 20172        ;"90@"!Z"
020143:  271040000001  addi     a, t1           ;"7(@  !"
020144:  271100000001  addi     b, t1           ;"7)   !"
020145:  367200020141  sojg     d, .pmap0       ;">Z "!A"
020146:  120040012203                           ;"* @!2#"
020147:  120140012205                           ;"*!@!2%"
020150:  263740000000  popj     p,              ;"6?@   "
020151:  400000000400  setz     z, .efad1       ;"@   $ "
020152:  400000000500  setz     z, filpag       ;"@   % "
020153:  420200000014  andcm    d, z            ;"B"   ,"
020154:  440000200000  andcb    z, .eprev       ;"D  0  "
020155:  440700000200  andcb    q, birtst       ;"D'  " "
020156:  440700000220  andcb    q, holstr       ;"D'  "0"
020157:  440700012421  andcb    q, tmpbuf       ;"D' !41"
020160:  440700013242  andcb    q, brday        ;"D' !:B"
020161:  440700013403  andcb    q, var          ;"D' !<#"
020162:  444400013377  eqv      h, adate        ;"DD !;_"
020163:  527404000000  hrlos    h, (d)          ;"J\$   " "Up \0\0"
020164:  540000000047  hrr      z, xx           ;"L    G"
020165:  543600006652  hrrs     z, jobort       ;"L>  VJ"
020166:  564321200000  hlro     f, @.eprev(a)   ;"NC10  " "]\r\n\0\0"
020167:  740347200000  conso    .efad1, .eprev(g);"\#G0  "
020170:  777601012221  cono     774, 12221(a)   ;"_^!!21"
020171:  777776000007  conso    774, @q3(q)     ;"__^  '"
020172:  777777777777  conso    774, @dsptb(p)  ;"______"
020173:  000000000000                           ;"      "
020174:  000000000162  rdeftm                   ;"    !R"
020175:  000001000001  a,,                      ;"  !  !"
020176:  000010101000  h,,                      ;"  ((( "
020177:  000152000153  nojobs,,                 ;" !J !K"
020200:  000014141400  z,,                      ;"  ,,, "
020201:  000652000653  idltty,,                 ;" &J &K"
020202:  001000020443  cmindf,,                 ;" ( "$C"
020203:  001000020356  cmindf,,                 ;" ( "#N"
020204:  001000020600  cmindf,,                 ;" ( "& "
020205:  001001001001                           ;" (! (!"
020206:  001252001253  ttycpj,,                 ;" *J *K"
020207:  002252500400  ttlnk1,,                 ;" 2JH$ "
020210:  005652005653  rwarnc,,                 ;" NJ NK"
020211:  006052006053  jobid1,,                 ;" PJ PK"
020212:  006052542600  jobid1,,                 ;" PJL6 "
020213:  006252006253  jobfk1,,                 ;" RJ RK"
020214:  010000000000                           ;"!     "
020215:  012000000000                           ;"!0    "
020216:  012761012764  levtab,,                 ;"!7Q!7T"
020217:  014000000000                           ;"!@    "
020220:  020120000003  dieblt,,                 ;""!0  #"
020221:  024000020200                           ;""@ "" "
020222:  064240000000                           ;"&B@   " "\r\n\0\0\0"
020223:  070000020000                           ;"'  "  "
020224:  070000200000                           ;"'  0  "
020225:  140002000012  fad      z, p3(b)        ;", "  *"
020226:  156200000000  fsbrm    d, z            ;"-R    " "\033H\0\0\0"
020227:  156203345000  fsbrm    d, 345000(c)    ;"-R#<H " "\033H\033J\0"
020230:  156625335400  fsbrm    z, @335400(e)   ;"-V5;L " "\033Y+;\0"
020231:  156671000000  fsbrm    s, @(w)         ;"-VY   " "\033[H\0\0"
020232:  222000000014  imulm    z, z            ;"20   ,"
020233:  242000000002  lsh      z, b            ;"40   ""
020234:  261000000000  push     z, z            ;"6(    " ", \0\0\0"
020235:  263740000000  popj     p,              ;"6?@   "
020236:  300300000014  cai      f, p5           ;"8#   ,"
020237:  310500000014  cam      x, z            ;"9%   ,"
020240:  330300000014  skip     f, z            ;";#   ,"
020241:  360400000014  soj      h, z            ;">$   ,"
020242:  375760000000  sosge    p, @z           ;"?OP   " "??\0\0\0"
020243:  400040000000  setz     a,              ;"@ @   "
020244:  254000016361  jrst     16361           ;"5@ !SQ"
020245:  423134660752  andcmb   b, @660752(z)   ;"B9<V'J" "Defau"
020246:  663500000000  tloe     x, bwd          ;"V=    " "lt\0\0\0"
020247:  423136460706  andcmb   b, @460706(q)   ;"B9>F'&" "Detac"
020250:  643134400000  tlce     b, @.fhslf(z)   ;"T9<@  " "hed\0\0"
020251:  433316571720  xorb     f, 571720(q)    ;"C;.O/0" "Flush"
020252:  647354700000  tlcn     g, 700000(z)    ;"T[LX  " "ing\0\0"
020253:  443035466336  andcbb   z, @466336(s)   ;"D8=FS>" "Hallo"
020254:  737134567000  blko     370, @567000(z) ;"[Y<NX " "ween\0"
020255:  463034267744  setcmb   z, @267744(z)   ;"F8<6_D" "Labor"
020256:  202114174400  movem    b, 174400(z)    ;"01,/D " " Day\0"
020257:  463134170100  setcmb   b, @170100(z)   ;"F9</! " "Leap "
020260:  423037100000  andcmb   z, @tt%wkf(p)   ;"B8?(  " "Day\0\0"
020261:  463374162346  setcmb   g, @162346(z)   ;"F;\.3F" "Loads"
020262:  200000000000  move     z, z            ;"0     " " \0\0\0\0"
020263:  476006000652  setom    idltty(f)       ;"GP& &J"
020264:  254000016436  jrst     idle2           ;"5@ !T>"
020265:  516632352212  hrlzm    z, @352212(x)   ;"IV:=2*" "SYSTE"
020266:  464000000000  orcm     z, z            ;"F@    " "M\0\0\0\0"
020267:  537036267322  hrles    z, @267322(q)   ;"KX>6[2" "Warni"
020270:  673160000000  tsoe     c, @z           ;"W9P   " "ng\0\0\0"
020271:  537235667312  hrles    d, @667312(s)   ;"KZ=V[*" "Winne"
020272:  710000000000  blki     ptp, z          ;"Y     " "r\0\0\0\0"
020273:  000000000000                           ;"      "
020274:  000000015663  cmdtab                   ;"   !NS"
020275:  001000000000                           ;" (    "
020276:  000000000010  h                        ;"     ("
020277:  001000000000                           ;" (    "
020300:  000000000012  x                        ;"     *"
020301:  105740777777                           ;"(O@___"
020302:  254000017430  jrst     noreap          ;"5@ !\8"
020303:  156666231566  fsbrm    s, @231566(f)   ;"-VV3-V" "\033[23;"
020304:  311411000000  caml     h, (w)          ;"9,)   " "20H\0\0"
020305:  200040000144  move     a, rlogjf       ;"0 @ !D"
020306:  254000017547  jrst     17547           ;"5@ !]G"
020307:  201046400000  movei    a, .fhslf(f)    ;"0(F@  " " \"4\0\0"
020310:  263740000000  popj     p,              ;"6?@   "
020311:  202255761100  movem    e, 761100(s)    ;"02M^) " " Job "
020312:  000000000000                           ;"      "
020313:  202255761346  movem    e, 761346(s)    ;"02M^+F" " Jobs"
020314:  201000000000  movei    z, bwd          ;"0(    " "  \0\0\0"
020315:  260740017767  pushj    p, movstr       ;"6'@!_W"
020316:  254000016247  jrst     updt15          ;"5@ !RG"
020317:  261010462750  push     z, 462750(h)    ;"6((F7H" ", Det"
020320:  064240000000                           ;"&B@   " "\r\n\0\0\0"
020321:  261012452262  push     z, 452262(x)    ;"6(*E2R" ", TTY"
020322:  000000000000                           ;"      "
020323:  261016571712  push     z, 571712(q)    ;"6(.O/*" ", use"
020324:  711000000000  blki     110, z          ;"Y(    " "r \0\0\0"
020325:  262740000002  pop      p, b            ;"67@  ""
020326:  254000016506  jrst     typmsz          ;"5@ !U&"
020327:  262740000006  pop      p, f            ;"67@  &"
020330:  254000017041  jrst     upbir5          ;"5@ !XA"
020331:  407416264730  andb     h, 264730(q)    ;"@\.6G8" "April"
020332:  202155767730  movem    c, 767730(s)    ;"01M^_8" " Fool"
020333:  204000000000  movs     z, z            ;"0@    " "!\0\0\0\0"
020334:  413036372322  andcab   z, @372322(q)   ;"A8>?32" "Basti"
020335:  663314520210  tloe     f, 520210(z)    ;"V;,J"(" "lle D"
020336:  607620000000  tlnn     z, @bwd         ;"P^0   " "ay\0\0\0"
020337:  416210147646  setmm    d, 147646(h)    ;"AR(,^F" "CHAOS"
020340:  203475172312  moves    w, @172312(s)   ;"0<]/3*" " site"
020341:  200000000000  move     z, z            ;"0     " " \0\0\0\0"
020342:  417375472732  setmb    g, @472732(s)   ;"A[]G7:" "Colum"
020343:  613536320210  tsne     x, @320210(q)   ;"Q=>:"(" "bus D"
020344:  607620000000  tlnn     z, @bwd         ;"P^0   " "ay\0\0\0"
020345:  443036070362  andcbb   z, @70362(q)    ;"D8>'#R" "Happy"
020346:  202134171750  movem    b, @171750(z)   ;"01<//H" " East"
020347:  627440000000  tlzn     w, bwd          ;"R\@   " "er\0\0\0"
020350:  443036070362  andcbb   z, @70362(q)    ;"D8>'#R" "Happy"
020351:  202354573500  movem    g, 573500(z)    ;"03LO= " " New "
020352:  547134171000  hlrs     b, @171000(z)   ;"LY</( " "Year\0"
020353:  467135567744  orcmb    b, @567744(s)   ;"FY=N_D" "Memor"
020354:  647035420210  tlcn     z, @420210(s)   ;"TX=B"(" "ial D"
020355:  607620000000  tlnn     z, @bwd         ;"P^0   " "ay\0\0\0"
020356:  502111420336  hllm     b, 420336(w)    ;"H1)B#>" "PDL o"
020357:  733136263330  blko     330, @263330(q) ;"[9>6;8" "verfl"
020360:  677560000000  tson     y, @z           ;"W]P   " "ow\0\0\0"
020361:  503036471322  hlls     z, @471322(q)   ;"H8>G+2" "Patri"
020362:  677504771500  tson     x, 771500(d)    ;"W]$_- " "ot's "
020363:  423037100000  andcmb   z, @tt%wkf(p)   ;"B8?(  " "Day\0\0"
020364:  533136267302  hlles    b, @267302(q)   ;"K9>6["" "Verna"
020365:  661010570752  tlo      z, 570752(h)    ;"V((O'J" "l Equ"
020366:  647355774000  tlcn     g, 774000(s)    ;"T[M_@ " "inox\0"
020367:  561100020317  hrroi    b, 20317        ;"N) "#/"
020370:  104000000053                           ;"(@   K"
020371:  254000017512  jrst     rlogi2          ;"5@ !]*"
020372:  064254360730                           ;"&BL>'8" "\r\ncal"
020373:  663134420314  tloe     b, @420314(z)   ;"V9<B#," "led f"
020374:  713375520000  conso    130, @usrtts(s) ;"Y;]J  " "rom \0"
020375:  156666131566  fsbrm    s, @131566(f)   ;"-VV+-V" "\033[13;"
020376:  305411015506  caige    h, 15506(w)     ;"8L)!M&" "10H\033#"
020377:  320000000000  jump     z, z            ;":     " "4\0\0\0\0"
020400:  201100020242  movei    b, 20242        ;"0) ""B"
020401:  260740017767  pushj    p, movstr       ;"6'@!_W"
020402:  254000017055  jrst     17055           ;"5@ !XM"
020403:  407315420246  andb     f, 420246(s)    ;"@[-B"F" "All S"
020404:  607235672346  tlnn     d, @672346(s)   ;"PZ=W3F" "aints"
020405:  235010460762  divi     z, 460762(h)    ;"3H(F'R" "' Day"
020406:  000000000000                           ;"      "
020407:  413034420220  andcab   z, @420220(z)   ;"A8<B"0" "Bad H"
020410:  476312440604  setom    f, 440604(x)    ;"GS*D&$" "OLTAB"
020411:  203135672344  moves    b, @672344(s)   ;"09=W3D" " entr"
020412:  744000000000  blki     440, z          ;"\@    " "y\0\0\0\0"
020413:  417035672100  setmb    z, @672100(s)   ;"AX=W1 " "Cant "
020414:  633235662100  tsze     d, @662100(s)   ;"S:=V1 " "find "
020415:  623036460500  tlze     z, @460500(q)   ;"R8>F% " "data "
020416:  633235462400  tsze     d, @462400(s)   ;"S:=F4 " "file\0"
020417:  417035672100  setmb    z, @672100(s)   ;"AX=W1 " "Cant "
020420:  677414567100  tson     h, 567100(z)    ;"W\,NY " "open "
020421:  623036460500  tlze     z, @460500(q)   ;"R8>F% " "data "
020422:  633235462400  tsze     d, @462400(s)   ;"S:=F4 " "file\0"
020423:  423236571334  andcmb   d, @571334(q)   ;"B:>O+<" "Diurn"
020424:  607304042742  tlnn     f, 42742(d)     ;"P[$$7B" "al Eq"
020425:  727235667760  cono     270, @667760(s) ;"ZZ=V_P" "uinox"
020426:  000000000000                           ;"      "
020427:  437375662336  iorb     g, @662336(s)   ;"C[]V3>" "Gondo"
020430:  713234167100  cono     130, @167100(z) ;"Y:<.Y " "rian "
020431:  473136720262  orcbb    b, @720262(q)   ;"G9>Z"R" "New Y"
020432:  627036200000  tlzn     z, @.eprev(q)   ;"RX>0  " "ear\0\0"
020433:  437537120214  iorb     x, @120214(p)   ;"C]?*"," "Guy F"
020434:  607575362516  tlnn     y, @362516(s)   ;"P]]>5." "awke'"
020435:  715010460762  blki     looptm, 460762(h);"YH(F'R" "s Day"
020436:  000000000000                           ;"      "
020437:  443036070362  andcbb   z, @70362(q)    ;"D8>'#R" "Happy"
020440:  202176267752  movem    c, @267752(q)   ;"01^6_J" " Grou"
020441:  673115067716  tsoe     b, 67716(s)     ;"W9-&_." "ndhog"
020442:  202114174400  movem    b, 174400(z)    ;"01,/D " " Day\0"
020443:  447315462716  eqvb     f, 462716(s)    ;"D[-F7." "Illeg"
020444:  607304064734  tlnn     f, 64734(d)     ;"P[$&G<" "al in"
020445:  717516272706  blko     174, 272706(q)  ;"Y].77&" "struc"
020446:  723235767000  cono     230, @767000(s) ;"Z:=^X " "tion\0"
020447:  447354462740  eqvb     g, 462740(z)    ;"D[LF7@" "Indep"
020450:  627354462734  tlzn     g, 462734(z)    ;"R[LF7<" "enden"
020451:  617124042302  tsnn     b, @42302(d)    ;"QY4$3"" "ce Da"
020452:  744000000000  blki     440, z          ;"\@    " "y\0\0\0\0"
020453:  467136271362  orcmb    b, @271362(q)   ;"FY>7+R" "Merry"
020454:  202075071322  movem    a, @71322(s)    ;"00]'+2" " Chri"
020455:  717515560746  blko     174, 560746(s)  ;"Y]-N'F" "stmas"
020456:  000000000000                           ;"      "
020457:  516632335206  hrlzm    z, @335206(x)   ;"IV:;J&" "SYS:C"
020460:  426450242644  setam    w, 242644(h)    ;"BTH46D" "ERBER"
020461:  526465642660  hrlom    w, @642660(e)   ;"JTUT6P" "US.EX"
020462:  424000000000  seta     z,              ;"B@    " "E\0\0\0\0"
020463:  517035167350  hrlzs    z, @167350(s)   ;"IX=.[H" "Saint"
020464:  202414172344  movem    h, 172344(z)    ;"04,/3D" " Patr"
020465:  647075323746  tlcn     a, @323746(s)   ;"TX]:?F" "ick's"
020466:  202114174400  movem    b, 174400(z)    ;"01,/D " " Day\0"
020467:  517516264734  hrlzs    x, 264734(q)    ;"I].6G<" "Strin"
020470:  635015567754  tsza     z, 567754(s)    ;"SH-N_L" "g mov"
020471:  625014660722  tlza     z, 660722(z)    ;"RH,V'2" "e fai"
020472:  663134400000  tloe     b, @.fhslf(z)   ;"V9<@  " "led\0\0"
020473:  517535566712  hrlzs    x, @566712(s)   ;"I]=NW*" "Summe"
020474:  711012367730  blki     110, 367730(x)  ;"Y(*>_8" "r Sol"
020475:  717515161712  blko     174, 161712(s)  ;"Y]-./*" "stice"
020476:  000000000000                           ;"      "
020477:  522513126734  hllom    x, 126734(y)    ;"J5+*W<" "TTY-n"
020500:  627554571132  tlzn     y, 571132(z)    ;"R]LO):" "ever-"
020501:  713134170312  blko     130, @170312(z) ;"Y9</#*" "reape"
020502:  620000000000  trz      z, bwd          ;"R     " "d\0\0\0\0"
020503:  523035362500  hllos    z, @362500(s)   ;"J8=>5 " "Take "
020504:  667125420222  tlon     b, @420222(e)   ;"VY5B"2" "me, I"
020505:  237324074736  divb     f, @74736(d)    ;"3[4'G>" "'m yo"
020506:  727456320400  datai    274, 320400(q)  ;"Z\N:$ " "urs!\0"
020507:  523214167326  hllos    d, 167326(z)    ;"J:,.[6" "Thank"
020510:  717175173322  datao    busers, @173322(s);"YY]/;2" "sgivi"
020511:  673164042302  tsoe     c, @42302(d)    ;"W9T$3"" "ng Da"
020512:  744000000000  blki     440, z          ;"\@    " "y\0\0\0\0"
020513:  527474571132  hrlos    w, @571132(z)   ;"J\\O):" "User-"
020514:  673136662744  tsoe     b, @662744(q)   ;"W9>V7D" "never"
020515:  267454560740  jra      w, 560740(z)    ;"6\LN'@" "-reap"
020516:  627100000000  tlzn     b, bwd          ;"RY    " "ed\0\0\0"
020517:  533035462734  hlles    z, @462734(s)   ;"K8=F7<" "Valen"
020520:  723235662516  cono     230, @662516(s) ;"Z:=V5." "tine'"
020521:  715010460762  blki     looptm, 460762(h);"YH(F'R" "s Day"
020522:  000000000000                           ;"      "
020523:  537235672312  hrles    d, @672312(s)   ;"KZ=W3*" "Winte"
020524:  711012367730  blki     110, 367730(x)  ;"Y(*>_8" "r Sol"
020525:  717515161712  blko     174, 161712(s)  ;"Y]-./*" "stice"
020526:  000000000000                           ;"      "
020527:  000000016644  mki0                     ;"   !VD"
020530:  000000016657  mki1                     ;"   !VO"
020531:  000000016673  mki2                     ;"   !V["
020532:  000000016717  mki3                     ;"   !W/"
020533:  064255460746                           ;"&BMF'F" "\r\nlas"
020534:  721011251662  blki     210, 251662(w)  ;"Z()5.R" "t JSY"
020535:  515014571344  hrlzi    z, 571344(z)    ;"IH,O+D" "S err"
020536:  677447220000  tson     w, 220000(g)    ;"W\G2  " "or: \0"
020537:  362231650652  soje     d, @650652(w)   ;">29U&J" "<INQU"
020540:  446447650212  eqvm     w, 650212(g)    ;"DTGU"*" "IR>PE"
020541:  476411442534  setom    h, 442534(w)    ;"GT)D5<" "OPLE."
020542:  422032440400  andcmm   z, @440400(x)   ;"B0:D$ " "DATA\0"
020543:  362473151650  soje     w, @151650(y)   ;">4[-.H" "<SYST"
020544:  426327644236  setam    f, @644236(g)   ;"BS7TB>" "EM>HO"
020545:  516512331134  hrlzm    x, 331134(x)    ;"IU*;)<" "STS2."
020546:  412231600000  andcam   d, @600000(w)   ;"A29P  " "BIN\0\0"
020547:  417035623750  setmb    z, @623750(s)   ;"AX=R?H" "Can't"
020550:  203075467746  moves    a, @467746(s)   ;"08]F_F" " clos"
020551:  625011147242  tlza     z, 147242(w)    ;"RH),ZB" "e INQ"
020552:  526232220314  hrlom    d, @220314(x)   ;"JR:2#," "UIR f"
020553:  647314500000  tlcn     f, updatm(z)    ;"T[,H  " "ile\0\0"
020554:  417035672100  setmb    z, @672100(s)   ;"AX=W1 " "Cant "
020555:  637136420244  tszn     b, @420244(q)   ;"SY>B"D" "get R"
020556:  426032042644  setam    z, @42644(x)    ;"BP:$6D" "EAPER"
020557:  203315763500  moves    f, 763500(s)    ;"0;-^= " " log "
020560:  633235462400  tsze     d, @462400(s)   ;"S:=F4 " "file\0"
020561:  436510246250  iorm     x, 246250(h)    ;"CU(4RH" "GTBLT"
020562:  203154164730  moves    c, 164730(z)    ;"09L.G8" " fail"
020563:  627104063336  tlzn     b, 63336(d)     ;"RY$&;>" "ed fo"
020564:  711016372302  blki     110, 372302(q)  ;"Y(.?3"" "r sta"
020565:  713516570000  blko     134, 570000(q)  ;"Y=.O  " "rtup\0"
020566:  436510246250  iorm     x, 246250(h)    ;"CU(4RH" "GTBLT"
020567:  203154164730  moves    c, 164730(z)    ;"09L.G8" " fail"
020570:  627104064734  tlzn     b, 64734(d)     ;"RY$&G<" "ed in"
020571:  203536062302  moves    x, @62302(q)    ;"0=>&3"" " upda"
020572:  723120000000  blko     230, @z         ;"Z90   " "te\0\0\0"
020573:  502130545500  hllm     b, @545500(h)   ;"H18LM " "PEEK "
020574:  633035166312  tsze     z, @166312(s)   ;"S8=.S*" "faile"
020575:  621015167100  tlz      z, 167100(s)    ;"R(-.Y " "d in "
020576:  727414460750  blki     274, 460750(z)  ;"Z\,F'H" "updat"
020577:  624000000000  trza     z, bwd          ;"R@    " "e\0\0\0\0"
020600:  516632343650  hrlzm    z, @343650(x)   ;"IV:<>H" "SYSGT"
020601:  203514161330  moves    x, 161330(z)    ;"0=,.+8" " tabl"
020602:  625015667750  tlza     z, 667750(s)    ;"RH-V_H" "e not"
020603:  203155772734  moves    c, 772734(s)    ;"09M_7<" " foun"
020604:  620000000000  trz      z, bwd          ;"R     " "d\0\0\0\0"
020605:  523375720332  hllos    g, @720332(s)   ;"J;]Z#:" "Too m"
020606:  607357120314  tlnn     g, 120314(p)    ;"P[O*#," "any f"
020607:  677455371500  tson     w, 371500(s)    ;"W\M?- " "orks "
020610:  647344071762  tlcn     g, 71762(d)     ;"T[D'/R" "in sy"
020611:  717514566400  blko     174, 566400(z)  ;"Y],NT " "stem\0"
020612:  523375720332  hllos    g, @720332(s)   ;"J;]Z#:" "Too m"
020613:  607357120324  tlnn     g, 120324(p)    ;"P[O*#4" "any j"
020614:  677056320322  tson     a, 320322(q)    ;"WXN:#2" "obs i"
020615:  671016374746  tso      z, 374746(q)    ;"W(.?GF" "n sys"
020616:  723135500000  blko     230, @updatm(s) ;"Z9=H  " "tem\0\0"
020617:  523375720332  hllos    g, @720332(s)   ;"J;]Z#:" "Too m"
020620:  607357120350  tlnn     g, 120350(p)    ;"P[O*#H" "any t"
020621:  723636320322  cono     234, @320322(q) ;"Z>>:#2" "tys i"
020622:  671016374746  tso      z, 374746(q)    ;"W(.?GF" "n sys"
020623:  723135500000  blko     230, @updatm(s) ;"Z9=H  " "tem\0\0"
020624:  537036364322  hrles    z, @364322(q)   ;"KX>>C2" "Washi"
020625:  673176467734  tsoe     c, @467734(q)   ;"W9^F_<" "ngton"
020626:  237464041322  divb     w, @41322(d)    ;"3\T$+2" "'s Bi"
020627:  713515062302  blko     134, 62302(s)   ;"Y=-&3"" "rthda"
020630:  744000000000  blki     440, z          ;"\@    " "y\0\0\0\0"
020631:  064251060740                           ;"&BI&'@" "\r\nHap"
020632:  703624041322  cono     .chcbs, @41322(d);"X>4$+2" "py Bi"
020633:  713515062302  blko     134, 62302(s)   ;"Y=-&3"" "rthda"
020634:  745016467500  blki     450, 467500(q)  ;"\H.F] " "y to "
020635:  000000000000                           ;"      "
020636:  105740000017                           ;"(O@  /"
020637:  202717000000  movem    q, (p)          ;"07/   " " \\x\0\0"
020640:  201717777762  movei    q, 777762(p)    ;"0//__R"
020641:  251717777777  blt      q, dsptb(p)     ;"5//___"
020642:  254020012655  jrst     @savacs         ;"5@0!6M"
020643:  156671015666  fsbrm    s, @15666(w)    ;"-VY!NV" "\033[H\033["
020644:  450673332160  setca    s, @332160(y)   ;"E&[;1P" "J\033[48"
020645:  355667332160  aosge    s, @332160(g)   ;"=NW;1P" ";;;48"
020646:  700673330642  coni     pi, @330642(y)  ;"X&[;&B" "p\033[1Q"
020647:  000000000000                           ;"      "
020650:  202450540640  movem    w, 540640(h)    ;"04HL&@" " REAP"
020651:  426444064734  setam    w, 64734(d)     ;"BTD&G<" "ER in"
020652:  203034372322  moves    z, @372322(z)   ;"08<?32" " acti"
020653:  677345606424  tson     g, 606424(e)    ;"W[EPT4" "on.\r\n"
020654:  000000000000                           ;"      "
020655:  417035672100  setmb    z, @672100(s)   ;"AX=W1 " "Cant "
020656:  633235662100  tsze     d, @662100(s)   ;"S:=V1 " "find "
020657:  613235660744  tsne     d, @660744(s)   ;"Q:=V'D" "binar"
020660:  745015067746  blki     450, 67746(s)   ;"\H-&_F" "y hos"
020661:  721016460704  blki     210, 460704(q)  ;"Z(.F'$" "t tab"
020662:  663120000000  tloe     b, @bwd         ;"V90   " "le\0\0\0"
020663:  417035672100  setmb    z, @672100(s)   ;"AX=W1 " "Cant "
020664:  637136420346  tszn     b, @420346(q)   ;"SY>B#F" "get s"
020665:  647654520336  tlcn     s, 520336(z)    ;"T^LJ#>" "ize o"
020666:  631015067746  tsz      z, 67746(s)     ;"S(-&_F" "f hos"
020667:  721016460704  blki     210, 460704(q)  ;"Z(.F'$" "t tab"
020670:  663120000000  tloe     b, @bwd         ;"V90   " "le\0\0\0"
020671:  417035672100  setmb    z, @672100(s)   ;"AX=W1 " "Cant "
020672:  677414567100  tson     h, 567100(z)    ;"W\,NY " "open "
020673:  512130150212  hllzm    b, @150212(h)   ;"I18-"*" "REAPE"
020674:  511015467716  hllzi    z, 467716(s)    ;"I(-F_." "R log"
020675:  203155166312  moves    c, 166312(s)    ;"09M.S*" " file"
020676:  000000000000                           ;"      "
020677:  417035672100  setmb    z, @672100(s)   ;"AX=W1 " "Cant "
020700:  677414567100  tson     h, 567100(z)    ;"W\,NY " "open "
020701:  613235660744  tsne     d, @660744(s)   ;"Q:=V'D" "binar"
020702:  745015067746  blki     450, 67746(s)   ;"\H-&_F" "y hos"
020703:  721016460704  blki     210, 460704(q)  ;"Z(.F'$" "t tab"
020704:  663120000000  tloe     b, @bwd         ;"V90   " "le\0\0\0"
020705:  467036272322  orcmb    z, @272322(q)   ;"FX>732" "Marti"
020706:  671011472750  tso      z, 472750(w)    ;"W()G7H" "n Lut"
020707:  643136220226  tlce     b, @220226(q)   ;"T9>2"6" "her K"
020710:  647354723746  tlcn     g, 723746(z)    ;"T[LZ?F" "ing's"
020711:  202055171350  movem    a, 171350(s)    ;"00M/+H" " Birt"
020712:  643114174400  tlce     b, 174400(z)    ;"T9,/D " "hday\0"
020713:  502130545500  hllm     b, @545500(h)   ;"H18LM " "PEEK "
020714:  633035166312  tsze     z, @166312(s)   ;"S8=.S*" "faile"
020715:  621014667744  tlz      z, 667744(z)    ;"R(,V_D" "d for"
020716:  203514161330  moves    x, 161330(z)    ;"0=,.+8" " tabl"
020717:  625016570310  tlza     z, 570310(q)    ;"RH.O#(" "e upd"
020720:  607514500000  tlnn     x, updatm(z)    ;"P],H  " "ate\0\0"
020721:  512130150212  hllzm    b, @150212(h)   ;"I18-"*" "REAPE"
020722:  511014660722  hllzi    z, 660722(z)    ;"I(,V'2" "R fai"
020723:  663134420350  tloe     b, @420350(z)   ;"V9<B#H" "led t"
020724:  675011443636  tsoa     z, 443636(w)    ;"WH)D>>" "o LGO"
020725:  526504065336  hrlom    x, 65336(d)     ;"JU$&K>" "UT jo"
020726:  610000000000  tdn      z, z            ;"Q     " "b\0\0\0\0"
020727:  516351747640  hrlzm    g, 747640(w)    ;"ISI\^@" "SNOOP"
020730:  203477166704  moves    w, @166704(p)   ;"0<_.W$" " symb"
020731:  677304066336  tson     f, 66336(d)     ;"W[$&S>" "ol lo"
020732:  677276570100  tson     e, @570100(q)   ;"WZ^O! " "okup "
020733:  633035166312  tsze     z, @166312(s)   ;"S8=.S*" "faile"
020734:  620000000000  trz      z, bwd          ;"R     " "d\0\0\0\0"
020735:  537036364322  hrles    z, @364322(q)   ;"KX>>C2" "Washi"
020736:  673176467734  tsoe     c, @467734(q)   ;"W9^F_<" "ngton"
020737:  237464050346  divb     w, @50346(d)    ;"3\T%#F" "'s Ps"
020740:  627534467704  tlzn     x, @467704(z)   ;"R]<F_$" "eudob"
020741:  647456464310  tlcn     w, 464310(q)    ;"T\NFC(" "irthd"
020742:  607620000000  tlnn     z, @bwd         ;"P^0   " "ay\0\0\0"
020743:  034160755656                           ;"#AP]NN"
020744:  476370620500  setom    g, @620500(h)   ;"GSXR% " "OOF! "
020745:  536371743102  hrlem    g, @743102(w)   ;"KSY\9"" "WOOF!"
020746:  202210551212  movem    d, 551212(h)    ;"02(M**" " HERE"
020747:  202050535100  movem    a, 535100(h)    ;"00HKI " " BE: "
020750:  453374220000  setcab   g, @220000(z)   ;"E;\2  " "Job \0"
020751:  413034420330  andcab   z, @420330(z)   ;"A8<B#8" "Bad l"
020752:  647354520322  tlcn     g, 520322(z)    ;"T[LJ#2" "ine i"
020753:  671010362744  tso      z, 362744(h)    ;"W((>7D" "n Cer"
020754:  613136272746  tsne     b, @272746(q)   ;"Q9>77F" "berus"
020755:  203476460744  moves    w, @460744(q)   ;"0<^F'D" " star"
020756:  723536020314  blko     234, @20314(q)  ;"Z=>"#," "tup f"
020757:  647314500000  tlcn     f, updatm(z)    ;"T[,H  " "ile\0\0"
020760:  417035672100  setmb    z, @672100(s)   ;"AX=W1 " "Cant "
020761:  633235662100  tsze     d, @662100(s)   ;"S:=V1 " "find "
020762:  417136261312  setmb    b, @261312(q)   ;"AY>6+*" "Cerbe"
020763:  713536320346  blko     134, @320346(q) ;"Y=>:#F" "rus s"
020764:  723036272352  blki     230, @272352(q) ;"Z8>73J" "tartu"
020765:  701014664730  blki     pag, 664730(z)  ;"X(,VG8" "p fil"
020766:  624000000000  trza     z, bwd          ;"R@    " "e\0\0\0\0"
020767:  417035672100  setmb    z, @672100(s)   ;"AX=W1 " "Cant "
020770:  677414567100  tson     h, 567100(z)    ;"W\,NY " "open "
020771:  417136261312  setmb    b, @261312(q)   ;"AY>6+*" "Cerbe"
020772:  713536320346  blko     134, @320346(q) ;"Y=>:#F" "rus s"
020773:  723036272352  blki     230, @272352(q) ;"Z8>73J" "tartu"
020774:  701014664730  blki     pag, 664730(z)  ;"X(,VG8" "p fil"
020775:  624000000000  trza     z, bwd          ;"R@    " "e\0\0\0\0"
020776:  447356462744  eqvb     g, 462744(q)    ;"D[NF7D" "Inter"
020777:  673036464736  tsoe     z, @464736(q)   ;"W8>FG>" "natio"
021000:  673035420230  tsoe     z, @420230(s)   ;"W8=B"8" "nal L"
021001:  607055771100  tlnn     a, 771100(s)    ;"PXM_) " "abor "
021002:  517375464710  hrlzs    g, @464710(s)   ;"I[]FG(" "Solid"
021003:  607455172362  tlnn     w, 172362(s)    ;"P\M/3R" "arity"
021004:  202114174400  movem    b, 174400(z)    ;"01,/D " " Day\0"
021005:  064247536572                           ;"&BGKUZ" "\r\n==="
021006:  365727536572  sojge    q, @536572(g)   ;">O7KUZ" "====="
021007:  365727536572  sojge    q, @536572(g)   ;">O7KUZ" "====="
021010:  365727536572  sojge    q, @536572(g)   ;">O7KUZ" "====="
021011:  365727536572  sojge    q, @536572(g)   ;">O7KUZ" "====="
021012:  365727536572  sojge    q, @536572(g)   ;">O7KUZ" "====="
021013:  365721505000  sojge    q, @ttylad(a)   ;">O1HH " "==\r\n\0"
021014:  407455564746  andb     w, 564746(s)    ;"@\MNGF" "Armis"
021015:  723234362500  cono     230, @362500(z) ;"Z:<>5 " "tice "
021016:  243475766712  jffo     w, @766712(s)   ;"4<]^W*" "(some"
021017:  723235562746  cono     230, @562746(s) ;"Z:=N7F" "times"
021020:  203275667756  moves    e, @667756(s)   ;"0:]V_N" " know"
021021:  671014171500  tso      z, 171500(z)    ;"W(,/- " "n as "
021022:  533136462744  hlles    b, @462744(q)   ;"K9>F7D" "Veter"
021023:  607344771522  tlnn     g, 771522(d)    ;"P[D_-2" "an's)"
021024:  202114174400  movem    b, 174400(z)    ;"01,/D " " Day\0"
021025:  413034420306  andcab   z, @420306(z)   ;"A8<B#&" "Bad c"
021026:  677335560734  tson     f, @560734(s)   ;"W[=N'<" "omman"
021027:  621015464734  tlz      z, 464734(s)    ;"R(-FG<" "d lin"
021030:  625015167100  tlza     z, 167100(s)    ;"RH-.Y " "e in "
021031:  417136261312  setmb    b, @261312(q)   ;"AY>6+*" "Cerbe"
021032:  713536320346  blko     134, @320346(q) ;"Y=>:#F" "rus s"
021033:  723036272352  blki     230, @272352(q) ;"Z8>73J" "tartu"
021034:  701014664730  blki     pag, 664730(z)  ;"X(,VG8" "p fil"
021035:  624000000000  trza     z, bwd          ;"R@    " "e\0\0\0\0"
021036:  064247536572                           ;"&BGKUZ" "\r\n==="
021037:  365727536572  sojge    q, @536572(g)   ;">O7KUZ" "====="
021040:  365727536572  sojge    q, @536572(g)   ;">O7KUZ" "====="
021041:  365727536572  sojge    q, @536572(g)   ;">O7KUZ" "====="
021042:  365727536572  sojge    q, @536572(g)   ;">O7KUZ" "====="
021043:  365727536572  sojge    q, @536572(g)   ;">O7KUZ" "====="
021044:  365721505206  sojge    q, @505206(a)   ;">O1HJ&" "==\r\nC"
021045:  426450242644  setam    w, 242644(h)    ;"BTH46D" "ERBER"
021046:  526467220000  hrlom    w, @220000(g)   ;"JTW2  " "US: \0"
021047:  477536420336  setob    x, @420336(q)   ;"G]>B#>" "Out o"
021050:  631012764734  tsz      z, 764734(x)    ;"S(*^G<" "f Win"
021051:  673136220346  tsoe     b, @220346(q)   ;"W9>2#F" "ner s"
021052:  703034362500  blki     nttyps, @362500(z);"X8<>5 " "pace "
021053:  623536264734  tlze     x, @264734(q)   ;"R=>6G<" "durin"
021054:  635010362744  tsza     z, 362744(h)    ;"SH(>7D" "g Cer"
021055:  613136272746  tsne     b, @272746(q)   ;"Q9>77F" "berus"
021056:  203476460744  moves    w, @460744(q)   ;"0<^F'D" " star"
021057:  723536020314  blko     234, @20314(q)  ;"Z=>"#," "tup f"
021060:  647314500000  tlcn     f, updatm(z)    ;"T[,H  " "ile\0\0"
021061:  413034420352  andcab   z, @420352(z)   ;"A8<B#J" "Bad u"
021062:  717136220334  blko     busers, @220334(q);"YY>2#<" "ser n"
021063:  607334520322  tlnn     f, @520322(z)   ;"P[<J#2" "ame i"
021064:  671012571712  tso      z, 571712(x)    ;"W(*O/*" "n Use"
021065:  711014367732  blki     110, 367732(z)  ;"Y(,>_:" "r com"
021066:  667035662100  tlon     z, @662100(s)   ;"VX=V1 " "mand "
021067:  647344041712  tlcn     g, 41712(d)     ;"T[D$/*" "in Ce"
021070:  713054571352  datai    130, 571352(z)  ;"Y8LO+J" "rberu"
021071:  715016372302  blki     looptm, 372302(q);"YH.?3"" "s sta"
021072:  713516570100  blko     134, 570100(q)  ;"Y=.O! " "rtup "
021073:  633235462400  tsze     d, @462400(s)   ;"S:=F4 " "file\0"
021074:  413034420352  andcab   z, @420352(z)   ;"A8<B#J" "Bad u"
021075:  717136220334  blko     busers, @220334(q);"YY>2#<" "ser n"
021076:  607334520302  tlnn     f, @520302(z)   ;"P[<J#"" "ame a"
021077:  633514571100  tsze     x, 571100(z)    ;"S=,O) " "fter "
021100:  537235667312  hrles    d, @667312(s)   ;"KZ=V[*" "Winne"
021101:  711014367732  blki     110, 367732(z)  ;"Y(,>_:" "r com"
021102:  667035662100  tlon     z, @662100(s)   ;"VX=V1 " "mand "
021103:  647344041712  tlcn     g, 41712(d)     ;"T[D$/*" "in Ce"
021104:  713054571352  datai    130, 571352(z)  ;"Y8LO+J" "rberu"
021105:  715016372302  blki     looptm, 372302(q);"YH.?3"" "s sta"
021106:  713516570100  blko     134, 570100(q)  ;"Y=.O! " "rtup "
021107:  633235462400  tsze     d, @462400(s)   ;"S:=F4 " "file\0"
021110:  522513120106  hllom    x, 120106(y)    ;"J5+*!&" "TTY #"
021111:  203376572100  moves    g, @572100(q)   ;"0;^O1 " " out "
021112:  677144061336  tson     c, 61336(d)     ;"WYD&+>" "of bo"
021113:  727354471500  conso    270, 471500(z)  ;"Z[LG- " "unds "
021114:  647344052250  tlcn     g, 52250(d)     ;"T[D%2H" "in TT"
021115:  545014367732  hlri     z, 367732(z)    ;"LH,>_:" "Y com"
021116:  667035662100  tlon     z, @662100(s)   ;"VX=V1 " "mand "
021117:  647344041712  tlcn     g, 41712(d)     ;"T[D$/*" "in Ce"
021120:  713054571352  datai    130, 571352(z)  ;"Y8LO+J" "rberu"
021121:  715016372302  blki     looptm, 372302(q);"YH.?3"" "s sta"
021122:  713516570100  blko     134, 570100(q)  ;"Y=.O! " "rtup "
021123:  633235462400  tsze     d, @462400(s)   ;"S:=F4 " "file\0"
021124:  413034420350  andcab   z, @420350(z)   ;"A8<B#H" "Bad t"
021125:  723624021500  cono     234, @21500(d)  ;"Z>4"- " "ty # "
021126:  647344052250  tlcn     g, 52250(d)     ;"T[D%2H" "in TT"
021127:  545335662754  hlri     f, @662754(s)   ;"LK=V7L" "Y-nev"
021130:  627445571312  tlzn     w, 571312(e)    ;"R\EO+*" "er-re"
021131:  607414562100  tlnn     h, 562100(z)    ;"P\,N1 " "aped "
021132:  617375566702  tsnn     g, @566702(s)   ;"Q[]NW"" "comma"
021133:  673104064734  tsoe     b, 64734(d)     ;"W9$&G<" "nd in"
021134:  202074571304  movem    a, @571304(z)   ;"00\O+$" " Cerb"
021135:  627456571500  tlzn     w, 571500(q)    ;"R\NO- " "erus "
021136:  717514171350  blko     174, 171350(z)  ;"Y],/+H" "start"
021137:  727404063322  blki     274, 63322(d)   ;"Z\$&;2" "up fi"
021140:  663120000000  tloe     b, @bwd         ;"V90   " "le\0\0\0"
021141:  064247536572                           ;"&BGKUZ" "\r\n==="
021142:  365727536572  sojge    q, @536572(g)   ;">O7KUZ" "====="
021143:  365727536572  sojge    q, @536572(g)   ;">O7KUZ" "====="
021144:  365727536572  sojge    q, @536572(g)   ;">O7KUZ" "====="
021145:  365727536572  sojge    q, @536572(g)   ;">O7KUZ" "====="
021146:  365727536572  sojge    q, @536572(g)   ;">O7KUZ" "====="
021147:  365721505206  sojge    q, @505206(a)   ;">O1HJ&" "==\r\nC"
021150:  426450242644  setam    w, 242644(h)    ;"BTH46D" "ERBER"
021151:  526467220250  hrlom    w, @220250(g)   ;"JTW2"H" "US: T"
021152:  476364046602  setom    g, @46602(d)    ;"GST$V"" "OO MA"
021153:  472624042644  orcbm    z, @42644(d)    ;"G64$6D" "NY ER"
021154:  512372251530  hllzm    g, @251530(x)   ;"I3Z5-8" "RORS,"
021155:  202450546236  movem    w, 546236(h)    ;"04HLR>" " RELO"
021156:  406111147216  andm     b, 147216(w)    ;"@Q),Z." "ADING"
021157:  202231620142  movem    d, @620142(w)   ;"029R!B" " IN 1"
021160:  301011544634  cail     z, 544634(w)    ;"8()LF<" "0 MIN"
021161:  514321236572  hrlz     f, @236572(a)   ;"IC13UZ" "S\r\n=="
021162:  365727536572  sojge    q, @536572(g)   ;">O7KUZ" "====="
021163:  365727536572  sojge    q, @536572(g)   ;">O7KUZ" "====="
021164:  365727536572  sojge    q, @536572(g)   ;">O7KUZ" "====="
021165:  365727536572  sojge    q, @536572(g)   ;">O7KUZ" "====="
021166:  365727536572  sojge    q, @536572(g)   ;">O7KUZ" "====="
021167:  365727506424  sojge    q, @506424(g)   ;">O7HT4" "===\r\n"
021273:  202000021254  movem    z, usracs       ;"00 "*L"
021274:  200000021473  move     z, 21473        ;"0  ",["
021275:  251000021271  blt      z, 21271        ;"5( "*Y"
021276:  254020021272  jrst     @savacs         ;"5@0"*Z"
rstacs:
021277:  000000000000                           ;"      "
021300:  200000021474  move     z, 21474        ;"0  ",\"
021301:  251000000016  blt      z, q            ;"5(   ."
021302:  200000021254  move     z, usracs       ;"0  "*L"
021303:  254020021277  jrst     @rstacs         ;"5@0"*_"
getabs:
021304:  000000000000                           ;"      "
021305:  201040400000  movei    a, .fhslf       ;"0(@@  "
021306:  104000000144                           ;"(@  !D"
021307:  202100021243  movem    b, usinst       ;"01 "*C"
021310:  336000000002  skipn    b               ;";P   ""
021311:  200100021475  move     b, 21475        ;"0! ",]"
021312:  202100021246  movem    b, psitab       ;"01 "*F"
021313:  550240000002  hrrz     e, b            ;"M"@  ""
021314:  554340000002  hlrz     g, b            ;"MC@  ""
021315:  254020021304  jrst     @getabs         ;"5@0"+$"
erinit:
021316:  000000000000                           ;"      "
021317:  264000021272  jsr      savacs          ;"6@ "*Z"
021320:  264000021304  jsr      getabs          ;"6@ "+$"
021321:  476000021242  setom    usinon          ;"GP "*B"
021322:  201040400000  movei    a, .fhslf       ;"0(@@  "
021323:  104000000127                           ;"(@  !7"
021324:  402000021242  setzm    usinon          ;"@0 "*B"
021325:  402000021171  setzm    levtab          ;"@0 ")Y"
021326:  200040021476  move     a, 21476        ;"0 @",^"
021327:  251040021240  blt      a, ertrap       ;"5(@"*@"
021330:  550047000000  hrrz     a, (g)          ;"M G   "
021331:  202040021247  movem    a, uslv1        ;"00@"*G"
021332:  201100021245  movei    b, ertplc       ;"0) "*E"
021333:  336000000001  skipn    a               ;";P   !"
021334:  542107000000  hrrm     b, (g)          ;"L1'   " "XD8\0\0"
021335:  200045000017  move     a, ch15(e)      ;"0 E  /"
021336:  202040021241  movem    a, usch15       ;"00@"*A"
021337:  200040021477  move     a, 21477        ;"0 @",_"
021340:  202045000017  movem    a, ch15(e)      ;"00E  /"
021341:  201040400000  movei    a, .fhslf       ;"0(@@  "
021342:  200100021246  move     b, psitab       ;"0! "*F"
021343:  336000021243  skipn    usinst          ;";P "*C"
021344:  104000000125                           ;"(@  !5"
021345:  336000021242  skipn    usinon          ;";P "*B"
021346:  104000000126                           ;"(@  !6"
021347:  104000000134                           ;"(@  !<"
021350:  202040021244  movem    a, uatchm       ;"00@"*D"
021351:  201040400000  movei    a, .fhslf       ;"0(@@  "
021352:  205100000004  movsi    b, t4           ;"0I   $"
021353:  616100021244  tdnn     b, uatchm       ;"QQ "*D"
021354:  104000000131                           ;"(@  !9"
021355:  476000021240  setom    ertrap          ;"GP "*@"
021356:  264000021277  jsr      rstacs          ;"6@ "*_"
021357:  254120021316  jrstf    @erinit         ;"5A0"+."
errlse:
021360:  000000000000                           ;"      "
021361:  264000021272  jsr      savacs          ;"6@ "*Z"
021362:  264000021304  jsr      getabs          ;"6@ "+$"
021363:  476000021242  setom    usinon          ;"GP "*B"
021364:  201040400000  movei    a, .fhslf       ;"0(@@  "
021365:  104000000127                           ;"(@  !7"
021366:  402000021242  setzm    usinon          ;"@0 "*B"
021367:  104000000130                           ;"(@  !8"
021370:  200040021241  move     a, usch15       ;"0 @"*A"
021371:  202045000017  movem    a, ch15(e)      ;"00E  /"
021372:  332000021243  skipe    usinst          ;";0 "*C"
021373:  336000021242  skipn    usinon          ;";P "*B"
021374:  254000021401  jrst     rlsdon          ;"5@ ",!"
021375:  201040400000  movei    a, .fhslf       ;"0(@@  "
021376:  104000000126                           ;"(@  !6"
021377:  332100021244  skipe    b, uatchm       ;";1 "*D"
021400:  104000000131                           ;"(@  !9"
rlsdon:
021401:  402000021240  setzm    ertrap          ;"@0 "*@"
021402:  264000021277  jsr      rstacs          ;"6@ "*_"
021403:  254120021360  jrstf    @errlse         ;"5A0"+P"
erhndl:
021404:  264000021272  jsr      savacs          ;"6@ "*Z"
021405:  201040400000  movei    a, .fhslf       ;"0(@@  "
021406:  104000000012                           ;"(@   *"
021407:  542100021252  hrrm     b, lsterr       ;"L1 "*J"
021410:  264000021304  jsr      getabs          ;"6@ "+$"
021411:  550047000000  hrrz     a, (g)          ;"M G   "
021412:  200041000000  move     a, (a)          ;"0 A   "
021413:  552040021253  hrrzm    a, errloc       ;"M0@"*K"
021414:  510060021253  hllz     a, @errloc      ;"I P"*K"
021415:  630040021500  tdz      a, 21500        ;"S @"- "
021416:  316040021501  camn     a, 21501        ;"9P@"-!"
021417:  254000021451  jrst     jmphnd          ;"5@ ",I"
021420:  316040021502  camn     a, 21502        ;"9P@"-""
021421:  254000021454  jrst     calhnd          ;"5@ ",L"
021422:  554040021241  hlrz     a, usch15       ;"M@@"*A"
021423:  205100000004  movsi    b, t4           ;"0I   $"
021424:  612100021244  tdne     b, uatchm       ;"Q1 "*D"
021425:  326040021467  jumpn    a, usrhnd       ;":P@",W"
021426:  201040000101  movei    a, .priou       ;"0(@ !!"
021427:  525100400000  hrloi    b, .fhslf       ;"JI @  "
021430:  400140000000  setz     c,              ;"@!@   "
021431:  104000000011                           ;"(@   )"
021432:  255000000000  jfcl                     ;"5H    " "+ \0\0\0"
021433:  255000000000  jfcl                     ;"5H    " "+ \0\0\0"
021434:  264000021277  jsr      rstacs          ;"6@ "*_"
021435:  104000000170                           ;"(@  !X"
021436:  104000000136                           ;"(@  !>"
sterpc:
021437:  000000000000                           ;"      "
021440:  205040000020  movsi    a, .cmtad       ;"0H@  0"
021441:  540040021253  hrr      a, errloc       ;"L @"*K"
021442:  202040021250  movem    a, tmploc       ;"00@"*H"
021443:  264000021277  jsr      rstacs          ;"6@ "*_"
021444:  201220021250  movei    d, @tmploc      ;"0*0"*H"
021445:  264000021304  jsr      getabs          ;"6@ "+$"
021446:  550047000000  hrrz     a, (g)          ;"M G   "
021447:  552201000000  hrrzm    d, (a)          ;"M2!   "
021450:  254020021437  jrst     @sterpc         ;"5@0",?"
jmphnd:
021451:  264000021437  jsr      sterpc          ;"6@ ",?"
021452:  264000021277  jsr      rstacs          ;"6@ "*_"
021453:  104000000136                           ;"(@  !>"
calhnd:
021454:  264000021437  jsr      sterpc          ;"6@ ",?"
021455:  200040021253  move     a, errloc       ;"0 @"*K"
021456:  350000000001  aos      a               ;"=    !"
021457:  202740021251  movem    p, stkflg       ;"07@"*I"
021460:  261740000001  push     p, a            ;"6/@  !"
021461:  335000021251  skipge   stkflg          ;";H "*I"
021462:  335000000017  skipge   p               ;";H   /"
021463:  334000000000  skipa                    ;";@    " "7\0\0\0\0"
021464:  254000021503  jrst     21503           ;"5@ "-#"
021465:  264000021277  jsr      rstacs          ;"6@ "*_"
021466:  104000000136                           ;"(@  !>"
usrhnd:
021467:  200040021241  move     a, usch15       ;"0 @"*A"
021470:  552040021250  hrrzm    a, tmploc       ;"M0@"*H"
021471:  264000021277  jsr      rstacs          ;"6@ "*_"
021472:  254020021250  jrst     @tmploc         ;"5@0"*H"
021473:  000001021255  a,,                      ;"  !"*M"
021474:  021255000001                           ;""*M  !"
021475:  021171021174  levtab,,                 ;"")Y")\"
021476:  021171021172  levtab,,                 ;"")Y")Z"
021477:  000001021404  a,,                      ;"  !",$"
021500:  000037000000                           ;"  ?   "
021501:  320700000000  jump     q, z            ;":'    "
021502:  320740000000  jump     p, z            ;":'@   "
021503:  550107000000  hrrz     b, (g)          ;"M!'   "
021504:  552042000000  hrrzm    a, (b)          ;"M0B   "
021505:  254000021465  jrst     21465           ;"5@ ",U"
jserr0:
021506:  201040000100  movei    a, .priin       ;"0(@ ! "
021507:  104000000100                           ;"(@  ! "
021510:  201040000101  movei    a, .priou       ;"0(@ !!"
021511:  104000000104                           ;"(@  !$"
021512:  561040021665  hrroi    a, 21665        ;"N(@".U"
021513:  104000000076                           ;"(@   ^"
jsmsg0:
021514:  201040000101  movei    a, .priou       ;"0(@ !!"
021515:  525100400000  hrloi    b, .fhslf       ;"JI @  "
021516:  400140000000  setz     c,              ;"@!@   "
021517:  104000000011                           ;"(@   )"
021520:  255000000000  jfcl                     ;"5H    " "+ \0\0\0"
021521:  255000000000  jfcl                     ;"5H    " "+ \0\0\0"
021522:  561040021671  hrroi    a, 21671        ;"N(@".Y"
021523:  104000000076                           ;"(@   ^"
021524:  263740000000  popj     p,              ;"6?@   "
jshlt0:
021525:  260740021506  pushj    p, jserr0       ;"6'@"-&"
jshlt1:
021526:  104000000170                           ;"(@  !X"
021527:  561040021672  hrroi    a, 21672        ;"N(@".Z"
021530:  104000000076                           ;"(@   ^"
021531:  254000021526  jrst     jshlt1          ;"5@ "-6"
.stkst:
021532:  270756000000  add      p, (q)          ;"7'N   "
021533:  325740021546  jumpge   p, stksov       ;":O@"-F"
stkse1:
021534:  261756000000  push     p, (q)          ;"6/N   " ",>p\0\0"
021535:  260756000001  pushj    p, t1(q)        ;"6'N  !"
.stkrt:
021536:  254000021543  jrst     stkrt0          ;"5@ "-C"
021537:  262740000016  pop      p, q            ;"67@  ."
021540:  274740000016  sub      p, q            ;"7G@  ."
021541:  350017000000  aos      (p)             ;"= /   "
021542:  263740000000  popj     p,              ;"6?@   "
stkrt0:
021543:  262740000016  pop      p, q            ;"67@  ."
021544:  274740000016  sub      p, q            ;"7G@  ."
021545:  263740000000  popj     p,              ;"6?@   "
stksov:
021546:  274756000000  sub      p, (q)          ;"7GN   "
021547:  500716000000  hll      q, (q)          ;"H'.   "
stkso1:
021550:  261740021677  push     p, 21677        ;"6/@"._"
021551:  274700021700  sub      q, 21700        ;"7G "/ "
021552:  603700777777  tlne     q, dsptb        ;"P? ___"
021553:  254000021550  jrst     stkso1          ;"5@ "-H"
021554:  254000021534  jrst     stkse1          ;"5@ "-<"
.trset:
021555:  261740000015  push     p, s            ;"6/@  -"
021556:  200640000017  move     s, p            ;"0&@  /"
021557:  270756000000  add      p, (q)          ;"7'N   "
021560:  325740021567  jumpge   p, trsov        ;":O@"-W"
trset1:
021561:  260756000001  pushj    p, t1(q)        ;"6'N  !"
.trret:
021562:  254000021701  jrst     21701           ;"5@ "/!"
021563:  202640000017  movem    s, p            ;"06@  /"
021564:  262740000015  pop      p, s            ;"67@  -"
021565:  350017000000  aos      (p)             ;"= /   "
021566:  263740000000  popj     p,              ;"6?@   "
trsov:
021567:  274756000000  sub      p, (q)          ;"7GN   "
021570:  500716000000  hll      q, (q)          ;"H'.   "
trsov1:
021571:  261740021677  push     p, 21677        ;"6/@"._"
021572:  274700021700  sub      q, 21700        ;"7G "/ "
021573:  603700777777  tlne     q, dsptb        ;"P? ___"
021574:  254000021571  jrst     trsov1          ;"5@ "-Y"
021575:  254000021561  jrst     trset1          ;"5@ "-Q"
.asset:
021576:  261740000015  push     p, s            ;"6/@  -"
021577:  200640000017  move     s, p            ;"0&@  /"
021600:  270740021704  add      p, 21704        ;"7'@"/$"
021601:  325740021705  jumpge   p, 21705        ;":O@"/%"
021602:  124055000001                           ;"*@M  !"
021603:  124155000003                           ;"*AM  #"
asset1:
021604:  260756000000  pushj    p, (q)          ;"6'N   "
.asret:
021605:  254000021701  jrst     21701           ;"5@ "/!"
021606:  202640000017  movem    s, p            ;"06@  /"
021607:  262740000015  pop      p, s            ;"67@  -"
021610:  350017000000  aos      (p)             ;"= /   "
021611:  263740000000  popj     p,              ;"6?@   "
.sav1:
021612:  261740000005  push     p, e            ;"6/@  %"
021613:  260756000000  pushj    p, (q)          ;"6'N   "
021614:  334000000000  skipa                    ;";@    " "7\0\0\0\0"
021615:  350017777777  aos      dsptb(p)        ;"= /___"
021616:  262740000005  pop      p, e            ;"67@  %"
021617:  263740000000  popj     p,              ;"6?@   "
.sav2:
021620:  261740000005  push     p, e            ;"6/@  %"
021621:  261740000006  push     p, f            ;"6/@  &"
021622:  260756000000  pushj    p, (q)          ;"6'N   "
021623:  334000000000  skipa                    ;";@    " "7\0\0\0\0"
021624:  350017777776  aos      777776(p)       ;"= /__^"
021625:  262740000006  pop      p, f            ;"67@  &"
021626:  262740000005  pop      p, e            ;"67@  %"
021627:  263740000000  popj     p,              ;"6?@   "
.sav4:
021630:  261740000005  push     p, e            ;"6/@  %"
021631:  261740000006  push     p, f            ;"6/@  &"
021632:  261740000007  push     p, g            ;"6/@  '"
021633:  261740000010  push     p, h            ;"6/@  ("
021634:  260756000000  pushj    p, (q)          ;"6'N   "
021635:  334000000000  skipa                    ;";@    " "7\0\0\0\0"
021636:  350017777774  aos      777774(p)       ;"= /__\"
021637:  262740000010  pop      p, h            ;"67@  ("
021640:  262740000007  pop      p, g            ;"67@  '"
021641:  262740000006  pop      p, f            ;"67@  &"
021642:  262740000005  pop      p, e            ;"67@  %"
021643:  263740000000  popj     p,              ;"6?@   "
.sav8:
021644:  270740021713  add      p, 21713        ;"7'@"/+"
021645:  325740021714  jumpge   p, .rlend       ;":O@"/,"
021646:  124257777771                           ;"*BO__Y"
021647:  124357777773                           ;"*CO__["
021650:  124457777775                           ;"*DO__]"
021651:  124557777777                           ;"*EO___"
021652:  260756000000  pushj    p, (q)          ;"6'N   "
021653:  334000000000  skipa                    ;";@    " "7\0\0\0\0"
021654:  350017777770  aos      777770(p)       ;"= /__X"
021655:  120557777777                           ;"*%O___"
021656:  120457777775                           ;"*$O__]"
021657:  120357777773                           ;"*#O__["
021660:  120257777771                           ;"*"O__Y"
021661:  274740021713  sub      p, 21713        ;"7G@"/+"
021662:  263740000000  popj     p,              ;"6?@   "
rskp:
021663:  350017000000  aos      (p)             ;"= /   "
r:
021664:  263740000000  popj     p,              ;"6?@   "
021665:  064247720224                           ;"&BGZ"4" "\r\n? J"
021666:  516632320212  hrlzm    z, @320212(x)   ;"IV::"*" "SYS E"
021667:  512451751164  hllzm    w, 751164(w)    ;"I4I])T" "RROR:"
021670:  200000000000  move     z, z            ;"0     " " \0\0\0\0"
021671:  064240000000                           ;"&B@   " "\r\n\0\0\0"
021672:  502451743644  hllm     w, 743644(w)    ;"H4I\>D" "PROGR"
021673:  406324041602  andm     f, @41602(d)    ;"@S4$."" "AM CA"
021674:  472351752100  orcbm    g, 752100(w)    ;"G3I]1 " "NNOT "
021675:  416371652222  setmm    g, @652222(w)   ;"ASYU22" "CONTI"
021676:  472530506424  orcbm    x, @506424(h)   ;"G58HT4" "NUE\r\n"
021677:  000000000000                           ;"      "
021700:  000001000000                           ;"  !   "
021701:  202640000017  movem    s, p            ;"06@  /"
021702:  262740000015  pop      p, s            ;"67@  -"
021703:  263740000000  popj     p,              ;"6?@   "
021704:  000004000004  d,,                      ;"  $  $"
021705:  274740021704  sub      p, 21704        ;"7G@"/$"
021706:  261740000001  push     p, a            ;"6/@  !"
021707:  261740000002  push     p, b            ;"6/@  ""
021710:  261740000003  push     p, c            ;"6/@  #"
021711:  261740000004  push     p, d            ;"6/@  $"
021712:  254000021604  jrst     asset1          ;"5@ ".$"
021713:  000010000010  h,,                      ;"  (  ("
.rlend:
021714:  254200021645  halt     21645           ;"5B ".E"
.comnd:
022715:  033005022716  ufpc,,                   ;"#8%"7."
022716:  104000032630                           ;"(@ #68"
022717:  260740022725  pushj    p, xcomnd       ;"6'@"75"
022720:  256200027134  xct      d, 27134        ;"5R "Y<"
022721:  322200022724  jumpe    d, comn1        ;":2 "74"
022722:  603000040000  tlne     z, tt%wkn       ;"P8 $  "
022723:  542217000000  hrrm     d, (p)          ;"L2/   " "XHx\0\0"
comn1:
022724:  254000032477  jrst     mretn           ;"5@ #4_"
xcomnd:
022725:  265700021555  jsp      q, .trset       ;"6O "-M"
022726:  000021000021  .cmqst,,                 ;"  1  1"
022727:  202040000011  movem    a, w            ;"00@  )"
022730:  202100000010  movem    b, h            ;"01   ("
022731:  504400000010  hrl      h, h            ;"HD   ("
022732:  202755000003  movem    p, nibits(s)    ;"07M  #"
022733:  201040027136  movei    a, 27136        ;"0(@"Y>"
022734:  260740024055  pushj    p, chkabp       ;"6'@"@M"
022735:  256200027144  xct      d, 27144        ;"5R "YD"
022736:  256200027147  xct      d, 27147        ;"5R "YG"
022737:  256200027152  xct      d, 27152        ;"5R "YJ"
022740:  256200027155  xct      d, 27155        ;"5R "YM"
022741:  621000010000  tlz      z, tt%wka       ;"R( !  "
022742:  623000400000  tlze     z, .fhslf       ;"R8 @  "
022743:  661000010000  tlo      z, tt%wka       ;"V( !  "
022744:  256200027160  xct      d, 27160        ;"5R "YP"
022745:  104000000112                           ;"(@  !*"
022746:  124115000005                           ;"*A-  %"
022747:  621100000060  tlz      b, 60           ;"R)   P"
022750:  660100140000  tro      b, 140000       ;"V! ,  "
022751:  620140600000  trz      c, 600000       ;"R!@P  "
022752:  104000000113                           ;"(@  !+"
022753:  104000000107                           ;"(@  !'"
022754:  202115000021  movem    b, .cmqst(s)    ;"01-  1"
022755:  620100000300  trz      b, tt%dam       ;"R!  # "
022756:  660100000100  tro      b, .priin       ;"V!  ! "
022757:  104000000110                           ;"(@  !("
xcomn0:
022760:  200755000003  move     p, nibits(s)    ;"0'M  #"
022761:  630000027162  tdz      z, 27162        ;"S  "YR"
022762:  256200027164  xct      d, 27164        ;"5R "YT"
022763:  660000004000  tro      z, tt%eco       ;"V   @ "
xcom5:
022764:  550040000010  hrrz     a, h            ;"M @  ("
022765:  256040027170  xct      a, 27170        ;"5P@"YX"
022766:  137040027172  dpb      a, 27172        ;"+X@"YZ"
022767:  554240000010  hlrz     e, h            ;"MB@  ("
022770:  256200027174  xct      d, 27174        ;"5R "Y\"
022771:  621000000002  tlz      z, t2           ;"R(   ""
022772:  256200027174  xct      d, 27174        ;"5R "Y\"
022773:  550040000010  hrrz     a, h            ;"M @  ("
022774:  256200027177  xct      d, 27177        ;"5R "Y_"
022775:  202055000004  movem    a, t4(s)        ;"00M  $"
022776:  550040000010  hrrz     a, h            ;"M @  ("
022777:  256040027203  xct      a, 27203        ;"5P@"Z#"
023000:  301040000000  cail     a, bwd          ;"8(@   " "0\"\0\0\0"
023001:  301040000031  cail     a, maxcfn       ;"8(@  9"
023002:  254000027205  jrst     27205           ;"5@ "Z%"
023003:  200041023066  move     a, cfntab(a)    ;"0 A"8V"
023004:  321040023025  jumpl    a, xcom0        ;":(@"85"
023005:  260740023546  pushj    p, inilch       ;"6'@"=F"
nline:
023006:  260740023576  pushj    p, rdcrlf       ;"6'@"=^"
023007:  304000000000  caia                     ;"8@    " "1\0\0\0\0"
023010:  254000027207  jrst     27207           ;"5@ "Z'"
023011:  306040000055  cain     a, cmconc       ;"8P@  M"
023012:  254000027223  jrst     27223           ;"5@ "Z3"
023013:  306040000073  cain     a, cmcom2       ;"8P@  ["
023014:  254000023051  jrst     cmcmt2          ;"5@ "8I"
023015:  306040000041  cain     a, cmcom1       ;"8P@  A"
023016:  254000023052  jrst     cmcmt1          ;"5@ "8J"
023017:  306040000100  cain     a, .priin       ;"8P@ ! "
023020:  254000027230  jrst     27230           ;"5@ "Z8"
023021:  302040000033  caie     a, .chesc       ;"80@  ;"
023022:  306040000006  cain     a, q2           ;"8P@  &"
023023:  254000023031  jrst     xcom2           ;"5@ "89"
xcom3:
023024:  260740023737  pushj    p, cmdip        ;"6'@"??"
xcom0:
023025:  550040000010  hrrz     a, h            ;"M @  ("
023026:  256040027203  xct      a, 27203        ;"5P@"Z#"
023027:  550041023066  hrrz     a, cfntab(a)    ;"M A"8V"
023030:  254001000000  jrst     (a)             ;"5@!   "
xcom2:
023031:  607000000002  tlnn     z, t2           ;"PX   ""
023032:  254000023024  jrst     xcom3           ;"5@ "84"
023033:  260740023731  pushj    p, cmdch        ;"6'@"?9"
xcom4:
023034:  260740023043  pushj    p, cmgdp        ;"6'@"8C"
023035:  660000040000  tro      z, tt%wkn       ;"V  $  "
xcom1:
023036:  256140027234  xct      c, 27234        ;"5Q@"Z<"
023037:  322040027240  jumpe    a, 27240        ;":0@"Z@"
023040:  260740023555  pushj    p, stolch       ;"6'@"=M"
023041:  260740023765  pushj    p, cmdib        ;"6'@"?U"
023042:  254000023036  jrst     xcom1           ;"5@ "8>"
cmgdp:
023043:  554240000010  hlrz     e, h            ;"MB@  ("
023044:  256200027254  xct      d, 27254        ;"5R "ZL"
023045:  260740024067  pushj    p, chkbp        ;"6'@"@W"
023046:  254000027256  jrst     27256           ;"5@ "ZN"
023047:  202040000005  movem    a, e            ;"00@  %"
023050:  263740000000  popj     p,              ;"6?@   "
cmcmt2:
023051:  474040000000  seto     a,              ;"G@@   "
cmcmt1:
023052:  202040000006  movem    a, f            ;"00@  &"
cmcom:
023053:  260740023576  pushj    p, rdcrlf       ;"6'@"=^"
023054:  304000000000  caia                     ;"8@    " "1\0\0\0\0"
023055:  254000027260  jrst     27260           ;"5@ "ZP"
023056:  306040000055  cain     a, cmconc       ;"8P@  M"
023057:  254000027262  jrst     27262           ;"5@ "ZR"
023060:  302040000006  caie     a, q2           ;"80@  &"
023061:  306040000033  cain     a, .chesc       ;"8P@  ;"
023062:  254000027265  jrst     27265           ;"5@ "ZU"
023063:  316040000006  camn     a, f            ;"9P@  &"
023064:  254000022764  jrst     xcom5           ;"5@ "7T"
023065:  254000023053  jrst     cmcom           ;"5@ "8K"
cfntab:
023066:  000000024164  xcmkey                   ;"   "AT"
023067:  000000024547  xcmnum                   ;"   "EG"
023070:  400000024425  setz     z, xcmnoi       ;"@  "D5"
023071:  000000024150  xcmswi                   ;"   "AH"
023072:  000000025036  xcmifi                   ;"   "H>"
023073:  000000025035  xcmofi                   ;"   "H="
023074:  000000025032  xcmfil                   ;"   "H:"
023075:  000000024760  xcmfld                   ;"   "GP"
023076:  000000024512  xcmcfm                   ;"   "E*"
023077:  000000025201  xcmdir                   ;"   "J!"
023100:  000000025200  xcmusr                   ;"   "J "
023101:  000000025277  xcmcma                   ;"   "J_"
023102:  400000024101  setz     z, xcmini       ;"@  "A!"
023103:  000000024531  xcmflt                   ;"   "E9"
023104:  000000024702  xcmdev                   ;"   "G""
023105:  000000024421  xcmtxt                   ;"   "D1"
023106:  000000024627  xcmtad                   ;"   "F7"
023107:  000000024736  xcmqst                   ;"   "G>"
023110:  400000024750  setz     z, xcmuqs       ;"@  "GH"
023111:  000000025160  xcmtok                   ;"   "IP"
023112:  000000024546  xcmnux                   ;"   "EF"
023113:  000000024764  xcmact                   ;"   "GT"
023114:  000000024767  xcmnod                   ;"   "GW"
023115:  400000025301  setz     z, cmchr        ;"@  "K!"
023116:  000000025317  xcmpup                   ;"   "K/"
xcomrf:
023117:  260740023127  pushj    p, cmrset       ;"6'@"97"
023120:  260740023620  pushj    p, cmcin1       ;"6'@">0"
023121:  544400000010  hlr      h, h            ;"LD   ("
023122:  254000022760  jrst     xcomn0          ;"5@ "7P"
cmfset:
023123:  260740023127  pushj    p, cmrset       ;"6'@"97"
023124:  260740023546  pushj    p, inilch       ;"6'@"=F"
023125:  630000027267  tdz      z, 27267        ;"S  "ZW"
023126:  263740000000  popj     p,              ;"6?@   "
cmrset:
023127:  274600000012  sub      z, x            ;"7F   *"
023130:  256200027271  xct      d, 27271        ;"5R "ZY"
023131:  256200027144  xct      d, 27144        ;"5R "YD"
023132:  256200027147  xct      d, 27147        ;"5R "YG"
023133:  263740000000  popj     p,              ;"6?@   "
xcomxl:
023134:  661000040000  tlo      z, tt%wkn       ;"V( $  "
023135:  200040000013  move     a, y            ;"0 @  +"
023136:  256200027274  xct      d, 27274        ;"5R "Z\"
023137:  202100000013  movem    b, y            ;"01   +"
023140:  260740023720  pushj    p, subbp        ;"6'@"?0"
023141:  272040000012  addm     a, x            ;"70@  *"
023142:  400600000000  setz     z,              ;"@&    "
023143:  260740023254  pushj    p, cmrty0       ;"6'@":L"
023144:  254000023160  jrst     xcomxi          ;"5@ "9P"
xcomrp:
023145:  661000040000  tlo      z, tt%wkn       ;"V( $  "
023146:  200040000013  move     a, y            ;"0 @  +"
023147:  256200027274  xct      d, 27274        ;"5R "Z\"
023150:  202100000013  movem    b, y            ;"01   +"
023151:  260740023720  pushj    p, subbp        ;"6'@"?0"
023152:  202040000014  movem    a, z            ;"00@  ,"
023153:  272040000012  addm     a, x            ;"70@  *"
023154:  322040023134  jumpe    a, xcomxl       ;":0@"9<"
023155:  254000023171  jrst     xcomx2          ;"5@ "9Y"
xcomxr:
023156:  603000400000  tlne     z, .fhslf       ;"P8 @  "
023157:  260740023731  pushj    p, cmdch        ;"6'@"?9"
xcomxi:
023160:  627000400000  tlzn     z, .fhslf       ;"RX @  "
023161:  254000023171  jrst     xcomx2          ;"5@ "9Y"
023162:  602000020000  trne     z, tt%wkp       ;"P0 "  "
023163:  254000023117  jrst     xcomrf          ;"5@ "9/"
023164:  661000400000  tlo      z, .fhslf       ;"V( @  "
023165:  603000000400  tlne     z, .efad1       ;"P8  $ "
023166:  254000023171  jrst     xcomx2          ;"5@ "9Y"
023167:  201040000040  movei    a, .mref2       ;"0(@  @"
023170:  260740023765  pushj    p, cmdib        ;"6'@"?U"
xcomx2:
023171:  256200027277  xct      d, 27277        ;"5R "Z_"
023172:  256200027302  xct      d, 27302        ;"5R "[""
023173:  256200027305  xct      d, 27305        ;"5R "[%"
xcomx1:
023174:  200755000003  move     p, nibits(s)    ;"0'M  #"
023175:  256200027160  xct      d, 27160        ;"5R "YP"
023176:  120115000005                           ;"*!-  %"
023177:  104000000113                           ;"(@  !+"
023200:  200115000021  move     b, .cmqst(s)    ;"0!-  1"
023201:  104000000110                           ;"(@  !("
023202:  256200027310  xct      d, 27310        ;"5R "[("
023203:  256200027313  xct      d, 27313        ;"5R "[+"
023204:  621000000777  tlz      z, 777          ;"R(  '_"
023205:  256200027316  xct      d, 27316        ;"5R "[."
023206:  256200027321  xct      d, 27321        ;"5R "[1"
023207:  263740000000  popj     p,              ;"6?@   "
xcomne:
023210:  202040021252  movem    a, lsterr       ;"00@"*J"
xcomnp:
023211:  602000400000  trne     z, .fhslf       ;"P0 @  "
023212:  254000023237  jrst     cmrtyp          ;"5@ ":?"
023213:  260740023127  pushj    p, cmrset       ;"6'@"97"
023214:  256200027305  xct      d, 27305        ;"5R "[%"
023215:  550040000010  hrrz     a, h            ;"M @  ("
023216:  256200027324  xct      d, 27324        ;"5R "[4"
023217:  542040000010  hrrm     a, h            ;"L0@  ("
023220:  326040022760  jumpn    a, xcomn0       ;":P@"7P"
023221:  607000000200  tlnn     z, birtst       ;"PX  " "
023222:  254000023233  jrst     xcomn1          ;"5@ ":;"
023223:  561040000077  hrroi    a, cmhlpc       ;"N(@  _"
023224:  260740023765  pushj    p, cmdib        ;"6'@"?U"
023225:  256200027327  xct      d, 27327        ;"5R "[7"
023226:  104000000100                           ;"(@  ! "
023227:  544400000010  hlr      h, h            ;"LD   ("
023230:  260740023127  pushj    p, cmrset       ;"6'@"97"
023231:  660000400000  tro      z, .fhslf       ;"V  @  "
023232:  254000022760  jrst     xcomn0          ;"5@ "7P"
xcomn1:
023233:  661000200000  tlo      z, .eprev       ;"V( 0  "
023234:  200100021252  move     b, lsterr       ;"0! "*J"
023235:  256200027332  xct      d, 27332        ;"5R "[:"
023236:  254000023174  jrst     xcomx1          ;"5@ "9\"
cmrtyp:
023237:  260740023127  pushj    p, cmrset       ;"6'@"97"
023240:  550040000010  hrrz     a, h            ;"M @  ("
023241:  256200027324  xct      d, 27324        ;"5R "[4"
023242:  542040000010  hrrm     a, h            ;"L0@  ("
023243:  660000410000  tro      z, 410000       ;"V  A  "
023244:  326040022760  jumpn    a, xcomn0       ;":P@"7P"
023245:  201040000012  movei    a, p3           ;"0(@  *"
023246:  260740024031  pushj    p, cmcout       ;"6'@"@9"
023247:  544400000010  hlr      h, h            ;"LD   ("
023250:  370000000014  sos      z               ;"?    ,"
023251:  620000410000  trz      z, 410000       ;"R  A  "
023252:  260740023254  pushj    p, cmrty0       ;"6'@":L"
023253:  254000022760  jrst     xcomn0          ;"5@ "7P"
cmrty0:
023254:  256200027160  xct      d, 27160        ;"5R "YP"
023255:  104000000111                           ;"(@  !)"
023256:  550100000002  hrrz     b, b            ;"M!   ""
023257:  322100023262  jumpe    b, cmrty1       ;":1 ":R"
023260:  201040000012  movei    a, p3           ;"0(@  *"
023261:  260740024031  pushj    p, cmcout       ;"6'@"@9"
cmrty1:
023262:  256200027335  xct      d, 27335        ;"5R "[="
cmrty3:
023263:  256200027340  xct      d, 27340        ;"5R "[@"
023264:  254000023267  jrst     cmrty2          ;"5@ ":W"
023265:  256140027234  xct      c, 27234        ;"5Q@"Z<"
023266:  326040027342  jumpn    a, 27342        ;":P@"[B"
cmrty2:
023267:  256200027345  xct      d, 27345        ;"5R "[E"
cmrty4:
023270:  316240000013  camn     e, y            ;"9R@  +"
023271:  254000023275  jrst     cmrty5          ;"5@ ":]"
023272:  256140027234  xct      c, 27234        ;"5Q@"Z<"
023273:  260740024031  pushj    p, cmcout       ;"6'@"@9"
023274:  254000023270  jrst     cmrty4          ;"5@ ":X"
cmrty5:
023275:  200300000014  move     f, z            ;"0#   ,"
cmrty6:
023276:  361300027352  sojl     f, 27352        ;">+ "[J"
023277:  256140027234  xct      c, 27234        ;"5Q@"Z<"
023300:  260740024031  pushj    p, cmcout       ;"6'@"@9"
023301:  254000023276  jrst     cmrty6          ;"5@ ":^"
cmind:
023302:  602000010000  trne     z, tt%wka       ;"P0 !  "
023303:  254000023211  jrst     xcomnp          ;"5@ ":)"
023304:  260740025026  pushj    p, cmatfi       ;"6'@"H6"
023305:  254000023211  jrst     xcomnp          ;"5@ ":)"
023306:  256200027356  xct      d, 27356        ;"5R "[N"
023307:  200100027360  move     b, 27360        ;"0! "[P"
023310:  104000000021                           ;"(@   1"
023311:  254000023211  jrst     xcomnp          ;"5@ ":)"
023312:  260740023123  pushj    p, cmfset       ;"6'@"93"
cmind1:
023313:  256200027356  xct      d, 27356        ;"5R "[N"
023314:  104000000050                           ;"(@   H"
023315:  320700023326  jump     q, cmind2       ;":' ";6"
023316:  322100023313  jumpe    b, cmind1       ;":1 ";+"
023317:  302100000033  caie     b, .chesc       ;"81   ;"
023320:  306100000006  cain     b, q2           ;"8Q   &"
023321:  201100000040  movei    b, .mref2       ;"0)   @"
023322:  550040000002  hrrz     a, b            ;"M @  ""
023323:  302040000015  caie     a, p6           ;"80@  -"
023324:  260740023766  pushj    p, cmdibq       ;"6'@"?V"
023325:  254000023313  jrst     cmind1          ;"5@ ";+"
cmind2:
023326:  104000000024                           ;"(@   4"
023327:  607100001000  tlnn     b, cmindf       ;"PY  ( "
023330:  254000023337  jrst     cminde          ;"5@ ";?"
023331:  104000000022                           ;"(@   2"
023332:  255000000000  jfcl                     ;"5H    " "+ \0\0\0"
023333:  256140027362  xct      c, 27362        ;"5Q@"[R"
023334:  306040000012  cain     a, p3           ;"8P@  *"
023335:  260740023731  pushj    p, cmdch        ;"6'@"?9"
023336:  254000023145  jrst     xcomrp          ;"5@ "9E"
cminde:
023337:  561040027364  hrroi    a, 27364        ;"N(@"[T"
023340:  260740024040  pushj    p, cmsout       ;"6'@"@@"
023341:  256200027160  xct      d, 27160        ;"5R "YP"
023342:  525100400000  hrloi    b, .fhslf       ;"JI @  "
023343:  400140000000  setz     c,              ;"@!@   "
023344:  104000000011                           ;"(@   )"
023345:  255000000000  jfcl                     ;"5H    " "+ \0\0\0"
023346:  255000000000  jfcl                     ;"5H    " "+ \0\0\0"
023347:  256200027356  xct      d, 27356        ;"5R "[N"
023350:  104000000022                           ;"(@   2"
023351:  255000000000  jfcl                     ;"5H    " "+ \0\0\0"
023352:  201040000012  movei    a, p3           ;"0(@  *"
023353:  260740024031  pushj    p, cmcout       ;"6'@"@9"
023354:  661000200000  tlo      z, .eprev       ;"V( 0  "
023355:  254000023174  jrst     xcomx1          ;"5@ "9\"
cmratm:
023356:  201040023360  movei    a, fldbrk       ;"0(@";P"
023357:  254000023402  jrst     cmrfld          ;"5@ "<""
fldbrk:
023360:  777777777760  conso    774, @777760(p) ;"_____P"
023361:  777744001760  conso    774, 1760(d)    ;"__D /P"
023362:  400000000760  setz     z, 760          ;"@   'P"
023363:  400000000760  setz     z, 760          ;"@   'P"
cmrfil:
023364:  201040023366  movei    a, filbrk       ;"0(@";V"
023365:  254000023402  jrst     cmrfld          ;"5@ "<""
filbrk:
023366:  777777777760  conso    774, @777760(p) ;"_____P"
023367:  747544000120  datao    474, 120(d)     ;"\]D !0"
023370:  400000000260  setz     z, 260          ;"@   "P"
023371:  400000000760  setz     z, 760          ;"@   'P"
usrbrk:
023372:  777777777760  conso    774, @777760(p) ;"_____P"
023373:  767544001760  datao    674, 1760(d)    ;"^]D /P"
023374:  400000000760  setz     z, 760          ;"@   'P"
023375:  400000000760  setz     z, 760          ;"@   'P"
eolbrk:
023376:  000220000000                           ;" "0   "
cmrfld:
023402:  202055000020  movem    a, .cmtad(s)    ;"00M  0"
023403:  602000040000  trne     z, tt%wkn       ;"P0 $  "
023404:  254000023453  jrst     cmratt          ;"5@ "<K"
cmrat1:
023405:  260740023445  pushj    p, cmroom       ;"6'@"<E"
023406:  254000023452  jrst     cmratr          ;"5@ "<J"
023407:  260740023576  pushj    p, rdcrlf       ;"6'@"=^"
023410:  254000023413  jrst     cmrat2          ;"5@ "<+"
023411:  260740023751  pushj    p, uncrlf       ;"6'@"?I"
023412:  254000023453  jrst     cmratt          ;"5@ "<K"
cmrat2:
023413:  306040000026  cain     a, .cmnod       ;"8P@  6"
023414:  254000023440  jrst     cmrqut          ;"5@ "<@"
023415:  302040000006  caie     a, q2           ;"80@  &"
023416:  306040000033  cain     a, .chesc       ;"8P@  ;"
023417:  254000027373  jrst     27373           ;"5@ "[["
023420:  302040000040  caie     a, .mref2       ;"80@  @"
023421:  306040000011  cain     a, p2           ;"8P@  )"
023422:  254000027377  jrst     27377           ;"5@ "[_"
023423:  256140027362  xct      c, 27362        ;"5Q@"[R"
023424:  306040000077  cain     a, cmhlpc       ;"8P@  _"
023425:  254000027402  jrst     27402           ;"5@ "\""
023426:  337015000020  skipg    .cmtad(s)       ;";X-  0"
023427:  254000023436  jrst     cmrat3          ;"5@ "<>"
023430:  200100000001  move     b, a            ;"0!   !"
023431:  231100000040  idivi    b, .mref2       ;"3)   @"
023432:  200143032656  move     c, bits(c)      ;"0!C#6N"
023433:  270115000020  add      b, .cmtad(s)    ;"7!-  0"
023434:  612142000000  tdne     c, (b)          ;"Q1B   "
023435:  254000023452  jrst     cmratr          ;"5@ "<J"
cmrat3:
023436:  260740023555  pushj    p, stolch       ;"6'@"=M"
023437:  254000023405  jrst     cmrat1          ;"5@ "<%"
cmrqut:
023440:  260740023555  pushj    p, stolch       ;"6'@"=M"
023441:  260740023445  pushj    p, cmroom       ;"6'@"<E"
023442:  254000023452  jrst     cmratr          ;"5@ "<J"
023443:  260740023572  pushj    p, cmcin        ;"6'@"=Z"
023444:  254000023436  jrst     cmrat3          ;"5@ "<>"
cmroom:
023445:  337015000020  skipg    .cmtad(s)       ;";X-  0"
023446:  357015000020  aosg     .cmtad(s)       ;"=X-  0"
023447:  304000000000  caia                     ;"8@    " "1\0\0\0\0"
023450:  263740000000  popj     p,              ;"6?@   "
023451:  254000021663  jrst     rskp            ;"5@ ".S"
cmratr:
023452:  260740023737  pushj    p, cmdip        ;"6'@"??"
cmratt:
023453:  254000023454  jrst     cmgdef          ;"5@ "<L"
cmgdef:
023454:  260740023561  pushj    p, chklch       ;"6'@"=Q"
023455:  322040023457  jumpe    a, cmrdef       ;":0@"<O"
023456:  254000023564  jrst     tielch          ;"5@ "=T"
cmrdef:
023457:  607000000002  tlnn     z, t2           ;"PX   ""
023460:  254000023564  jrst     tielch          ;"5@ "=T"
023461:  265700032740  jsp      q, savq         ;"6O #7@"
023462:  660000040000  tro      z, tt%wkn       ;"V  $  "
023463:  260740023043  pushj    p, cmgdp        ;"6'@"8C"
cmrdf1:
023464:  256140027234  xct      c, 27234        ;"5Q@"Z<"
023465:  322040023564  jumpe    a, tielch       ;":0@"=T"
023466:  260740023555  pushj    p, stolch       ;"6'@"=M"
023467:  254000023464  jrst     cmrdf1          ;"5@ "<T"
cmrstr:
023470:  624000002000  trza     z, cmtf1        ;"R@  0 "
cmrspc:
023471:  660000002000  tro      z, cmtf1        ;"V   0 "
023472:  602000040000  trne     z, tt%wkn       ;"P0 $  "
023473:  263740000000  popj     p,              ;"6?@   "
cmrsp1:
023474:  260740023576  pushj    p, rdcrlf       ;"6'@"=^"
023475:  254000023500  jrst     cmrsp3          ;"5@ "= "
023476:  260740023751  pushj    p, uncrlf       ;"6'@"?I"
023477:  254000023453  jrst     cmratt          ;"5@ "<K"
cmrsp3:
023500:  306040000026  cain     a, .cmnod       ;"8P@  6"
023501:  254000023514  jrst     cmrsqt          ;"5@ "=,"
023502:  306040000077  cain     a, cmhlpc       ;"8P@  _"
023503:  254000027404  jrst     27404           ;"5@ "\$"
023504:  302040000033  caie     a, .chesc       ;"80@  ;"
023505:  306040000006  cain     a, q2           ;"8P@  &"
023506:  254000027406  jrst     27406           ;"5@ "\&"
023507:  302040000011  caie     a, p2           ;"80@  )"
023510:  306040000040  cain     a, .mref2       ;"8P@  @"
023511:  254000027410  jrst     27410           ;"5@ "\("
cmrs1:
023512:  260740023555  pushj    p, stolch       ;"6'@"=M"
023513:  254000023474  jrst     cmrsp1          ;"5@ "<\"
cmrsqt:
023514:  260740023555  pushj    p, stolch       ;"6'@"=M"
023515:  260740023572  pushj    p, cmcin        ;"6'@"=Z"
023516:  254000023512  jrst     cmrs1           ;"5@ "=*"
cmrqst:
023517:  602000040000  trne     z, tt%wkn       ;"P0 $  "
023520:  254000021663  jrst     rskp            ;"5@ ".S"
023521:  260740023572  pushj    p, cmcin        ;"6'@"=Z"
023522:  306040000077  cain     a, cmhlpc       ;"8P@  _"
023523:  254000027415  jrst     27415           ;"5@ "\-"
023524:  302040000033  caie     a, .chesc       ;"80@  ;"
023525:  306040000006  cain     a, q2           ;"8P@  &"
023526:  260740024020  pushj    p, cmamb        ;"6'@"@0"
023527:  302040000042  caie     a, cmqtch       ;"80@  B"
023530:  263740000000  popj     p,              ;"6?@   "
cmrqs1:
023531:  260740023576  pushj    p, rdcrlf       ;"6'@"=^"
023532:  304000000000  caia                     ;"8@    " "1\0\0\0\0"
023533:  254000023751  jrst     uncrlf          ;"5@ "?I"
023534:  302040000042  caie     a, cmqtch       ;"80@  B"
023535:  254000023544  jrst     cmrqs2          ;"5@ "=D"
023536:  260740023572  pushj    p, cmcin        ;"6'@"=Z"
023537:  306040000042  cain     a, cmqtch       ;"8P@  B"
023540:  254000023544  jrst     cmrqs2          ;"5@ "=D"
023541:  260740023737  pushj    p, cmdip        ;"6'@"??"
023542:  260740023564  pushj    p, tielch       ;"6'@"=T"
023543:  254000021663  jrst     rskp            ;"5@ ".S"
cmrqs2:
023544:  260740023555  pushj    p, stolch       ;"6'@"=M"
023545:  254000023531  jrst     cmrqs1          ;"5@ "=9"
inilch:
023546:  260740023550  pushj    p, inilc1       ;"6'@"=H"
023547:  254000023713  jrst     cmsksp          ;"5@ "?+"
inilc1:
023550:  256200027420  xct      d, 27420        ;"5R "\0"
023551:  202055000001  movem    a, t1(s)        ;"00M  !"
023552:  256200027423  xct      d, 27423        ;"5R "\3"
023553:  202055000002  movem    a, t2(s)        ;"00M  ""
023554:  263740000000  popj     p,              ;"6?@   "
stolch:
023555:  375015000002  sosge    t2(s)           ;"?H-  ""
023556:  254000027425  jrst     27425           ;"5@ "\5"
023557:  256140027430  xct      c, 27430        ;"5Q@"\8"
023560:  263740000000  popj     p,              ;"6?@   "
chklch:
023561:  256200027423  xct      d, 27423        ;"5R "\3"
023562:  274055000002  sub      a, t2(s)        ;"7@M  ""
023563:  263740000000  popj     p,              ;"6?@   "
tielch:
023564:  337015000002  skipg    t2(s)           ;";X-  ""
023565:  254000027425  jrst     27425           ;"5@ "\5"
023566:  400040000000  setz     a,              ;"@ @   "
023567:  200155000001  move     c, t1(s)        ;"0!M  !"
023570:  256140027433  xct      c, 27433        ;"5Q@"\;"
023571:  263740000000  popj     p,              ;"6?@   "
cmcin:
023572:  361600027435  sojl     z, 27435        ;">. "\="
023573:  256140027441  xct      c, 27441        ;"5Q@"\A"
023574:  370000000012  sos      x               ;"?    *"
023575:  254000023611  jrst     cmcint          ;"5@ ">)"
rdcrlf:
023576:  260740023572  pushj    p, cmcin        ;"6'@"=Z"
023577:  306040000012  cain     a, p3           ;"8P@  *"
023600:  254000021663  jrst     rskp            ;"5@ ".S"
023601:  302040000015  caie     a, p6           ;"80@  -"
023602:  263740000000  popj     p,              ;"6?@   "
023603:  260740023572  pushj    p, cmcin        ;"6'@"=Z"
023604:  306040000012  cain     a, p3           ;"8P@  *"
023605:  254000021663  jrst     rskp            ;"5@ ".S"
023606:  260740023737  pushj    p, cmdip        ;"6'@"??"
023607:  201040000015  movei    a, p6           ;"0(@  -"
023610:  263740000000  popj     p,              ;"6?@   "
cmcint:
023611:  306040000006  cain     a, q2           ;"8P@  &"
023612:  254000027444  jrst     27444           ;"5@ "\D"
023613:  306040000033  cain     a, .chesc       ;"8P@  ;"
023614:  254000027446  jrst     27446           ;"5@ "\F"
023615:  306040000012  cain     a, p3           ;"8P@  *"
023616:  661000100000  tlo      z, tt%wkf       ;"V( (  "
023617:  263740000000  popj     p,              ;"6?@   "
cmcin1:
023620:  265700021532  jsp      q, .stkst       ;"6O "-:"
023621:  000012000012  x,,                      ;"  *  *"
023622:  202017777776  movem    z, 777776(p)    ;"00/__^"
023623:  402017777765  setzm    777765(p)       ;"@0/__U"
023624:  201057777767  movei    a, 777767(p)    ;"0(O__W"
023625:  505040000005  hrli     a, q1           ;"HH@  %"
023626:  251057777775  blt      a, 777775(p)    ;"5(O__]"
023627:  205040545000  movsi    a, nusgs        ;"0H@LH "
023630:  603000004000  tlne     z, tt%eco       ;"P8  @ "
023631:  661040000200  tlo      a, birtst       ;"V(@ " "
023632:  603000001000  tlne     z, cmindf       ;"P8  ( "
023633:  661040010000  tlo      a, tt%wka       ;"V(@!  "
023634:  200000000001  move     z, a            ;"0    !"
023635:  256200027451  xct      d, 27451        ;"5R "\I"
023636:  256200027454  xct      d, 27454        ;"5R "\L"
023637:  400340000000  setz     g,              ;"@#@   "
023640:  256200027457  xct      d, 27457        ;"5R "\O"
023641:  200440000013  move     w, y            ;"0$@  +"
023642:  202517777766  movem    x, 777766(p)    ;"05/__V"
023643:  274500000014  sub      x, z            ;"7E   ,"
023644:  256000027461  xct      27461           ;"5P "\Q"
023645:  202600000013  movem    z, y            ;"06   +"
cmcin2:
023646:  200057777773  move     a, 777773(p)    ;"0 O__["
023647:  256200027464  xct      d, 27464        ;"5R "\T"
023650:  104000000024                           ;"(@   4"
023651:  603100001000  tlne     b, cmindf       ;"P9  ( "
023652:  254000027466  jrst     27466           ;"5@ "\V"
023653:  337000000012  skipg    x               ;";X   *"
023654:  254000027470  jrst     27470           ;"5@ "\X"
023655:  260740025715  pushj    p, itexti       ;"6'@"O-"
023656:  265100032540  jsp      b, itrap1       ;"6I #5@"
023657:  603000000020  tlne     z, .cmtad       ;"P8   0"
023660:  254000023706  jrst     cmcin4          ;"5@ "?&"
023661:  437017777765  iorb     z, 777765(p)    ;"CX/__U"
023662:  256140027362  xct      c, 27362        ;"5Q@"[R"
023663:  302040000012  caie     a, p3           ;"80@  *"
023664:  306040000033  cain     a, .chesc       ;"8P@  ;"
023665:  254000023675  jrst     cmcin3          ;"5@ ">]"
023666:  302040000077  caie     a, cmhlpc       ;"80@  _"
023667:  306040000006  cain     a, q2           ;"8P@  &"
023670:  254000023675  jrst     cmcin3          ;"5@ ">]"
023671:  200057777776  move     a, 777776(p)    ;"0 O__^"
023672:  603040001000  tlne     a, cmindf       ;"P8@ ( "
023673:  254000023675  jrst     cmcin3          ;"5@ ">]"
023674:  254000023646  jrst     cmcin2          ;"5@ ">F"
cmcin3:
023675:  603000000010  tlne     z, .emtac       ;"P8   ("
023676:  254000023706  jrst     cmcin4          ;"5@ "?&"
023677:  200617777766  move     z, 777766(p)    ;"0&/__V"
023700:  274600000012  sub      z, x            ;"7F   *"
023701:  205057777767  movsi    a, 777767(p)    ;"0HO__W"
023702:  541040000005  hrri     a, q1           ;"L(@  %"
023703:  251040000013  blt      a, y            ;"5(@  +"
023704:  200017777776  move     z, 777776(p)    ;"0 /__^"
023705:  263740000000  popj     p,              ;"6?@   "
cmcin4:
023706:  120257777767                           ;"*"O__W"
023707:  120357777771                           ;"*#O__Y"
023710:  200457777773  move     w, 777773(p)    ;"0$O__["
023711:  200017777776  move     z, 777776(p)    ;"0 /__^"
023712:  254000023145  jrst     xcomrp          ;"5@ "9E"
cmsksp:
023713:  260740023572  pushj    p, cmcin        ;"6'@"=Z"
023714:  302040000040  caie     a, .mref2       ;"80@  @"
023715:  306040000011  cain     a, p2           ;"8P@  )"
023716:  254000023713  jrst     cmsksp          ;"5@ "?+"
023717:  254000023737  jrst     cmdip           ;"5@ "??"
subbp:
023720:  550140000001  hrrz     c, a            ;"M!@  !"
023721:  275142000000  subi     c, (b)          ;"7IB   "
023722:  221140000005  imuli    c, q1           ;"2)@  %"
023723:  135040027472  ldb      a, 27472        ;"+H@"\Z"
023724:  135100027473  ldb      b, 27473        ;"+I "\["
023725:  276100000001  subm     b, a            ;"7Q   !"
023726:  231040000007  idivi    a, q3           ;"3(@  '"
023727:  270040000003  add      a, c            ;"7 @  #"
023730:  263740000000  popj     p,              ;"6?@   "
cmdch:
023731:  200040000013  move     a, y            ;"0 @  +"
023732:  260740032632  pushj    p, dbp          ;"6'@#6:"
023733:  202040000013  movem    a, y            ;"00@  +"
023734:  350000000012  aos      x               ;"=    *"
023735:  400600000000  setz     z,              ;"@&    "
023736:  263740000000  popj     p,              ;"6?@   "
cmdip:
023737:  256140027362  xct      c, 27362        ;"5Q@"[R"
023740:  302040000006  caie     a, q2           ;"80@  &"
023741:  306040000033  cain     a, .chesc       ;"8P@  ;"
023742:  630000027443  tdz      z, 27443        ;"S  "\C"
023743:  200040000013  move     a, y            ;"0 @  +"
023744:  260740032632  pushj    p, dbp          ;"6'@#6:"
023745:  202040000013  movem    a, y            ;"00@  +"
023746:  350000000014  aos      z               ;"=    ,"
023747:  350000000012  aos      x               ;"=    *"
023750:  263740000000  popj     p,              ;"6?@   "
uncrlf:
023751:  260740023737  pushj    p, cmdip        ;"6'@"??"
023752:  256140027362  xct      c, 27362        ;"5Q@"[R"
023753:  302040000015  caie     a, p6           ;"80@  -"
023754:  263740000000  popj     p,              ;"6?@   "
023755:  254000023737  jrst     cmdip           ;"5@ "??"
tiecmd:
023756:  201040000000  movei    a, bwd          ;"0(@   " " \"\0\0\0"
023757:  260740023766  pushj    p, cmdibq       ;"6'@"?V"
023760:  340500000000  aoj      x, z            ;"<%    "
023761:  211040000001  movni    a, t1           ;"1(@  !"
023762:  256000027474  xct      27474           ;"5P "\\"
023763:  200540000001  move     y, a            ;"0%@  !"
023764:  263740000000  popj     p,              ;"6?@   "
cmdib:
023765:  260740024031  pushj    p, cmcout       ;"6'@"@9"
cmdibq:
023766:  400600000000  setz     z,              ;"@&    "
023767:  375000000012  sosge    x               ;"?H   *"
023770:  254000027470  jrst     27470           ;"5@ "\X"
023771:  256140027477  xct      c, 27477        ;"5Q@"\_"
023772:  263740000000  popj     p,              ;"6?@   "
cmapc:
023773:  202040000004  movem    a, d            ;"00@  $"
023774:  200100000014  move     b, z            ;"0!   ,"
023775:  256000027501  xct      27501           ;"5P "]!"
023776:  256140027504  xct      c, 27504        ;"5Q@"]$"
023777:  350000000014  aos      z               ;"=    ,"
024000:  263740000000  popj     p,              ;"6?@   "
dohlp:
024001:  607000000004  tlnn     z, t4           ;"PX   $"
024002:  607000000001  tlnn     z, t1           ;"PX   !"
024003:  334000000000  skipa                    ;";@    " "7\0\0\0\0"
024004:  263740000000  popj     p,              ;"6?@   "
024005:  561040027506  hrroi    a, 27506        ;"N(@"]&"
024006:  602000010000  trne     z, tt%wka       ;"P0 !  "
024007:  260740024040  pushj    p, cmsout       ;"6'@"@@"
024010:  607000000004  tlnn     z, t4           ;"PX   $"
024011:  263740000000  popj     p,              ;"6?@   "
024012:  201040000040  movei    a, .mref2       ;"0(@  @"
024013:  260740024031  pushj    p, cmcout       ;"6'@"@9"
024014:  550040000010  hrrz     a, h            ;"M @  ("
024015:  256200027511  xct      d, 27511        ;"5R "])"
024016:  260740024045  pushj    p, cmusou       ;"6'@"@E"
024017:  263740000000  popj     p,              ;"6?@   "
cmamb:
024020:  627000400000  tlzn     z, .fhslf       ;"RX @  "
024021:  254000027513  jrst     27513           ;"5@ "]+"
024022:  256140027362  xct      c, 27362        ;"5Q@"[R"
024023:  302040000006  caie     a, q2           ;"80@  &"
024024:  306040000033  cain     a, .chesc       ;"8P@  ;"
024025:  260740023731  pushj    p, cmdch        ;"6'@"?9"
024026:  201040000007  movei    a, q3           ;"0(@  '"
024027:  260740024031  pushj    p, cmcout       ;"6'@"@9"
024030:  254000023117  jrst     xcomrf          ;"5@ "9/"
cmcout:
024031:  200100000001  move     b, a            ;"0!   !"
024032:  256200027160  xct      d, 27160        ;"5R "YP"
024033:  306100000012  cain     b, p3           ;"8Q   *"
024034:  201100000037  movei    b, .chcun       ;"0)   ?"
024035:  104000000051                           ;"(@   I"
024036:  200040000002  move     a, b            ;"0 @  ""
024037:  263740000000  popj     p,              ;"6?@   "
cmsout:
024040:  200100000001  move     b, a            ;"0!   !"
024041:  256200027160  xct      d, 27160        ;"5R "YP"
024042:  400140000000  setz     c,              ;"@!@   "
024043:  104000000053                           ;"(@   K"
024044:  263740000000  popj     p,              ;"6?@   "
cmusou:
024045:  260740024067  pushj    p, chkbp        ;"6'@"@W"
024046:  254000027515  jrst     27515           ;"5@ "]-"
024047:  202040000004  movem    a, d            ;"00@  $"
024050:  256200027160  xct      d, 27160        ;"5R "YP"
cmuso1:
024051:  256140027520  xct      c, 27520        ;"5Q@"]0"
024052:  322100021664  jumpe    b, r            ;":1 ".T"
024053:  104000000051                           ;"(@   I"
024054:  254000024051  jrst     cmuso1          ;"5@ "@I"
chkabp:
024055:  265700032740  jsp      q, savq         ;"6O #7@"
024056:  202040000005  movem    a, e            ;"00@  %"
chkab1:
024057:  550305000000  hrrz     f, (e)          ;"M#%   " "Z\f(\0\0"
024060:  322300021664  jumpe    f, r            ;":3 ".T"
024061:  271311000000  addi     f, (w)          ;"7+)   " ".,H\0\0"
024062:  256200027523  xct      d, 27523        ;"5R "]3"
024063:  260740024067  pushj    p, chkbp        ;"6'@"@W"
024064:  254000027525  jrst     27525           ;"5@ "]5"
024065:  256200027530  xct      d, 27530        ;"5R "]8"
024066:  344240024057  aoja     e, chkab1       ;"<B@"@O"
chkbp:
024067:  554100000001  hlrz     b, a            ;"MA   !"
024070:  306100777777  cain     b, dsptb        ;"8Q ___"
024071:  505040440700  hrli     a, 440700       ;"HH@D' "
024072:  135100027532  ldb      b, 27532        ;"+I "]:"
024073:  616040027533  tdnn     a, 27533        ;"QP@"];"
024074:  302100000007  caie     b, q3           ;"81   '"
024075:  263740000000  popj     p,              ;"6?@   "
024076:  256000027534  xct      27534           ;"5P "]<"
024077:  260740032632  pushj    p, dbp          ;"6'@#6:"
024100:  254000021663  jrst     rskp            ;"5@ ".S"
xcmini:
024101:  256200027160  xct      d, 27160        ;"5R "YP"
024102:  104000000103                           ;"(@  !#"
024103:  104000000104                           ;"(@  !$"
024104:  104000000111                           ;"(@  !)"
024105:  550100000002  hrrz     b, b            ;"M!   ""
024106:  322100024111  jumpe    b, cmini5       ;":1 "A)"
024107:  201040000012  movei    a, p3           ;"0(@  *"
024110:  260740024031  pushj    p, cmcout       ;"6'@"@9"
cmini5:
024111:  256200027335  xct      d, 27335        ;"5R "[="
cmini2:
024112:  256200027340  xct      d, 27340        ;"5R "[@"
024113:  254000024116  jrst     cmini1          ;"5@ "A."
024114:  256140027234  xct      c, 27234        ;"5Q@"Z<"
024115:  326040027536  jumpn    a, 27536        ;":P@"]>"
cmini1:
024116:  256200027164  xct      d, 27164        ;"5R "YT"
024117:  254000024132  jrst     cmini4          ;"5@ "A:"
024120:  256140027362  xct      c, 27362        ;"5Q@"[R"
024121:  306040000012  cain     a, p3           ;"8P@  *"
024122:  254000024132  jrst     cmini4          ;"5@ "A:"
024123:  256200027327  xct      d, 27327        ;"5R "[7"
024124:  104000000050                           ;"(@   H"
024125:  302100000177  caie     b, cmrdo1       ;"81  !_"
024126:  306100000010  cain     b, .emtac       ;"8Q   ("
024127:  254000024141  jrst     cmini3          ;"5@ "AA"
024130:  104000000042                           ;"(@   B"
024131:  255000000000  jfcl                     ;"5H    " "+ \0\0\0"
cmini4:
024132:  200040000013  move     a, y            ;"0 @  +"
024133:  256200027274  xct      d, 27274        ;"5R "Z\"
024134:  202100000013  movem    b, y            ;"01   +"
024135:  260740023720  pushj    p, subbp        ;"6'@"?0"
024136:  272040000012  addm     a, x            ;"70@  *"
024137:  400600000000  setz     z,              ;"@&    "
024140:  254000023160  jrst     xcomxi          ;"5@ "9P"
cmini3:
024141:  256200027144  xct      d, 27144        ;"5R "YD"
024142:  256200027147  xct      d, 27147        ;"5R "YG"
024143:  400600000000  setz     z,              ;"@&    "
024144:  201040000012  movei    a, p3           ;"0(@  *"
024145:  260740024031  pushj    p, cmcout       ;"6'@"@9"
024146:  260740023254  pushj    p, cmrty0       ;"6'@":L"
024147:  254000023145  jrst     xcomrp          ;"5@ "9E"
xcmswi:
024150:  660000200000  tro      z, .eprev       ;"V  0  "
024151:  602000040000  trne     z, tt%wkn       ;"P0 $  "
024152:  254000024165  jrst     keyw0           ;"5@ "AU"
024153:  260740023572  pushj    p, cmcin        ;"6'@"=Z"
024154:  302040000006  caie     a, q2           ;"80@  &"
024155:  306040000033  cain     a, .chesc       ;"8P@  ;"
024156:  254000027540  jrst     27540           ;"5@ "]@"
024157:  306040000077  cain     a, cmhlpc       ;"8P@  _"
024160:  254000027545  jrst     27545           ;"5@ "]E"
024161:  302040000057  caie     a, cmswch       ;"80@  O"
024162:  254000027553  jrst     27553           ;"5@ "]K"
024163:  254000024165  jrst     keyw0           ;"5@ "AU"
xcmkey:
024164:  620000200000  trz      z, .eprev       ;"R  0  "
keyw0:
024165:  260740023356  pushj    p, cmratm       ;"6'@";N"
024166:  200055000004  move     a, t4(s)        ;"0 M  $"
024167:  256200027557  xct      d, 27557        ;"5R "]O"
024170:  260740025514  pushj    p, xtlook       ;"6'@"M,"
024171:  265100032540  jsp      b, itrap1       ;"6I #5@"
024172:  602000400000  trne     z, .fhslf       ;"P0 @  "
024173:  254000024241  jrst     cmq1            ;"5@ "BA"
024174:  321100027561  jumpl    b, 27561        ;":) "]Q"
024175:  603100200000  tlne     b, .eprev       ;"P9 0  "
024176:  254000027563  jrst     27563           ;"5@ "]S"
024177:  607100100000  tlnn     b, tt%wkf       ;"PY (  "
024200:  400140000000  setz     c,              ;"@!@   "
024201:  202040000005  movem    a, e            ;"00@  %"
024202:  256200027566  xct      d, 27566        ;"5R "]V"
024203:  260740025365  pushj    p, chktbs       ;"6'@"KU"
024204:  606040000004  trnn     a, t4           ;"PP@  $"
024205:  254000024215  jrst     keyw3           ;"5@ "B-"
024206:  260740023561  pushj    p, chklch       ;"6'@"=Q"
024207:  202040000006  movem    a, f            ;"00@  &"
024210:  256200027571  xct      d, 27571        ;"5R "]Y"
024211:  256200027566  xct      d, 27566        ;"5R "]V"
024212:  260740025365  pushj    p, chktbs       ;"6'@"KU"
024213:  200140000006  move     c, f            ;"0!@  &"
024214:  256000027573  xct      27573           ;"5P "]["
keyw3:
024215:  256200027576  xct      d, 27576        ;"5R "]^"
024216:  325000024227  jumpge   z, keyw4        ;":H "B7"
024217:  202140000005  movem    c, e            ;"01@  %"
024220:  260740023731  pushj    p, cmdch        ;"6'@"?9"
keyw2:
024221:  256140027234  xct      c, 27234        ;"5Q@"Z<"
024222:  322040023160  jumpe    a, xcomxi       ;":0@"9P"
024223:  260740023765  pushj    p, cmdib        ;"6'@"?U"
024224:  306040000072  cain     a, cmswtm       ;"8P@  Z"
024225:  254000027600  jrst     27600           ;"5@ "^ "
024226:  254000024221  jrst     keyw2           ;"5@ "B1"
keyw4:
024227:  260740023561  pushj    p, chklch       ;"6'@"=Q"
024230:  322040027605  jumpe    a, 27605        ;":0@"^%"
024231:  606000200000  trnn     z, .eprev       ;"PP 0  "
024232:  254000023160  jrst     xcomxi          ;"5@ "9P"
024233:  260740023713  pushj    p, cmsksp       ;"6'@"?+"
024234:  260740023572  pushj    p, cmcin        ;"6'@"=Z"
024235:  306040000072  cain     a, cmswtm       ;"8P@  Z"
024236:  254000027607  jrst     27607           ;"5@ "^'"
024237:  260740023737  pushj    p, cmdip        ;"6'@"??"
024240:  254000023160  jrst     xcomxi          ;"5@ "9P"
cmq1:
024241:  321100027623  jumpl    b, 27623        ;":) "^3"
cmq3:
024242:  202040000006  movem    a, f            ;"00@  &"
024243:  260740024001  pushj    p, dohlp        ;"6'@"@!"
024244:  603000000001  tlne     z, t1           ;"P8   !"
024245:  254000023237  jrst     cmrtyp          ;"5@ ":?"
024246:  200355000004  move     g, t4(s)        ;"0#M  $"
024247:  256200027631  xct      d, 27631        ;"5R "^9"
024250:  271247000001  addi     e, t1(g)        ;"7*G  !"
024251:  561040027633  hrroi    a, 27633        ;"N(@"^;"
024252:  260740024040  pushj    p, cmsout       ;"6'@"@@"
024253:  360300000000  soj      f, z            ;">#    " "<\f\0\0\0"
024254:  200340000006  move     g, f            ;"0#@  &"
024255:  402015000010  setzm    .emtac(s)       ;"@0-  ("
024256:  476015000007  setom    q3(s)           ;"GP-  '"
cmtab1:
024257:  260740024277  pushj    p, cmnxte       ;"6'@"B_"
024260:  254000024265  jrst     cmtab2          ;"5@ "BU"
024261:  260740024411  pushj    p, cmgtln       ;"6'@"D)"
024262:  311055000010  caml     a, .emtac(s)    ;"9(M  ("
024263:  202055000010  movem    a, .emtac(s)    ;"00M  ("
024264:  254000024257  jrst     cmtab1          ;"5@ "BO"
cmtab2:
024265:  200055000010  move     a, .emtac(s)    ;"0 M  ("
024266:  202055000016  movem    a, topac(s)     ;"00M  ."
024267:  201040000004  movei    a, t4           ;"0(@  $"
024270:  272055000010  addm     a, .emtac(s)    ;"70M  ("
024271:  200300000007  move     f, g            ;"0#   '"
cmq5:
024272:  260740024277  pushj    p, cmnxte       ;"6'@"B_"
024273:  254000023237  jrst     cmrtyp          ;"5@ ":?"
024274:  260740024317  pushj    p, keytab       ;"6'@"C/"
024275:  260740024045  pushj    p, cmusou       ;"6'@"@E"
024276:  254000024272  jrst     cmq5            ;"5@ "BZ"
cmnxte:
024277:  350000000006  aos      f               ;"=    &"
cmq2:
024300:  311300000005  caml     f, e            ;"9+   %"
024301:  263740000000  popj     p,              ;"6?@   "
024302:  256200027642  xct      d, 27642        ;"5R "^B"
024303:  260740025365  pushj    p, chktbs       ;"6'@"KU"
024304:  602040000003  trne     a, nibits       ;"P0@  #"
024305:  254000024277  jrst     cmnxte          ;"5@ "B_"
024306:  256200027420  xct      d, 27420        ;"5R "\0"
024307:  260740025407  pushj    p, ustcmp       ;"6'@"L'"
024310:  322040024313  jumpe    a, cmq4         ;":0@"C+"
024311:  607040200000  tlnn     a, .eprev       ;"PX@0  "
024312:  254000021664  jrst     r               ;"5@ ".T"
cmq4:
024313:  256200027642  xct      d, 27642        ;"5R "^B"
024314:  260740025365  pushj    p, chktbs       ;"6'@"KU"
024315:  200040000002  move     a, b            ;"0 @  ""
024316:  254000021663  jrst     rskp            ;"5@ ".S"
keytab:
024317:  265700032771  jsp      q, savt         ;"6O #7Y"
024320:  260740024411  pushj    p, cmgtln       ;"6'@"D)"
024321:  202055000015  movem    a, p6(s)        ;"00M  -"
024322:  256200027160  xct      d, 27160        ;"5R "YP"
024323:  331015000007  skipl    q3(s)           ;";(-  '"
024324:  254000024335  jrst     key2            ;"5@ "C="
024325:  104000000107                           ;"(@  !'"
024326:  135140027644  ldb      c, 27644        ;"+I@"^D"
024327:  302140000001  caie     c, t1           ;"81@  !"
024330:  254000024333  jrst     key3            ;"5@ "C;"
024331:  201100000030  movei    b, nttyps       ;"0)   8"
024332:  104000000077                           ;"(@   _"
key3:
024333:  202155000007  movem    c, q3(s)        ;"01M  '"
024334:  254000024351  jrst     key5            ;"5@ "CI"
key2:
024335:  260740024404  pushj    p, getpos       ;"6'@"D$"
024336:  202115000014  movem    b, p5(s)        ;"01-  ,"
024337:  260740024355  pushj    p, cmtab        ;"6'@"CM"
024340:  270115000016  add      b, topac(s)     ;"7!-  ."
024341:  561040027645  hrroi    a, 27645        ;"N(@"^E"
024342:  317115000007  camg     b, q3(s)        ;"9Y-  '"
024343:  254000024350  jrst     key4            ;"5@ "CH"
024344:  260740024040  pushj    p, cmsout       ;"6'@"@@"
024345:  260740024404  pushj    p, getpos       ;"6'@"D$"
024346:  202115000014  movem    b, p5(s)        ;"01-  ,"
024347:  304000000000  caia                     ;"8@    " "1\0\0\0\0"
key4:
024350:  260740024361  pushj    p, typtab       ;"6'@"CQ"
key5:
024351:  201040000057  movei    a, cmswch       ;"0(@  O"
024352:  602000200000  trne     z, .eprev       ;"P0 0  "
024353:  260740024031  pushj    p, cmcout       ;"6'@"@9"
024354:  263740000000  popj     p,              ;"6?@   "
cmtab:
024355:  270115000010  add      b, .emtac(s)    ;"7!-  ("
024356:  230115000010  idiv     b, .emtac(s)    ;"3!-  ("
024357:  220115000010  imul     b, .emtac(s)    ;"2!-  ("
024360:  263740000000  popj     p,              ;"6?@   "
typtab:
024361:  200115000014  move     b, p5(s)        ;"0!-  ,"
024362:  202115000013  movem    b, p4(s)        ;"01-  +"
024363:  260740024355  pushj    p, cmtab        ;"6'@"CM"
024364:  202115000012  movem    b, p3(s)        ;"01-  *"
typtb2:
024365:  200055000013  move     a, p4(s)        ;"0 M  +"
024366:  271040000010  addi     a, .emtac       ;"7(@  ("
024367:  620040000007  trz      a, q3           ;"R @  '"
024370:  313055000012  camle    a, p3(s)        ;"98M  *"
024371:  254000024376  jrst     typtb1          ;"5@ "C^"
024372:  202055000013  movem    a, p4(s)        ;"00M  +"
024373:  201040000011  movei    a, p2           ;"0(@  )"
024374:  260740024031  pushj    p, cmcout       ;"6'@"@9"
024375:  254000024365  jrst     typtb2          ;"5@ "CU"
typtb1:
024376:  350055000013  aos      a, p4(s)        ;"= M  +"
024377:  313055000012  camle    a, p3(s)        ;"98M  *"
024400:  263740000000  popj     p,              ;"6?@   "
024401:  201040000040  movei    a, .mref2       ;"0(@  @"
024402:  260740024031  pushj    p, cmcout       ;"6'@"@9"
024403:  254000024376  jrst     typtb1          ;"5@ "C^"
getpos:
024404:  104000000111                           ;"(@  !)"
024405:  306100000000  cain     b, bwd          ;"8Q    " "1D\0\0\0"
024406:  201100000110  movei    b, 110          ;"0)  !("
024407:  550100000002  hrrz     b, b            ;"M!   ""
024410:  263740000000  popj     p,              ;"6?@   "
cmgtln:
024411:  201200000000  movei    d, bwd          ;"0*    " " (\0\0\0"
key1:
024412:  256140027647  xct      c, 27647        ;"5Q@"^G"
024413:  302100000000  caie     b, bwd          ;"81    " "0D\0\0\0"
024414:  344200024412  aoja     d, key1         ;"<B "D*"
024415:  602000200000  trne     z, .eprev       ;"P0 0  "
024416:  340200000000  aoj      d, z            ;"<"    "
024417:  200040000004  move     a, d            ;"0 @  $"
024420:  263740000000  popj     p,              ;"6?@   "
xcmtxt:
024421:  260740023470  pushj    p, cmrstr       ;"6'@"<X"
024422:  602000400000  trne     z, .fhslf       ;"P0 @  "
024423:  254000027654  jrst     27654           ;"5@ "^L"
024424:  254000023160  jrst     xcomxi          ;"5@ "9P"
xcmnoi:
024425:  200055000004  move     a, t4(s)        ;"0 M  $"
024426:  260740024067  pushj    p, chkbp        ;"6'@"@W"
024427:  254000027661  jrst     27661           ;"5@ "^Q"
024430:  202040000007  movem    a, g            ;"00@  '"
024431:  602000410000  trne     z, 410000       ;"P0 A  "
024432:  254000023237  jrst     cmrtyp          ;"5@ ":?"
024433:  607000010000  tlnn     z, tt%wka       ;"PX !  "
024434:  254000024445  jrst     cmnoi1          ;"5@ "DE"
cmnoi4:
024435:  661000400000  tlo      z, .fhslf       ;"V( @  "
024436:  201040000050  movei    a, noibch       ;"0(@  H"
024437:  260740023765  pushj    p, cmdib        ;"6'@"?U"
cmnoi3:
024440:  256140027664  xct      c, 27664        ;"5Q@"^T"
024441:  326040027666  jumpn    a, 27666        ;":P@"^V"
024442:  201040000051  movei    a, noiech       ;"0(@  I"
024443:  260740023765  pushj    p, cmdib        ;"6'@"?U"
024444:  254000023160  jrst     xcomxi          ;"5@ "9P"
cmnoi1:
024445:  260740023713  pushj    p, cmsksp       ;"6'@"?+"
024446:  260740023572  pushj    p, cmcin        ;"6'@"=Z"
024447:  306040000041  cain     a, cmcom1       ;"8P@  A"
024450:  254000024477  jrst     noicom          ;"5@ "D_"
024451:  302040000073  caie     a, cmcom2       ;"80@  ["
024452:  302040000050  caie     a, noibch       ;"80@  H"
024453:  254000027603  jrst     27603           ;"5@ "^#"
cmnoi2:
024454:  260740023572  pushj    p, cmcin        ;"6'@"=Z"
024455:  302040000006  caie     a, q2           ;"80@  &"
024456:  306040000033  cain     a, .chesc       ;"8P@  ;"
024457:  254000027670  jrst     27670           ;"5@ "^X"
024460:  256140027673  xct      c, 27673        ;"5Q@"^["
024461:  301040000141  cail     a, 141          ;"8(@ !A"
024462:  303040000172  caile    a, 172          ;"88@ !Z"
024463:  334000000000  skipa                    ;";@    " "7\0\0\0\0"
024464:  275040000040  subi     a, .mref2       ;"7H@  @"
024465:  301100000141  cail     b, 141          ;"8)  !A"
024466:  303100000172  caile    b, 172          ;"89  !Z"
024467:  334000000000  skipa                    ;";@    " "7\0\0\0\0"
024470:  275100000040  subi     b, .mref2       ;"7I   @"
024471:  316040000002  camn     a, b            ;"9P@  ""
024472:  254000024454  jrst     cmnoi2          ;"5@ "DL"
024473:  306040000051  cain     a, noiech       ;"8P@  I"
024474:  322100023160  jumpe    b, xcomxi       ;":1 "9P"
024475:  201040602050  movei    a, npxinw       ;"0(@P0H"
024476:  254000023210  jrst     xcomne          ;"5@ ":("
noicom:
024477:  260740023576  pushj    p, rdcrlf       ;"6'@"=^"
024500:  304000000000  caia                     ;"8@    " "1\0\0\0\0"
024501:  254000027675  jrst     27675           ;"5@ "^]"
024502:  306040000055  cain     a, cmconc       ;"8P@  M"
024503:  254000027677  jrst     27677           ;"5@ "^_"
024504:  302040000006  caie     a, q2           ;"80@  &"
024505:  306040000033  cain     a, .chesc       ;"8P@  ;"
024506:  254000027702  jrst     27702           ;"5@ "_""
024507:  306040000041  cain     a, cmcom1       ;"8P@  A"
024510:  254000024445  jrst     cmnoi1          ;"5@ "DE"
024511:  254000024477  jrst     noicom          ;"5@ "D_"
xcmcfm:
024512:  260740024515  pushj    p, cmcfm0       ;"6'@"E-"
024513:  254000027704  jrst     27704           ;"5@ "_$"
024514:  254000023160  jrst     xcomxi          ;"5@ "9P"
cmcfm0:
024515:  260740023576  pushj    p, rdcrlf       ;"6'@"=^"
024516:  304000000000  caia                     ;"8@    " "1\0\0\0\0"
024517:  254000021663  jrst     rskp            ;"5@ ".S"
024520:  302040000011  caie     a, p2           ;"80@  )"
024521:  306040000040  cain     a, .mref2       ;"8P@  @"
024522:  254000024515  jrst     cmcfm0          ;"5@ "E-"
024523:  306040000077  cain     a, cmhlpc       ;"8P@  _"
024524:  254000027714  jrst     27714           ;"5@ "_,"
024525:  302040000006  caie     a, q2           ;"80@  &"
024526:  306040000033  cain     a, .chesc       ;"8P@  ;"
024527:  254000027721  jrst     27721           ;"5@ "_1"
024530:  263740000000  popj     p,              ;"6?@   "
xcmflt:
024531:  201040024542  movei    a, fltbrk       ;"0(@"EB"
024532:  260740023402  pushj    p, cmrfld       ;"6'@"<""
024533:  602000400000  trne     z, .fhslf       ;"P0 @  "
024534:  254000027725  jrst     27725           ;"5@ "_5"
024535:  256200027420  xct      d, 27420        ;"5R "\0"
024536:  256200027733  xct      d, 27733        ;"5R "_;"
024537:  260740033356  pushj    p, iflin        ;"6'@#;N"
024540:  254000023211  jrst     xcomnp          ;"5@ ":)"
024541:  254000024561  jrst     cmnumr          ;"5@ "EQ"
fltbrk:
024542:  777777777760  conso    774, @777760(p) ;"_____P"
024543:  777644001760  coni     774, 1760(d)    ;"_^D /P"
024544:  400000000760  setz     z, 760          ;"@   'P"
024545:  400000000760  setz     z, 760          ;"@   'P"
xcmnux:
024546:  334040027735  skipa    a, 27735        ;";@@"_="
xcmnum:
024547:  201040024567  movei    a, numbrk       ;"0(@"EW"
024550:  260740023402  pushj    p, cmrfld       ;"6'@"<""
024551:  602000400000  trne     z, .fhslf       ;"P0 @  "
024552:  254000024577  jrst     cmnumh          ;"5@ "E_"
024553:  256200027420  xct      d, 27420        ;"5R "\0"
024554:  256200027733  xct      d, 27733        ;"5R "_;"
024555:  200155000004  move     c, t4(s)        ;"0!M  $"
024556:  256200027737  xct      d, 27737        ;"5R "_?"
024557:  260740033366  pushj    p, inin         ;"6'@#;V"
024560:  254000023211  jrst     xcomnp          ;"5@ ":)"
cmnumr:
024561:  200115000001  move     b, t1(s)        ;"0!-  !"
024562:  256000027741  xct      27741           ;"5P "_A"
024563:  316040000002  camn     a, b            ;"9P@  ""
024564:  254000023156  jrst     xcomxr          ;"5@ "9N"
024565:  201040602052  movei    a, npxicn       ;"0(@P0J"
024566:  254000023210  jrst     xcomne          ;"5@ ":("
numbrk:
024567:  777777777760  conso    774, @777760(p) ;"_____P"
024570:  777654001760  coni     774, 1760(z)    ;"_^L /P"
024571:  400000000760  setz     z, 760          ;"@   'P"
024572:  400000000760  setz     z, 760          ;"@   'P"
nuxbrk:
024573:  777777777760  conso    774, @777760(p) ;"_____P"
024574:  777654001760  coni     774, 1760(z)    ;"_^L /P"
024575:  777777777760  conso    774, @777760(p) ;"_____P"
024576:  777777777760  conso    774, @777760(p) ;"_____P"
cmnumh:
024577:  260740024001  pushj    p, dohlp        ;"6'@"@!"
024600:  603000000001  tlne     z, t1           ;"P8   !"
024601:  254000023237  jrst     cmrtyp          ;"5@ ":?"
024602:  550115000004  hrrz     b, t4(s)        ;"M!-  $"
024603:  301100000002  cail     b, t2           ;"8)   ""
024604:  303100000012  caile    b, p3           ;"89   *"
024605:  254000027743  jrst     27743           ;"5@ "_C"
024606:  306100000012  cain     b, p3           ;"8Q   *"
024607:  254000024624  jrst     cmnh10          ;"5@ "F4"
024610:  306100000010  cain     b, .emtac       ;"8Q   ("
024611:  254000024622  jrst     cmnh8           ;"5@ "F2"
024612:  561040027745  hrroi    a, 27745        ;"N(@"_E"
024613:  260740024040  pushj    p, cmsout       ;"6'@"@@"
024614:  256200027160  xct      d, 27160        ;"5R "YP"
024615:  550115000004  hrrz     b, t4(s)        ;"M!-  $"
024616:  201140000012  movei    c, p3           ;"0)@  *"
024617:  104000000224                           ;"(@  "4"
024620:  265100032540  jsp      b, itrap1       ;"6I #5@"
024621:  254000023237  jrst     cmrtyp          ;"5@ ":?"
cmnh8:
024622:  561040027751  hrroi    a, 27751        ;"N(@"_I"
024623:  254000024625  jrst     cmnh            ;"5@ "F5"
cmnh10:
024624:  561040027754  hrroi    a, 27754        ;"N(@"_L"
cmnh:
024625:  260740024040  pushj    p, cmsout       ;"6'@"@@"
024626:  254000023237  jrst     cmrtyp          ;"5@ ":?"
xcmtad:
024627:  200255000004  move     e, t4(s)        ;"0"M  $"
024630:  201040023376  movei    a, eolbrk       ;"0(@";^"
024631:  260740023402  pushj    p, cmrfld       ;"6'@"<""
024632:  260740024660  pushj    p, cmtset       ;"6'@"FP"
024633:  255000000000  jfcl                     ;"5H    " "+ \0\0\0"
024634:  256200027356  xct      d, 27356        ;"5R "[N"
024635:  202055000011  movem    a, p2(s)        ;"00M  )"
024636:  200115000011  move     b, p2(s)        ;"0!-  )"
024637:  256200027420  xct      d, 27420        ;"5R "\0"
024640:  260740023720  pushj    p, subbp        ;"6'@"?0"
024641:  202055000011  movem    a, p2(s)        ;"00M  )"
024642:  260740023123  pushj    p, cmfset       ;"6'@"93"
024643:  200055000011  move     a, p2(s)        ;"0 M  )"
024644:  260740023402  pushj    p, cmrfld       ;"6'@"<""
024645:  602000400000  trne     z, .fhslf       ;"P0 @  "
024646:  254000024673  jrst     cmtadh          ;"5@ "F["
024647:  260740024660  pushj    p, cmtset       ;"6'@"FP"
024650:  254000023211  jrst     xcomnp          ;"5@ ":)"
024651:  603240100000  tlne     e, tt%wkf       ;"P:@(  "
024652:  254000027763  jrst     27763           ;"5@ "_S"
024653:  607240400000  tlnn     e, .fhslf       ;"PZ@@  "
024654:  254000027767  jrst     27767           ;"5@ "_W"
024655:  260740033362  pushj    p, iidcnv       ;"6'@#;R"
024656:  254000023211  jrst     xcomnp          ;"5@ ":)"
024657:  254000023156  jrst     xcomxr          ;"5@ "9N"
cmtset:
024660:  256200027420  xct      d, 27420        ;"5R "\0"
024661:  256200027733  xct      d, 27733        ;"5R "_;"
024662:  205100404000  movsi    b, 404000       ;"0I @@ "
024663:  603240400000  tlne     e, .fhslf       ;"P:@@  "
024664:  621100400000  tlz      b, .fhslf       ;"R) @  "
024665:  603240200000  tlne     e, .eprev       ;"P:@0  "
024666:  621100004000  tlz      b, tt%eco       ;"R)  @ "
024667:  256200027332  xct      d, 27332        ;"5R "[:"
024670:  260740033364  pushj    p, iidtnc       ;"6'@#;T"
024671:  263740000000  popj     p,              ;"6?@   "
024672:  254000021663  jrst     rskp            ;"5@ ".S"
cmtadh:
024673:  260740024001  pushj    p, dohlp        ;"6'@"@!"
024674:  603000000001  tlne     z, t1           ;"P8   !"
024675:  254000023237  jrst     cmrtyp          ;"5@ ":?"
024676:  135040027775  ldb      a, 27775        ;"+H@"_]"
024677:  560041030005  hrro     a, 30005(a)     ;"N A# %"
024700:  260740024040  pushj    p, cmsout       ;"6'@"@@"
024701:  254000023237  jrst     cmrtyp          ;"5@ ":?"
xcmdev:
024702:  260740023356  pushj    p, cmratm       ;"6'@";N"
024703:  602000400000  trne     z, .fhslf       ;"P0 @  "
024704:  254000024731  jrst     cmdevh          ;"5@ "G9"
024705:  321000030011  jumpl    z, 30011        ;":( # )"
024706:  602000040000  trne     z, tt%wkn       ;"P0 $  "
024707:  254000024713  jrst     cmdev1          ;"5@ "G+"
024710:  260740023572  pushj    p, cmcin        ;"6'@"=Z"
024711:  302040000072  caie     a, cmswtm       ;"80@  Z"
024712:  254000030013  jrst     30013           ;"5@ # +"
cmdev1:
024713:  603000000010  tlne     z, .emtac       ;"P8   ("
024714:  254000024721  jrst     cmdev2          ;"5@ "G1"
024715:  256200027420  xct      d, 27420        ;"5R "\0"
024716:  256200027733  xct      d, 27733        ;"5R "_;"
024717:  260740033370  pushj    p, istdev       ;"6'@#;X"
024720:  254000023211  jrst     xcomnp          ;"5@ ":)"
cmdev2:
024721:  325000024725  jumpge   z, cmdev3       ;":H "G5"
024722:  201040000072  movei    a, cmswtm       ;"0(@  Z"
024723:  260740023765  pushj    p, cmdib        ;"6'@"?U"
024724:  254000023160  jrst     xcomxi          ;"5@ "9P"
cmdev3:
024725:  260740023572  pushj    p, cmcin        ;"6'@"=Z"
024726:  607000400000  tlnn     z, .fhslf       ;"PX @  "
024727:  260740023737  pushj    p, cmdip        ;"6'@"??"
024730:  254000023156  jrst     xcomxr          ;"5@ "9N"
cmdevh:
024731:  260740024001  pushj    p, dohlp        ;"6'@"@!"
024732:  561040030015  hrroi    a, 30015        ;"N(@# -"
024733:  607000000001  tlnn     z, t1           ;"PX   !"
024734:  260740024040  pushj    p, cmsout       ;"6'@"@@"
024735:  254000023237  jrst     cmrtyp          ;"5@ ":?"
xcmqst:
024736:  260740023517  pushj    p, cmrqst       ;"6'@"=/"
024737:  254000030020  jrst     30020           ;"5@ # 0"
024740:  602000400000  trne     z, .fhslf       ;"P0 @  "
024741:  254000030025  jrst     30025           ;"5@ # 5"
024742:  621000400000  tlz      z, .fhslf       ;"R( @  "
024743:  620000020000  trz      z, tt%wkp       ;"R  "  "
024744:  260740023572  pushj    p, cmcin        ;"6'@"=Z"
024745:  607000400000  tlnn     z, .fhslf       ;"PX @  "
024746:  260740023737  pushj    p, cmdip        ;"6'@"??"
024747:  254000023156  jrst     xcomxr          ;"5@ "9N"
xcmuqs:
024750:  260740023572  pushj    p, cmcin        ;"6'@"=Z"
024751:  231040000040  idivi    a, .mref2       ;"3(@  @"
024752:  200102032656  move     b, bits(b)      ;"0!"#6N"
024753:  270055000004  add      a, t4(s)        ;"7 M  $"
024754:  256200030033  xct      d, 30033        ;"5R # ;"
024755:  254000024750  jrst     xcmuqs          ;"5@ "GH"
024756:  260740023737  pushj    p, cmdip        ;"6'@"??"
024757:  254000023171  jrst     xcomx2          ;"5@ "9Y"
xcmfld:
024760:  260740023356  pushj    p, cmratm       ;"6'@";N"
cmfld1:
024761:  602000400000  trne     z, .fhslf       ;"P0 @  "
024762:  254000030035  jrst     30035           ;"5@ # ="
024763:  254000023156  jrst     xcomxr          ;"5@ "9N"
xcmact:
024764:  201040023372  movei    a, usrbrk       ;"0(@";Z"
024765:  260740023402  pushj    p, cmrfld       ;"6'@"<""
024766:  254000024761  jrst     cmfld1          ;"5@ "GQ"
xcmnod:
024767:  260740023356  pushj    p, cmratm       ;"6'@";N"
024770:  602000400000  trne     z, .fhslf       ;"P0 @  "
024771:  254000030042  jrst     30042           ;"5@ # B"
024772:  256200027420  xct      d, 27420        ;"5R "\0"
024773:  200140000001  move     c, a            ;"0!@  !"
024774:  256140030050  xct      c, 30050        ;"5Q@# H"
024775:  322140030052  jumpe    c, 30052        ;":1@# J"
024776:  201100000006  movei    b, q2           ;"0)   &"
xnod0:
024777:  256140030055  xct      c, 30055        ;"5Q@# M"
025000:  301140000060  cail     c, 60           ;"8)@  P"
025001:  303140000132  caile    c, 132          ;"89@ !:"
025002:  254000025013  jrst     xnod2           ;"5@ "H+"
025003:  303140000071  caile    c, 71           ;"89@  Y"
025004:  301140000101  cail     c, .priou       ;"8)@ !!"
025005:  304000000000  caia                     ;"8@    " "1\0\0\0\0"
025006:  254000025013  jrst     xnod2           ;"5@ "H+"
xnod1:
025007:  256140030060  xct      c, 30060        ;"5Q@# P"
025010:  365100024777  sojge    b, xnod0        ;">I "G_"
025011:  201040602135  movei    a, comx19       ;"0(@P1="
025012:  254000023210  jrst     xcomne          ;"5@ ":("
xnod2:
025013:  307140000172  caig     c, 172          ;"8Y@ !Z"
025014:  305140000141  caige    c, 141          ;"8I@ !A"
025015:  254000025020  jrst     xnod3           ;"5@ "H0"
025016:  275140000040  subi     c, .mref2       ;"7I@  @"
025017:  254000025007  jrst     xnod1           ;"5@ "H'"
xnod3:
025020:  200115000001  move     b, t1(s)        ;"0!-  !"
025021:  256000027741  xct      27741           ;"5P "_A"
025022:  316040000002  camn     a, b            ;"9P@  ""
025023:  254000023160  jrst     xcomxi          ;"5@ "9P"
025024:  201040602134  movei    a, comx18       ;"0(@P1<"
025025:  254000023210  jrst     xcomne          ;"5@ ":("
cmatfi:
025026:  660000001000  tro      z, cmindf       ;"V   ( "
025027:  256200030063  xct      d, 30063        ;"5R # S"
025030:  326240025033  jumpn    e, cmfxl1       ;":R@"H;"
025031:  254000025036  jrst     xcmifi          ;"5@ "H>"
xcmfil:
025032:  256200030066  xct      d, 30066        ;"5R # V"
cmfxl1:
025033:  256200030071  xct      d, 30071        ;"5R # Y"
025034:  254000025044  jrst     cmfil0          ;"5@ "HD"
xcmofi:
025035:  334040030073  skipa    a, 30073        ;";@@# ["
xcmifi:
025036:  205040100000  movsi    a, tt%wkf       ;"0H@(  "
025037:  256200030066  xct      d, 30066        ;"5R # V"
025040:  205105000002  movsi    b, t2(e)        ;"0I%  ""
025041:  541105000003  hrri     b, nibits(e)    ;"L)%  #"
025042:  256200030075  xct      d, 30075        ;"5R # ]"
025043:  256240030100  xct      e, 30100        ;"5R@#! "
cmfil0:
025044:  661040000004  tlo      a, t4           ;"V(@  $"
025045:  256200030103  xct      d, 30103        ;"5R #!#"
025046:  260740023572  pushj    p, cmcin        ;"6'@"=Z"
025047:  306040000077  cain     a, cmhlpc       ;"8P@  _"
025050:  254000025144  jrst     cmfhlp          ;"5@ "ID"
025051:  260740023737  pushj    p, cmdip        ;"6'@"??"
025052:  602000400000  trne     z, .fhslf       ;"P0 @  "
025053:  254000023237  jrst     cmrtyp          ;"5@ ":?"
025054:  260740023572  pushj    p, cmcin        ;"6'@"=Z"
025055:  302040000033  caie     a, .chesc       ;"80@  ;"
025056:  306040000006  cain     a, q2           ;"8P@  &"
025057:  254000025070  jrst     cmfil1          ;"5@ "HX"
025060:  260740023737  pushj    p, cmdip        ;"6'@"??"
025061:  260740023364  pushj    p, cmrfil       ;"6'@";T"
025062:  602000400000  trne     z, .fhslf       ;"P0 @  "
025063:  254000025144  jrst     cmfhlp          ;"5@ "ID"
025064:  260740023123  pushj    p, cmfset       ;"6'@"93"
025065:  602000001000  trne     z, cmindf       ;"P0  ( "
025066:  260740023572  pushj    p, cmcin        ;"6'@"=Z"
025067:  254000025071  jrst     cmfil2          ;"5@ "HY"
cmfil1:
025070:  260740023737  pushj    p, cmdip        ;"6'@"??"
cmfil2:
025071:  256200030071  xct      d, 30071        ;"5R # Y"
025072:  602000040000  trne     z, tt%wkn       ;"P0 $  "
025073:  254000030110  jrst     30110           ;"5@ #!("
025074:  256200030121  xct      d, 30121        ;"5R #!1"
025075:  256200030124  xct      d, 30124        ;"5R #!4"
025076:  256200030127  xct      d, 30127        ;"5R #!7"
025077:  670040030131  tdo      a, 30131        ;"W @#!9"
025100:  256200030133  xct      d, 30133        ;"5R #!;"
025101:  256200027420  xct      d, 27420        ;"5R "\0"
025102:  256200030136  xct      d, 30136        ;"5R #!>"
025103:  256200027423  xct      d, 27423        ;"5R "\3"
025104:  256200030141  xct      d, 30141        ;"5R #!A"
025105:  256200030144  xct      d, 30144        ;"5R #!D"
025106:  256200030147  xct      d, 30147        ;"5R #!G"
025107:  256200030152  xct      d, 30152        ;"5R #!J"
025110:  256200030155  xct      d, 30155        ;"5R #!M"
025111:  260740033360  pushj    p, igtjfn       ;"6'@#;P"
025112:  254000025120  jrst     cmgje           ;"5@ "I0"
025113:  256200030106  xct      d, 30106        ;"5R #!&"
025114:  260740025127  pushj    p, cmgjc        ;"6'@"I7"
025115:  602000001000  trne     z, cmindf       ;"P0  ( "
025116:  254000021663  jrst     rskp            ;"5@ ".S"
025117:  254000023156  jrst     xcomxr          ;"5@ "9N"
cmgje:
025120:  202040000006  movem    a, f            ;"00@  &"
025121:  260740025127  pushj    p, cmgjc        ;"6'@"I7"
025122:  306300602064  cain     f, gjfx48       ;"8S P0T"
025123:  254000030157  jrst     30157           ;"5@ #!O"
025124:  602000001000  trne     z, cmindf       ;"P0  ( "
025125:  254000021664  jrst     r               ;"5@ ".T"
025126:  254000023211  jrst     xcomnp          ;"5@ ":)"
cmgjc:
025127:  256200030163  xct      d, 30163        ;"5R #!S"
cmgj1:
025130:  256140030166  xct      c, 30166        ;"5Q@#!V"
025131:  326040030170  jumpn    a, 30170        ;":P@#!X"
025132:  200055000001  move     a, t1(s)        ;"0 M  !"
025133:  260740032632  pushj    p, dbp          ;"6'@#6:"
025134:  202055000001  movem    a, t1(s)        ;"00M  !"
025135:  350015000002  aos      t2(s)           ;"= -  ""
025136:  335000000014  skipge   z               ;";H   ,"
025137:  400600000000  setz     z,              ;"@&    "
025140:  306600000000  cain     z, bwd          ;"8V    " "1X\0\0\0"
025141:  260740023756  pushj    p, tiecmd       ;"6'@"?N"
025142:  260740023737  pushj    p, cmdip        ;"6'@"??"
025143:  254000023356  jrst     cmratm          ;"5@ ";N"
cmfhlp:
025144:  602000001000  trne     z, cmindf       ;"P0  ( "
025145:  254000030204  jrst     30204           ;"5@ #"$"
025146:  260740024001  pushj    p, dohlp        ;"6'@"@!"
025147:  603000000001  tlne     z, t1           ;"P8   !"
025150:  254000023237  jrst     cmrtyp          ;"5@ ":?"
025151:  256200030207  xct      d, 30207        ;"5R #"'"
025152:  561040030211  hrroi    a, 30211        ;"N(@#")"
025153:  607100100000  tlnn     b, tt%wkf       ;"PY (  "
025154:  607100400000  tlnn     b, .fhslf       ;"PY @  "
025155:  561040030215  hrroi    a, 30215        ;"N(@#"-"
cmfh1:
025156:  260740024040  pushj    p, cmsout       ;"6'@"@@"
025157:  254000023237  jrst     cmrtyp          ;"5@ ":?"
xcmtok:
025160:  200055000004  move     a, t4(s)        ;"0 M  $"
025161:  260740024067  pushj    p, chkbp        ;"6'@"@W"
025162:  254000027661  jrst     27661           ;"5@ "^Q"
025163:  202040000005  movem    a, e            ;"00@  %"
cmtok1:
025164:  256140030222  xct      c, 30222        ;"5Q@#"2"
025165:  322300030224  jumpe    f, 30224        ;":3 #"4"
cmtok2:
025166:  260740023572  pushj    p, cmcin        ;"6'@"=Z"
025167:  316040000006  camn     a, f            ;"9P@  &"
025170:  254000030226  jrst     30226           ;"5@ #"6"
025171:  302040000006  caie     a, q2           ;"80@  &"
025172:  306040000033  cain     a, .chesc       ;"8P@  ;"
025173:  254000030230  jrst     30230           ;"5@ #"8"
025174:  306040000077  cain     a, cmhlpc       ;"8P@  _"
025175:  254000030233  jrst     30233           ;"5@ #";"
025176:  201040602055  movei    a, npxnmt       ;"0(@P0M"
025177:  254000023210  jrst     xcomne          ;"5@ ":("
xcmusr:
025200:  664000100000  troa     z, tt%wkf       ;"V@ (  "
xcmdir:
025201:  620000100000  trz      z, tt%wkf       ;"R  (  "
cmdir1:
025202:  606000100000  trnn     z, tt%wkf       ;"PP (  "
025203:  260740023364  pushj    p, cmrfil       ;"6'@";T"
025204:  201040023372  movei    a, usrbrk       ;"0(@";Z"
025205:  602000100000  trne     z, tt%wkf       ;"P0 (  "
025206:  260740023402  pushj    p, cmrfld       ;"6'@"<""
cmdir4:
025207:  602000400000  trne     z, .fhslf       ;"P0 @  "
025210:  254000025237  jrst     cmdirh          ;"5@ "J?"
025211:  603000400000  tlne     z, .fhslf       ;"P8 @  "
025212:  260740025267  pushj    p, cmdrec       ;"6'@"JW"
025213:  607000400000  tlnn     z, .fhslf       ;"PX @  "
025214:  260740025265  pushj    p, cmdemo       ;"6'@"JU"
025215:  602000100000  trne     z, tt%wkf       ;"P0 (  "
025216:  254000030245  jrst     30245           ;"5@ #"E"
025217:  260740033404  pushj    p, ircdir       ;"6'@#<$"
025220:  320700023211  jump     q, xcomnp       ;":' ":)"
cmdir3:
025221:  202055000017  movem    a, ch15(s)      ;"00M  /"
025222:  603040040000  tlne     a, tt%wkn       ;"P8@$  "
025223:  254000025247  jrst     cmdir5          ;"5@ "JG"
025224:  256200030251  xct      d, 30251        ;"5R #"I"
cmdir9:
025225:  603000400000  tlne     z, .fhslf       ;"P8 @  "
025226:  260740023731  pushj    p, cmdch        ;"6'@"?9"
cmdir2:
025227:  256140030254  xct      c, 30254        ;"5Q@#"L"
025230:  322040025233  jumpe    a, cmdir7       ;":0@"J;"
025231:  260740023765  pushj    p, cmdib        ;"6'@"?U"
025232:  254000025227  jrst     cmdir2          ;"5@ "J7"
cmdir7:
025233:  200055000017  move     a, ch15(s)      ;"0 M  /"
025234:  607040020000  tlnn     a, tt%wkp       ;"PX@"  "
025235:  254000023160  jrst     xcomxi          ;"5@ "9P"
025236:  254000024020  jrst     cmamb           ;"5@ "@0"
cmdirh:
025237:  260740024001  pushj    p, dohlp        ;"6'@"@!"
025240:  603000000001  tlne     z, t1           ;"P8   !"
025241:  254000023237  jrst     cmrtyp          ;"5@ ":?"
025242:  561040030256  hrroi    a, 30256        ;"N(@#"N"
025243:  606000100000  trnn     z, tt%wkf       ;"PP (  "
025244:  561040030261  hrroi    a, 30261        ;"N(@#"Q"
025245:  260740024040  pushj    p, cmsout       ;"6'@"@@"
025246:  254000023237  jrst     cmrtyp          ;"5@ ":?"
cmdir5:
025247:  607000000010  tlnn     z, .emtac       ;"PX   ("
025250:  254000030265  jrst     30265           ;"5@ #"U"
025251:  260740025265  pushj    p, cmdemo       ;"6'@"JU"
025252:  602000100000  trne     z, tt%wkf       ;"P0 (  "
025253:  254000025257  jrst     cmdir8          ;"5@ "JO"
025254:  260740033404  pushj    p, ircdir       ;"6'@#<$"
025255:  320700025262  jump     q, cmdir6       ;":' "JR"
025256:  254000025227  jrst     cmdir2          ;"5@ "J7"
cmdir8:
025257:  260740033406  pushj    p, ircusr       ;"6'@#<&"
025260:  320700025262  jump     q, cmdir6       ;":' "JR"
025261:  254000025227  jrst     cmdir2          ;"5@ "J7"
cmdir6:
025262:  205040020000  movsi    a, tt%wkp       ;"0H@"  "
025263:  436055000017  iorm     a, ch15(s)      ;"CPM  /"
025264:  254000025225  jrst     cmdir9          ;"5@ "J5"
cmdemo:
025265:  205040000011  movsi    a, p2           ;"0H@  )"
025266:  304000000000  caia                     ;"8@    " "1\0\0\0\0"
cmdrec:
025267:  205040000010  movsi    a, .emtac       ;"0H@  ("
025270:  200115000004  move     b, t4(s)        ;"0!-  $"
025271:  603100400000  tlne     b, .fhslf       ;"P9 @  "
025272:  661040000002  tlo      a, t2           ;"V(@  ""
025273:  256200027557  xct      d, 27557        ;"5R "]O"
025274:  256200027733  xct      d, 27733        ;"5R "_;"
025275:  256200027332  xct      d, 27332        ;"5R "[:"
025276:  263740000000  popj     p,              ;"6?@   "
xcmcma:
025277:  201040000054  movei    a, 54           ;"0(@  L"
025300:  202055000004  movem    a, t4(s)        ;"00M  $"
cmchr:
025301:  260740023572  pushj    p, cmcin        ;"6'@"=Z"
025302:  302040000011  caie     a, p2           ;"80@  )"
025303:  306040000040  cain     a, .mref2       ;"8P@  @"
025304:  254000025301  jrst     cmchr           ;"5@ "K!"
025305:  550115000004  hrrz     b, t4(s)        ;"M!-  $"
025306:  316040000002  camn     a, b            ;"9P@  ""
025307:  254000023160  jrst     xcomxi          ;"5@ "9P"
025310:  302040000006  caie     a, q2           ;"80@  &"
025311:  306040000033  cain     a, .chesc       ;"8P@  ;"
025312:  254000030267  jrst     30267           ;"5@ #"W"
025313:  306040000077  cain     a, cmhlpc       ;"8P@  _"
025314:  254000030271  jrst     30271           ;"5@ #"Y"
025315:  201040602057  movei    a, npxcma       ;"0(@P0O"
025316:  254000023210  jrst     xcomne          ;"5@ ":("
xcmpup:
025317:  200255000004  move     e, t4(s)        ;"0"M  $"
025320:  260740023356  pushj    p, cmratm       ;"6'@";N"
025321:  602000400000  trne     z, .fhslf       ;"P0 @  "
025322:  254000025351  jrst     cmpuph          ;"5@ "KI"
025323:  607240400000  tlnn     e, .fhslf       ;"PZ@@  "
025324:  254000023211  jrst     xcomnp          ;"5@ ":)"
cmpups:
025325:  325000025330  jumpge   z, cmpup0       ;":H "K8"
025326:  260740023731  pushj    p, cmdch        ;"6'@"?9"
025327:  661240200000  tlo      e, .eprev       ;"V*@0  "
cmpup0:
025330:  256200027420  xct      d, 27420        ;"5R "\0"
025331:  256200027733  xct      d, 27733        ;"5R "_;"
025332:  256200027576  xct      d, 27576        ;"5R "]^"
025333:  260740033372  pushj    p, ipupnm       ;"6'@#;Z"
025334:  254000025360  jrst     cmpupe          ;"5@ "KP"
025335:  607000400000  tlnn     z, .fhslf       ;"PX @  "
025336:  254000023156  jrst     xcomxr          ;"5@ "9N"
cmpup1:
025337:  256140030254  xct      c, 30254        ;"5Q@#"L"
025340:  322040025343  jumpe    a, cmpup2       ;":0@"KC"
025341:  260740023765  pushj    p, cmdib        ;"6'@"?U"
025342:  254000025337  jrst     cmpup1          ;"5@ "K?"
cmpup2:
025343:  607000400000  tlnn     z, .fhslf       ;"PX @  "
025344:  254000023160  jrst     xcomxi          ;"5@ "9P"
025345:  260740023572  pushj    p, cmcin        ;"6'@"=Z"
025346:  607000400000  tlnn     z, .fhslf       ;"PX @  "
025347:  260740023737  pushj    p, cmdip        ;"6'@"??"
025350:  254000023156  jrst     xcomxr          ;"5@ "9N"
cmpuph:
025351:  606240400000  trnn     e, .fhslf       ;"PR@@  "
025352:  254000023211  jrst     xcomnp          ;"5@ ":)"
025353:  260740024001  pushj    p, dohlp        ;"6'@"@!"
025354:  561040030305  hrroi    a, 30305        ;"N(@##%"
025355:  607000000001  tlnn     z, t1           ;"PX   !"
025356:  260740024040  pushj    p, cmsout       ;"6'@"@@"
025357:  254000023237  jrst     cmrtyp          ;"5@ ":?"
cmpupe:
025360:  256200030312  xct      d, 30312        ;"5R ##*"
025361:  302100602031  caie     b, pupnx2       ;"81 P09"
025362:  254000023211  jrst     xcomnp          ;"5@ ":)"
025363:  260740024020  pushj    p, cmamb        ;"6'@"@0"
025364:  254000025317  jrst     xcmpup          ;"5@ "K/"
chktbs:
025365:  256200030315  xct      d, 30315        ;"5R ##-"
025366:  603040774000  tlne     a, 774000       ;"P8@_@ "
025367:  634040000001  tdza     a, a            ;"S@@  !"
025370:  350000000002  aos      b               ;"=    ""
025371:  505100440700  hrli     b, 440700       ;"HI D' "
025372:  263740000000  popj     p,              ;"6?@   "
.stcmp:
025373:  033005025374  ufpc,,                   ;"#8%"K\"
025374:  104000032630                           ;"(@ #68"
025375:  554140000001  hlrz     c, a            ;"MA@  !"
025376:  306140777777  cain     c, dsptb        ;"8Q@___"
025377:  505040440700  hrli     a, 440700       ;"HH@D' "
025400:  554140000002  hlrz     c, b            ;"MA@  ""
025401:  306140777777  cain     c, dsptb        ;"8Q@___"
025402:  505100440700  hrli     b, 440700       ;"HI D' "
025403:  260740025407  pushj    p, ustcmp       ;"6'@"L'"
025404:  256200027733  xct      d, 27733        ;"5R "_;"
025405:  256200027332  xct      d, 27332        ;"5R "[:"
025406:  254000032477  jrst     mretn           ;"5@ #4_"
ustcmp:
025407:  256140030055  xct      c, 30055        ;"5Q@# M"
025410:  301140000141  cail     c, 141          ;"8)@ !A"
025411:  254000030317  jrst     30317           ;"5@ ##/"
025412:  256140030323  xct      c, 30323        ;"5Q@##3"
025413:  301200000141  cail     d, 141          ;"8*  !A"
025414:  254000030325  jrst     30325           ;"5@ ##5"
025415:  312140000004  came     c, d            ;"91@  $"
025416:  254000025422  jrst     strc2           ;"5@ "L2"
025417:  326140025407  jumpn    c, ustcmp       ;":Q@"L'"
025420:  400040000000  setz     a,              ;"@ @   "
025421:  263740000000  popj     p,              ;"6?@   "
strc2:
025422:  322140030331  jumpe    c, 30331        ;":1@##9"
025423:  317140000004  camg     c, d            ;"9Y@  $"
025424:  334040030334  skipa    a, 30334        ;";@@##<"
025425:  205040100000  movsi    a, tt%wkf       ;"0H@(  "
025426:  263740000000  popj     p,              ;"6?@   "
.tbdel:
025427:  033005025430  ufpc,,                   ;"#8%"L8"
025430:  104000032630                           ;"(@ #68"
025431:  260740025434  pushj    p, xtdel        ;"6'@"L<"
025432:  265100032540  jsp      b, itrap1       ;"6I #5@"
025433:  254000032477  jrst     mretn           ;"5@ #4_"
xtdel:
025434:  256200030336  xct      d, 30336        ;"5R ##>"
025435:  200140000004  move     c, d            ;"0!@  $"
025436:  375000000003  sosge    c               ;"?H   #"
025437:  254000030340  jrst     30340           ;"5@ ##@"
025440:  270200000001  add      d, a            ;"7"   !"
025441:  303101000000  caile    b, (a)          ;"89!   "
025442:  313100000004  camle    b, d            ;"99   $"
025443:  254000030342  jrst     30342           ;"5@ ##B"
025444:  256200030345  xct      d, 30345        ;"5R ##E"
025445:  322140025450  jumpe    c, tdelz        ;":1@"LH"
025446:  505102000001  hrli     b, t1(b)        ;"HI"  !"
025447:  256240030350  xct      e, 30350        ;"5R@##H"
tdelz:
025450:  256200030353  xct      d, 30353        ;"5R ##K"
025451:  254000021663  jrst     rskp            ;"5@ ".S"
.tbadd:
025452:  033005025453  ufpc,,                   ;"#8%"LK"
025453:  104000032630                           ;"(@ #68"
025454:  260740025460  pushj    p, xtadd        ;"6'@"LP"
025455:  265100032540  jsp      b, itrap1       ;"6I #5@"
025456:  256200027733  xct      d, 27733        ;"5R "_;"
025457:  254000032477  jrst     mretn           ;"5@ #4_"
xtadd:
025460:  265700021576  jsp      q, .asset       ;"6O "-^"
025461:  554100000002  hlrz     b, b            ;"MA   ""
025462:  505100440700  hrli     b, 440700       ;"HI D' "
025463:  260740025514  pushj    p, xtlook       ;"6'@"M,"
025464:  263740000000  popj     p,              ;"6?@   "
025465:  603100040000  tlne     b, tt%wkn       ;"P9 $  "
025466:  254000030355  jrst     30355           ;"5@ ##M"
025467:  200115000001  move     b, t1(s)        ;"0!-  !"
025470:  256200030360  xct      d, 30360        ;"5R ##P"
025471:  350000000004  aos      d               ;"=    $"
025472:  256200030363  xct      d, 30363        ;"5R ##S"
025473:  313200000003  camle    d, c            ;"9:   #"
025474:  254000030365  jrst     30365           ;"5@ ##U"
025475:  256200030370  xct      d, 30370        ;"5R ##X"
025476:  270200000002  add      d, b            ;"7"   ""
xtadd2:
025477:  311040000004  caml     a, d            ;"9(@  $"
025500:  254000030375  jrst     30375           ;"5@ ##]"
025501:  256200030401  xct      d, 30401        ;"5R #$!"
025502:  256200030404  xct      d, 30404        ;"5R #$$"
025503:  364200025477  soja     d, xtadd2       ;">B "L_"
.tbluk:
025504:  033005025505  ufpc,,                   ;"#8%"M%"
025505:  104000032630                           ;"(@ #68"
025506:  260740025515  pushj    p, xtlok0       ;"6'@"M-"
025507:  265100032540  jsp      b, itrap1       ;"6I #5@"
025510:  256200027733  xct      d, 27733        ;"5R "_;"
025511:  256200027332  xct      d, 27332        ;"5R "[:"
025512:  256200027737  xct      d, 27737        ;"5R "_?"
025513:  254000032477  jrst     mretn           ;"5@ #4_"
xtlook:
025514:  265700032722  jsp      q, savp         ;"6O #72"
xtlok0:
025515:  265700021576  jsp      q, .asset       ;"6O "-^"
025516:  554140000002  hlrz     c, b            ;"MA@  ""
025517:  302140777777  caie     c, dsptb        ;"81@___"
025520:  306140000000  cain     c, bwd          ;"8Q@   " "1F\0\0\0"
025521:  505100440700  hrli     b, 440700       ;"HI D' "
025522:  612100027533  tdne     b, 27533        ;"Q1 "];"
025523:  254000030406  jrst     30406           ;"5@ #$&"
025524:  202115000002  movem    b, t2(s)        ;"01-  ""
025525:  201441000001  movei    w, t1(a)        ;"0,A  !"
025526:  505440400010  hrli     w, 400010       ;"HL@@ ("
025527:  256200030411  xct      d, 30411        ;"5R #$)"
025530:  200500000013  move     x, y            ;"0%   +"
025531:  200400000013  move     h, y            ;"0$   +"
025532:  240400777777  ash      h, dsptb        ;"4$ ___"
025533:  322540025550  jumpe    y, tablkx       ;":5@"MH"
tablk0:
025534:  256200030414  xct      d, 30414        ;"5R #$,"
025535:  260740025365  pushj    p, chktbs       ;"6'@"KU"
025536:  200055000002  move     a, t2(s)        ;"0 M  ""
025537:  260740025407  pushj    p, ustcmp       ;"6'@"L'"
025540:  326040025553  jumpn    a, tablk1       ;":P@"MK"
tablkf:
025541:  256200030414  xct      d, 30414        ;"5R #$,"
025542:  260740025365  pushj    p, chktbs       ;"6'@"KU"
025543:  602040000002  trne     a, t2           ;"P0@  ""
025544:  254000025547  jrst     tablkm          ;"5@ "MG"
025545:  205100040000  movsi    b, tt%wkn       ;"0I $  "
025546:  254000025551  jrst     tablka          ;"5@ "MI"
tablkm:
025547:  334100027372  skipa    b, 27372        ;";A "[Z"
tablkx:
025550:  205100400000  movsi    b, .fhslf       ;"0I @  "
tablka:
025551:  201060000011  movei    a, @p2          ;"0(P  )"
025552:  254000021663  jrst     rskp            ;"5@ ".S"
tablk1:
025553:  607040200000  tlnn     a, .eprev       ;"PX@0  "
025554:  254000025611  jrst     tablkn          ;"5@ "N)"
tablk3:
025555:  202115000003  movem    b, nibits(s)    ;"01-  #"
025556:  322400025570  jumpe    h, tablk2       ;":4 "MX"
025557:  201060000011  movei    a, @p2          ;"0(P  )"
025560:  256200030417  xct      d, 30417        ;"5R #$/"
025561:  260740025365  pushj    p, chktbs       ;"6'@"KU"
025562:  200055000002  move     a, t2(s)        ;"0 M  ""
025563:  260740025407  pushj    p, ustcmp       ;"6'@"L'"
025564:  322040030421  jumpe    a, 30421        ;":0@#$1"
025565:  603040100000  tlne     a, tt%wkf       ;"P8@(  "
025566:  254000025570  jrst     tablk2          ;"5@ "MX"
025567:  364400025555  soja     h, tablk3       ;">D "MM"
tablk2:
025570:  201060000011  movei    a, @p2          ;"0(P  )"
025571:  301413777777  cail     h, dsptb(y)     ;"8,+___"
025572:  254000025602  jrst     tblk2a          ;"5@ "N""
025573:  256200030423  xct      d, 30423        ;"5R #$3"
025574:  260740025365  pushj    p, chktbs       ;"6'@"KU"
025575:  200055000002  move     a, t2(s)        ;"0 M  ""
025576:  260740025407  pushj    p, ustcmp       ;"6'@"L'"
025577:  322040030427  jumpe    a, 30427        ;":0@#$7"
025600:  603040200000  tlne     a, .eprev       ;"P8@0  "
025601:  254000025547  jrst     tablkm          ;"5@ "MG"
tblk2a:
025602:  256200030414  xct      d, 30414        ;"5R #$,"
025603:  260740025365  pushj    p, chktbs       ;"6'@"KU"
025604:  602040000002  trne     a, t2           ;"P0@  ""
025605:  254000025547  jrst     tablkm          ;"5@ "MG"
025606:  205100100000  movsi    b, tt%wkf       ;"0I (  "
025607:  200155000003  move     c, nibits(s)    ;"0!M  #"
025610:  254000025551  jrst     tablka          ;"5@ "MI"
tablkn:
025611:  307500000001  caig     x, t1           ;"8]   !"
025612:  254000030430  jrst     30430           ;"5@ #$8"
025613:  350000000012  aos      x               ;"=    *"
025614:  240500777777  ash      x, dsptb        ;"4% ___"
025615:  603040100000  tlne     a, tt%wkf       ;"P8@(  "
025616:  270400000012  add      h, x            ;"7$   *"
025617:  603040400000  tlne     a, .fhslf       ;"P8@@  "
025620:  274400000012  sub      h, x            ;"7D   *"
tblkn1:
025621:  301413000000  cail     h, (y)          ;"8,+   " "00X\0\0"
025622:  254000030432  jrst     30432           ;"5@ #$:"
025623:  325400025534  jumpge   h, tablk0       ;":L "M<"
025624:  205040100000  movsi    a, tt%wkf       ;"0H@(  "
025625:  254000025611  jrst     tablkn          ;"5@ "N)"
.rdtty:
025626:  033005025627  ufpc,,                   ;"#8%"N7"
025627:  104000032630                           ;"(@ #68"
025630:  256200030435  xct      d, 30435        ;"5R #$="
025631:  607000740000  tlnn     z, 740000       ;"PX \  "
025632:  661000040000  tlo      z, tt%wkn       ;"V( $  "
025633:  661000004000  tlo      z, tt%eco       ;"V(  @ "
025634:  200400030437  move     h, 30437        ;"0$ #$?"
025635:  400340000000  setz     g,              ;"@#@   "
025636:  256200030441  xct      d, 30441        ;"5R #$A"
025637:  256200030444  xct      d, 30444        ;"5R #$D"
025640:  256200030447  xct      d, 30447        ;"5R #$G"
025641:  200300000013  move     f, y            ;"0#   +"
025642:  200440000006  move     w, f            ;"0$@  &"
025643:  205600000004  movsi    z, t4           ;"0N   $"
025644:  254000025716  jrst     rcomn           ;"5@ "O."
.rdtxt:
025645:  033005025646  ufpc,,                   ;"#8%"NF"
025646:  104000032630                           ;"(@ #68"
025647:  256200030452  xct      d, 30452        ;"5R #$J"
025650:  256200030455  xct      d, 30455        ;"5R #$M"
025651:  607000001000  tlnn     z, cmindf       ;"PX  ( "
025652:  254000030457  jrst     30457           ;"5@ #$O"
025653:  256200030462  xct      d, 30462        ;"5R #$R"
rdtxt2:
025654:  200440000006  move     w, f            ;"0$@  &"
025655:  403340000005  setzb    g, e            ;"@;@  %"
025656:  205600000010  movsi    z, .emtac       ;"0N   ("
025657:  256200030465  xct      d, 30465        ;"5R #$U"
025660:  256200030470  xct      d, 30470        ;"5R #$X"
025661:  254000025716  jrst     rcomn           ;"5@ "O."
.texti:
025662:  033005025663  ufpc,,                   ;"#8%"NS"
025663:  104000032630                           ;"(@ #68"
025664:  205600000020  movsi    z, .cmtad       ;"0N   0"
025665:  256200027356  xct      d, 27356        ;"5R "[N"
025666:  256200030473  xct      d, 30473        ;"5R #$["
025667:  305100000004  caige    b, t4           ;"8I   $"
025670:  254000030475  jrst     30475           ;"5@ #$]"
025671:  256200030500  xct      d, 30500        ;"5R #% "
025672:  256200030503  xct      d, 30503        ;"5R #%#"
025673:  256200030506  xct      d, 30506        ;"5R #%&"
025674:  256200030511  xct      d, 30511        ;"5R #%)"
025675:  403240000007  setzb    e, g            ;"@:@  '"
025676:  200300000013  move     f, y            ;"0#   +"
025677:  301100000005  cail     b, q1           ;"8)   %"
025700:  256200030514  xct      d, 30514        ;"5R #%,"
025701:  336000000006  skipn    f               ;";P   &"
025702:  200300000013  move     f, y            ;"0#   +"
025703:  301100000006  cail     b, q2           ;"8)   &"
025704:  256200030517  xct      d, 30517        ;"5R #%/"
025705:  301100000007  cail     b, q3           ;"8)   '"
025706:  256200030522  xct      d, 30522        ;"5R #%2"
025707:  400440000000  setz     w,              ;"@$@   "
025710:  301100000010  cail     b, .emtac       ;"8)   ("
025711:  256200030525  xct      d, 30525        ;"5R #%5"
025712:  336000000011  skipn    w               ;";P   )"
025713:  200440000006  move     w, f            ;"0$@  &"
025714:  254000025716  jrst     rcomn           ;"5@ "O."
itexti:
025715:  205600000040  movsi    z, .mref2       ;"0N   @"
rcomn:
025716:  265700021555  jsp      q, .trset       ;"6O "-M"
025717:  000011000011  w,,                      ;"  )  )"
025720:  202755000011  movem    p, p2(s)        ;"07M  )"
025721:  621000000070  tlz      z, 70           ;"R(   X"
025722:  607000004000  tlnn     z, tt%eco       ;"PX  @ "
025723:  254000030527  jrst     30527           ;"5@ #%7"
025724:  554040000010  hlrz     a, h            ;"M@@  ("
025725:  104000000112                           ;"(@  !*"
025726:  124115000004                           ;"*A-  $"
025727:  420140030534  andcm    c, 30534        ;"B!@#%<"
025730:  104000000113                           ;"(@  !+"
025731:  124115000006                           ;"*A-  &"
025732:  104000000107                           ;"(@  !'"
025733:  202115000010  movem    b, .emtac(s)    ;"01-  ("
025734:  620100170300  trz      b, 170300       ;"R! /# "
025735:  660100040100  tro      b, 40100        ;"V! $! "
025736:  332000000007  skipe    g               ;";0   '"
025737:  260740026176  pushj    p, rtsetw       ;"6'@"Q^"
025740:  603000240000  tlne     z, 240000       ;"P8 4  "
025741:  660100100000  tro      b, tt%wkf       ;"V! (  "
025742:  603000100000  tlne     z, tt%wkf       ;"P8 (  "
025743:  660100120000  tro      b, 120000       ;"V! *  "
025744:  104000000110                           ;"(@  !("
025745:  104000000303                           ;"(@  ##"
025746:  550040000002  hrrz     a, b            ;"M @  ""
025747:  540601031321  hrr      z, ttype1(a)    ;"L&!#+1"
025750:  602600777777  trne     z, dsptb        ;"P6 ___"
025751:  661600000002  tlo      z, t2           ;"V.   ""
rdtxt1:
025752:  336040000013  skipn    a, y            ;";P@  +"
025753:  254000030475  jrst     30475           ;"5@ #$]"
025754:  260740026164  pushj    p, rdcbp        ;"6'@"QT"
025755:  254000030475  jrst     30475           ;"5@ #$]"
025756:  200540000001  move     y, a            ;"0%@  !"
025757:  336040000005  skipn    a, e            ;";P@  %"
025760:  254000025764  jrst     rdtopm          ;"5@ "OT"
025761:  260740026164  pushj    p, rdcbp        ;"6'@"QT"
025762:  254000030475  jrst     30475           ;"5@ #$]"
025763:  200240000001  move     e, a            ;"0"@  !"
rdtopm:
025764:  200040000011  move     a, w            ;"0 @  )"
025765:  260740026164  pushj    p, rdcbp        ;"6'@"QT"
025766:  254000030535  jrst     30535           ;"5@ #%="
025767:  202040000011  movem    a, w            ;"00@  )"
025770:  200040000006  move     a, f            ;"0 @  &"
025771:  260740026164  pushj    p, rdcbp        ;"6'@"QT"
025772:  254000030475  jrst     30475           ;"5@ #$]"
025773:  200300000001  move     f, a            ;"0#   !"
025774:  323500026040  jumple   x, wrap0        ;":= "P@"
ninsrt:
025775:  603000002000  tlne     z, cmtf1        ;"P8  0 "
025776:  254000030537  jrst     30537           ;"5@ #%?"
025777:  260740026612  pushj    p, stp6         ;"6'@"V*"
026000:  260740026624  pushj    p, stp3         ;"6'@"V4"
026001:  260740026130  pushj    p, rdbin        ;"6'@"Q8"
026002:  200040000002  move     a, b            ;"0 @  ""
026003:  231100000011  idivi    b, p2           ;"3)   )"
026004:  135103026072  ldb      b, ccbtab(c)    ;"+I#"PZ"
026005:  231100000002  idivi    b, t2           ;"3)   ""
026006:  322140030545  jumpe    c, 30545        ;":1@#%E"
026007:  550202026103  hrrz     d, disptc(b)    ;"M"""Q#"
026010:  200100000001  move     b, a            ;"0!   !"
026011:  254004000000  jrst     (d)             ;"5@$   "
insrt:
026012:  336000000007  skipn    g               ;";P   '"
026013:  254000026023  jrst     insrt1          ;"5@ "P3"
026014:  200040000002  move     a, b            ;"0 @  ""
026015:  231100000040  idivi    b, .mref2       ;"3)   @"
026016:  200143032656  move     c, bits(c)      ;"0!C#6N"
026017:  250040000002  exch     a, b            ;"5 @  ""
026020:  270040000007  add      a, g            ;"7 @  '"
026021:  256200030550  xct      d, 30550        ;"5R #%H"
026022:  254000026035  jrst     wrap            ;"5@ "P="
insrt1:
026023:  256140030553  xct      c, 30553        ;"5Q@#%K"
026024:  367500025775  sojg     x, ninsrt       ;">] "O]"
026025:  254000026040  jrst     wrap0           ;"5@ "P@"
bnull:
026026:  603000010000  tlne     z, tt%wka       ;"P8 !  "
026027:  254000026033  jrst     wrape           ;"5@ "P;"
ding:
026030:  201100000007  movei    b, q3           ;"0)   '"
026031:  260740026150  pushj    p, rdbout       ;"6'@"QH"
026032:  254000025775  jrst     ninsrt          ;"5@ "O]"
wrape:
026033:  661000000020  tlo      z, .cmtad       ;"V(   0"
026034:  254000026040  jrst     wrap0           ;"5@ "P@"
wrap:
026035:  256140030553  xct      c, 30553        ;"5Q@#%K"
026036:  275500000001  subi     x, t1           ;"7M   !"
026037:  661000000040  tlo      z, .mref2       ;"V(   @"
wrap0:
026040:  323500026044  jumple   x, wrap1        ;":= "PD"
026041:  200200000013  move     d, y            ;"0"   +"
026042:  400100000000  setz     b,              ;"@!    "
026043:  256140030556  xct      c, 30556        ;"5Q@#%N"
wrap1:
026044:  260740026050  pushj    p, wrapx        ;"6'@"PH"
026045:  603600000040  tlne     z, .mref2       ;"P>   @"
026046:  254000021663  jrst     rskp            ;"5@ ".S"
026047:  254000032475  jrst     skmrtn          ;"5@ #4]"
wrapx:
026050:  260740026624  pushj    p, stp3         ;"6'@"V4"
026051:  607000004000  tlnn     z, tt%eco       ;"PX  @ "
026052:  254000026060  jrst     wrapx1          ;"5@ "PP"
026053:  554040000010  hlrz     a, h            ;"M@@  ("
026054:  200115000010  move     b, .emtac(s)    ;"0!-  ("
026055:  104000000110                           ;"(@  !("
026056:  120115000004                           ;"*!-  $"
026057:  104000000113                           ;"(@  !+"
wrapx1:
026060:  260740026612  pushj    p, stp6         ;"6'@"V*"
026061:  260740026600  pushj    p, stflg        ;"6'@"V "
026062:  263740000000  popj     p,              ;"6?@   "
txibad:
026063:  200755000011  move     p, p2(s)        ;"0'M  )"
026064:  200340021252  move     g, lsterr       ;"0#@"*J"
026065:  260740026050  pushj    p, wrapx        ;"6'@"PH"
026066:  200040000007  move     a, g            ;"0 @  '"
026067:  603600000040  tlne     z, .mref2       ;"P>   @"
026070:  254000021664  jrst     r               ;"5@ ".T"
026071:  254000032576  jrst     mretne          ;"5@ #5^"
ccbtab:
026072:  400402026111  setz     h, ctbl(b)      ;"@$""Q)"
026073:  340402026111  aoj      h, ctbl(b)      ;"<$""Q)"
026074:  300402026111  cai      h, ctbl(b)      ;"8$""Q)"
026075:  240402026111  ash      h, ctbl(b)      ;"4$""Q)"
026076:  200402026111  move     h, ctbl(b)      ;"0$""Q)"
026077:  140402026111  fad      h, ctbl(b)      ;",$""Q)"
026100:  100402026111                           ;"($""Q)"
026101:  040402026111  .iot     .chbsp, ctbl(b) ;"$$""Q)"
026102:  000402026111                           ;" $""Q)"
disptc:
026103:  026316026313  tops10,,                 ;""S."S+"
026104:  026310026336  zero,,                   ;""S("S>"
026105:  026317026012  punc,,                   ;""S/"P*"
026106:  026351026506  delc,,                   ;""SI"U&"
026107:  026405026450  delin,,                  ;""T%"TH"
026110:  026322026341  rdcr,,                   ;""S2"SA"
ctbl:
026111:  110421042004                           ;")$1$0$"
026112:  206402442104  movsm    h, 442104(b)    ;"0T"D1$"
026113:  350442712101  aos      w, 712101(b)    ;"=$BY1!"
026114:  050421042104                           ;"%$1$1$"
026115:  210421042104  movn     h, @42104(a)    ;"1$1$1$"
026116:  210425252525  movn     h, @252525(e)   ;"1$5555"
026117:  252525042104  aobjp    x, @42104(e)    ;"555$1$" "*U(D\""
026120:  210525252525  movn     x, @252525(e)   ;"1%5555"
026121:  252525252525  aobjp    x, @252525(e)   ;"555555"
026122:  252525252525  aobjp    x, @252525(e)   ;"555555"
026123:  250421042125  exch     h, @42125(a)    ;"5$1$15"
026124:  252525252525  aobjp    x, @252525(e)   ;"555555"
026125:  252525252525  aobjp    x, @252525(e)   ;"555555"
026126:  252525252104  aobjp    x, @252104(e)   ;"55551$" "*U*T\""
026127:  214000000000  movm     z, z            ;"1@    " "#\0\0\0\0"
rdbin:
026130:  607000004000  tlnn     z, tt%eco       ;"PX  @ "
026131:  254000030563  jrst     30563           ;"5@ #%S"
rdbin2:
026132:  554040000010  hlrz     a, h            ;"M@@  ("
026133:  104000000050                           ;"(@   H"
026134:  320700026063  jump     q, txibad       ;":' "PS"
026135:  306100000037  cain     b, .chcun       ;"8Q   ?"
026136:  201100000012  movei    b, p3           ;"0)   *"
026137:  322100030566  jumpe    b, 30566        ;":1 #%V"
rdbin1:
026140:  405100000177  andi     b, cmrdo1       ;"@I  !_"
026141:  607000000200  tlnn     z, birtst       ;"PX  " "
026142:  263740000000  popj     p,              ;"6?@   "
026143:  301100000141  cail     b, 141          ;"8)  !A"
026144:  303100000172  caile    b, 172          ;"89  !Z"
026145:  334000000000  skipa                    ;";@    " "7\0\0\0\0"
026146:  275100000040  subi     b, .mref2       ;"7I   @"
026147:  263740000000  popj     p,              ;"6?@   "
rdbout:
026150:  607000004000  tlnn     z, tt%eco       ;"PX  @ "
026151:  263740000000  popj     p,              ;"6?@   "
026152:  550040000010  hrrz     a, h            ;"M @  ("
026153:  104000000051                           ;"(@   I"
026154:  320700026063  jump     q, txibad       ;":' "PS"
026155:  263740000000  popj     p,              ;"6?@   "
rdsout:
026156:  607000004000  tlnn     z, tt%eco       ;"PX  @ "
026157:  263740000000  popj     p,              ;"6?@   "
026160:  550040000010  hrrz     a, h            ;"M @  ("
026161:  400140000000  setz     c,              ;"@!@   "
026162:  104000000053                           ;"(@   K"
026163:  263740000000  popj     p,              ;"6?@   "
rdcbp:
026164:  554100000001  hlrz     b, a            ;"MA   !"
026165:  306100777777  cain     b, dsptb        ;"8Q ___"
026166:  505040440700  hrli     a, 440700       ;"HH@D' "
026167:  135100027532  ldb      b, 27532        ;"+I "]:"
026170:  616040027533  tdnn     a, 27533        ;"QP@"];"
026171:  305100000007  caige    b, q3           ;"8I   '"
026172:  263740000000  popj     p,              ;"6?@   "
026173:  256000027534  xct      27534           ;"5P "]<"
026174:  260740032632  pushj    p, dbp          ;"6'@#6:"
026175:  254000021663  jrst     rskp            ;"5@ ".S"
rtsetw:
026176:  261740000001  push     p, a            ;"6/@  !"
026177:  205040777775  movsi    a, 777775       ;"0H@__]"
026200:  201207000001  movei    d, t1(g)        ;"0*'  !"
rtsw1:
026201:  256200030573  xct      d, 30573        ;"5R #%["
026202:  612141026215  tdne     c, rptb(a)      ;"Q1A"R-"
026203:  660100020000  tro      b, tt%wkp       ;"V! "  "
026204:  612141026220  tdne     c, ratb(a)      ;"Q1A"R0"
026205:  660100010000  tro      b, tt%wka       ;"V! !  "
026206:  350000000004  aos      d               ;"=    $"
026207:  253040026201  aobjn    a, rtsw1        ;"58@"R!"
026210:  256200030576  xct      d, 30576        ;"5R #%^"
026211:  612140030600  tdne     c, 30600        ;"Q1@#& "
026212:  660100100000  tro      b, tt%wkf       ;"V! (  "
026213:  262740000001  pop      p, a            ;"67@  !"
026214:  263740000000  popj     p,              ;"6?@   "
rptb:
026215:  777774001760  conso    774, @1760(z)   ;"__\ /P"
026216:  400000000760  setz     z, 760          ;"@   'P"
026217:  400000000740  setz     z, 740          ;"@   '@"
ratb:
026220:  000003776000  c,,                      ;"  #_P "
026221:  377777777000  sosg     p, @777000(p)   ;"?___X "
026222:  377777777000  sosg     p, @777000(p)   ;"?___X "
back:
026223:  316540000006  camn     y, f            ;"9U@  &"
026224:  263740000000  popj     p,              ;"6?@   "
026225:  200040000013  move     a, y            ;"0 @  +"
026226:  260740032632  pushj    p, dbp          ;"6'@#6:"
026227:  202040000013  movem    a, y            ;"00@  +"
026230:  260740026240  pushj    p, chkblp       ;"6'@"R@"
026231:  344500021663  aoja     x, rskp         ;"<E ".S"
rdbkin:
026232:  607000004000  tlnn     z, tt%eco       ;"PX  @ "
026233:  254000030601  jrst     30601           ;"5@ #&!"
026234:  554040000010  hlrz     a, h            ;"M@@  ("
026235:  104000000042                           ;"(@   B"
026236:  255000000000  jfcl                     ;"5H    " "+ \0\0\0"
026237:  263740000000  popj     p,              ;"6?@   "
chkblp:
026240:  550040000013  hrrz     a, y            ;"M @  +"
026241:  303051000000  caile    a, (w)          ;"88I   " "0bH\0\0"
026242:  263740000000  popj     p,              ;"6?@   "
026243:  302051000000  caie     a, (w)          ;"80I   " "0BH\0\0"
026244:  254000026250  jrst     chkbl1          ;"5@ "RH"
026245:  554040000013  hlrz     a, y            ;"M@@  +"
026246:  554100000011  hlrz     b, w            ;"MA   )"
026247:  311040000002  caml     a, b            ;"9(@  ""
chkbl1:
026250:  661000000010  tlo      z, .emtac       ;"V(   ("
026251:  263740000000  popj     p,              ;"6?@   "
fndlin:
026252:  316540000006  camn     y, f            ;"9U@  &"
026253:  263740000000  popj     p,              ;"6?@   "
026254:  265700021532  jsp      q, .stkst       ;"6O "-:"
026255:  000003000003  c,,                      ;"  #  #"
026256:  402017777776  setzm    777776(p)       ;"@0/__^"
026257:  202517777775  movem    x, 777775(p)    ;"05/__]"
026260:  202557777774  movem    y, 777774(p)    ;"05O__\"
fndln1:
026261:  200040000013  move     a, y            ;"0 @  +"
026262:  260740032632  pushj    p, dbp          ;"6'@#6:"
026263:  202040000013  movem    a, y            ;"00@  +"
026264:  271500000001  addi     x, t1           ;"7-   !"
026265:  316540000006  camn     y, f            ;"9U@  &"
026266:  254000026302  jrst     fndln2          ;"5@ "S""
026267:  256140030606  xct      c, 30606        ;"5Q@#&&"
026270:  306100000012  cain     b, p3           ;"8Q   *"
026271:  254000026302  jrst     fndln2          ;"5@ "S""
026272:  301100000040  cail     b, .mref2       ;"8)   @"
026273:  254000026261  jrst     fndln1          ;"5@ "RQ"
026274:  120155000006                           ;"*!M  &"
026275:  245142000000  rotc     c, (b)          ;"4IB   "
026276:  245142000000  rotc     c, (b)          ;"4IB   "
026277:  607140200000  tlnn     c, .eprev       ;"PY@0  "
026300:  350017777776  aos      777776(p)       ;"= /__^"
026301:  254000026261  jrst     fndln1          ;"5@ "RQ"
fndln2:
026302:  200040000013  move     a, y            ;"0 @  +"
026303:  200100000012  move     b, x            ;"0!   *"
026304:  200517777775  move     x, 777775(p)    ;"0%/__]"
026305:  200557777774  move     y, 777774(p)    ;"0%O__\"
026306:  200157777776  move     c, 777776(p)    ;"0!O__^"
026307:  254000021663  jrst     rskp            ;"5@ ".S"
zero:
026310:  332000000007  skipe    g               ;";0   '"
026311:  254000026012  jrst     insrt           ;"5@ "P*"
026312:  254000026040  jrst     wrap0           ;"5@ "P@"
breaks:
026313:  603000600000  tlne     z, 600000       ;"P8 P  "
026314:  254000026035  jrst     wrap            ;"5@ "P="
026315:  254000026012  jrst     insrt           ;"5@ "P*"
tops10:
026316:  607000200000  tlnn     z, .eprev       ;"PX 0  "
punc:
026317:  603000100000  tlne     z, tt%wkf       ;"P8 (  "
026320:  254000026035  jrst     wrap            ;"5@ "P="
026321:  254000026012  jrst     insrt           ;"5@ "P*"
rdcr:
026322:  260740026130  pushj    p, rdbin        ;"6'@"Q8"
026323:  306100000012  cain     b, p3           ;"8Q   *"
026324:  254000026330  jrst     rdcr1           ;"5@ "S8"
026325:  260740026232  pushj    p, rdbkin       ;"6'@"R:"
026326:  201100000015  movei    b, p6           ;"0)   -"
026327:  254000026316  jrst     tops10          ;"5@ "S."
rdcr1:
026330:  603000020000  tlne     z, tt%wkp       ;"P8 "  "
026331:  254000026335  jrst     rdcr2           ;"5@ "S="
026332:  201100000015  movei    b, p6           ;"0)   -"
026333:  256140030553  xct      c, 30553        ;"5Q@#%K"
026334:  363500030610  sojle    x, 30610        ;">= #&("
rdcr2:
026335:  201100000012  movei    b, p3           ;"0)   *"
eol1:
026336:  603000340000  tlne     z, 340000       ;"P8 <  "
026337:  254000026035  jrst     wrap            ;"5@ "P="
026340:  254000026012  jrst     insrt           ;"5@ "P*"
rdqt:
026341:  305500000002  caige    x, t2           ;"8M   ""
026342:  254000030610  jrst     30610           ;"5@ #&("
026343:  256140030553  xct      c, 30553        ;"5Q@#%K"
026344:  370000000012  sos      x               ;"?    *"
026345:  260740026130  pushj    p, rdbin        ;"6'@"Q8"
026346:  603000100000  tlne     z, tt%wkf       ;"P8 (  "
026347:  254000026035  jrst     wrap            ;"5@ "P="
026350:  254000026012  jrst     insrt           ;"5@ "P*"
delc:
026351:  260740026223  pushj    p, back         ;"6'@"R3"
026352:  254000026026  jrst     bnull           ;"5@ "P6"
026353:  200115000010  move     b, .emtac(s)    ;"0!-  ("
026354:  606100004000  trnn     b, tt%eco       ;"PQ  @ "
026355:  254000025775  jrst     ninsrt          ;"5@ "O]"
026356:  200200000013  move     d, y            ;"0"   +"
026357:  256140030166  xct      c, 30166        ;"5Q@#!V"
026360:  306040000012  cain     a, p3           ;"8P@  *"
026361:  254000026371  jrst     delc2           ;"5@ "SY"
026362:  603600000002  tlne     z, t2           ;"P>   ""
026363:  254000030612  jrst     30612           ;"5@ #&*"
026364:  200100000001  move     b, a            ;"0!   !"
026365:  260740026150  pushj    p, rdbout       ;"6'@"QH"
026366:  201100000134  movei    b, 134          ;"0)  !<"
026367:  260740026150  pushj    p, rdbout       ;"6'@"QH"
delc4:
026370:  254000025775  jrst     ninsrt          ;"5@ "O]"
delc2:
026371:  316540000006  camn     y, f            ;"9U@  &"
026372:  254000026400  jrst     delc1           ;"5@ "T "
026373:  256140030606  xct      c, 30606        ;"5Q@#&&"
026374:  302100000015  caie     b, p6           ;"81   -"
026375:  254000026400  jrst     delc1           ;"5@ "T "
026376:  260740026223  pushj    p, back         ;"6'@"R3"
026377:  254000026026  jrst     bnull           ;"5@ "P6"
delc1:
026400:  603600000002  tlne     z, t2           ;"P>   ""
026401:  254000030614  jrst     30614           ;"5@ #&,"
026402:  561100030616  hrroi    b, 30616        ;"N) #&."
026403:  260740026156  pushj    p, rdsout       ;"6'@"QN"
026404:  254000026370  jrst     delc4           ;"5@ "SX"
delin:
026405:  260740026414  pushj    p, delin0       ;"6'@"T,"
026406:  312540000006  came     y, f            ;"95@  &"
026407:  254000025775  jrst     ninsrt          ;"5@ "O]"
026410:  603000010000  tlne     z, tt%wka       ;"P8 !  "
026411:  254000026033  jrst     wrape           ;"5@ "P;"
026412:  260740026513  pushj    p, rtypp        ;"6'@"U+"
026413:  254000025775  jrst     ninsrt          ;"5@ "O]"
delin0:
026414:  265700021532  jsp      q, .stkst       ;"6O "-:"
026415:  000002000002  b,,                      ;"  "  ""
026416:  476017777775  setom    777775(p)       ;"GP/__]"
026417:  201050000000  movei    a, (h)          ;"0(H   " " \"@\0\0"
026420:  104000000111                           ;"(@  !)"
026421:  552117777776  hrrzm    b, 777776(p)    ;"M1/__^"
026422:  201140000000  movei    c, bwd          ;"0)@   " " &\0\0\0"
026423:  260740026252  pushj    p, fndlin       ;"6'@"RJ"
026424:  254000026441  jrst     delin1          ;"5@ "TA"
026425:  200200000002  move     d, b            ;"0"   ""
026426:  274200000003  sub      d, c            ;"7B   #"
026427:  274200000012  sub      d, x            ;"7B   *"
026430:  202217777775  movem    d, 777775(p)    ;"02/__]"
026431:  256140030620  xct      c, 30620        ;"5Q@#&0"
026432:  306140000012  cain     c, p3           ;"8Q@  *"
026433:  476017777775  setom    777775(p)       ;"GP/__]"
026434:  202040000013  movem    a, y            ;"00@  +"
026435:  202100000012  movem    b, x            ;"01   *"
026436:  260740026240  pushj    p, chkblp       ;"6'@"R@"
026437:  312540000006  came     y, f            ;"95@  &"
026440:  254000026443  jrst     delin2          ;"5@ "TC"
delin1:
026441:  603000000100  tlne     z, .priin       ;"P8  ! "
026442:  254000026447  jrst     delin3          ;"5@ "TG"
delin2:
026443:  603600000002  tlne     z, t2           ;"P>   ""
026444:  254000030622  jrst     30622           ;"5@ #&2"
026445:  561100030641  hrroi    b, 30641        ;"N) #&A"
026446:  260740026156  pushj    p, rdsout       ;"6'@"QN"
delin3:
026447:  263740000000  popj     p,              ;"6?@   "
klword:
026450:  260740026223  pushj    p, back         ;"6'@"R3"
026451:  254000026026  jrst     bnull           ;"5@ "P6"
026452:  200200000013  move     d, y            ;"0"   +"
026453:  256140027520  xct      c, 27520        ;"5Q@"]0"
026454:  306100000012  cain     b, p3           ;"8Q   *"
026455:  254000026475  jrst     bwrd3           ;"5@ "T]"
bwrd4:
026456:  200155000010  move     c, .emtac(s)    ;"0!M  ("
026457:  606140004000  trnn     c, tt%eco       ;"PQ@ @ "
026460:  254000026465  jrst     bwrd1           ;"5@ "TU"
026461:  607600000002  tlnn     z, t2           ;"P^   ""
026462:  254000026465  jrst     bwrd1           ;"5@ "TU"
026463:  256140030644  xct      c, 30644        ;"5Q@#&D"
026464:  260740026650  pushj    p, curbkw       ;"6'@"VH"
bwrd1:
026465:  260740026223  pushj    p, back         ;"6'@"R3"
026466:  254000026477  jrst     bwrd2           ;"5@ "T_"
026467:  200200000013  move     d, y            ;"0"   +"
026470:  256140027520  xct      c, 27520        ;"5Q@"]0"
026471:  231100000011  idivi    b, p2           ;"3)   )"
026472:  135103026072  ldb      b, ccbtab(c)    ;"+I#"PZ"
026473:  306100000005  cain     b, q1           ;"8Q   %"
026474:  254000026456  jrst     bwrd4           ;"5@ "TN"
bwrd3:
026475:  256000030646  xct      30646           ;"5P #&F"
026476:  275500000001  subi     x, t1           ;"7M   !"
bwrd2:
026477:  260740026240  pushj    p, chkblp       ;"6'@"R@"
026500:  201100000137  movei    b, 137          ;"0)  !?"
026501:  607600000002  tlnn     z, t2           ;"P^   ""
026502:  260740026150  pushj    p, rdbout       ;"6'@"QH"
026503:  603600000002  tlne     z, t2           ;"P>   ""
026504:  260740026721  pushj    p, clrpgq       ;"6'@"W1"
026505:  254000025775  jrst     ninsrt          ;"5@ "O]"
rtype:
026506:  200115000010  move     b, .emtac(s)    ;"0!-  ("
026507:  606100004000  trnn     b, tt%eco       ;"PQ  @ "
026510:  254000026030  jrst     ding            ;"5@ "P8"
026511:  260740026514  pushj    p, rtypes       ;"6'@"U,"
026512:  254000025775  jrst     ninsrt          ;"5@ "O]"
rtypp:
026513:  254000026550  jrst     rtyp33          ;"5@ "UH"
rtypes:
026514:  265700021532  jsp      q, .stkst       ;"6O "-:"
026515:  000002000002  b,,                      ;"  "  ""
026516:  607600000002  tlnn     z, t2           ;"P^   ""
026517:  254000030650  jrst     30650           ;"5@ #&H"
026520:  201050000000  movei    a, (h)          ;"0(H   " " \"@\0\0"
026521:  261740000003  push     p, c            ;"6/@  #"
026522:  104000000303                           ;"(@  ##"
026523:  306100000013  cain     b, p4           ;"8Q   +"
026524:  260740026640  pushj    p, curup        ;"6'@"V@"
026525:  262740000003  pop      p, c            ;"67@  #"
026526:  201100000015  movei    b, p6           ;"0)   -"
026527:  260740026150  pushj    p, rdbout       ;"6'@"QH"
026530:  256140030606  xct      c, 30606        ;"5Q@#&&"
026531:  306100000012  cain     b, p3           ;"8Q   *"
026532:  260740026640  pushj    p, curup        ;"6'@"V@"
026533:  260740027053  pushj    p, getwth       ;"6'@"XK"
026534:  322040026547  jumpe    a, rtyp0        ;":0@"UG"
026535:  202057777776  movem    a, 777776(p)    ;"00O__^"
026536:  260740027060  pushj    p, measur       ;"6'@"XP"
026537:  201040000001  movei    a, t1           ;"0(@  !"
026540:  360040000000  soj      a, z            ;"> @   "
026541:  230057777776  idiv     a, 777776(p)    ;"3 O__^"
026542:  202057777775  movem    a, 777775(p)    ;"00O__]"
rtyp20:
026543:  375017777775  sosge    777775(p)       ;"?H/__]"
026544:  254000026547  jrst     rtyp0           ;"5@ "UG"
026545:  260740026640  pushj    p, curup        ;"6'@"V@"
026546:  254000026543  jrst     rtyp20          ;"5@ "UC"
rtyp0:
026547:  260740026731  pushj    p, clrpag       ;"6'@"W9"
rtyp33:
026550:  260740026252  pushj    p, fndlin       ;"6'@"RJ"
026551:  254000030653  jrst     30653           ;"5@ #&K"
026552:  200200000001  move     d, a            ;"0"   !"
026553:  312200000006  came     d, f            ;"92   &"
026554:  254000026563  jrst     rtyp1           ;"5@ "US"
026555:  332200000005  skipe    d, e            ;";2   %"
rtyp3:
026556:  316200000006  camn     d, f            ;"9R   &"
026557:  254000026562  jrst     rtyp4           ;"5@ "UR"
026560:  256140027520  xct      c, 27520        ;"5Q@"]0"
026561:  326100030655  jumpn    b, 30655        ;":Q #&M"
rtyp4:
026562:  200200000006  move     d, f            ;"0"   &"
rtyp1:
026563:  316200000013  camn     d, y            ;"9R   +"
026564:  263740000000  popj     p,              ;"6?@   "
026565:  256140027520  xct      c, 27520        ;"5Q@"]0"
026566:  260740026150  pushj    p, rdbout       ;"6'@"QH"
026567:  254000026563  jrst     rtyp1           ;"5@ "US"
stsrc:
026570:  603600000044  tlne     z, btslft       ;"P>   D"
026571:  263740000000  popj     p,              ;"6?@   "
026572:  603600000010  tlne     z, .emtac       ;"P>   ("
026573:  256200030660  xct      d, 30660        ;"5R #&P"
026574:  256200027356  xct      d, 27356        ;"5R "[N"
026575:  603600000020  tlne     z, .cmtad       ;"P>   0"
026576:  256200030663  xct      d, 30663        ;"5R #&S"
026577:  263740000000  popj     p,              ;"6?@   "
stflg:
026600:  603600000040  tlne     z, .mref2       ;"P>   @"
026601:  263740000000  popj     p,              ;"6?@   "
026602:  603600000004  tlne     z, t4           ;"P>   $"
026603:  256200030666  xct      d, 30666        ;"5R #&V"
026604:  603600000010  tlne     z, .emtac       ;"P>   ("
026605:  256200030671  xct      d, 30671        ;"5R #&Y"
026606:  256200027356  xct      d, 27356        ;"5R "[N"
026607:  603600000020  tlne     z, .cmtad       ;"P>   0"
026610:  256200030674  xct      d, 30674        ;"5R #&\"
026611:  263740000000  popj     p,              ;"6?@   "
stp6:
026612:  603600000040  tlne     z, .mref2       ;"P>   @"
026613:  263740000000  popj     p,              ;"6?@   "
026614:  603600000004  tlne     z, t4           ;"P>   $"
026615:  256200030677  xct      d, 30677        ;"5R #&_"
026616:  603600000010  tlne     z, .emtac       ;"P>   ("
026617:  256200030155  xct      d, 30155        ;"5R #!M"
026620:  256200027356  xct      d, 27356        ;"5R "[N"
026621:  603600000020  tlne     z, .cmtad       ;"P>   0"
026622:  256200030702  xct      d, 30702        ;"5R #'""
026623:  263740000000  popj     p,              ;"6?@   "
stp3:
026624:  603600000040  tlne     z, .mref2       ;"P>   @"
026625:  263740000000  popj     p,              ;"6?@   "
026626:  603600000004  tlne     z, t4           ;"P>   $"
026627:  256200030705  xct      d, 30705        ;"5R #'%"
026630:  603600000010  tlne     z, .emtac       ;"P>   ("
026631:  256200030710  xct      d, 30710        ;"5R #'("
026632:  256200027356  xct      d, 27356        ;"5R "[N"
026633:  603600000020  tlne     z, .cmtad       ;"P>   0"
026634:  256200030713  xct      d, 30713        ;"5R #'+"
026635:  263740000000  popj     p,              ;"6?@   "
curdn:
026636:  201100000012  movei    b, p3           ;"0)   *"
026637:  254000026150  jrst     rdbout          ;"5@ "QH"
curup:
026640:  550040000010  hrrz     a, h            ;"M @  ("
026641:  104000000111                           ;"(@  !)"
026642:  603100777777  tlne     b, dsptb        ;"P9 ___"
026643:  274100030715  sub      b, 30715        ;"7A #'-"
026644:  104000000526                           ;"(@  %6"
026645:  550040000014  hrrz     a, z            ;"M @  ,"
026646:  200041000000  move     a, (a)          ;"0 A   "
026647:  254000026735  jrst     dpctl           ;"5@ "W="
curbkw:
026650:  211100000001  movni    b, t1           ;"1)   !"
026651:  254000026653  jrst     curbk0          ;"5@ "VK"
curbk:
026652:  201100000000  movei    b, bwd          ;"0)    " " $\0\0\0"
curbk0:
026653:  265700021532  jsp      q, .stkst       ;"6O "-:"
026654:  000003000003  c,,                      ;"  #  #"
026655:  402017777774  setzm    777774(p)       ;"@0/__\"
026656:  202117777775  movem    b, 777775(p)    ;"01/__]"
026657:  260740026761  pushj    p, colums       ;"6'@"WQ"
026660:  254000026514  jrst     rtypes          ;"5@ "U,"
026661:  202057777776  movem    a, 777776(p)    ;"00O__^"
026662:  260740027053  pushj    p, getwth       ;"6'@"XK"
026663:  200140000001  move     c, a            ;"0!@  !"
026664:  550040000010  hrrz     a, h            ;"M @  ("
026665:  104000000111                           ;"(@  !)"
026666:  550200000002  hrrz     d, b            ;"M"   ""
026667:  322140026672  jumpe    c, curnrm       ;":1@"VZ"
026670:  311200000003  caml     d, c            ;"9*   #"
026671:  476017777774  setom    777774(p)       ;"GP/__\"
curnrm:
026672:  274217777776  sub      d, 777776(p)    ;"7B/__^"
026673:  321200026713  jumpl    d, curspt       ;":* "W+"
026674:  306200000000  cain     d, bwd          ;"8R    " "1H\0\0\0"
026675:  254000030716  jrst     30716           ;"5@ #'."
026676:  540100000004  hrr      b, d            ;"L!   $"
026677:  104000000526                           ;"(@  %6"
026700:  332017777774  skipe    777774(p)       ;";0/__\"
026701:  370017777776  sos      777776(p)       ;"? /__^"
curbk1:
026702:  375017777776  sosge    777776(p)       ;"?H/__^"
026703:  254000026710  jrst     curbk2          ;"5@ "W("
026704:  550040000014  hrrz     a, z            ;"M @  ,"
026705:  200041000002  move     a, t2(a)        ;"0 A  ""
026706:  260740026735  pushj    p, dpctl        ;"6'@"W="
026707:  254000026702  jrst     curbk1          ;"5@ "W""
curbk2:
026710:  332017777775  skipe    777775(p)       ;";0/__]"
026711:  263740000000  popj     p,              ;"6?@   "
026712:  254000026721  jrst     clrpgq          ;"5@ "W1"
curspt:
026713:  260740026640  pushj    p, curup        ;"6'@"V@"
026714:  201100000015  movei    b, p6           ;"0)   -"
026715:  260740026150  pushj    p, rdbout       ;"6'@"QH"
026716:  260740026731  pushj    p, clrpag       ;"6'@"W9"
026717:  260740026514  pushj    p, rtypes       ;"6'@"U,"
026720:  254000026721  jrst     clrpgq          ;"5@ "W1"
clrpgq:
026721:  260740027053  pushj    p, getwth       ;"6'@"XK"
026722:  322040026731  jumpe    a, clrpag       ;":0@"W9"
026723:  200140000001  move     c, a            ;"0!@  !"
026724:  550040000010  hrrz     a, h            ;"M @  ("
026725:  104000000111                           ;"(@  !)"
026726:  303142000000  caile    c, (b)          ;"89B   "
026727:  260740026731  pushj    p, clrpag       ;"6'@"W9"
026730:  263740000000  popj     p,              ;"6?@   "
clrpag:
026731:  550040000014  hrrz     a, z            ;"M @  ,"
026732:  200041000005  move     a, q1(a)        ;"0 A  %"
026733:  260740026735  pushj    p, dpctl        ;"6'@"W="
026734:  263740000000  popj     p,              ;"6?@   "
dpctl:
026735:  607000004000  tlnn     z, tt%eco       ;"PX  @ "
026736:  263740000000  popj     p,              ;"6?@   "
026737:  265700021532  jsp      q, .stkst       ;"6O "-:"
026740:  000003000003  c,,                      ;"  #  #"
026741:  202057777776  movem    a, 777776(p)    ;"00O__^"
026742:  603040777777  tlne     a, dsptb        ;"P8@___"
026743:  201057777776  movei    a, 777776(p)    ;"0(O__^"
026744:  505040441000  hrli     a, 441000       ;"HH@D( "
026745:  202057777775  movem    a, 777775(p)    ;"00O__]"
026746:  550040000010  hrrz     a, h            ;"M @  ("
026747:  104000000107                           ;"(@  !'"
026750:  202117777774  movem    b, 777774(p)    ;"01/__\"
026751:  620100000300  trz      b, tt%dam       ;"R!  # "
026752:  104000000110                           ;"(@  !("
dpctl1:
026753:  134117777775  ildb     b, 777775(p)    ;"+A/__]"
026754:  302100000377  caie     b, .stp         ;"81  #_"
026755:  254000030724  jrst     30724           ;"5@ #'4"
026756:  200117777774  move     b, 777774(p)    ;"0!/__\"
026757:  104000000110                           ;"(@  !("
026760:  263740000000  popj     p,              ;"6?@   "
colums:
026761:  265700021532  jsp      q, .stkst       ;"6O "-:"
026762:  000001000001  a,,                      ;"  !  !"
026763:  202057777776  movem    a, 777776(p)    ;"00O__^"
026764:  301040000040  cail     a, .mref2       ;"8(@  @"
026765:  254000027010  jrst     colnc           ;"5@ "X("
026766:  260740027046  pushj    p, getcoc       ;"6'@"XF"
026767:  200117777776  move     b, 777776(p)    ;"0!/__^"
026770:  322040027006  jumpe    a, col0         ;":0@"X&"
026771:  306040000001  cain     a, t1           ;"8P@  !"
026772:  254000027022  jrst     colup           ;"5@ "X2"
026773:  306100000011  cain     b, p2           ;"8Q   )"
026774:  254000027030  jrst     coltab          ;"5@ "X8"
026775:  306040000002  cain     a, t2           ;"8P@  ""
026776:  254000027001  jrst     coldn           ;"5@ "X!"
026777:  306100000033  cain     b, .chesc       ;"8Q   ;"
027000:  254000027002  jrst     col1            ;"5@ "X""
coldn:
027001:  263740000000  popj     p,              ;"6?@   "
col1:
027002:  201040000001  movei    a, t1           ;"0(@  !"
027003:  254000021663  jrst     rskp            ;"5@ ".S"
col2:
027004:  201040000002  movei    a, t2           ;"0(@  ""
027005:  254000021663  jrst     rskp            ;"5@ ".S"
col0:
027006:  201040000000  movei    a, bwd          ;"0(@   " " \"\0\0\0"
027007:  254000021663  jrst     rskp            ;"5@ ".S"
colnc:
027010:  306040000177  cain     a, cmrdo1       ;"8P@ !_"
027011:  254000027006  jrst     col0            ;"5@ "X&"
027012:  301040000101  cail     a, .priou       ;"8(@ !!"
027013:  303040000132  caile    a, 132          ;"88@ !:"
027014:  254000027002  jrst     col1            ;"5@ "X""
027015:  550040000010  hrrz     a, h            ;"M @  ("
027016:  104000000107                           ;"(@  !'"
027017:  602100000040  trne     b, .mref2       ;"P1   @"
027020:  254000027004  jrst     col2            ;"5@ "X$"
027021:  254000027002  jrst     col1            ;"5@ "X""
colup:
027022:  200057777776  move     a, 777776(p)    ;"0 O__^"
027023:  271040000100  addi     a, .priin       ;"7(@ ! "
027024:  260740026761  pushj    p, colums       ;"6'@"WQ"
027025:  254000027001  jrst     coldn           ;"5@ "X!"
027026:  340040000000  aoj      a, z            ;"< @   "
027027:  254000021663  jrst     rskp            ;"5@ ".S"
coltab:
027030:  316300000013  camn     f, y            ;"9S   +"
027031:  254000027037  jrst     colt2           ;"5@ "X?"
027032:  256140027362  xct      c, 27362        ;"5Q@"[R"
027033:  302040000012  caie     a, p3           ;"80@  *"
027034:  254000027037  jrst     colt2           ;"5@ "X?"
027035:  201040000010  movei    a, .emtac       ;"0(@  ("
027036:  254000021663  jrst     rskp            ;"5@ ".S"
colt2:
027037:  260740027060  pushj    p, measur       ;"6'@"XP"
027040:  254000027001  jrst     coldn           ;"5@ "X!"
027041:  200100000001  move     b, a            ;"0!   !"
027042:  271040000010  addi     a, .emtac       ;"7(@  ("
027043:  620040000007  trz      a, q3           ;"R @  '"
027044:  274040000002  sub      a, b            ;"7@@  ""
027045:  254000021663  jrst     rskp            ;"5@ ".S"
getcoc:
027046:  120115000006                           ;"*!-  &"
027047:  242040000001  lsh      a, a            ;"40@  !"
027050:  246101000000  lshc     b, (a)          ;"4Q!   "
027051:  135040030726  ldb      a, 30726        ;"+H@#'6"
027052:  263740000000  popj     p,              ;"6?@   "
getwth:
027053:  201050000000  movei    a, (h)          ;"0(H   " " \"@\0\0"
027054:  201100000030  movei    b, nttyps       ;"0)   8"
027055:  104000000077                           ;"(@   _"
027056:  200040000003  move     a, c            ;"0 @  #"
027057:  263740000000  popj     p,              ;"6?@   "
measur:
027060:  402015000001  setzm    t1(s)           ;"@0-  !"
027061:  260740026252  pushj    p, fndlin       ;"6'@"RJ"
027062:  200040000006  move     a, f            ;"0 @  &"
027063:  202055000002  movem    a, t2(s)        ;"00M  ""
027064:  316040000006  camn     a, f            ;"9P@  &"
027065:  254000027077  jrst     coltr           ;"5@ "X_"
colt1:
027066:  200055000002  move     a, t2(s)        ;"0 M  ""
027067:  316040000013  camn     a, y            ;"9P@  +"
027070:  254000027075  jrst     colte           ;"5@ "X]"
027071:  256140030730  xct      c, 30730        ;"5Q@#'8"
027072:  260740027112  pushj    p, colacc       ;"6'@"Y*"
027073:  254000027001  jrst     coldn           ;"5@ "X!"
027074:  254000027066  jrst     colt1           ;"5@ "XV"
colte:
027075:  200055000001  move     a, t1(s)        ;"0 M  !"
027076:  254000021663  jrst     rskp            ;"5@ ".S"
coltr:
027077:  336040000005  skipn    a, e            ;";P@  %"
027100:  254000027066  jrst     colt1           ;"5@ "XV"
027101:  202055000003  movem    a, nibits(s)    ;"00M  #"
colr1:
027102:  200055000003  move     a, nibits(s)    ;"0 M  #"
027103:  316040000006  camn     a, f            ;"9P@  &"
027104:  254000027066  jrst     colt1           ;"5@ "XV"
027105:  256140030733  xct      c, 30733        ;"5Q@#';"
027106:  322040027066  jumpe    a, colt1        ;":0@"XV"
027107:  260740027112  pushj    p, colacc       ;"6'@"Y*"
027110:  254000027001  jrst     coldn           ;"5@ "X!"
027111:  254000027102  jrst     colr1           ;"5@ "Y""
colacc:
027112:  306040000011  cain     a, p2           ;"8P@  )"
027113:  254000027123  jrst     colti           ;"5@ "Y3"
027114:  302040000015  caie     a, p6           ;"80@  -"
027115:  306040000012  cain     a, p3           ;"8P@  *"
027116:  254000021663  jrst     rskp            ;"5@ ".S"
027117:  260740026761  pushj    p, colums       ;"6'@"WQ"
027120:  263740000000  popj     p,              ;"6?@   "
027121:  273055000001  addb     a, t1(s)        ;"78M  !"
027122:  254000021663  jrst     rskp            ;"5@ ".S"
colti:
027123:  200055000001  move     a, t1(s)        ;"0 M  !"
027124:  271040000010  addi     a, .emtac       ;"7(@  ("
027125:  620040000007  trz      a, q3           ;"R @  '"
027126:  202055000001  movem    a, t1(s)        ;"00M  !"
027127:  231040000110  idivi    a, 110          ;"3(@ !("
027130:  301100000074  cail     b, obkt         ;"8)   \"
027131:  263740000000  popj     p,              ;"6?@   "
027132:  254000021663  jrst     rskp            ;"5@ ".S"
lcomnd:
027133:  550211000000  hrrz     d, (w)          ;"M")   "
027134:  264000031453  jsr      .emtab          ;"6@ #,K"
027135:  256200027133  xct      d, lcomnd       ;"5R "Y;"
027136:  602035000002  trne     z, @t2(s)       ;"P0=  ""
027137:  602036000003  trne     z, @nibits(q)   ;"P0>  #"
027140:  602037000004  trne     z, @t4(p)       ;"P0?  $"
027141:  602040000007  trne     a, q3           ;"P0@  '"
027142:  000000000000                           ;"      "
027143:  200511000005  move     x, q1(w)        ;"0%)  %"
027144:  264000031453  jsr      .emtab          ;"6@ #,K"
027145:  256200027143  xct      d, 27143        ;"5R "YC"
027146:  200551000004  move     y, t4(w)        ;"0%I  $"
027147:  264000031453  jsr      .emtab          ;"6@ #,K"
027150:  256200027146  xct      d, 27146        ;"5R "YF"
027151:  200611000006  move     z, q2(w)        ;"0&)  &"
027152:  264000031453  jsr      .emtab          ;"6@ #,K"
027153:  256200027151  xct      d, 27151        ;"5R "YI"
027154:  510011000000  hllz     z, (w)          ;"I )   "
027155:  264000031453  jsr      .emtab          ;"6@ #,K"
027156:  256200027154  xct      d, 27154        ;"5R "YL"
027157:  550051000001  hrrz     a, t1(w)        ;"M I  !"
027160:  264000031453  jsr      .emtab          ;"6@ #,K"
027161:  256200027157  xct      d, 27157        ;"5R "YO"
027162:  760000065000  blki     600, 65000      ;"^  &H "
027163:  316551000003  camn     y, nibits(w)    ;"9UI  #"
027164:  264000031453  jsr      .emtab          ;"6@ #,K"
027165:  256200027163  xct      d, 27163        ;"5R "YS"
027166:  221101000000  imuli    b, (a)          ;"2)!   "
027167:  135040027166  ldb      a, 27166        ;"+H@"YV"
027170:  264000031453  jsr      .emtab          ;"6@ #,K"
027171:  256040027167  xct      a, 27167        ;"5P@"YW"
027172:  221100000000  imuli    b, bwd          ;"2)    " "$$\0\0\0"
027173:  430005000000  xor      z, (e)          ;"C %   "
027174:  264000031453  jsr      .emtab          ;"6@ #,K"
027175:  256200027173  xct      d, 27173        ;"5R "Y["
027176:  200041000001  move     a, t1(a)        ;"0 A  !"
027177:  264000031453  jsr      .emtab          ;"6@ #,K"
027200:  256200027176  xct      d, 27176        ;"5R "Y^"
027201:  331101000000  skipl    b, (a)          ;";)!   "
027202:  135040027201  ldb      a, 27201        ;"+H@"Z!"
027203:  264000031453  jsr      .emtab          ;"6@ #,K"
027204:  256040027202  xct      a, 27202        ;"5P@"Z""
027205:  201040601257  movei    a, comnx1       ;"0(@P*O"
027206:  265100032540  jsp      b, itrap1       ;"6I #5@"
027207:  260740023751  pushj    p, uncrlf       ;"6'@"?I"
027210:  550040000010  hrrz     a, h            ;"M @  ("
027211:  256040027203  xct      a, 27203        ;"5P@"Z#"
027212:  306040000010  cain     a, .emtac       ;"8P@  ("
027213:  254000023025  jrst     xcom0           ;"5@ "85"
027214:  607000000002  tlnn     z, t2           ;"PX   ""
027215:  606000004000  trnn     z, tt%eco       ;"PP  @ "
027216:  254000023025  jrst     xcom0           ;"5@ "85"
027217:  260740023127  pushj    p, cmrset       ;"6'@"97"
027220:  400600000000  setz     z,              ;"@&    "
027221:  260740023254  pushj    p, cmrty0       ;"6'@":L"
027222:  254000022760  jrst     xcomn0          ;"5@ "7P"
027223:  260740023576  pushj    p, rdcrlf       ;"6'@"=^"
027224:  304000000000  caia                     ;"8@    " "1\0\0\0\0"
027225:  254000023006  jrst     nline           ;"5@ "8&"
027226:  260740023737  pushj    p, cmdip        ;"6'@"??"
027227:  254000023024  jrst     xcom3           ;"5@ "84"
027230:  607000002000  tlnn     z, cmtf1        ;"PX  0 "
027231:  254000023302  jrst     cmind           ;"5@ ";""
027232:  254000023021  jrst     23021           ;"5@ "81"
027233:  134040000005  ildb     a, e            ;"+@@  %"
027234:  264000031453  jsr      .emtab          ;"6@ #,K"
027235:  256140027233  xct      c, 27233        ;"5Q@"Z;"
027236:  201040601767  movei    a, comx10       ;"0(@P/W"
027237:  265100032540  jsp      b, itrap1       ;"6I #5@"
027240:  260740023561  pushj    p, chklch       ;"6'@"=Q"
027241:  307040000000  caig     a, bwd          ;"8X@   " "1b\0\0\0"
027242:  254000027236  jrst     27236           ;"5@ "Z>"
027243:  260740023564  pushj    p, tielch       ;"6'@"=T"
027244:  602000020000  trne     z, tt%wkp       ;"P0 "  "
027245:  254000023117  jrst     xcomrf          ;"5@ "9/"
027246:  201040000033  movei    a, .chesc       ;"0(@  ;"
027247:  260740023766  pushj    p, cmdibq       ;"6'@"?V"
027250:  260740023756  pushj    p, tiecmd       ;"6'@"?N"
027251:  260740023127  pushj    p, cmrset       ;"6'@"97"
027252:  254000022760  jrst     xcomn0          ;"5@ "7P"
027253:  200045000003  move     a, nibits(e)    ;"0 E  #"
027254:  264000031453  jsr      .emtab          ;"6@ #,K"
027255:  256200027253  xct      d, 27253        ;"5R "ZK"
027256:  201040602041  movei    a, comx15       ;"0(@P0A"
027257:  265100032540  jsp      b, itrap1       ;"6I #5@"
027260:  260740023751  pushj    p, uncrlf       ;"6'@"?I"
027261:  254000022764  jrst     xcom5           ;"5@ "7T"
027262:  260740023576  pushj    p, rdcrlf       ;"6'@"=^"
027263:  254000023060  jrst     23060           ;"5@ "8P"
027264:  254000023053  jrst     cmcom           ;"5@ "8K"
027265:  260740024020  pushj    p, cmamb        ;"6'@"@0"
027266:  254000023053  jrst     cmcom           ;"5@ "8K"
027267:  500000420000  hll      z, 420000       ;"H  B  "
027270:  270611000005  add      z, q1(w)        ;"7&)  %"
027271:  264000031453  jsr      .emtab          ;"6@ #,K"
027272:  256200027270  xct      d, 27270        ;"5R "ZX"
027273:  200111000003  move     b, nibits(w)    ;"0!)  #"
027274:  264000031453  jsr      .emtab          ;"6@ #,K"
027275:  256200027273  xct      d, 27273        ;"5R "Z["
027276:  202511000005  movem    x, q1(w)        ;"05)  %"
027277:  264000031453  jsr      .emtab          ;"6@ #,K"
027300:  256200027276  xct      d, 27276        ;"5R "Z^"
027301:  202551000004  movem    y, t4(w)        ;"05I  $"
027302:  264000031453  jsr      .emtab          ;"6@ #,K"
027303:  256200027301  xct      d, 27301        ;"5R "[!"
027304:  202611000006  movem    z, q2(w)        ;"06)  &"
027305:  264000031453  jsr      .emtab          ;"6@ #,K"
027306:  256200027304  xct      d, 27304        ;"5R "[$"
027307:  202440000001  movem    w, a            ;"04@  !"
027310:  264000031453  jsr      .emtab          ;"6@ #,K"
027311:  256200027307  xct      d, 27307        ;"5R "['"
027312:  202400000003  movem    h, c            ;"04   #"
027313:  264000031453  jsr      .emtab          ;"6@ #,K"
027314:  256200027312  xct      d, 27312        ;"5R "[*"
027315:  502011000000  hllm     z, (w)          ;"H0)   " "P@H\0\0"
027316:  264000031453  jsr      .emtab          ;"6@ #,K"
027317:  256200027315  xct      d, 27315        ;"5R "[-"
027320:  502000000001  hllm     z, a            ;"H0   !"
027321:  264000031453  jsr      .emtab          ;"6@ #,K"
027322:  256200027320  xct      d, 27320        ;"5R "[0"
027323:  550041000000  hrrz     a, (a)          ;"M A   "
027324:  264000031453  jsr      .emtab          ;"6@ #,K"
027325:  256200027323  xct      d, 27323        ;"5R "[3"
027326:  554051000001  hlrz     a, t1(w)        ;"M@I  !"
027327:  264000031453  jsr      .emtab          ;"6@ #,K"
027330:  256200027326  xct      d, 27326        ;"5R "[6"
027331:  202100000002  movem    b, b            ;"01   ""
027332:  264000031453  jsr      .emtab          ;"6@ #,K"
027333:  256200027331  xct      d, 27331        ;"5R "[9"
027334:  332251000002  skipe    e, t2(w)        ;";2I  ""
027335:  264000031453  jsr      .emtab          ;"6@ #,K"
027336:  256200027334  xct      d, 27334        ;"5R "[<"
027337:  316251000003  camn     e, nibits(w)    ;"9RI  #"
027340:  264000031453  jsr      .emtab          ;"6@ #,K"
027341:  256200027337  xct      d, 27337        ;"5R "[?"
027342:  260740024031  pushj    p, cmcout       ;"6'@"@9"
027343:  254000023263  jrst     cmrty3          ;"5@ ":S"
027344:  200251000003  move     e, nibits(w)    ;"0"I  #"
027345:  264000031453  jsr      .emtab          ;"6@ #,K"
027346:  256200027344  xct      d, 27344        ;"5R "[D"
027347:  136040000005  idpb     a, e            ;"+P@  %"
027350:  264000031453  jsr      .emtab          ;"6@ #,K"
027351:  256140027347  xct      c, 27347        ;"5Q@"[G"
027352:  400040000000  setz     a,              ;"@ @   "
027353:  256140027350  xct      c, 27350        ;"5Q@"[H"
027354:  263740000000  popj     p,              ;"6?@   "
027355:  200040000001  move     a, a            ;"0 @  !"
027356:  264000031453  jsr      .emtab          ;"6@ #,K"
027357:  256200027355  xct      d, 27355        ;"5R "[M"
027360:  070000200000                           ;"'  0  "
027361:  135040000013  ldb      a, y            ;"+H@  +"
027362:  264000031453  jsr      .emtab          ;"6@ #,K"
027363:  256140027361  xct      c, 27361        ;"5Q@"[Q"
027364:  064247750344                           ;"&BG]#D" "\r\n?Pr"
027365:  677055462732  tson     a, 462732(s)    ;"WXMF7:" "oblem"
027366:  203575172320  moves    y, @172320(s)   ;"0=]/30" " with"
027367:  203235662322  moves    d, @662322(s)   ;"0:=V32" " indi"
027370:  713134372100  blko     130, @372100(z) ;"Y9<?1 " "rect "
027371:  633235462564  tsze     d, @462564(s)   ;"S:=F5T" "file:"
027372:  200000000000  move     z, z            ;"0     " " \0\0\0\0"
027373:  260740023561  pushj    p, chklch       ;"6'@"=Q"
027374:  327040023453  jumpg    a, cmratt       ;":X@"<K"
027375:  260740024020  pushj    p, cmamb        ;"6'@"@0"
027376:  254000023405  jrst     cmrat1          ;"5@ "<%"
027377:  260740023561  pushj    p, chklch       ;"6'@"=Q"
027400:  327040023423  jumpg    a, 23423        ;":X@"<3"
027401:  254000023405  jrst     cmrat1          ;"5@ "<%"
027402:  660000400000  tro      z, .fhslf       ;"V  @  "
027403:  254000023564  jrst     tielch          ;"5@ "=T"
027404:  660000400000  tro      z, .fhslf       ;"V  @  "
027405:  263740000000  popj     p,              ;"6?@   "
027406:  260740024020  pushj    p, cmamb        ;"6'@"@0"
027407:  254000023474  jrst     cmrsp1          ;"5@ "<\"
027410:  606000002000  trnn     z, cmtf1        ;"PP  0 "
027411:  254000023512  jrst     cmrs1           ;"5@ "=*"
027412:  260740023561  pushj    p, chklch       ;"6'@"=Q"
027413:  322040023474  jumpe    a, cmrsp1       ;":0@"<\"
027414:  254000023453  jrst     cmratt          ;"5@ "<K"
027415:  660000400000  tro      z, .fhslf       ;"V  @  "
027416:  254000021663  jrst     rskp            ;"5@ ".S"
027417:  200051000007  move     a, q3(w)        ;"0 I  '"
027420:  264000031453  jsr      .emtab          ;"6@ #,K"
027421:  256200027417  xct      d, 27417        ;"5R "\/"
027422:  200051000010  move     a, .emtac(w)    ;"0 I  ("
027423:  264000031453  jsr      .emtab          ;"6@ #,K"
027424:  256200027422  xct      d, 27422        ;"5R "\2"
027425:  201040601260  movei    a, comnx2       ;"0(@P*P"
027426:  265100032540  jsp      b, itrap1       ;"6I #5@"
027427:  136055000001  idpb     a, t1(s)        ;"+PM  !"
027430:  264000031453  jsr      .emtab          ;"6@ #,K"
027431:  256140027427  xct      c, 27427        ;"5Q@"\7"
027432:  136040000003  idpb     a, c            ;"+P@  #"
027433:  264000031453  jsr      .emtab          ;"6@ #,K"
027434:  256140027432  xct      c, 27432        ;"5Q@"\:"
027435:  400600000000  setz     z,              ;"@&    "
027436:  260740023620  pushj    p, cmcin1       ;"6'@">0"
027437:  254000023572  jrst     cmcin           ;"5@ "=Z"
027440:  134040000013  ildb     a, y            ;"+@@  +"
027441:  264000031453  jsr      .emtab          ;"6@ #,K"
027442:  256140027440  xct      c, 27440        ;"5Q@"\@"
027443:  400000020000  setz     z, tt%wkp       ;"@  "  "
027444:  670000027443  tdo      z, 27443        ;"W  "\C"
027445:  263740000000  popj     p,              ;"6?@   "
027446:  661000400000  tlo      z, .fhslf       ;"V( @  "
027447:  263740000000  popj     p,              ;"6?@   "
027450:  200251000002  move     e, t2(w)        ;"0"I  ""
027451:  264000031453  jsr      .emtab          ;"6@ #,K"
027452:  256200027450  xct      d, 27450        ;"5R "\H"
027453:  200311000003  move     f, nibits(w)    ;"0#)  #"
027454:  264000031453  jsr      .emtab          ;"6@ #,K"
027455:  256200027453  xct      d, 27453        ;"5R "\K"
027456:  200411000001  move     h, t1(w)        ;"0$)  !"
027457:  264000031453  jsr      .emtab          ;"6@ #,K"
027460:  256200027456  xct      d, 27456        ;"5R "\N"
027461:  264000031455  jsr      $ibp            ;"6@ #,M"
027462:  133600000013                           ;"+>   +"
027463:  554041000001  hlrz     a, t1(a)        ;"M@A  !"
027464:  264000031453  jsr      .emtab          ;"6@ #,K"
027465:  256200027463  xct      d, 27463        ;"5R "\S"
027466:  201040601413  movei    a, comnx9       ;"0(@P,+"
027467:  265100032540  jsp      b, itrap1       ;"6I #5@"
027470:  201040601261  movei    a, comnx3       ;"0(@P*Q"
027471:  265100032540  jsp      b, itrap1       ;"6I #5@"
027472:  360600000001  soj      z, a            ;">&   !"
027473:  360600000002  soj      z, b            ;">&   ""
027474:  264000031455  jsr      $ibp            ;"6@ #,M"
027475:  133040000013                           ;"+8@  +"
027476:  136040000013  idpb     a, y            ;"+P@  +"
027477:  264000031453  jsr      .emtab          ;"6@ #,K"
027500:  256140027476  xct      c, 27476        ;"5Q@"\^"
027501:  264000031455  jsr      $ibp            ;"6@ #,M"
027502:  133100000013                           ;"+9   +"
027503:  136200000002  idpb     d, b            ;"+R   ""
027504:  264000031453  jsr      .emtab          ;"6@ #,K"
027505:  256140027503  xct      c, 27503        ;"5Q@"]#"
027506:  064244020336                           ;"&BD"#>" "\r\n  o"
027507:  710000000000  blki     ptp, z          ;"Y     " "r\0\0\0\0"
027510:  200041000002  move     a, t2(a)        ;"0 A  ""
027511:  264000031453  jsr      .emtab          ;"6@ #,K"
027512:  256200027510  xct      d, 27510        ;"5R "]("
027513:  201040602044  movei    a, npxamb       ;"0(@P0D"
027514:  254000023210  jrst     xcomne          ;"5@ ":("
027515:  201040602042  movei    a, comx16       ;"0(@P0B"
027516:  265100032540  jsp      b, itrap1       ;"6I #5@"
027517:  134100000004  ildb     b, d            ;"+A   $"
027520:  264000031453  jsr      .emtab          ;"6@ #,K"
027521:  256140027517  xct      c, 27517        ;"5Q@"]/"
027522:  200046000000  move     a, (f)          ;"0 F   "
027523:  264000031453  jsr      .emtab          ;"6@ #,K"
027524:  256200027522  xct      d, 27522        ;"5R "]2"
027525:  554045000000  hlrz     a, (e)          ;"M@E   "
027526:  265100032540  jsp      b, itrap1       ;"6I #5@"
027527:  202046000000  movem    a, (f)          ;"00F   " " B0\0\0"
027530:  264000031453  jsr      .emtab          ;"6@ #,K"
027531:  256200027527  xct      d, 27527        ;"5R "]7"
027532:  300600000001  cai      z, t1           ;"8&   !"
027533:  000037000000                           ;"  ?   "
027534:  264000031455  jsr      $ibp            ;"6@ #,M"
027535:  133000000001  ibp      a               ;"+8   !"
027536:  260740024031  pushj    p, cmcout       ;"6'@"@9"
027537:  254000024112  jrst     cmini2          ;"5@ "A*"
027540:  260740024020  pushj    p, cmamb        ;"6'@"@0"
027541:  254000024150  jrst     xcmswi          ;"5@ "AH"
027542:  136040000002  idpb     a, b            ;"+P@  ""
027543:  264000031453  jsr      .emtab          ;"6@ #,K"
027544:  256140027542  xct      c, 27542        ;"5Q@"]B"
027545:  400040000000  setz     a,              ;"@ @   "
027546:  200115000001  move     b, t1(s)        ;"0!-  !"
027547:  256140027543  xct      c, 27543        ;"5Q@"]C"
027550:  200055000004  move     a, t4(s)        ;"0 M  $"
027551:  201041000001  movei    a, t1(a)        ;"0(A  !"
027552:  254000024242  jrst     cmq3            ;"5@ "BB"
027553:  260740023737  pushj    p, cmdip        ;"6'@"??"
027554:  201040602045  movei    a, npxnsw       ;"0(@P0E"
027555:  254000023210  jrst     xcomne          ;"5@ ":("
027556:  200111000007  move     b, q3(w)        ;"0!)  '"
027557:  264000031453  jsr      .emtab          ;"6@ #,K"
027560:  256200027556  xct      d, 27556        ;"5R "]N"
027561:  201040602046  movei    a, npxnom       ;"0(@P0F"
027562:  254000023210  jrst     xcomne          ;"5@ ":("
027563:  260740024020  pushj    p, cmamb        ;"6'@"@0"
027564:  254000024165  jrst     keyw0           ;"5@ "AU"
027565:  554105000000  hlrz     b, (e)          ;"MA%   "
027566:  264000031453  jsr      .emtab          ;"6@ #,K"
027567:  256200027565  xct      d, 27565        ;"5R "]U"
027570:  550245000000  hrrz     e, (e)          ;"M"E   " "Z\n(\0\0"
027571:  264000031453  jsr      .emtab          ;"6@ #,K"
027572:  256200027570  xct      d, 27570        ;"5R "]X"
027573:  264000031455  jsr      $ibp            ;"6@ #,M"
027574:  133140000002                           ;"+9@  ""
027575:  202240000002  movem    e, b            ;"02@  ""
027576:  264000031453  jsr      .emtab          ;"6@ #,K"
027577:  256200027575  xct      d, 27575        ;"5R "]]"
027600:  621000400000  tlz      z, .fhslf       ;"R( @  "
027601:  661000020000  tlo      z, tt%wkp       ;"V( "  "
027602:  606000200000  trnn     z, .eprev       ;"PP 0  "
027603:  260740023737  pushj    p, cmdip        ;"6'@"??"
027604:  254000023160  jrst     xcomxi          ;"5@ "9P"
027605:  201040602047  movei    a, npxnul       ;"0(@P0G"
027606:  254000023210  jrst     xcomne          ;"5@ ":("
027607:  661000020000  tlo      z, tt%wkp       ;"V( "  "
027610:  254000023160  jrst     xcomxi          ;"5@ "9P"
027611:  203274574756  moves    e, @574756(z)   ;"0:\OGN" " keyw"
027612:  677454420120  tson     w, 420120(z)    ;"W\LB!0" "ord ("
027613:  673364062312  tsoe     g, @62312(d)    ;"W;T&3*" "no de"
027614:  633235662710  tsze     d, @662710(s)   ;"S:=V7(" "fined"
027615:  203274574756  moves    e, @574756(z)   ;"0:\OGN" " keyw"
027616:  677454471500  tson     w, 471500(z)    ;"W\LG- " "ords "
027617:  667036461720  tlon     z, @461720(q)   ;"VX>F/0" "match"
027620:  203515064746  moves    x, 64746(s)     ;"0=-&GF" " this"
027621:  203235670352  moves    d, @670352(s)   ;"0:=W#J" " inpu"
027622:  721220000000  cono     210, @z         ;"Z*0   " "t)\0\0\0"
027623:  602000010000  trne     z, tt%wka       ;"P0 !  "
027624:  254000023237  jrst     cmrtyp          ;"5@ ":?"
027625:  561040027611  hrroi    a, 27611        ;"N(@"^)"
027626:  260740024040  pushj    p, cmsout       ;"6'@"@@"
027627:  254000023237  jrst     cmrtyp          ;"5@ ":?"
027630:  554247000000  hlrz     e, (g)          ;"MBG   " "[\n8\0\0"
027631:  264000031453  jsr      .emtab          ;"6@ #,K"
027632:  256200027630  xct      d, 27630        ;"5R "^8"
027633:  203375662500  moves    g, @662500(s)   ;"0;]V5 " " one "
027634:  677144072320  tson     c, 72320(d)     ;"WYD'30" "of th"
027635:  625014667730  tlza     z, 667730(z)    ;"RH,V_8" "e fol"
027636:  663376764734  tloe     g, @764734(q)   ;"V;^^G<" "lowin"
027637:  635641505100  tsza     s, 505100(a)    ;"SNAHI " "g:\r\n "
027640:  000000000000                           ;"      "
027641:  554106000000  hlrz     b, (f)          ;"MA&   "
027642:  264000031453  jsr      .emtab          ;"6@ #,K"
027643:  256200027641  xct      d, 27641        ;"5R "^A"
027644:  220700000002  imul     q, b            ;"2'   ""
027645:  064244000000                           ;"&BD   " "\r\n \0\0"
027646:  134100000001  ildb     b, a            ;"+A   !"
027647:  264000031453  jsr      .emtab          ;"6@ #,K"
027650:  256140027646  xct      c, 27646        ;"5Q@"^F"
027651:  203514574350  moves    x, 574350(z)    ;"0=,OCH" " text"
027652:  203476471322  moves    w, @471322(q)   ;"0<^G+2" " stri"
027653:  673160000000  tsoe     c, @z           ;"W9P   " "ng\0\0\0"
027654:  260740024001  pushj    p, dohlp        ;"6'@"@!"
027655:  561040027651  hrroi    a, 27651        ;"N(@"^I"
027656:  607000000001  tlnn     z, t1           ;"PX   !"
027657:  260740024040  pushj    p, cmsout       ;"6'@"@@"
027660:  254000023237  jrst     cmrtyp          ;"5@ ":?"
027661:  201040602043  movei    a, comx17       ;"0(@P0C"
027662:  265100032540  jsp      b, itrap1       ;"6I #5@"
027663:  134040000007  ildb     a, g            ;"+@@  '"
027664:  264000031453  jsr      .emtab          ;"6@ #,K"
027665:  256140027663  xct      c, 27663        ;"5Q@"^S"
027666:  260740023765  pushj    p, cmdib        ;"6'@"?U"
027667:  254000024440  jrst     cmnoi3          ;"5@ "D@"
027670:  260740023731  pushj    p, cmdch        ;"6'@"?9"
027671:  254000024440  jrst     cmnoi3          ;"5@ "D@"
027672:  134100000007  ildb     b, g            ;"+A   '"
027673:  264000031453  jsr      .emtab          ;"6@ #,K"
027674:  256140027672  xct      c, 27672        ;"5Q@"^Z"
027675:  260740023751  pushj    p, uncrlf       ;"6'@"?I"
027676:  254000023160  jrst     xcomxi          ;"5@ "9P"
027677:  260740023576  pushj    p, rdcrlf       ;"6'@"=^"
027700:  254000024504  jrst     24504           ;"5@ "E$"
027701:  254000024477  jrst     noicom          ;"5@ "D_"
027702:  260740024020  pushj    p, cmamb        ;"6'@"@0"
027703:  254000024477  jrst     noicom          ;"5@ "D_"
027704:  201040602051  movei    a, npxnc        ;"0(@P0I"
027705:  254000023210  jrst     xcomne          ;"5@ ":("
027706:  203075767314  moves    a, @767314(s)   ;"08]^[," " conf"
027707:  647455520356  tlcn     w, 520356(s)    ;"T\MJ#N" "irm w"
027710:  647515020306  tlcn     x, 20306(s)     ;"T]-"#&" "ith c"
027711:  607456264702  tlnn     w, 264702(q)    ;"P\N6G"" "arria"
027712:  637124071312  tszn     b, @71312(d)    ;"SY4'+*" "ge re"
027713:  723536267000  blko     234, @267000(q) ;"Z=>6X " "turn\0"
027714:  260740024001  pushj    p, dohlp        ;"6'@"@!"
027715:  561040027706  hrroi    a, 27706        ;"N(@"_&"
027716:  607000000001  tlnn     z, t1           ;"PX   !"
027717:  260740024040  pushj    p, cmsout       ;"6'@"@@"
027720:  254000023237  jrst     cmrtyp          ;"5@ ":?"
027721:  260740024020  pushj    p, cmamb        ;"6'@"@0"
027722:  254000024515  jrst     cmcfm0          ;"5@ "E-"
027723:  203356566704  moves    g, 566704(q)    ;"0;NNW$" " numb"
027724:  627440000000  tlzn     w, bwd          ;"R\@   " "er\0\0\0"
027725:  260740024001  pushj    p, dohlp        ;"6'@"@!"
027726:  561040027723  hrroi    a, 27723        ;"N(@"_3"
027727:  607000000001  tlnn     z, t1           ;"PX   !"
027730:  260740024040  pushj    p, cmsout       ;"6'@"@@"
027731:  254000023237  jrst     cmrtyp          ;"5@ ":?"
027732:  202040000001  movem    a, a            ;"00@  !"
027733:  264000031453  jsr      .emtab          ;"6@ #,K"
027734:  256200027732  xct      d, 27732        ;"5R "_:"
027735:  000000024573  nuxbrk                   ;"   "E["
027736:  202140000003  movem    c, c            ;"01@  #"
027737:  264000031453  jsr      .emtab          ;"6@ #,K"
027740:  256200027736  xct      d, 27736        ;"5R "_>"
027741:  264000031455  jsr      $ibp            ;"6@ #,M"
027742:  133000000002  ibp      b               ;"+8   ""
027743:  201040601321  movei    a, comnx8       ;"0(@P+1"
027744:  265100032540  jsp      b, itrap1       ;"6I #5@"
027745:  203024067352  moves    z, @67352(d)    ;"084&[J" " a nu"
027746:  667054571100  tlon     a, 571100(z)    ;"VXLO) " "mber "
027747:  647344061302  tlcn     g, 61302(d)     ;"T[D&+"" "in ba"
027750:  717124000000  blko     busers, @(d)    ;"YY4   " "se \0\0"
027751:  203374372302  moves    g, @372302(z)   ;"0;\?3"" " octa"
027752:  661015672732  tlo      z, 672732(s)    ;"V(-W7:" "l num"
027753:  613136200000  tsne     b, @.eprev(q)   ;"Q9>0  " "ber\0\0"
027754:  203114561722  moves    b, 561722(z)    ;"09,N/2" " deci"
027755:  667035420334  tlon     z, @420334(s)   ;"VX=B#<" "mal n"
027756:  727334262744  consz    270, @262744(z) ;"Z[<67D" "umber"
027757:  000000000000                           ;"      "
027760:  251045000002  blt      a, t2(e)        ;"5(E  ""
027761:  264000031453  jsr      .emtab          ;"6@ #,K"
027762:  256240027760  xct      e, 27760        ;"5R@"_P"
027763:  205040000002  movsi    a, t2           ;"0H@  ""
027764:  540040000005  hrr      a, e            ;"L @  %"
027765:  256240027761  xct      e, 27761        ;"5R@"_Q"
027766:  254000023156  jrst     xcomxr          ;"5@ "9N"
027767:  474100000000  seto     b,              ;"GA    "
027770:  400200000000  setz     d,              ;"@"    "
027771:  104000000222                           ;"(@  "2"
027772:  256200027332  xct      d, 27332        ;"5R "[:"
027773:  256200027737  xct      d, 27737        ;"5R "_?"
027774:  254000024655  jrst     24655           ;"5@ "FM"
027775:  420200000005  andcm    d, e            ;"B"   %"
027776:  203515166712  moves    x, 166712(s)    ;"0=-.W*" " time"
030000:  203114172312  moves    b, 172312(z)    ;"09,/3*" " date"
030001:  000000000000                           ;"      "
030002:  203114172312  moves    b, 172312(z)    ;"09,/3*" " date"
030003:  203035662100  moves    z, @662100(s)   ;"08=V1 " " and "
030004:  723235562400  cono     230, @562400(s) ;"Z:=N4 " "time\0"
030005:  000000027142                           ;"   "YB"
030006:  000000027776                           ;"   "_^"
030007:  000000030000                           ;"   #  "
030010:  000000030002                           ;"   # ""
030011:  260740023731  pushj    p, cmdch        ;"6'@"?9"
030012:  254000024713  jrst     cmdev1          ;"5@ "G+"
030013:  201040602053  movei    a, npxidt       ;"0(@P0K"
030014:  254000023210  jrst     xcomne          ;"5@ ":("
030015:  203114573322  moves    b, 573322(z)    ;"09,O;2" " devi"
030016:  617124067302  tsnn     b, @67302(d)    ;"QY4&["" "ce na"
030017:  667120000000  tlon     b, @bwd         ;"VY0   " "me\0\0\0"
030020:  201040602054  movei    a, npxnqs       ;"0(@P0L"
030021:  254000023210  jrst     xcomne          ;"5@ ":("
030022:  203436567750  moves    h, @567750(q)   ;"0<>N_H" " quot"
030023:  627104071750  tlzn     b, 71750(d)     ;"RY$'/H" "ed st"
030024:  713235663400  cono     130, @663400(s) ;"Y:=V< " "ring\0"
030025:  260740024001  pushj    p, dohlp        ;"6'@"@!"
030026:  561040030022  hrroi    a, 30022        ;"N(@# 2"
030027:  607000000001  tlnn     z, t1           ;"PX   !"
030030:  260740024040  pushj    p, cmsout       ;"6'@"@@"
030031:  254000023237  jrst     cmrtyp          ;"5@ ":?"
030032:  616101000000  tdnn     b, (a)          ;"QQ!   "
030033:  264000031453  jsr      .emtab          ;"6@ #,K"
030034:  256200030032  xct      d, 30032        ;"5R # :"
030035:  260740024001  pushj    p, dohlp        ;"6'@"@!"
030036:  254000023237  jrst     cmrtyp          ;"5@ ":?"
030037:  202355762312  movem    g, 762312(s)    ;"03M^3*" " Node"
030040:  202354166712  movem    g, 166712(z)    ;"03L.W*" " Name"
030041:  000000000000                           ;"      "
030042:  260740024001  pushj    p, dohlp        ;"6'@"@!"
030043:  561040030037  hrroi    a, 30037        ;"N(@# ?"
030044:  607000000001  tlnn     z, t1           ;"PX   !"
030045:  260740024040  pushj    p, cmsout       ;"6'@"@@"
030046:  254000023237  jrst     cmrtyp          ;"5@ ":?"
030047:  134140000003  ildb     c, c            ;"+A@  #"
030050:  264000031453  jsr      .emtab          ;"6@ #,K"
030051:  256140030047  xct      c, 30047        ;"5Q@# G"
030052:  201040602212  movei    a, comx20       ;"0(@P2*"
030053:  254000023210  jrst     xcomne          ;"5@ ":("
030054:  134140000001  ildb     c, a            ;"+A@  !"
030055:  264000031453  jsr      .emtab          ;"6@ #,K"
030056:  256140030054  xct      c, 30054        ;"5Q@# L"
030057:  137140000001  dpb      c, a            ;"+Y@  !"
030060:  264000031453  jsr      .emtab          ;"6@ #,K"
030061:  256140030057  xct      c, 30057        ;"5Q@# O"
030062:  554251000011  hlrz     e, p2(w)        ;"MBI  )"
030063:  264000031453  jsr      .emtab          ;"6@ #,K"
030064:  256200030062  xct      d, 30062        ;"5R # R"
030065:  550251000011  hrrz     e, p2(w)        ;"M"I  )"
030066:  264000031453  jsr      .emtab          ;"6@ #,K"
030067:  256200030065  xct      d, 30065        ;"5R # U"
030070:  200045000000  move     a, (e)          ;"0 E   "
030071:  264000031453  jsr      .emtab          ;"6@ #,K"
030072:  256200030070  xct      d, 30070        ;"5R # X"
030073:  440000000000  andcb    z, z            ;"D     " "H\0\0\0\0"
030074:  402002777777  setzm    dsptb(b)        ;"@0"___"
030075:  264000031453  jsr      .emtab          ;"6@ #,K"
030076:  256200030074  xct      d, 30074        ;"5R # \"
030077:  251105000010  blt      b, .emtac(e)    ;"5)%  ("
030100:  264000031453  jsr      .emtab          ;"6@ #,K"
030101:  256240030077  xct      e, 30077        ;"5R@# _"
030102:  202045000000  movem    a, (e)          ;"00E   " " B(\0\0"
030103:  264000031453  jsr      .emtab          ;"6@ #,K"
030104:  256200030102  xct      d, 30102        ;"5R #!""
030105:  202040000002  movem    a, b            ;"00@  ""
030106:  264000031453  jsr      .emtab          ;"6@ #,K"
030107:  256200030105  xct      d, 30105        ;"5R #!%"
030110:  641040000005  tlc      a, q1           ;"T(@  %"
030111:  256200027733  xct      d, 27733        ;"5R "_;"
030112:  256200027557  xct      d, 27557        ;"5R "]O"
030113:  256200027332  xct      d, 27332        ;"5R "[:"
030114:  260740033360  pushj    p, igtjfn       ;"6'@#;P"
030115:  254000023211  jrst     xcomnp          ;"5@ ":)"
030116:  256200030106  xct      d, 30106        ;"5R #!&"
030117:  254000023156  jrst     xcomxr          ;"5@ "9N"
030120:  200051000001  move     a, t1(w)        ;"0 I  !"
030121:  264000031453  jsr      .emtab          ;"6@ #,K"
030122:  256200030120  xct      d, 30120        ;"5R #!0"
030123:  202045000001  movem    a, t1(e)        ;"00E  !"
030124:  264000031453  jsr      .emtab          ;"6@ #,K"
030125:  256200030123  xct      d, 30123        ;"5R #!3"
030126:  200045000011  move     a, p2(e)        ;"0 E  )"
030127:  264000031453  jsr      .emtab          ;"6@ #,K"
030130:  256200030126  xct      d, 30126        ;"5R #!6"
030131:  660000000003  tro      z, nibits       ;"V    #"
030132:  202045000011  movem    a, p2(e)        ;"00E  )"
030133:  264000031453  jsr      .emtab          ;"6@ #,K"
030134:  256200030132  xct      d, 30132        ;"5R #!:"
030135:  202045000012  movem    a, p3(e)        ;"00E  *"
030136:  264000031453  jsr      .emtab          ;"6@ #,K"
030137:  256200030135  xct      d, 30135        ;"5R #!="
030140:  202045000013  movem    a, p4(e)        ;"00E  +"
030141:  264000031453  jsr      .emtab          ;"6@ #,K"
030142:  256200030140  xct      d, 30140        ;"5R #!@"
030143:  200051000003  move     a, nibits(w)    ;"0 I  #"
030144:  264000031453  jsr      .emtab          ;"6@ #,K"
030145:  256200030143  xct      d, 30143        ;"5R #!C"
030146:  202045000014  movem    a, p5(e)        ;"00E  ,"
030147:  264000031453  jsr      .emtab          ;"6@ #,K"
030150:  256200030146  xct      d, 30146        ;"5R #!F"
030151:  202240000001  movem    e, a            ;"02@  !"
030152:  264000031453  jsr      .emtab          ;"6@ #,K"
030153:  256200030151  xct      d, 30151        ;"5R #!I"
030154:  202540000002  movem    y, b            ;"05@  ""
030155:  264000031453  jsr      .emtab          ;"6@ #,K"
030156:  256200030154  xct      d, 30154        ;"5R #!L"
030157:  603000400000  tlne     z, .fhslf       ;"P8 @  "
030160:  260740023731  pushj    p, cmdch        ;"6'@"?9"
030161:  254000023117  jrst     xcomrf          ;"5@ "9/"
030162:  200211000007  move     d, q3(w)        ;"0")  '"
030163:  264000031453  jsr      .emtab          ;"6@ #,K"
030164:  256200030162  xct      d, 30162        ;"5R #!R"
030165:  134040000004  ildb     a, d            ;"+@@  $"
030166:  264000031453  jsr      .emtab          ;"6@ #,K"
030167:  256140030165  xct      c, 30165        ;"5Q@#!U"
030170:  375000000012  sosge    x               ;"?H   *"
030171:  254000027470  jrst     27470           ;"5@ "\X"
030172:  256140027477  xct      c, 27477        ;"5Q@"\_"
030173:  370000000014  sos      z               ;"?    ,"
030174:  260740023555  pushj    p, stolch       ;"6'@"=M"
030175:  254000025130  jrst     cmgj1           ;"5@ "I8"
030176:  203155166312  moves    c, 166312(s)    ;"09M.S*" " file"
030177:  717414561500  blki     174, 561500(z)  ;"Y\,N- " "spec "
030200:  677144064734  tson     c, 64734(d)     ;"WYD&G<" "of in"
030201:  623236262706  tlze     d, @262706(q)   ;"R:>67&" "direc"
030202:  721014664730  blki     210, 664730(z)  ;"Z(,VG8" "t fil"
030203:  624000000000  trza     z, bwd          ;"R@    " "e\0\0\0\0"
030204:  561040030176  hrroi    a, 30176        ;"N(@#!^"
030205:  254000025156  jrst     cmfh1           ;"5@ "IN"
030206:  200105000000  move     b, (e)          ;"0!%   "
030207:  264000031453  jsr      .emtab          ;"6@ #,K"
030210:  256200030206  xct      d, 30206        ;"5R #"&"
030211:  203376572340  moves    g, @572340(q)   ;"0;^O3@" " outp"
030212:  727504063322  blko     274, 63322(d)   ;"Z]$&;2" "ut fi"
030213:  663136370312  tloe     b, @370312(q)   ;"V9>?#*" "lespe"
030214:  614000000000  tdna     z, z            ;"Q@    " "c\0\0\0\0"
030215:  203235670352  moves    d, @670352(s)   ;"0:=W#J" " inpu"
030216:  721014664730  blki     210, 664730(z)  ;"Z(,VG8" "t fil"
030217:  627476062706  tlzn     w, @62706(q)    ;"R\^&7&" "espec"
030220:  000000000000                           ;"      "
030221:  134300000005  ildb     f, e            ;"+C   %"
030222:  264000031453  jsr      .emtab          ;"6@ #,K"
030223:  256140030221  xct      c, 30221        ;"5Q@#"1"
030224:  260740023564  pushj    p, tielch       ;"6'@"=T"
030225:  254000023160  jrst     xcomxi          ;"5@ "9P"
030226:  260740023555  pushj    p, stolch       ;"6'@"=M"
030227:  254000025164  jrst     cmtok1          ;"5@ "IT"
030230:  260740024020  pushj    p, cmamb        ;"6'@"@0"
030231:  254000025166  jrst     cmtok2          ;"5@ "IV"
030232:  201040000000  movei    a, bwd          ;"0(@   " " \"\0\0\0"
030233:  260740024001  pushj    p, dohlp        ;"6'@"@!"
030234:  603000000001  tlne     z, t1           ;"P8   !"
030235:  254000023237  jrst     cmrtyp          ;"5@ ":?"
030236:  561040030232  hrroi    a, 30232        ;"N(@#":"
030237:  260740024040  pushj    p, cmsout       ;"6'@"@@"
030240:  200055000004  move     a, t4(s)        ;"0 M  $"
030241:  260740024045  pushj    p, cmusou       ;"6'@"@E"
030242:  201040000042  movei    a, cmqtch       ;"0(@  B"
030243:  260740024031  pushj    p, cmcout       ;"6'@"@9"
030244:  254000023237  jrst     cmrtyp          ;"5@ ":?"
030245:  260740033406  pushj    p, ircusr       ;"6'@#<&"
030246:  320700023211  jump     q, xcomnp       ;":' ":)"
030247:  254000025221  jrst     cmdir3          ;"5@ "J1"
030250:  202140000002  movem    c, b            ;"01@  ""
030251:  264000031453  jsr      .emtab          ;"6@ #,K"
030252:  256200030250  xct      d, 30250        ;"5R #"H"
030253:  134055000001  ildb     a, t1(s)        ;"+@M  !"
030254:  264000031453  jsr      .emtab          ;"6@ #,K"
030255:  256140030253  xct      c, 30253        ;"5Q@#"K"
030256:  203536362744  moves    x, @362744(q)   ;"0=>>7D" " user"
030257:  203354166712  moves    g, 166712(z)    ;"0;L.W*" " name"
030260:  000000000000                           ;"      "
030261:  203115171312  moves    b, 171312(s)    ;"09-/+*" " dire"
030262:  617515771362  tsnn     x, 771362(s)    ;"Q]-_+R" "ctory"
030263:  203354166712  moves    g, 166712(z)    ;"0;L.W*" " name"
030264:  000000000000                           ;"      "
030265:  201040602056  movei    a, npxnmd       ;"0(@P0N"
030266:  254000023210  jrst     xcomne          ;"5@ ":("
030267:  260740024020  pushj    p, cmamb        ;"6'@"@0"
030270:  254000025301  jrst     cmchr           ;"5@ "K!"
030271:  260740024001  pushj    p, dohlp        ;"6'@"@!"
030272:  603000000001  tlne     z, t1           ;"P8   !"
030273:  254000023237  jrst     cmrtyp          ;"5@ ":?"
030274:  201040000040  movei    a, .mref2       ;"0(@  @"
030275:  260740024031  pushj    p, cmcout       ;"6'@"@9"
030276:  201040000042  movei    a, cmqtch       ;"0(@  B"
030277:  260740024031  pushj    p, cmcout       ;"6'@"@9"
030300:  550055000004  hrrz     a, t4(s)        ;"M M  $"
030301:  260740024031  pushj    p, cmcout       ;"6'@"@9"
030302:  201040000042  movei    a, cmqtch       ;"0(@  B"
030303:  260740024031  pushj    p, cmcout       ;"6'@"@9"
030304:  254000023237  jrst     cmrtyp          ;"5@ ":?"
030305:  202136464312  movem    b, @464312(q)   ;"01>FC*" " Ethe"
030306:  713354572100  conso    130, 572100(z)  ;"Y;LO1 " "rnet "
030307:  643376372100  tlce     g, @372100(q)   ;"T;^?1 " "host "
030310:  673035562400  tsoe     z, @562400(s)   ;"W8=N4 " "name\0"
030311:  200100000001  move     b, a            ;"0!   !"
030312:  264000031453  jsr      .emtab          ;"6@ #,K"
030313:  256200030311  xct      d, 30311        ;"5R ##)"
030314:  332042000000  skipe    a, (b)          ;";0B   "
030315:  264000031453  jsr      .emtab          ;"6@ #,K"
030316:  256200030314  xct      d, 30314        ;"5R ##,"
030317:  307140000172  caig     c, 172          ;"8Y@ !Z"
030320:  275140000040  subi     c, .mref2       ;"7I@  @"
030321:  254000025412  jrst     25412           ;"5@ "L*"
030322:  134200000002  ildb     d, b            ;"+B   ""
030323:  264000031453  jsr      .emtab          ;"6@ #,K"
030324:  256140030322  xct      c, 30322        ;"5Q@##2"
030325:  307200000172  caig     d, 172          ;"8Z  !Z"
030326:  275200000040  subi     d, .mref2       ;"7J   @"
030327:  254000025415  jrst     25415           ;"5@ "L-"
030330:  070000000000                           ;"'     "
030331:  205040200000  movsi    a, .eprev       ;"0H@0  "
030332:  270100030330  add      b, 30330        ;"7! ##8"
030333:  263740000000  popj     p,              ;"6?@   "
030334:  400000000000  setz     z,              ;"@     " "@\0\0\0\0"
030335:  554201000000  hlrz     d, (a)          ;"MB!   "
030336:  264000031453  jsr      .emtab          ;"6@ #,K"
030337:  256200030335  xct      d, 30335        ;"5R ##="
030340:  201040601234  movei    a, tdelx1       ;"0(@P*<"
030341:  263740000000  popj     p,              ;"6?@   "
030342:  201040601403  movei    a, tdelx2       ;"0(@P,#"
030343:  263740000000  popj     p,              ;"6?@   "
030344:  506141000000  hrlm     c, (a)          ;"HQA   "
030345:  264000031453  jsr      .emtab          ;"6@ #,K"
030346:  256200030344  xct      d, 30344        ;"5R ##D"
030347:  251104777777  blt      b, dsptb(d)     ;"5)$___"
030350:  264000031453  jsr      .emtab          ;"6@ #,K"
030351:  256240030347  xct      e, 30347        ;"5R@##G"
030352:  402004000000  setzm    (d)             ;"@0$   " "@@ \0\0"
030353:  264000031453  jsr      .emtab          ;"6@ #,K"
030354:  256200030352  xct      d, 30352        ;"5R ##J"
030355:  201040601236  movei    a, taddx2       ;"0(@P*>"
030356:  263740000000  popj     p,              ;"6?@   "
030357:  554202000000  hlrz     d, (b)          ;"MB"   "
030360:  264000031453  jsr      .emtab          ;"6@ #,K"
030361:  256200030357  xct      d, 30357        ;"5R ##O"
030362:  550142000000  hrrz     c, (b)          ;"M!B   "
030363:  264000031453  jsr      .emtab          ;"6@ #,K"
030364:  256200030362  xct      d, 30362        ;"5R ##R"
030365:  201040601235  movei    a, taddx1       ;"0(@P*="
030366:  263740000000  popj     p,              ;"6?@   "
030367:  506202000000  hrlm     d, (b)          ;"HR"   "
030370:  264000031453  jsr      .emtab          ;"6@ #,K"
030371:  256200030367  xct      d, 30367        ;"5R ##W"
030372:  202141000000  movem    c, (a)          ;"01A   "
030373:  264000031453  jsr      .emtab          ;"6@ #,K"
030374:  256200030372  xct      d, 30372        ;"5R ##Z"
030375:  200155000002  move     c, t2(s)        ;"0!M  ""
030376:  256200030373  xct      d, 30373        ;"5R ##["
030377:  254000021663  jrst     rskp            ;"5@ ".S"
030400:  200144777777  move     c, dsptb(d)     ;"0!D___"
030401:  264000031453  jsr      .emtab          ;"6@ #,K"
030402:  256200030400  xct      d, 30400        ;"5R #$ "
030403:  202144000000  movem    c, (d)          ;"01D   " " F \0\0"
030404:  264000031453  jsr      .emtab          ;"6@ #,K"
030405:  256200030403  xct      d, 30403        ;"5R #$#"
030406:  201040601010  movei    a, rdtx1        ;"0(@P(("
030407:  263740000000  popj     p,              ;"6?@   "
030410:  554541000000  hlrz     y, (a)          ;"MEA   "
030411:  264000031453  jsr      .emtab          ;"6@ #,K"
030412:  256200030410  xct      d, 30410        ;"5R #$("
030413:  554120000011  hlrz     b, @w           ;"MA0  )"
030414:  264000031453  jsr      .emtab          ;"6@ #,K"
030415:  256200030413  xct      d, 30413        ;"5R #$+"
030416:  554101777777  hlrz     b, dsptb(a)     ;"MA!___"
030417:  264000031453  jsr      .emtab          ;"6@ #,K"
030420:  256200030416  xct      d, 30416        ;"5R #$."
030421:  364400025541  soja     h, tablkf       ;">D "MA"
030422:  554101000001  hlrz     b, t1(a)        ;"MA!  !"
030423:  264000031453  jsr      .emtab          ;"6@ #,K"
030424:  256200030422  xct      d, 30422        ;"5R #$2"
030425:  201040601237  movei    a, tlukx1       ;"0(@P*?"
030426:  263740000000  popj     p,              ;"6?@   "
030427:  254000030425  jrst     30425           ;"5@ #$5"
030430:  321040025550  jumpl    a, tablkx       ;":(@"MH"
030431:  344400025550  aoja     h, tablkx       ;"<D "MH"
030432:  205040400000  movsi    a, .fhslf       ;"0H@@  "
030433:  254000025611  jrst     tablkn          ;"5@ "N)"
030434:  200000000002  move     z, b            ;"0    ""
030435:  264000031453  jsr      .emtab          ;"6@ #,K"
030436:  256200030434  xct      d, 30434        ;"5R #$<"
030437:  000100000101  .priin,,                 ;" !  !!"
030440:  550500000002  hrrz     x, b            ;"M%   ""
030441:  264000031453  jsr      .emtab          ;"6@ #,K"
030442:  256200030440  xct      d, 30440        ;"5R #$@"
030443:  200540000001  move     y, a            ;"0%@  !"
030444:  264000031453  jsr      .emtab          ;"6@ #,K"
030445:  256200030443  xct      d, 30443        ;"5R #$C"
030446:  200240000003  move     e, c            ;"0"@  #"
030447:  264000031453  jsr      .emtab          ;"6@ #,K"
030450:  256200030446  xct      d, 30446        ;"5R #$F"
030451:  200000000003  move     z, c            ;"0    #"
030452:  264000031453  jsr      .emtab          ;"6@ #,K"
030453:  256200030451  xct      d, 30451        ;"5R #$I"
030454:  200540000002  move     y, b            ;"0%@  ""
030455:  264000031453  jsr      .emtab          ;"6@ #,K"
030456:  256200030454  xct      d, 30454        ;"5R #$L"
030457:  202540000006  movem    y, f            ;"05@  &"
030460:  254000025654  jrst     rdtxt2          ;"5@ "NL"
030461:  200300000004  move     f, d            ;"0#   $"
030462:  264000031453  jsr      .emtab          ;"6@ #,K"
030463:  256200030461  xct      d, 30461        ;"5R #$Q"
030464:  200400000001  move     h, a            ;"0$   !"
030465:  264000031453  jsr      .emtab          ;"6@ #,K"
030466:  256200030464  xct      d, 30464        ;"5R #$T"
030467:  550500000003  hrrz     x, c            ;"M%   #"
030470:  264000031453  jsr      .emtab          ;"6@ #,K"
030471:  256200030467  xct      d, 30467        ;"5R #$W"
030472:  200101000000  move     b, (a)          ;"0!!   "
030473:  264000031453  jsr      .emtab          ;"6@ #,K"
030474:  256200030472  xct      d, 30472        ;"5R #$Z"
030475:  201040601010  movei    a, rdtx1        ;"0(@P(("
030476:  254000032576  jrst     mretne          ;"5@ #5^"
030477:  200001000001  move     z, t1(a)        ;"0 !  !"
030500:  264000031453  jsr      .emtab          ;"6@ #,K"
030501:  256200030477  xct      d, 30477        ;"5R #$_"
030502:  200401000002  move     h, t2(a)        ;"0$!  ""
030503:  264000031453  jsr      .emtab          ;"6@ #,K"
030504:  256200030502  xct      d, 30502        ;"5R #%""
030505:  200541000003  move     y, nibits(a)    ;"0%A  #"
030506:  264000031453  jsr      .emtab          ;"6@ #,K"
030507:  256200030505  xct      d, 30505        ;"5R #%%"
030510:  200501000004  move     x, t4(a)        ;"0%!  $"
030511:  264000031453  jsr      .emtab          ;"6@ #,K"
030512:  256200030510  xct      d, 30510        ;"5R #%("
030513:  200301000005  move     f, q1(a)        ;"0#!  %"
030514:  264000031453  jsr      .emtab          ;"6@ #,K"
030515:  256200030513  xct      d, 30513        ;"5R #%+"
030516:  200241000006  move     e, q2(a)        ;"0"A  &"
030517:  264000031453  jsr      .emtab          ;"6@ #,K"
030520:  256200030516  xct      d, 30516        ;"5R #%."
030521:  200341000007  move     g, q3(a)        ;"0#A  '"
030522:  264000031453  jsr      .emtab          ;"6@ #,K"
030523:  256200030521  xct      d, 30521        ;"5R #%1"
030524:  200441000010  move     w, .emtac(a)    ;"0$A  ("
030525:  264000031453  jsr      .emtab          ;"6@ #,K"
030526:  256200030524  xct      d, 30524        ;"5R #%4"
030527:  200040000010  move     a, h            ;"0 @  ("
030530:  260740026164  pushj    p, rdcbp        ;"6'@"QT"
030531:  254000030475  jrst     30475           ;"5@ #$]"
030532:  202040000010  movem    a, h            ;"00@  ("
030533:  254000025752  jrst     rdtxt1          ;"5@ "OJ"
030534:  607700000000  tlnn     q, bwd          ;"P_    " "a|\0\0\0"
030535:  201040025752  movei    a, rdtxt1       ;"0(@"OJ"
030536:  254000032576  jrst     mretne          ;"5@ #5^"
030537:  607000004000  tlnn     z, tt%eco       ;"PX  @ "
030540:  254000025777  jrst     25777           ;"5@ "O_"
030541:  554040000010  hlrz     a, h            ;"M@@  ("
030542:  104000000102                           ;"(@  !""
030543:  254000025777  jrst     25777           ;"5@ "O_"
030544:  254000026040  jrst     wrap0           ;"5@ "P@"
030545:  554202026103  hlrz     d, disptc(b)    ;"MB""Q#"
030546:  254000026010  jrst     26010           ;"5@ "P("
030547:  612141000000  tdne     c, (a)          ;"Q1A   "
030550:  264000031453  jsr      .emtab          ;"6@ #,K"
030551:  256200030547  xct      d, 30547        ;"5R #%G"
030552:  136100000013  idpb     b, y            ;"+Q   +"
030553:  264000031453  jsr      .emtab          ;"6@ #,K"
030554:  256140030552  xct      c, 30552        ;"5Q@#%J"
030555:  136100000004  idpb     b, d            ;"+Q   $"
030556:  264000031453  jsr      .emtab          ;"6@ #,K"
030557:  256140030555  xct      c, 30555        ;"5Q@#%M"
030560:  134100000010  ildb     b, h            ;"+A   ("
030561:  264000031453  jsr      .emtab          ;"6@ #,K"
030562:  256140030560  xct      c, 30560        ;"5Q@#%P"
030563:  256140030561  xct      c, 30561        ;"5Q@#%Q"
030564:  260740026570  pushj    p, stsrc        ;"6'@"UX"
030565:  254000026140  jrst     rdbin1          ;"5@ "Q@"
030566:  104000000024                           ;"(@   4"
030567:  607100001000  tlnn     b, cmindf       ;"PY  ( "
030570:  254000026132  jrst     rdbin2          ;"5@ "Q:"
030571:  254000026063  jrst     txibad          ;"5@ "PS"
030572:  200144000000  move     c, (d)          ;"0!D   "
030573:  264000031453  jsr      .emtab          ;"6@ #,K"
030574:  256200030572  xct      d, 30572        ;"5R #%Z"
030575:  200147000000  move     c, (g)          ;"0!G   "
030576:  264000031453  jsr      .emtab          ;"6@ #,K"
030577:  256200030575  xct      d, 30575        ;"5R #%]"
030600:  001660000020                           ;" .P  0"
030601:  200040000010  move     a, h            ;"0 @  ("
030602:  260740032632  pushj    p, dbp          ;"6'@#6:"
030603:  202040000010  movem    a, h            ;"00@  ("
030604:  263740000000  popj     p,              ;"6?@   "
030605:  135100000013  ldb      b, y            ;"+I   +"
030606:  264000031453  jsr      .emtab          ;"6@ #,K"
030607:  256140030605  xct      c, 30605        ;"5Q@#&%"
030610:  260740026232  pushj    p, rdbkin       ;"6'@"R:"
030611:  254000026040  jrst     wrap0           ;"5@ "P@"
030612:  260740026652  pushj    p, curbk        ;"6'@"VJ"
030613:  254000026370  jrst     delc4           ;"5@ "SX"
030614:  260740026640  pushj    p, curup        ;"6'@"V@"
030615:  254000026506  jrst     rtype           ;"5@ "U&"
030616:  064240000000                           ;"&B@   " "\r\n\0\0\0"
030617:  135140000013  ldb      c, y            ;"+I@  +"
030620:  264000031453  jsr      .emtab          ;"6@ #,K"
030621:  256140030617  xct      c, 30617        ;"5Q@#&/"
030622:  201050000000  movei    a, (h)          ;"0(H   " " \"@\0\0"
030623:  261740000003  push     p, c            ;"6/@  #"
030624:  104000000303                           ;"(@  ##"
030625:  306100000013  cain     b, p4           ;"8Q   +"
030626:  260740026640  pushj    p, curup        ;"6'@"V@"
030627:  262740000003  pop      p, c            ;"67@  #"
030630:  201100000015  movei    b, p6           ;"0)   -"
030631:  260740026150  pushj    p, rdbout       ;"6'@"QH"
030632:  306140000012  cain     c, p3           ;"8Q@  *"
030633:  260740026640  pushj    p, curup        ;"6'@"V@"
030634:  200057777775  move     a, 777775(p)    ;"0 O__]"
030635:  313057777776  camle    a, 777776(p)    ;"98O__^"
030636:  260740026640  pushj    p, curup        ;"6'@"V@"
030637:  260740026731  pushj    p, clrpag       ;"6'@"W9"
030640:  254000026447  jrst     delin3          ;"5@ "TG"
030641:  202613054032  movem    z, 54032(y)     ;"06+%@:" " XXX\r"
030642:  050000000000                           ;"%     " "\n\0\0\0\0"
030643:  135040000004  ldb      a, d            ;"+H@  $"
030644:  264000031453  jsr      .emtab          ;"6@ #,K"
030645:  256140030643  xct      c, 30643        ;"5Q@#&C"
030646:  264000031455  jsr      $ibp            ;"6@ #,M"
030647:  133000000013  ibp      y               ;"+8   +"
030650:  561100030616  hrroi    b, 30616        ;"N) #&."
030651:  260740026156  pushj    p, rdsout       ;"6'@"QN"
030652:  254000026550  jrst     rtyp33          ;"5@ "UH"
030653:  200040000006  move     a, f            ;"0 @  &"
030654:  254000026552  jrst     26552           ;"5@ "UJ"
030655:  260740026150  pushj    p, rdbout       ;"6'@"QH"
030656:  254000026556  jrst     rtyp3           ;"5@ "UN"
030657:  202400000001  movem    h, a            ;"04   !"
030660:  264000031453  jsr      .emtab          ;"6@ #,K"
030661:  256200030657  xct      d, 30657        ;"5R #&O"
030662:  202401000002  movem    h, t2(a)        ;"04!  ""
030663:  264000031453  jsr      .emtab          ;"6@ #,K"
030664:  256200030662  xct      d, 30662        ;"5R #&R"
030665:  502000000002  hllm     z, b            ;"H0   ""
030666:  264000031453  jsr      .emtab          ;"6@ #,K"
030667:  256200030665  xct      d, 30665        ;"5R #&U"
030670:  502000000003  hllm     z, c            ;"H0   #"
030671:  264000031453  jsr      .emtab          ;"6@ #,K"
030672:  256200030670  xct      d, 30670        ;"5R #&X"
030673:  502001000001  hllm     z, t1(a)        ;"H0!  !"
030674:  264000031453  jsr      .emtab          ;"6@ #,K"
030675:  256200030673  xct      d, 30673        ;"5R #&["
030676:  202540000001  movem    y, a            ;"05@  !"
030677:  264000031453  jsr      .emtab          ;"6@ #,K"
030700:  256200030676  xct      d, 30676        ;"5R #&^"
030701:  202541000003  movem    y, nibits(a)    ;"05A  #"
030702:  264000031453  jsr      .emtab          ;"6@ #,K"
030703:  256200030701  xct      d, 30701        ;"5R #'!"
030704:  542500000002  hrrm     x, b            ;"L5   ""
030705:  264000031453  jsr      .emtab          ;"6@ #,K"
030706:  256200030704  xct      d, 30704        ;"5R #'$"
030707:  542500000003  hrrm     x, c            ;"L5   #"
030710:  264000031453  jsr      .emtab          ;"6@ #,K"
030711:  256200030707  xct      d, 30707        ;"5R #''"
030712:  202501000004  movem    x, t4(a)        ;"05!  $"
030713:  264000031453  jsr      .emtab          ;"6@ #,K"
030714:  256200030712  xct      d, 30712        ;"5R #'*"
030715:  000001000000                           ;"  !   "
030716:  316540000006  camn     y, f            ;"9U@  &"
030717:  254000026676  jrst     26676           ;"5@ "V^"
030720:  256140030620  xct      c, 30620        ;"5Q@#&0"
030721:  306140000012  cain     c, p3           ;"8Q@  *"
030722:  254000026676  jrst     26676           ;"5@ "V^"
030723:  254000026713  jrst     curspt          ;"5@ "W+"
030724:  104000000051                           ;"(@   I"
030725:  254000026753  jrst     dpctl1          ;"5@ "WK"
030726:  420200000002  andcm    d, b            ;"B"   ""
030727:  134055000002  ildb     a, t2(s)        ;"+@M  ""
030730:  264000031453  jsr      .emtab          ;"6@ #,K"
030731:  256140030727  xct      c, 30727        ;"5Q@#'7"
030732:  134055000003  ildb     a, nibits(s)    ;"+@M  #"
030733:  264000031453  jsr      .emtab          ;"6@ #,K"
030734:  256140030732  xct      c, 30732        ;"5Q@#':"
ttype0:
031271:  000013044102  y,,                      ;"  +$A""
031272:  600013044102  trn      z, 44102(y)     ;"P +$A""
031273:  100013044102                           ;"( +$A""
031274:  116000044102                           ;")P $A""
031275:  100000044102  tt%wkf,,                 ;"(  $A""
031276:  100000050030  tt%wkf,,                 ;"(  % 8"
031277:  100000050030  tt%wkf,,                 ;"(  % 8"
031300:  700000050030  blki     apr, 50030      ;"X  % 8"
031301:  114600050030                           ;")F % 8"
031302:  112000044102                           ;")0 $A""
031303:  100400450030                           ;"($ E 8"
031304:  277700050030  subb     q, 50030        ;"7_ % 8"
031305:  100000050030  tt%wkf,,                 ;"(  % 8"
031306:  100000050030  tt%wkf,,                 ;"(  % 8"
031307:  100000050030  tt%wkf,,                 ;"(  % 8"
031310:  100000050030  tt%wkf,,                 ;"(  % 8"
031311:  100000050030  tt%wkf,,                 ;"(  % 8"
031312:  100000050030  tt%wkf,,                 ;"(  % 8"
031313:  300000050030  cai      z, 50030        ;"8  % 8"
031314:  100000050030  tt%wkf,,                 ;"(  % 8"
031315:  100000050030  tt%wkf,,                 ;"(  % 8"
031316:  100000050060  tt%wkf,,                 ;"(  % P"
031317:  100000052461  tt%wkf,,                 ;"(  %4Q"
031320:  500000074101  hll      z, 74101        ;"H  'A!"
031335:  000000031405  dmtb                     ;"   #,%"
031336:  000000000000                           ;"      "
031337:  000000031360  vt52tb                   ;"   #+P"
031340:  000000031376  c100tb                   ;"   #+^"
031341:  000000031360  vt52tb                   ;"   #+P"
031342:  000000031414  anntb                    ;"   #,,"
031343:  000000031360  vt52tb                   ;"   #+P"
031344:  000000031360  vt52tb                   ;"   #+P"
031345:  000000031360  vt52tb                   ;"   #+P"
031346:  000000031367  ansitb                   ;"   #+W"
vt05tb:
031351:  000000031423                           ;"   #,3"
031352:  000000031425                           ;"   #,5"
031353:  021774000000                           ;""/\   "
031354:  061774000000                           ;"&/\   " "\f?`\0\0"
031355:  000000031427                           ;"   #,7"
031356:  000000031431                           ;"   #,9"
031357:  000000031433                           ;"   #,;"
vt52tb:
031360:  066407770000                           ;"&T'_  " "\rP?p\0"
031361:  000000031435                           ;"   #,="
031362:  021774000000                           ;""/\   "
031363:  066417770000                           ;"&T/_  "
031364:  066443770000                           ;"&TC_  "
031365:  066453770000                           ;"&TK_  " "\rR_p\0"
031366:  066457770000                           ;"&TO_  "
ansitb:
031367:  066555017760                           ;"&UM!_P"
031370:  066555027760                           ;"&UM"_P" "\rVh/x"
031371:  066555047760                           ;"&UM$_P" "\rVhOx"
031372:  066555037760                           ;"&UM#_P" "\rVh?x"
031373:  066555107760                           ;"&UM(_P"
031374:  066555127760                           ;"&UM*_P" "\rVi/x"
031375:  066555137760                           ;"&UM+_P" "\rVi?x"
c100tb:
031376:  066357770000                           ;"&SO_  "
031377:  025774000000                           ;""O\   "
031400:  021774000000                           ;""/\   "
031401:  066367770000                           ;"&SW_  " "\rO?p\0"
031402:  066377770000                           ;"&S__  "
031403:  066027770000                           ;"&P7_  " "\rA?p\0"
031404:  000000031437                           ;"   #,?"
dmtb:
031405:  065774000000                           ;"&O\   " "\r?`\0\0"
031406:  025774000000                           ;""O\   "
031407:  021774000000                           ;""/\   "
031410:  071774000000                           ;"'/\   "
031411:  005774000000                           ;" O\   "
031412:  057774000000                           ;"%_\   "
031413:  057774000000                           ;"%_\   "
anntb:
031414:  035774000000                           ;"#O\   "
031415:  025774000000                           ;""O\   "
031416:  021774000000                           ;""/\   "
031417:  077774000000                           ;"'_\   "
031420:  027774000000                           ;""_\   "
031421:  776000000000  blki     760, z          ;"_P    "
031422:  776000000000  blki     760, z          ;"_P    "
031423:  064000000000                           ;"&@    " "\r\0\0\0\0"
031424:  001774000000                           ;" /\   "
031425:  026000000000                           ;""P    "
031426:  001774000000                           ;" /\   "
031427:  072000000000                           ;"'0    "
031430:  001774000000                           ;" /\   "
031431:  076000000000                           ;"'P    "
031432:  001774000000                           ;" /\   "
031433:  074000000000                           ;"'@    "
031434:  001774000000                           ;" /\   "
031435:  024000000000                           ;""@    "
031436:  001774000000                           ;" /\   "
031437:  066124000000                           ;"&Q4   " "\rE \0\0"
031440:  000000000000                           ;"      "
031441:  000003770000  c,,                      ;"  #_  "
exinit:
031442:  261740000001  push     p, a            ;"6/@  !"
031443:  200040033215  move     a, 33215        ;"0 @#:-"
031444:  202040032343  movem    a, .emstk       ;"00@#3C"
031445:  200040033216  move     a, 33216        ;"0 @#:."
031446:  202040033007  movem    a, mpp          ;"00@#8'"
031447:  336000021240  skipn    ertrap          ;";P "*@"
031450:  264000021316  jsr      erinit          ;"6@ "+."
031451:  262740000001  pop      p, a            ;"67@  !"
031452:  263740000000  popj     p,              ;"6?@   "
.emtab:
031453:  000000000000                           ;"      "
031454:  254000031461  jrst     $$pxct          ;"5@ #,Q"
$ibp:
031455:  000000000000                           ;"      "
031456:  254000032075  jrst     $$adjb          ;"5@ #0]"
$adjsp:
031457:  000000000000                           ;"      "
031460:  254000032225  jrst     $$adjs          ;"5@ #25"
$$pxct:
031461:  264000032250  jsr      .svacs          ;"6@ #2H"
031462:  201040031453  movei    a, .emtab       ;"0(@#,K"
031463:  260740031701  pushj    p, $$inia       ;"6'@#/!"
031464:  260740031765  pushj    p, madjac       ;"6'@#/U"
031465:  250040032315  exch     a, .emiad       ;"5 @#3-"
031466:  554001000000  hlrz     z, (a)          ;"M@!   "
031467:  405000000740  andi     z, 740          ;"@H  '@"
031470:  201040032321  movei    a, .emxct       ;"0(@#31"
031471:  202040032317  movem    a, .emadr       ;"00@#3/"
031472:  260740031712  pushj    p, $ckseq       ;"6'@#/*"
031473:  254000031500  jrst     $$pxc0          ;"5@ #- "
031474:  200101777777  move     b, dsptb(a)     ;"0!!___"
031475:  202100032320  movem    b, .emjsr       ;"01 #30"
031476:  201100032320  movei    b, .emjsr       ;"0) #30"
031477:  202100032317  movem    b, .emadr       ;"01 #3/"
$$pxc0:
031500:  606000000740  trnn     z, 740          ;"PP  '@"
031501:  260740032025  pushj    p, .bdpx        ;"6'@#05"
031502:  621000200000  tlz      z, .eprev       ;"R( 0  "
031503:  602000000400  trne     z, .efad1       ;"P0  $ "
031504:  661000200000  tlo      z, .eprev       ;"V( 0  "
031505:  200040032315  move     a, .emiad       ;"0 @#3-"
031506:  260740031743  pushj    p, effadr       ;"6'@#/C"
031507:  500060032315  hll      a, @.emiad      ;"H P#3-"
031510:  621040000037  tlz      a, .chcun       ;"R(@  ?"
031511:  202040032321  movem    a, .emxct       ;"00@#31"
031512:  260740031774  pushj    p, chkopc       ;"6'@#/\"
031513:  254021031514  jrst     @prinst(a)      ;"5@1#-,"
prinst:
031514:  000000031536  .sgref                   ;"   #->"
031515:  000000031544  .dbref                   ;"   #-D"
031516:  000000031557  .immed                   ;"   #-O"
031517:  000000031630  .blt                     ;"   #.8"
031520:  000000031667  .stak                    ;"   #.W"
031521:  000000031562  .byte                    ;"   #-R"
031522:  000000032023  .uimp                    ;"   #03"
031523:  000000032014  .ilgl                    ;"   #0,"
.doit:
031524:  261740032314  push     p, .emcad       ;"6/@#3,"
031525:  264000032256  jsr      .rtacs          ;"6@ #2N"
031526:  256020032317  xct      @.emadr         ;"5P0#3/"
031527:  254000031532  jrst     .doit0          ;"5@ #-:"
031530:  250740032343  exch     p, .emstk       ;"5'@#3C"
031531:  354017000000  aosa     (p)             ;"=@/   "
.doit0:
031532:  250740032343  exch     p, .emstk       ;"5'@#3C"
031533:  262740032314  pop      p, .emcad       ;"67@#3,"
031534:  250740032343  exch     p, .emstk       ;"5'@#3C"
031535:  254020032314  jrst     @.emcad         ;"5@0#3,"
.sgref:
031536:  260740032007  pushj    p, .ckrf1       ;"6'@#0'"
031537:  602000000140  trne     z, ournam       ;"P0  !@"
031540:  260740032025  pushj    p, .bdpx        ;"6'@#05"
.sgrf0:
031541:  602000000200  trne     z, birtst       ;"P0  " "
031542:  260740032003  pushj    p, fxuref       ;"6'@#0#"
031543:  254000031524  jrst     .doit           ;"5@ #-4"
.dbref:
031544:  260740032007  pushj    p, .ckrf1       ;"6'@#0'"
031545:  602000000140  trne     z, ournam       ;"P0  !@"
031546:  260740032025  pushj    p, .bdpx        ;"6'@#05"
031547:  606000000200  trnn     z, birtst       ;"PP  " "
031550:  254000031524  jrst     .doit           ;"5@ #-4"
031551:  550040032321  hrrz     a, .emxct       ;"M @#31"
031552:  302040000017  caie     a, ch15         ;"80@  /"
031553:  306040777777  cain     a, dsptb        ;"8P@___"
031554:  254000032023  jrst     .uimp           ;"5@ #03"
031555:  260740032003  pushj    p, fxuref       ;"6'@#0#"
031556:  254000031524  jrst     .doit           ;"5@ #-4"
.immed:
031557:  602000000340  trne     z, 340          ;"P0  #@"
031560:  260740032025  pushj    p, .bdpx        ;"6'@#05"
031561:  254000031524  jrst     .doit           ;"5@ #-4"
.byte:
031562:  260740032007  pushj    p, .ckrf1       ;"6'@#0'"
031563:  602000000600  trne     z, 600          ;"P0  & "
031564:  254000033217  jrst     33217           ;"5@ #:/"
031565:  621000200000  tlz      z, .eprev       ;"R( 0  "
031566:  602000000100  trne     z, .priin       ;"P0  ! "
031567:  254000033223  jrst     33223           ;"5@ #:3"
031570:  602000000200  trne     z, birtst       ;"P0  " "
031571:  260740032003  pushj    p, fxuref       ;"6'@#0#"
031572:  554100032321  hlrz     b, .emxct       ;"MA #31"
031573:  405100777000  andi     b, 777000       ;"@I _X "
031574:  306100133000  cain     b, 133000       ;"8Q +8 "
031575:  254000031524  jrst     .doit           ;"5@ #-4"
031576:  550040032321  hrrz     a, .emxct       ;"M @#31"
031577:  260740031765  pushj    p, madjac       ;"6'@#/U"
031600:  302100135000  caie     b, 135000       ;"81 +H "
031601:  306100137000  cain     b, 137000       ;"8Q +X "
031602:  334000000000  skipa                    ;";@    " "7\0\0\0\0"
031603:  133001000000  ibp      (a)             ;"+8!   "
031604:  200041000000  move     a, (a)          ;"0 A   "
031605:  202040032322  movem    a, .embyt       ;"00@#32"
031606:  201040032322  movei    a, .embyt       ;"0(@#32"
031607:  260740031743  pushj    p, effadr       ;"6'@#/C"
031610:  602000000040  trne     z, .mref2       ;"P0   @"
031611:  260740031771  pushj    p, uadjac       ;"6'@#/Y"
031612:  542040032322  hrrm     a, .embyt       ;"L0@#32"
031613:  205100000037  movsi    b, .chcun       ;"0I   ?"
031614:  412100032322  andcam   b, .embyt       ;"A1 #32"
031615:  554100032321  hlrz     b, .emxct       ;"MA #31"
031616:  405100777000  andi     b, 777000       ;"@I _X "
031617:  505040137000  hrli     a, 137000       ;"HH@+X "
031620:  305100136000  caige    b, 136000       ;"8I +P "
031621:  505040135000  hrli     a, 135000       ;"HH@+H "
031622:  510100032321  hllz     b, .emxct       ;"I! #31"
031623:  621100777037  tlz      b, 777037       ;"R) _X?"
031624:  434040000002  ior      a, b            ;"C@@  ""
031625:  541040032322  hrri     a, .embyt       ;"L(@#32"
031626:  202040032321  movem    a, .emxct       ;"00@#31"
031627:  254000031524  jrst     .doit           ;"5@ #-4"
.blt:
031630:  260740032007  pushj    p, .ckrf1       ;"6'@#0'"
031631:  602000000100  trne     z, .priin       ;"P0  ! "
031632:  260740032025  pushj    p, .bdpx        ;"6'@#05"
031633:  135040033227  ldb      a, 33227        ;"+H@#:7"
031634:  260740031765  pushj    p, madjac       ;"6'@#/U"
031635:  550101000000  hrrz     b, (a)          ;"M!!   "
031636:  550140032321  hrrz     c, .emxct       ;"M!@#31"
031637:  303100000017  caile    b, ch15         ;"89   /"
031640:  254000031652  jrst     .blt0           ;"5@ #.J"
031641:  303140000017  caile    c, ch15         ;"89@  /"
031642:  254000032023  jrst     .uimp           ;"5@ #03"
031643:  606000000200  trnn     z, birtst       ;"PP  " "
031644:  254000031652  jrst     .blt0           ;"5@ #.J"
031645:  261740000003  push     p, c            ;"6/@  #"
031646:  201140033175  movei    c, usracs       ;"0)@#9]"
031647:  272141000000  addm     c, (a)          ;"71A   "
031650:  272140032321  addm     c, .emxct       ;"71@#31"
031651:  262740000003  pop      p, c            ;"67@  #"
.blt0:
031652:  274140000002  sub      c, b            ;"7A@  ""
031653:  554101000000  hlrz     b, (a)          ;"MA!   "
031654:  270140000002  add      c, b            ;"7!@  ""
031655:  201143000000  movei    c, (c)          ;"0)C   "
031656:  303100000017  caile    b, ch15         ;"89   /"
031657:  254000031524  jrst     .doit           ;"5@ #-4"
031660:  303140000017  caile    c, ch15         ;"89@  /"
031661:  254000032023  jrst     .uimp           ;"5@ #03"
031662:  606000000040  trnn     z, .mref2       ;"PP   @"
031663:  254000031524  jrst     .doit           ;"5@ #-4"
031664:  205140033175  movsi    c, usracs       ;"0I@#9]"
031665:  272141000000  addm     c, (a)          ;"71A   "
031666:  254000031524  jrst     .doit           ;"5@ #-4"
.stak:
031667:  260740032007  pushj    p, .ckrf1       ;"6'@#0'"
031670:  606000000040  trnn     z, .mref2       ;"PP   @"
031671:  254000031541  jrst     .sgrf0          ;"5@ #-A"
031672:  135040033227  ldb      a, 33227        ;"+H@#:7"
031673:  260740031765  pushj    p, madjac       ;"6'@#/U"
031674:  550041000000  hrrz     a, (a)          ;"M A   "
031675:  302040777777  caie     a, dsptb        ;"80@___"
031676:  307040000017  caig     a, ch15         ;"8X@  /"
031677:  254000032023  jrst     .uimp           ;"5@ #03"
031700:  254000031541  jrst     .sgrf0          ;"5@ #-A"
$$inia:
031701:  550041000000  hrrz     a, (a)          ;"M A   "
031702:  202040032314  movem    a, .emcad       ;"00@#3,"
031703:  275040000001  subi     a, t1           ;"7H@  !"
031704:  202040032315  movem    a, .emiad       ;"00@#3-"
031705:  260740031712  pushj    p, $ckseq       ;"6'@#/*"
031706:  254000032042  jrst     .ilcsq          ;"5@ #0B"
031707:  400000000000  setz     z,              ;"@     " "@\0\0\0\0"
031710:  260740031743  pushj    p, effadr       ;"6'@#/C"
031711:  263740000000  popj     p,              ;"6?@   "
$ckseq:
031712:  550040032315  hrrz     a, .emiad       ;"M @#3-"
031713:  554101000000  hlrz     b, (a)          ;"MA!   "
031714:  405100777000  andi     b, 777000       ;"@I _X "
031715:  302100256000  caie     b, 256000       ;"81 5P "
031716:  263740000000  popj     p,              ;"6?@   "
031717:  261740000000  push     p, z            ;"6/@   " ",>\0\0\0"
031720:  400000000000  setz     z,              ;"@     " "@\0\0\0\0"
031721:  260740031743  pushj    p, effadr       ;"6'@#/C"
031722:  260740031765  pushj    p, madjac       ;"6'@#/U"
031723:  261740000001  push     p, a            ;"6/@  !"
031724:  554101000000  hlrz     b, (a)          ;"MA!   "
031725:  405100777000  andi     b, 777000       ;"@I _X "
031726:  302100264000  caie     b, 264000       ;"81 6@ "
031727:  254000031740  jrst     $cksq0          ;"5@ #/@"
031730:  260740031743  pushj    p, effadr       ;"6'@#/C"
031731:  301040031453  cail     a, .emtab       ;"8(@#,K"
031732:  301040031461  cail     a, $$pxct       ;"8(@#,Q"
031733:  254000031740  jrst     $cksq0          ;"5@ #/@"
031734:  262740000001  pop      p, a            ;"67@  !"
031735:  271040000001  addi     a, t1           ;"7(@  !"
031736:  202040032315  movem    a, .emiad       ;"00@#3-"
031737:  354017777777  aosa     dsptb(p)        ;"=@/___"
$cksq0:
031740:  274740033230  sub      p, 33230        ;"7G@#:8"
031741:  262740000000  pop      p, z            ;"67@   " ",^\0\0\0"
031742:  263740000000  popj     p,              ;"6?@   "
effadr:
031743:  260740031765  pushj    p, madjac       ;"6'@#/U"
031744:  334000000000  skipa                    ;";@    " "7\0\0\0\0"
effad0:
031745:  260740031763  pushj    p, adjac        ;"6'@#/S"
031746:  570101000000  hrre     b, (a)          ;"O!!   "
031747:  554041000000  hlrz     a, (a)          ;"M@A   "
031750:  405040000037  andi     a, .chcun       ;"@H@  ?"
031751:  622040000020  trze     a, .cmtad       ;"R0@  0"
031752:  665000400000  tloa     z, .fhslf       ;"VH @  "
031753:  621000400000  tlz      z, .fhslf       ;"R( @  "
031754:  322040031757  jumpe    a, effad1       ;":0@#/O"
031755:  260740031763  pushj    p, adjac        ;"6'@#/S"
031756:  270101000000  add      b, (a)          ;"7!!   "
effad1:
031757:  200040000002  move     a, b            ;"0 @  ""
031760:  603000400000  tlne     z, .fhslf       ;"P8 @  "
031761:  254000031745  jrst     effad0          ;"5@ #/E"
031762:  263740000000  popj     p,              ;"6?@   "
adjac:
031763:  603000200000  tlne     z, .eprev       ;"P8 0  "
031764:  254000031771  jrst     uadjac          ;"5@ #/Y"
madjac:
031765:  302040000017  caie     a, ch15         ;"80@  /"
031766:  307040000010  caig     a, .emtac       ;"8X@  ("
031767:  271040032323  addi     a, .emacs       ;"7(@#33"
031770:  263740000000  popj     p,              ;"6?@   "
uadjac:
031771:  307040000017  caig     a, ch15         ;"8X@  /"
031772:  271040033175  addi     a, usracs       ;"7(@#9]"
031773:  263740000000  popj     p,              ;"6?@   "
chkopc:
031774:  557000000001  hlrzs    z, a            ;"MX   !"
031775:  301040700000  cail     a, 700000       ;"8(@X  "
031776:  254000033231  jrst     33231           ;"5@ #:9"
031777:  242040777767  lsh      a, 777767       ;"40@__W"
032000:  231040000014  idivi    a, p5           ;"3(@  ,"
032001:  135042032370  ldb      a, intpbp(b)    ;"+HB#3X"
032002:  263740000000  popj     p,              ;"6?@   "
fxuref:
032003:  550040032321  hrrz     a, .emxct       ;"M @#31"
032004:  260740031771  pushj    p, uadjac       ;"6'@#/Y"
032005:  542040032321  hrrm     a, .emxct       ;"L0@#31"
032006:  263740000000  popj     p,              ;"6?@   "
.ckrf1:
032007:  602000000400  trne     z, .efad1       ;"P0  $ "
032010:  602000000200  trne     z, birtst       ;"P0  " "
032011:  263740000000  popj     p,              ;"6?@   "
032012:  260740032025  pushj    p, .bdpx        ;"6'@#05"
032013:  263740000000  popj     p,              ;"6?@   "
.ilgl:
032014:  561040033235  hrroi    a, 33235        ;"N(@#:="
.ilgl0:
032015:  104000000076                           ;"(@   ^"
032016:  200060032315  move     a, @.emiad      ;"0 P#3-"
032017:  260740032264  pushj    p, pntipc       ;"6'@#2T"
.ilgl2:
032020:  264000032256  jsr      .rtacs          ;"6@ #2N"
032021:  104000000170                           ;"(@  !X"
032022:  254000032021  jrst     32021           ;"5@ #01"
.uimp:
032023:  561040033244  hrroi    a, 33244        ;"N(@#:D"
032024:  254000032015  jrst     .ilgl0          ;"5@ #0-"
.bdpx:
032025:  261740000001  push     p, a            ;"6/@  !"
032026:  261740000002  push     p, b            ;"6/@  ""
032027:  261740000003  push     p, c            ;"6/@  #"
032030:  561040033256  hrroi    a, 33256        ;"N(@#:N"
032031:  104000000076                           ;"(@   ^"
032032:  200040032314  move     a, .emcad       ;"0 @#3,"
032033:  200041777777  move     a, dsptb(a)     ;"0 A___"
032034:  260740032264  pushj    p, pntipc       ;"6'@#2T"
032035:  262740000003  pop      p, c            ;"67@  #"
032036:  262740000002  pop      p, b            ;"67@  ""
032037:  262740000001  pop      p, a            ;"67@  !"
032040:  104000000170                           ;"(@  !X"
032041:  263740000000  popj     p,              ;"6?@   "
.ilcsq:
032042:  561040033266  hrroi    a, 33266        ;"N(@#:V"
032043:  104000000076                           ;"(@   ^"
032044:  260740032271  pushj    p, pntpc        ;"6'@#2Y"
032045:  260740032266  pushj    p, .crlf        ;"6'@#2V"
032046:  104000000170                           ;"(@  !X"
032047:  254000032046  jrst     32046           ;"5@ #0F"
$bchk:
032050:  000000000000                           ;"      "
032051:  264000032250  jsr      .svacs          ;"6@ #2H"
032052:  561040033274  hrroi    a, 33274        ;"N(@#:\"
032053:  550100032050  hrrz     b, $bchk        ;"M! #0H"
032054:  254000032061  jrst     $bhndl          ;"5@ #0Q"
$bhlt:
032055:  000000000000                           ;"      "
032056:  264000032250  jsr      .svacs          ;"6@ #2H"
032057:  561040033277  hrroi    a, 33277        ;"N(@#:_"
032060:  550100032055  hrrz     b, $bhlt        ;"M! #0M"
$bhndl:
032061:  202100032314  movem    b, .emcad       ;"01 #3,"
032062:  550102777777  hrrz     b, dsptb(b)     ;"M!"___"
032063:  560102000001  hrro     b, t1(b)        ;"N!"  !"
032064:  202100032315  movem    b, .emiad       ;"01 #3-"
032065:  104000000076                           ;"(@   ^"
032066:  260740032271  pushj    p, pntpc        ;"6'@#2Y"
032067:  561040033302  hrroi    a, 33302        ;"N(@#;""
032070:  104000000076                           ;"(@   ^"
032071:  200040032315  move     a, .emiad       ;"0 @#3-"
032072:  104000000076                           ;"(@   ^"
032073:  260740032266  pushj    p, .crlf        ;"6'@#2V"
032074:  254000032020  jrst     .ilgl2          ;"5@ #00"
$$adjb:
032075:  264000032250  jsr      .svacs          ;"6@ #2H"
032076:  201040031455  movei    a, $ibp         ;"0(@#,M"
032077:  260740031701  pushj    p, $$inia       ;"6'@#/!"
032100:  260740031765  pushj    p, madjac       ;"6'@#/U"
032101:  550100000001  hrrz     b, a            ;"M!   !"
032102:  135040033304  ldb      a, 33304        ;"+H@#;$"
032103:  322040033305  jumpe    a, 33305        ;":0@#;%"
032104:  260740031765  pushj    p, madjac       ;"6'@#/U"
032105:  200102000000  move     b, (b)          ;"0!"   "
032106:  135140033307  ldb      c, 33307        ;"+I@#;'"
032107:  135200033310  ldb      d, 33310        ;"+J #;("
032110:  322140032160  jumpe    c, $$bpst       ;":1@#1P"
032111:  552100032222  hrrzm    b, $.adr        ;"M1 #22"
032112:  260740032205  pushj    p, $$bpfx       ;"6'@#2%"
032113:  201240000044  movei    e, btslft       ;"0*@  D"
032114:  275244000000  subi     e, (d)          ;"7JD   " "/* \0\0"
032115:  231243000000  idivi    e, (c)          ;"3*C   "
032116:  202300032223  movem    f, $.del        ;"03 #23"
032117:  271303000000  addi     f, (c)          ;"7+#   "
032120:  307140000044  caig     c, btslft       ;"8Y@  D"
032121:  303300000044  caile    f, btslft       ;"8;   D"
032122:  254000032215  jrst     $$bper          ;"5@ #2-"
032123:  201240000044  movei    e, btslft       ;"0*@  D"
032124:  274240032223  sub      e, $.del        ;"7B@#23"
032125:  231243000000  idivi    e, (c)          ;"3*C   "
032126:  202240032224  movem    e, $.bpw        ;"02@#24"
032127:  335241000000  skipge   e, (a)          ;";JA   "
032130:  254000032163  jrst     $$bpng          ;"5@ #1S"
032131:  322240032150  jumpe    e, $$bpnm       ;":2@#1H"
032132:  201244000000  movei    e, (d)          ;"0*D   " " * \0\0"
032133:  231243000000  idivi    e, (c)          ;"3*C   "
032134:  311241000000  caml     e, (a)          ;"9*A   "
032135:  254000032145  jrst     $$bpj0          ;"5@ #1E"
032136:  350000032222  aos      $.adr           ;"=  #22"
032137:  213000000005  movns    z, e            ;"18   %"
032140:  270241000000  add      e, (a)          ;"7"A   "
032141:  230240032224  idiv     e, $.bpw        ;"3"@#24"
032142:  272240032222  addm     e, $.adr        ;"72@#22"
032143:  260740032200  pushj    p, $$bpff       ;"6'@#2 "
032144:  254000032150  jrst     $$bpnm          ;"5@ #1H"
$$bpj0:
032145:  200241000000  move     e, (a)          ;"0"A   "
032146:  221243000000  imuli    e, (c)          ;"2*C   "
032147:  274200000005  sub      d, e            ;"7B   %"
$$bpnm:
032150:  201240000044  movei    e, btslft       ;"0*@  D"
032151:  275244000000  subi     e, (d)          ;"7JD   " "/* \0\0"
032152:  305243000000  caige    e, (c)          ;"8JC   "
032153:  254000033311  jrst     33311           ;"5@ #;)"
032154:  305200000000  caige    d, bwd          ;"8J    " "1(\0\0\0"
032155:  271203000000  addi     d, (c)          ;"7*#   "
$$bpbd:
032156:  137200033310  dpb      d, 33310        ;"+Z #;("
032157:  540100032222  hrr      b, $.adr        ;"L! #22"
$$bpst:
032160:  202101000000  movem    b, (a)          ;"01!   "
$$bprt:
032161:  264000032256  jsr      .rtacs          ;"6@ #2N"
032162:  254120032314  jrstf    @.emcad         ;"5A0#3,"
$$bpng:
032163:  201240000044  movei    e, btslft       ;"0*@  D"
032164:  275244000000  subi     e, (d)          ;"7JD   " "/* \0\0"
032165:  231243000000  idivi    e, (c)          ;"3*C   "
032166:  214301000000  movm     f, (a)          ;"1C!   "
032167:  311240000006  caml     e, f            ;"9*@  &"
032170:  254000032145  jrst     $$bpj0          ;"5@ #1E"
032171:  270241000000  add      e, (a)          ;"7"A   "
032172:  370000032222  sos      $.adr           ;"?  #22"
032173:  230240032224  idiv     e, $.bpw        ;"3"@#24"
032174:  272240032222  addm     e, $.adr        ;"72@#22"
032175:  270300032224  add      f, $.bpw        ;"7# #24"
032176:  260740032200  pushj    p, $$bpff       ;"6'@#2 "
032177:  254000032150  jrst     $$bpnm          ;"5@ #1H"
$$bpff:
032200:  210200000006  movn     d, f            ;"1"   &"
032201:  221203000000  imuli    d, (c)          ;"2*#   "
032202:  271200000044  addi     d, btslft       ;"7*   D"
032203:  274200032223  sub      d, $.del        ;"7B #23"
032204:  263740000000  popj     p,              ;"6?@   "
$$bpfx:
032205:  307200000044  caig     d, btslft       ;"8Z   D"
032206:  263740000000  popj     p,              ;"6?@   "
032207:  201244000000  movei    e, (d)          ;"0*D   " " * \0\0"
032210:  231240000044  idivi    e, btslft       ;"3*@  D"
032211:  213000000005  movns    z, e            ;"18   %"
032212:  272240032222  addm     e, $.adr        ;"72@#22"
032213:  200200000006  move     d, f            ;"0"   &"
032214:  263740000000  popj     p,              ;"6?@   "
$$bper:
032215:  200040032314  move     a, .emcad       ;"0 @#3,"
032216:  661040400240  tlo      a, 400240       ;"V(@@"@"
032217:  202040032314  movem    a, .emcad       ;"00@#3,"
032220:  264000032256  jsr      .rtacs          ;"6@ #2N"
032221:  254120032314  jrstf    @.emcad         ;"5A0#3,"
$$adjs:
032225:  264000032250  jsr      .svacs          ;"6@ #2H"
032226:  201040031457  movei    a, $adjsp       ;"0(@#,O"
032227:  260740031701  pushj    p, $$inia       ;"6'@#/!"
032230:  570100000001  hrre     b, a            ;"O!   !"
032231:  135040033304  ldb      a, 33304        ;"+H@#;$"
032232:  260740031765  pushj    p, madjac       ;"6'@#/U"
032233:  570141000000  hrre     c, (a)          ;"O!A   "
032234:  270140000002  add      c, b            ;"7!@  ""
032235:  542141000000  hrrm     c, (a)          ;"L1A   "
032236:  574141000000  hlre     c, (a)          ;"OAA   "
032237:  325140033315  jumpge   c, 33315        ;":I@#;-"
032240:  270140000002  add      c, b            ;"7!@  ""
032241:  321140032245  jumpl    c, $$jsrt       ;":)@#2E"
$$jser:
032242:  200100032314  move     b, .emcad       ;"0! #3,"
032243:  661100000400  tlo      b, .efad1       ;"V)  $ "
032244:  202100032314  movem    b, .emcad       ;"01 #3,"
$$jsrt:
032245:  506141000000  hrlm     c, (a)          ;"HQA   "
032246:  264000032256  jsr      .rtacs          ;"6@ #2N"
032247:  254120032314  jrstf    @.emcad         ;"5A0#3,"
.svacs:
032250:  000000000000                           ;"      "
032251:  202740032342  movem    p, 32342        ;"07@#3B"
032252:  201740032323  movei    p, .emacs       ;"0/@#33"
032253:  251740032333  blt      p, 32333        ;"5/@#3;"
032254:  200740032343  move     p, .emstk       ;"0'@#3C"
032255:  254020032250  jrst     @.svacs         ;"5@0#2H"
.rtacs:
032256:  000000000000                           ;"      "
032257:  202740032343  movem    p, .emstk       ;"07@#3C"
032260:  205740032323  movsi    p, .emacs       ;"0O@#33"
032261:  251740000010  blt      p, h            ;"5/@  ("
032262:  200740032342  move     p, 32342        ;"0'@#3B"
032263:  254020032256  jrst     @.rtacs         ;"5@0#2N"
pntipc:
032264:  260740032276  pushj    p, pnthw        ;"6'@#2^"
032265:  260740032271  pushj    p, pntpc        ;"6'@#2Y"
.crlf:
032266:  561040033320  hrroi    a, 33320        ;"N(@#;0"
032267:  104000000076                           ;"(@   ^"
032270:  263740000000  popj     p,              ;"6?@   "
pntpc:
032271:  561040033321  hrroi    a, 33321        ;"N(@#;1"
032272:  104000000076                           ;"(@   ^"
032273:  550100032314  hrrz     b, .emcad       ;"M! #3,"
032274:  260740032307  pushj    p, pntoct       ;"6'@#3'"
032275:  263740000000  popj     p,              ;"6?@   "
pnthw:
032276:  261740000001  push     p, a            ;"6/@  !"
032277:  554100000001  hlrz     b, a            ;"MA   !"
032300:  260740032307  pushj    p, pntoct       ;"6'@#3'"
032301:  561040033322  hrroi    a, 33322        ;"N(@#;2"
032302:  104000000076                           ;"(@   ^"
032303:  262740000002  pop      p, b            ;"67@  ""
032304:  553000000002  hrrzs    z, b            ;"M8   ""
032305:  260740032307  pushj    p, pntoct       ;"6'@#3'"
032306:  263740000000  popj     p,              ;"6?@   "
pntoct:
032307:  201040000101  movei    a, .priou       ;"0(@ !!"
032310:  201140000010  movei    c, .emtac       ;"0)@  ("
032311:  104000000224                           ;"(@  "4"
032312:  000000000000                           ;"      "
032313:  263740000000  popj     p,              ;"6?@   "
.emstk:
032343:  777754032343  conso    774, .emstk(z)  ;"__L#3C"
intpbp:
032370:  410301032404  andca    f, instyp(a)    ;"A#!#4$"
032371:  360301032404  soj      f, instyp(a)    ;">#!#4$"
032372:  330301032404  skip     f, instyp(a)    ;";#!#4$"
032373:  300301032404  cai      f, instyp(a)    ;"8#!#4$"
032374:  250301032404  exch     f, instyp(a)    ;"5#!#4$"
032375:  220301032404  imul     f, instyp(a)    ;"2#!#4$"
032376:  170301032404  fdv      f, instyp(a)    ;"/#!#4$"
032377:  140301032404  fad      f, instyp(a)    ;",#!#4$"
032400:  110301032404                           ;")#!#4$"
032401:  060301032404                           ;"&#!#4$"
032402:  030301032404                           ;"##!#4$"
032403:  000301032404                           ;" #!#4$"
instyp:
032404:  777777777777  conso    774, @dsptb(p)  ;"______"
032405:  777777777777  conso    774, @dsptb(p)  ;"______"
032406:  777777777777  conso    774, @dsptb(p)  ;"______"
032407:  777777777777  conso    774, @dsptb(p)  ;"______"
032410:  777777777777  conso    774, @dsptb(p)  ;"______"
032411:  777777777777  conso    774, @dsptb(p)  ;"______"
032412:  111166661106                           ;"))VV)&"
032413:  110077055555                           ;") _%MM"
032414:  000002000000                           ;"  "   "
032415:  020000000200  tt%wkp,,                 ;""   " "
032416:  000002000200  b,,                      ;"  " " "
032417:  020002000200  movst3,,                 ;"" " " "
032420:  020002000200  movst3,,                 ;"" " " "
032421:  020077707777                           ;"" _X__"
032422:  037770707447                           ;"#_XX\G"
032423:  777702000200  consz    774, birtst(b)  ;"__" " "
032424:  222222220000  imulm    d, @220000(b)   ;"2222  "
032425:  000077777777  cmhlpc,,                 ;"  ____"
032426:  000000007777                           ;"    __"
032427:  777700000000  consz    774, z          ;"__    "
032430:  777777770000  conso    774, @770000(p) ;"____  "
032431:  000002000200  b,,                      ;"  " " "
032432:  020002000200  movst3,,                 ;"" " " "
032433:  020002000200  movst3,,                 ;"" " " "
032434:  020002000200  movst3,,                 ;"" " " "
032435:  020002000200  movst3,,                 ;"" " " "
032436:  020002000200  movst3,,                 ;"" " " "
032437:  020002000200  movst3,,                 ;"" " " "
032440:  020002000200  movst3,,                 ;"" " " "
032441:  020002000200  movst3,,                 ;"" " " "
032442:  020002000200  movst3,,                 ;"" " " "
032443:  020002000200  movst3,,                 ;"" " " "
032444:  222222220000  imulm    d, @220000(b)   ;"2222  "
032445:  000022222222  .cmuqs,,                 ;"  2222"
032446:  000000002222                           ;"    22"
032447:  222200000000  imulm    d, z            ;"22    " "$H\0\0\0"
032450:  222222220000  imulm    d, @220000(b)   ;"2222  "
032451:  000077777777  cmhlpc,,                 ;"  ____"
.mentr:
032452:  202740033030  movem    p, 33030        ;"07@#88"
032453:  202700033027  movem    q, 33027        ;"07 #87"
032454:  200740033007  move     p, mpp          ;"0'@#8'"
032455:  261740033007  push     p, mpp          ;"6/@#8'"
032456:  205700033175  movsi    q, usracs       ;"0O #9]"
032457:  541717000001  hrri     q, t1(p)        ;"L//  !"
032460:  270740033323  add      p, 33323        ;"7'@#;3"
032461:  251717000000  blt      q, (p)          ;"5//   " "*<x\0\0"
032462:  261740033005  push     p, ufpc         ;"6/@#8%"
032463:  301740000000  cail     p, bwd          ;"8/@   " "0>\0\0\0"
032464:  256000033325  xct      33325           ;"5P #;5"
032465:  202740033007  movem    p, mpp          ;"07@#8'"
032466:  200700033027  move     q, 33027        ;"0' #87"
032467:  201740033175  movei    p, usracs       ;"0/@#9]"
032470:  251740033213  blt      p, 33213        ;"5/@#:+"
032471:  200740033030  move     p, 33030        ;"0'@#88"
032472:  202740033214  movem    p, 33214        ;"07@#:,"
032473:  200740033007  move     p, mpp          ;"0'@#8'"
032474:  254020033006  jrst     @fpc            ;"5@0#8&"
skmrtn:
032475:  200740033007  move     p, mpp          ;"0'@#8'"
032476:  354017000000  aosa     (p)             ;"=@/   "
mretn:
032477:  200740033007  move     p, mpp          ;"0'@#8'"
032500:  262740033005  pop      p, ufpc         ;"67@#8%"
032501:  202740033030  movem    p, 33030        ;"07@#88"
032502:  205740033175  movsi    p, usracs       ;"0O@#9]"
032503:  251740000017  blt      p, p            ;"5/@  /"
032504:  202700033027  movem    q, 33027        ;"07 #87"
032505:  250740033030  exch     p, 33030        ;"5'@#88"
032506:  274740033323  sub      p, 33323        ;"7G@#;3"
032507:  205717000001  movsi    q, t1(p)        ;"0O/  !"
032510:  541700033175  hrri     q, usracs       ;"L/ #9]"
032511:  251700033214  blt      q, 33214        ;"5/ #:,"
032512:  200700033027  move     q, 33027        ;"0' #87"
032513:  262740033007  pop      p, mpp          ;"67@#8'"
032514:  200740033030  move     p, 33030        ;"0'@#88"
032515:  402000033010  setzm    intdf           ;"@0 #8("
032516:  254020033005  jrst     @ufpc           ;"5@0#8%"
.block:
032517:  261740000001  push     p, a            ;"6/@  !"
032520:  261740000002  push     p, b            ;"6/@  ""
032521:  261740000003  push     p, c            ;"6/@  #"
032522:  561040033327  hrroi    a, 33327        ;"N(@#;7"
032523:  104000000076                           ;"(@   ^"
032524:  201040000101  movei    a, .priou       ;"0(@ !!"
032525:  550100033006  hrrz     b, fpc          ;"M! #8&"
032526:  201140000010  movei    c, .emtac       ;"0)@  ("
032527:  104000000224                           ;"(@  "4"
032530:  000000000000                           ;"      "
032531:  561040033335  hrroi    a, 33335        ;"N(@#;="
032532:  104000000076                           ;"(@   ^"
032533:  262740000003  pop      p, c            ;"67@  #"
032534:  262740000002  pop      p, b            ;"67@  ""
032535:  262740000001  pop      p, a            ;"67@  !"
032536:  104000000170                           ;"(@  !X"
032537:  254000032536  jrst     32536           ;"5@ #5>"
itrap1:
032540:  202040021252  movem    a, lsterr       ;"00@"*J"
itrap:
032541:  200740033007  move     p, mpp          ;"0'@#8'"
032542:  200100000001  move     b, a            ;"0!   !"
032543:  201040400000  movei    a, .fhslf       ;"0(@@  "
032544:  255000000000  jfcl                     ;"5H    " "+ \0\0\0"
032545:  260740032606  pushj    p, itrret       ;"6'@#6&"
032546:  561040033336  hrroi    a, 33336        ;"N(@#;>"
032547:  104000000076                           ;"(@   ^"
032550:  201040000101  movei    a, .priou       ;"0(@ !!"
032551:  200100021252  move     b, lsterr       ;"0! "*J"
032552:  201140000010  movei    c, .emtac       ;"0)@  ("
032553:  104000000224                           ;"(@  "4"
032554:  255000000000  jfcl                     ;"5H    " "+ \0\0\0"
032555:  200740033007  move     p, mpp          ;"0'@#8'"
032556:  262740033005  pop      p, ufpc         ;"67@#8%"
032557:  202740033030  movem    p, 33030        ;"07@#88"
032560:  205740033175  movsi    p, usracs       ;"0O@#9]"
032561:  251740000017  blt      p, p            ;"5/@  /"
032562:  202700033027  movem    q, 33027        ;"07 #87"
032563:  250740033030  exch     p, 33030        ;"5'@#88"
032564:  274740033323  sub      p, 33323        ;"7G@#;3"
032565:  205717000001  movsi    q, t1(p)        ;"0O/  !"
032566:  541700033175  hrri     q, usracs       ;"L/ #9]"
032567:  251700033214  blt      q, 33214        ;"5/ #:,"
032570:  200700033027  move     q, 33027        ;"0' #87"
032571:  262740033007  pop      p, mpp          ;"67@#8'"
032572:  200740033030  move     p, 33030        ;"0'@#88"
032573:  402000033010  setzm    intdf           ;"@0 #8("
die:
032574:  104000000170                           ;"(@  !X"
032575:  254000032574  jrst     die             ;"5@ #5\"
mretne:
032576:  256200033344  xct      d, 33344        ;"5R #;D"
emret0:
032577:  202040021252  movem    a, lsterr       ;"00@"*J"
emret1:
032600:  200740033007  move     p, mpp          ;"0'@#8'"
032601:  200100000001  move     b, a            ;"0!   !"
032602:  201040400000  movei    a, .fhslf       ;"0(@@  "
032603:  255000000000  jfcl                     ;"5H    " "+ \0\0\0"
032604:  260740032606  pushj    p, itrret       ;"6'@#6&"
032605:  254000032477  jrst     mretn           ;"5@ #4_"
itrret:
032606:  550117777777  hrrz     b, dsptb(p)     ;"M!/___"
032607:  202100021253  movem    b, errloc       ;"01 "*K"
032610:  260740032614  pushj    p, itrsim       ;"6'@#6,"
032611:  263740000000  popj     p,              ;"6?@   "
032612:  542157777777  hrrm     c, dsptb(p)     ;"L1O___"
032613:  254000032477  jrst     mretn           ;"5@ #4_"
itrsim:
032614:  200142000000  move     c, (b)          ;"0!B   "
032615:  510200000003  hllz     d, c            ;"I"   #"
032616:  316200033346  camn     d, 33346        ;"9R #;F"
032617:  254000032627  jrst     itrsx           ;"5@ #67"
032620:  312200033347  came     d, 33347        ;"92 #;G"
032621:  263740000000  popj     p,              ;"6?@   "
032622:  200200032637  move     d, 32637        ;"0" #6?"
032623:  256140033351  xct      c, 33351        ;"5Q@#;I"
032624:  274200032637  sub      d, 32637        ;"7B #6?"
032625:  261200000002  push     d, b            ;"6*   ""
032626:  350004000000  aos      (d)             ;"= $   "
itrsx:
032627:  254000021663  jrst     rskp            ;"5@ ".S"
mentr:
032630:  033006032452  fpc,,                    ;"#8&#4J"
block1:
032631:  033006032517  fpc,,                    ;"#8&#5/"
dbp:
032632:  211100000001  movni    b, t1           ;"1)   !"
032633:  256000033353  xct      33353           ;"5P #;K"
032634:  202100000001  movem    b, a            ;"01   !"
032635:  263740000000  popj     p,              ;"6?@   "
bhc:
032636:  000000000000                           ;"      "
032637:  000001000001  a,,                      ;"  !  !"
032640:  000002000002  b,,                      ;"  "  ""
032641:  000003000003  c,,                      ;"  #  #"
032642:  000004000004  d,,                      ;"  $  $"
032643:  000005000005  e,,                      ;"  %  %"
032644:  000006000006  f,,                      ;"  &  &"
032645:  000007000007  g,,                      ;"  '  '"
032646:  000010000010  h,,                      ;"  (  ("
032647:  000011000011  w,,                      ;"  )  )"
032650:  000012000012  x,,                      ;"  *  *"
032651:  000013000013  y,,                      ;"  +  +"
032652:  000014000014  z,,                      ;"  ,  ,"
032653:  000015000015  s,,                      ;"  -  -"
032654:  000016000016  q,,                      ;"  .  ."
032655:  000017000017  p,,                      ;"  /  /"
bits:
032656:  400000000000  setz     z,              ;"@     " "@\0\0\0\0"
032657:  200000000000  move     z, z            ;"0     " " \0\0\0\0"
032660:  100000000000                           ;"(     "
032661:  040000000000  .iot     .chnul, z       ;"$     "
032662:  020000000000                           ;""     "
032663:  010000000000                           ;"!     "
032664:  004000000000                           ;" @    "
032665:  002000000000                           ;" 0    "
032666:  001000000000                           ;" (    "
032667:  000400000000                           ;" $    "
032670:  000200000000                           ;" "    "
032671:  000100000000                           ;" !    "
032672:  000040000000                           ;"  @   "
032673:  000020000000                           ;"  0   "
032674:  000010000000                           ;"  (   "
032675:  000004000000                           ;"  $   "
032676:  000002000000                           ;"  "   "
032677:  000001000000                           ;"  !   "
032700:  000000400000  .fhslf                   ;"   @  "
032701:  000000200000  .eprev                   ;"   0  "
032702:  000000100000  tt%wkf                   ;"   (  "
032703:  000000040000  tt%wkn                   ;"   $  "
032704:  000000020000  tt%wkp                   ;"   "  "
032705:  000000010000  tt%wka                   ;"   !  "
032706:  000000004000  tt%eco                   ;"    @ "
032707:  000000002000  cmtf1                    ;"    0 "
032710:  000000001000  cmindf                   ;"    ( "
032711:  000000000400  .efad1                   ;"    $ "
032712:  000000000200  birtst                   ;"    " "
032713:  000000000100  .priin                   ;"    ! "
032714:  000000000040  .mref2                   ;"     @"
032715:  000000000020  .cmtad                   ;"     0"
032716:  000000000010  h                        ;"     ("
032717:  000000000004  d                        ;"     $"
032720:  000000000002  b                        ;"     ""
032721:  000000000001  a                        ;"     !"
savp:
032722:  261740000010  push     p, h            ;"6/@  ("
032723:  261740000011  push     p, w            ;"6/@  )"
032724:  261740000012  push     p, x            ;"6/@  *"
032725:  261740000013  push     p, y            ;"6/@  +"
032726:  261740000014  push     p, z            ;"6/@  ,"
032727:  261740000015  push     p, s            ;"6/@  -"
032730:  260756000000  pushj    p, (q)          ;"6'N   "
restp:
032731:  334000000000  skipa                    ;";@    " "7\0\0\0\0"
032732:  350017777772  aos      777772(p)       ;"= /__Z"
032733:  205657777773  movsi    s, 777773(p)    ;"0NO__["
032734:  541640000010  hrri     s, .emtac       ;"L.@  ("
032735:  251640000015  blt      s, s            ;"5.@  -"
032736:  274740032644  sub      p, 32644        ;"7G@#6D"
032737:  263740000000  popj     p,              ;"6?@   "
savq:
032740:  261740000005  push     p, e            ;"6/@  %"
032741:  261740000006  push     p, f            ;"6/@  &"
032742:  261740000007  push     p, g            ;"6/@  '"
032743:  260756000000  pushj    p, (q)          ;"6'N   "
restq:
032744:  334000000000  skipa                    ;";@    " "7\0\0\0\0"
032745:  350017777775  aos      777775(p)       ;"= /__]"
032746:  262740000007  pop      p, g            ;"67@  '"
032747:  262740000006  pop      p, f            ;"67@  &"
032750:  262740000005  pop      p, e            ;"67@  %"
032751:  263740000000  popj     p,              ;"6?@   "
savpq:
032752:  270740032647  add      p, 32647        ;"7'@#6G"
032753:  325740033355  jumpge   p, 33355        ;":O@#;M"
032754:  124257777770                           ;"*BO__X"
032755:  124357777772                           ;"*CO__Z"
032756:  124457777774                           ;"*DO__\"
032757:  124557777776                           ;"*EO__^"
032760:  202657000000  movem    s, (p)          ;"06O   " " Zx\0\0"
032761:  260756000000  pushj    p, (q)          ;"6'N   "
restpq:
032762:  334000000000  skipa                    ;";@    " "7\0\0\0\0"
032763:  350017777767  aos      777767(p)       ;"= /__W"
032764:  205657777770  movsi    s, 777770(p)    ;"0NO__X"
032765:  541640000005  hrri     s, q1           ;"L.@  %"
032766:  251640000015  blt      s, s            ;"5.@  -"
032767:  274740032647  sub      p, 32647        ;"7G@#6G"
032770:  263740000000  popj     p,              ;"6?@   "
savt:
032771:  261740000001  push     p, a            ;"6/@  !"
032772:  261740000002  push     p, b            ;"6/@  ""
032773:  261740000003  push     p, c            ;"6/@  #"
032774:  261740000004  push     p, d            ;"6/@  $"
032775:  260756000000  pushj    p, (q)          ;"6'N   "
restt:
032776:  334000000000  skipa                    ;";@    " "7\0\0\0\0"
032777:  350017777774  aos      777774(p)       ;"= /__\"
033000:  262740000004  pop      p, d            ;"67@  $"
033001:  262740000003  pop      p, c            ;"67@  #"
033002:  262740000002  pop      p, b            ;"67@  ""
033003:  262740000001  pop      p, a            ;"67@  !"
033004:  263740000000  popj     p,              ;"6?@   "
mpp:
033007:  777634033030  cono     774, @33030(z)  ;"_^<#88"
033215:  777754032343  conso    774, .emstk(z)  ;"__L#3C"
033216:  777634033030  cono     774, @33030(z)  ;"_^<#88"
033217:  640000000140  trc      z, ournam       ;"T   !@"
033220:  642000000140  trce     z, ournam       ;"T0  !@"
033221:  260740032025  pushj    p, .bdpx        ;"6'@#05"
033222:  254000031565  jrst     31565           ;"5@ #-U"
033223:  661000200000  tlo      z, .eprev       ;"V( 0  "
033224:  606000000040  trnn     z, .mref2       ;"PP   @"
033225:  260740032025  pushj    p, .bdpx        ;"6'@#05"
033226:  254000031570  jrst     31570           ;"5@ #-X"
033227:  270400032321  add      h, .emxct       ;"7$ #31"
033230:  000001000001  a,,                      ;"  !  !"
033231:  421040077400  andcmi   a, 77400        ;"B(@'\ "
033232:  242040000004  lsh      a, d            ;"40@  $"
033233:  435040700000  iori     a, 700000       ;"CH@X  "
033234:  254000031777  jrst     31777           ;"5@ #/_"
033235:  064245225124                           ;"&BE2I4" "\r\n***"
033236:  202413041650  movem    h, 41650(y)     ;"04+$.H" " PXCT"
033237:  203374620322  moves    g, @620322(z)   ;"0;\R#2" " of i"
033240:  663314563702  tloe     f, 563702(z)    ;"V;,N?"" "llega"
033241:  661015167346  tlo      z, 167346(s)    ;"V(-.[F" "l ins"
033242:  723456561750  datai    234, 561750(q)  ;"Z<NN/H" "truct"
033243:  647375620000  tlcn     g, @620000(s)   ;"T[]R  " "ion \0"
033244:  064245225124                           ;"&BE2I4" "\r\n***"
033245:  202413041650  movem    h, 41650(y)     ;"04+$.H" " PXCT"
033246:  203374620352  moves    g, @620352(z)   ;"0;\R#J" " of u"
033247:  673235570330  tsoe     d, @570330(s)   ;"W:=O#8" "nimpl"
033250:  627334567350  tlzn     f, @567350(z)   ;"R[<N[H" "ement"
033251:  627104064734  tlzn     b, 64734(d)     ;"RY$&G<" "ed in"
033252:  717516272706  blko     174, 272706(q)  ;"Y].77&" "struc"
033253:  723235767100  cono     230, @767100(s) ;"Z:=^Y " "tion "
033254:  633134172352  tsze     b, @172352(z)   ;"S9</3J" "featu"
033255:  713124000000  blko     130, @(d)       ;"Y94   " "re \0\0"
033256:  064245225124                           ;"&BE2I4" "\r\n***"
033257:  202413041650  movem    h, 41650(y)     ;"04+$.H" " PXCT"
033260:  203214171500  moves    d, 171500(z)    ;"0:,/- " " has "
033261:  667134167322  tlon     b, @167322(z)   ;"VY<.[2" "meani"
033262:  673175462746  tsoe     c, @462746(s)   ;"W9]F7F" "ngles"
033263:  715014372330  blki     looptm, 372330(z);"YH,?38" "s ctl"
033264:  203055172346  moves    a, 172346(s)    ;"08M/3F" " bits"
033265:  200000000000  move     z, z            ;"0     " " \0\0\0\0"
033266:  064245225124                           ;"&BE2I4" "\r\n***"
033267:  202235466312  movem    d, @466312(s)   ;"02=FS*" " Ille"
033270:  637035420312  tszn     z, @420312(s)   ;"SX=B#*" "gal e"
033271:  667535460750  tlon     x, @460750(s)   ;"V]=F'H" "mulat"
033272:  627444062734  tlzn     w, 62734(d)     ;"R\D&7<" "er en"
033273:  723457100000  datai    234, tt%wkf(p)  ;"Z<O(  " "try\0\0"
033274:  064245225124                           ;"&BE2I4" "\r\n***"
033275:  202052543606  movem    a, 543606(x)    ;"00JL>&" " BUGC"
033276:  442260000000  andcbm   e, @z           ;"D2P   " "HK\0\0\0"
033277:  064245225124                           ;"&BE2I4" "\r\n***"
033300:  202052543620  movem    a, 543620(x)    ;"00JL>0" " BUGH"
033301:  462500000000  setcmm   x, z            ;"F5    " "LT\0\0\0"
033302:  350321220100  aos      f, @220100(a)   ;"=#12! " ":\r\n  "
033303:  201004020000  movei    z, tt%wkp(d)    ;"0($"  " "    \0"
033304:  270420032315  add      h, @.emiad      ;"7$0#3-"
033305:  133002000000  ibp      (b)             ;"+8"   "
033306:  254000032161  jrst     $$bprt          ;"5@ #1Q"
033307:  300600000002  cai      z, t2           ;"8&   ""
033310:  360600000002  soj      z, b            ;">&   ""
033311:  370000032222  sos      $.adr           ;"?  #22"
033312:  200300032224  move     f, $.bpw        ;"0# #24"
033313:  260740032200  pushj    p, $$bpff       ;"6'@#2 "
033314:  254000032154  jrst     32154           ;"5@ #1L"
033315:  270140000002  add      c, b            ;"7!@  ""
033316:  321140032242  jumpl    c, $$jser       ;":)@#2B"
033317:  254000032245  jrst     $$jsrt          ;"5@ #2E"
033320:  064240000000                           ;"&B@   " "\r\n\0\0\0"
033321:  203036420000  moves    z, @420000(q)   ;"08>B  " " at \0"
033322:  261300000000  push     f, z            ;"6+    " ",,\0\0\0"
033323:  000020000020  .cmtad,,                 ;"  0  0"
033324:  000000000000                           ;"      "
033325:  264000032055  jsr      $bhlt           ;"6@ #0M"
033326:  000000033324                           ;"   #;4"
033327:  064245225124                           ;"&BE2I4" "\r\n***"
033330:  202137062706  movem    b, @62706(p)    ;"01?&7&" " Exec"
033331:  727515167734  blko     274, 167734(s)  ;"Z]-._<" "ution"
033332:  203055467706  moves    a, 467706(s)    ;"08MF_&" " bloc"
033333:  657134420302  tscn     b, @420302(z)   ;"UY<B#"" "ked a"
033334:  721000000000  blki     210, z          ;"Z(    " "t \0\0\0"
033335:  064241505000                           ;"&BAHH " "\r\n\r\n\0"
033336:  376536362744  sosn     x, @362744(q)   ;"?U>>7D" "?User"
033337:  203335762312  moves    f, @762312(s)   ;"0;=^3*" " mode"
033340:  203256374746  moves    e, 374746(q)    ;"0:N?GF" " jsys"
033341:  203136271336  moves    b, @271336(q)   ;"09>7+>" " erro"
033342:  711005520000  blki     110, usrtts(e)  ;"Y(%J  " "r - \0"
033343:  202040000001  movem    a, a            ;"00@  !"
033344:  264000031453  jsr      .emtab          ;"6@ #,K"
033345:  256200033343  xct      d, 33343        ;"5R #;C"
033346:  320700000000  jump     q, z            ;":'    "
033347:  320740000000  jump     p, z            ;":'@   "
033350:  273200000017  addb     d, p            ;"7:   /"
033351:  264000031453  jsr      .emtab          ;"6@ #,K"
033352:  256140033350  xct      c, 33350        ;"5Q@#;H"
033353:  264000031455  jsr      $ibp            ;"6@ #,M"
033354:  133100000001                           ;"+9   !"
033355:  256000033325  xct      33325           ;"5P #;5"
iflin:
033356:  200040033701  move     a, 33701        ;"0 @#?!"
033357:  254000033374  jrst     rjscal          ;"5@ #;\"
igtjfn:
033360:  200040033702  move     a, 33702        ;"0 @#?""
033361:  254000033374  jrst     rjscal          ;"5@ #;\"
iidcnv:
033362:  200040033703  move     a, 33703        ;"0 @#?#"
033363:  254000033374  jrst     rjscal          ;"5@ #;\"
iidtnc:
033364:  200040033704  move     a, 33704        ;"0 @#?$"
033365:  254000033374  jrst     rjscal          ;"5@ #;\"
inin:
033366:  200040033705  move     a, 33705        ;"0 @#?%"
033367:  254000033374  jrst     rjscal          ;"5@ #;\"
istdev:
033370:  200040033706  move     a, 33706        ;"0 @#?&"
033371:  254000033374  jrst     rjscal          ;"5@ #;\"
ipupnm:
033372:  200040033707  move     a, 33707        ;"0 @#?'"
033373:  254000033374  jrst     rjscal          ;"5@ #;\"
rjscal:
033374:  202040033700  movem    a, injsys       ;"00@#? "
033375:  260740033666  pushj    p, getacs       ;"6'@#>V"
033376:  256000033700  xct      injsys          ;"5P #? "
033377:  254000033402  jrst     retpl1          ;"5@ #<""
033400:  260740033673  pushj    p, setacs       ;"6'@#>["
033401:  254000021663  jrst     rskp            ;"5@ ".S"
retpl1:
033402:  260740033673  pushj    p, setacs       ;"6'@#>["
033403:  263740000000  popj     p,              ;"6?@   "
ircdir:
033404:  200040033710  move     a, 33710        ;"0 @#?("
033405:  254000033410  jrst     njscal          ;"5@ #<("
ircusr:
033406:  200040033711  move     a, 33711        ;"0 @#?)"
033407:  254000033410  jrst     njscal          ;"5@ #<("
njscal:
033410:  202040033700  movem    a, injsys       ;"00@#? "
033411:  260740033666  pushj    p, getacs       ;"6'@#>V"
033412:  256000033700  xct      injsys          ;"5P #? "
033413:  320700033645  jump     q, interr       ;":' #>E"
033414:  260740033673  pushj    p, setacs       ;"6'@#>["
033415:  263740000000  popj     p,              ;"6?@   "
xbin:
033416:  104000000050                           ;"(@   H"
033417:  320700033646  jump     q, exterr       ;":' #>F"
033420:  322100033714  jumpe    b, 33714        ;":1 #?,"
033421:  306100000037  cain     b, .chcun       ;"8Q   ?"
033422:  201100000012  movei    b, p3           ;"0)   *"
033423:  263740000000  popj     p,              ;"6?@   "
xbout:
033424:  306100000012  cain     b, p3           ;"8Q   *"
033425:  254000033431  jrst     xbout2          ;"5@ #<9"
033426:  104000000051                           ;"(@   I"
033427:  320700033646  jump     q, exterr       ;":' #>F"
033430:  263740000000  popj     p,              ;"6?@   "
xbout2:
033431:  261740000003  push     p, c            ;"6/@  #"
033432:  104000000112                           ;"(@  !*"
033433:  320700033721  jump     q, 33721        ;":' #?1"
033434:  262740000003  pop      p, c            ;"67@  #"
033435:  135100033723  ldb      b, 33723        ;"+I #?3"
033436:  302100000003  caie     b, nibits       ;"81   #"
033437:  254000033443  jrst     xbout3          ;"5@ #<C"
033440:  201100000015  movei    b, p6           ;"0)   -"
033441:  104000000051                           ;"(@   I"
033442:  320700033646  jump     q, exterr       ;":' #>F"
xbout3:
033443:  201100000012  movei    b, p3           ;"0)   *"
033444:  104000000051                           ;"(@   I"
033445:  320700033646  jump     q, exterr       ;":' #>F"
033446:  263740000000  popj     p,              ;"6?@   "
xmtopr:
033447:  306100000030  cain     b, nttyps       ;"8Q   8"
033450:  254000033454  jrst     xmtop2          ;"5@ #<L"
033451:  104000000077                           ;"(@   _"
033452:  320700033646  jump     q, exterr       ;":' #>F"
033453:  263740000000  popj     p,              ;"6?@   "
xmtop2:
033454:  104000000107                           ;"(@  !'"
033455:  320700033646  jump     q, exterr       ;":' #>F"
033456:  135140033724  ldb      c, 33724        ;"+I@#?4"
033457:  263740000000  popj     p,              ;"6?@   "
xrcdir:
033460:  261740000005  push     p, e            ;"6/@  %"
033461:  261740000004  push     p, d            ;"6/@  $"
033462:  261740000003  push     p, c            ;"6/@  #"
033463:  134240000002  ildb     e, b            ;"+B@  ""
033464:  302240000074  caie     e, obkt         ;"82@  \"
033465:  306240000133  cain     e, osbkt        ;"8R@ !;"
033466:  254000033475  jrst     obktok          ;"5@ #<]"
rcderr:
033467:  262740000003  pop      p, c            ;"67@  #"
033470:  262740000004  pop      p, d            ;"67@  $"
033471:  262740000003  pop      p, c            ;"67@  #"
033472:  201040601377  movei    a, rcdix2       ;"0(@P+_"
033473:  202040021252  movem    a, lsterr       ;"00@"*J"
033474:  254000033646  jrst     exterr          ;"5@ #>F"
obktok:
033475:  306240000074  cain     e, obkt         ;"8R@  \"
033476:  201240000076  movei    e, cbkt         ;"0*@  ^"
033477:  306240000133  cain     e, osbkt        ;"8R@ !;"
033500:  201240000135  movei    e, csbkt        ;"0*@ !="
033501:  200200000002  move     d, b            ;"0"   ""
033502:  260740033546  pushj    p, updstr       ;"6'@#=F"
033503:  135140000002  ldb      c, b            ;"+I@  ""
033504:  316140000005  camn     c, e            ;"9Q@  %"
033505:  254000033514  jrst     cbktok          ;"5@ #=,"
033506:  302140000076  caie     c, cbkt         ;"81@  ^"
033507:  306140000135  cain     c, csbkt        ;"8Q@ !="
033510:  254000033467  jrst     rcderr          ;"5@ #<W"
033511:  607040000001  tlnn     a, t1           ;"PX@  !"
033512:  254000033520  jrst     cbktnn          ;"5@ #=0"
033513:  254000033467  jrst     rcderr          ;"5@ #<W"
cbktok:
033514:  661040000001  tlo      a, t1           ;"V(@  !"
033515:  400140000000  setz     c,              ;"@!@   "
033516:  137140000002  dpb      c, b            ;"+Y@  ""
033517:  213000000005  movns    z, e            ;"18   %"
cbktnn:
033520:  200100000004  move     b, d            ;"0!   $"
033521:  104000000554                           ;"(@  %L"
033522:  320700033537  jump     q, rcduer       ;":' #=?"
033523:  603040020000  tlne     a, tt%wkp       ;"P8@"  "
033524:  254000033533  jrst     rcdamb          ;"5@ #=;"
033525:  217000000005  movms    z, e            ;"1X   %"
033526:  136240000002  idpb     e, b            ;"+R@  ""
033527:  400240000000  setz     e,              ;"@"@   " "@\n\0\0\0"
033530:  136240000002  idpb     e, b            ;"+R@  ""
033531:  607040040000  tlnn     a, tt%wkn       ;"PX@$  "
033532:  202157000000  movem    c, (p)          ;"01O   " " Fx\0\0"
rcdamb:
033533:  262740000003  pop      p, c            ;"67@  #"
033534:  262740000004  pop      p, d            ;"67@  $"
033535:  262740000005  pop      p, e            ;"67@  %"
033536:  263740000000  popj     p,              ;"6?@   "
rcduer:
033537:  331000000005  skipl    e               ;";(   %"
033540:  254000033467  jrst     rcderr          ;"5@ #<W"
033541:  217000000005  movms    z, e            ;"1X   %"
033542:  136240000002  idpb     e, b            ;"+R@  ""
033543:  400240000000  setz     e,              ;"@"@   " "@\n\0\0\0"
033544:  136240000002  idpb     e, b            ;"+R@  ""
033545:  254000033467  jrst     rcderr          ;"5@ #<W"
updstr:
033546:  261740000001  push     p, a            ;"6/@  !"
upstlp:
033547:  134040000002  ildb     a, b            ;"+@@  ""
033550:  326040033547  jumpn    a, upstlp       ;":P@#=G"
033551:  200040000002  move     a, b            ;"0 @  ""
033552:  260740032632  pushj    p, dbp          ;"6'@#6:"
033553:  200100000001  move     b, a            ;"0!   !"
033554:  262740000001  pop      p, a            ;"67@  !"
033555:  263740000000  popj     p,              ;"6?@   "
chkstr:
033556:  261740000003  push     p, c            ;"6/@  #"
033557:  261740000002  push     p, b            ;"6/@  ""
033560:  134140000002  ildb     c, b            ;"+A@  ""
033561:  603040000001  tlne     a, t1           ;"P8@  !"
033562:  332000000003  skipe    c               ;";0   #"
033563:  254000033570  jrst     ckstlp          ;"5@ #=X"
ckster:
033564:  262740000002  pop      p, b            ;"67@  ""
033565:  262740000003  pop      p, c            ;"67@  #"
033566:  263740000000  popj     p,              ;"6?@   "
ckstnx:
033567:  134140000002  ildb     c, b            ;"+A@  ""
ckstlp:
033570:  322140033613  jumpe    c, ckstdn       ;":1@#>+"
033571:  301140000141  cail     c, 141          ;"8)@ !A"
033572:  305140000172  caige    c, 172          ;"8I@ !Z"
033573:  334000000000  skipa                    ;";@    " "7\0\0\0\0"
033574:  254000033567  jrst     ckstnx          ;"5@ #=W"
033575:  301140000101  cail     c, .priou       ;"8)@ !!"
033576:  305140000132  caige    c, 132          ;"8I@ !:"
033577:  334000000000  skipa                    ;";@    " "7\0\0\0\0"
033600:  254000033567  jrst     ckstnx          ;"5@ #=W"
033601:  301140000060  cail     c, 60           ;"8)@  P"
033602:  305140000071  caige    c, 71           ;"8I@  Y"
033603:  334000000000  skipa                    ;";@    " "7\0\0\0\0"
033604:  254000033567  jrst     ckstnx          ;"5@ #=W"
033605:  302140000055  caie     c, cmconc       ;"81@  M"
033606:  306140000137  cain     c, 137          ;"8Q@ !?"
033607:  254000033567  jrst     ckstnx          ;"5@ #=W"
033610:  306140000044  cain     c, btslft       ;"8Q@  D"
033611:  254000033567  jrst     ckstnx          ;"5@ #=W"
033612:  254000033564  jrst     ckster          ;"5@ #=T"
ckstdn:
033613:  262740000002  pop      p, b            ;"67@  ""
033614:  262740000003  pop      p, c            ;"67@  #"
033615:  254000021663  jrst     rskp            ;"5@ ".S"
xrcusr:
033616:  260740033556  pushj    p, chkstr       ;"6'@#=N"
033617:  254000033725  jrst     33725           ;"5@ #?5"
033620:  261740000003  push     p, c            ;"6/@  #"
033621:  200140000001  move     c, a            ;"0!@  !"
033622:  603040000001  tlne     a, t1           ;"P8@  !"
033623:  334040033731  skipa    a, 33731        ;";@@#?9"
033624:  205040777770  movsi    a, 777770       ;"0H@__X"
033625:  104000000040                           ;"(@   @"
033626:  254000033642  jrst     nomstu          ;"5@ #>B"
033627:  254000033635  jrst     ambstu          ;"5@ #>="
033630:  202057000000  movem    a, (p)          ;"00O   " " Bx\0\0"
033631:  260740033546  pushj    p, updstr       ;"6'@#=F"
033632:  400040000000  setz     a,              ;"@ @   "
rcuret:
033633:  262740000003  pop      p, c            ;"67@  #"
033634:  263740000000  popj     p,              ;"6?@   "
ambstu:
033635:  260740033546  pushj    p, updstr       ;"6'@#=F"
033636:  603140000001  tlne     c, t1           ;"P9@  !"
033637:  334040033732  skipa    a, 33732        ;";@@#?:"
033640:  205040020000  movsi    a, tt%wkp       ;"0H@"  "
033641:  254000033633  jrst     rcuret          ;"5@ #>;"
nomstu:
033642:  260740033546  pushj    p, updstr       ;"6'@#=F"
033643:  205040040000  movsi    a, tt%wkn       ;"0H@$  "
033644:  254000033633  jrst     rcuret          ;"5@ #>;"
interr:
033645:  260740033673  pushj    p, setacs       ;"6'@#>["
exterr:
033646:  261740000003  push     p, c            ;"6/@  #"
033647:  550157777777  hrrz     c, dsptb(p)     ;"M!O___"
033650:  202140021253  movem    c, errloc       ;"01@"*K"
033651:  554143000000  hlrz     c, (c)          ;"MAC   "
033652:  306140320700  cain     c, 320700       ;"8Q@:' "
033653:  254000033662  jrst     errorj          ;"5@ #>R"
033654:  302140320740  caie     c, 320740       ;"81@:'@"
033655:  265100032540  jsp      b, itrap1       ;"6I #5@"
033656:  550160021253  hrrz     c, @errloc      ;"M!P"*K"
033657:  250157000000  exch     c, (p)          ;"5!O   "
033660:  350017777777  aos      dsptb(p)        ;"= /___"
033661:  263740000000  popj     p,              ;"6?@   "
errorj:
033662:  550160021253  hrrz     c, @errloc      ;"M!P"*K"
033663:  202157777777  movem    c, dsptb(p)     ;"01O___"
033664:  262740000003  pop      p, c            ;"67@  #"
033665:  263740000000  popj     p,              ;"6?@   "
getacs:
033666:  256200033734  xct      d, 33734        ;"5R #?<"
033667:  256200033737  xct      d, 33737        ;"5R #??"
033670:  256200033742  xct      d, 33742        ;"5R #?B"
033671:  256200033745  xct      d, 33745        ;"5R #?E"
033672:  263740000000  popj     p,              ;"6?@   "
setacs:
033673:  256200033750  xct      d, 33750        ;"5R #?H"
033674:  256200033753  xct      d, 33753        ;"5R #?K"
033675:  256200033756  xct      d, 33756        ;"5R #?N"
033676:  256200033761  xct      d, 33761        ;"5R #?Q"
033677:  263740000000  popj     p,              ;"6?@   "
injsys:
033700:  000000000000                           ;"      "
033701:  104000000232                           ;"(@  ":"
033702:  104000000020                           ;"(@   0"
033703:  104000000223                           ;"(@  "3"
033704:  104000000231                           ;"(@  "9"
033705:  104000000225                           ;"(@  "5"
033706:  104000000120                           ;"(@  !0"
033707:  104000000443                           ;"(@  $C"
033710:  104000000553                           ;"(@  %K"
033711:  104000000554                           ;"(@  %L"
033712:  400100000000  setz     b,              ;"@!    "
033713:  263740000000  popj     p,              ;"6?@   "
033714:  104000000024                           ;"(@   4"
033715:  607100001000  tlnn     b, cmindf       ;"PY  ( "
033716:  254000033712  jrst     33712           ;"5@ #?*"
033717:  400100000000  setz     b,              ;"@!    "
033720:  254000033646  jrst     exterr          ;"5@ #>F"
033721:  262740000003  pop      p, c            ;"67@  #"
033722:  254000033646  jrst     exterr          ;"5@ #>F"
033723:  160200000002  fmp      d, b            ;"."   ""
033724:  220700000002  imul     q, b            ;"2'   ""
033725:  260740033546  pushj    p, updstr       ;"6'@#=F"
033726:  201040602143  movei    a, strx08       ;"0(@P1C"
033727:  202040021252  movem    a, lsterr       ;"00@"*J"
033730:  254000033646  jrst     exterr          ;"5@ #>F"
033731:  000000000001  a                        ;"     !"
033732:  040000000000  .iot     .chnul, z       ;"$     "
033733:  200040000001  move     a, a            ;"0 @  !"
033734:  264000031453  jsr      .emtab          ;"6@ #,K"
033735:  256200033733  xct      d, 33733        ;"5R #?;"
033736:  200100000002  move     b, b            ;"0!   ""
033737:  264000031453  jsr      .emtab          ;"6@ #,K"
033740:  256200033736  xct      d, 33736        ;"5R #?>"
033741:  200140000003  move     c, c            ;"0!@  #"
033742:  264000031453  jsr      .emtab          ;"6@ #,K"
033743:  256200033741  xct      d, 33741        ;"5R #?A"
033744:  200200000004  move     d, d            ;"0"   $"
033745:  264000031453  jsr      .emtab          ;"6@ #,K"
033746:  256200033744  xct      d, 33744        ;"5R #?D"
033747:  202040000001  movem    a, a            ;"00@  !"
033750:  264000031453  jsr      .emtab          ;"6@ #,K"
033751:  256200033747  xct      d, 33747        ;"5R #?G"
033752:  202100000002  movem    b, b            ;"01   ""
033753:  264000031453  jsr      .emtab          ;"6@ #,K"
033754:  256200033752  xct      d, 33752        ;"5R #?J"
033755:  202140000003  movem    c, c            ;"01@  #"
033756:  264000031453  jsr      .emtab          ;"6@ #,K"
033757:  256200033755  xct      d, 33755        ;"5R #?M"
033760:  202200000004  movem    d, d            ;"02   $"
033761:  264000031453  jsr      .emtab          ;"6@ #,K"
033762:  256200033760  xct      d, 33760        ;"5R #?P"
034063:  440400617555  andcb    h, 617555       ;"D$ Q]M"
034064:  000000033763                           ;"   #?S"
034065:  000000000000                           ;"      "
034066:  000000033763                           ;"   #?S"
034067:  100011174246                           ;"( )/BF"
034070:  256000000000  xct      z               ;"5P    " "+@\0\0\0"
034071:  072366034144                           ;"'3V#AD"
034072:  000000033616  xrcusr                   ;"   #>."
034073:  072365746224                           ;"'3U\R4"
034074:  000000033460  xrcdir                   ;"   #<P"
034075:  072311256154                           ;"'3)5QL"
034076:  000000033447  xmtopr                   ;"   #<G"
034077:  132311256123  fsc      f, 256123(w)    ;"+3)5Q3"
034100:  000000033454  xmtop2                   ;"   #<L"
034101:  132134570164  fsc      b, @570164(z)   ;"+1<O!T"
034102:  000000033443  xbout3                   ;"   #<C"
034103:  132134570163  fsc      b, @570163(z)   ;"+1<O!S"
034104:  000000033431  xbout2                   ;"   #<9"
034105:  040517074466  .iot     .chlfd, 74466(p);"$%/'DV"
034106:  000000033424  xbout                    ;"   #<4"
034107:  040010301020  .iot     .chnul, 301020(h);"$ (8(0"
034110:  000000033416  xbin                     ;"   #<."
034111:  130122430412                           ;"+!2C$*"
034112:  000000033547  upstlp                   ;"   #=G"
034113:  130116703014                           ;"+!.X8,"
034114:  000000033546  updstr                   ;"   #=F"
034115:  126554106261                           ;"*UL(RQ"
034116:  000000602143  strx08                   ;"   P1C"
034117:  100442473224                           ;"($BG:4"
034120:  104000000040                           ;"(@   @"
034121:  100442472770                           ;"($BG7X"
034122:  104000000120                           ;"(@  !0"
034123:  126332001345                           ;"*S: +E"
034124:  000000033673  setacs                   ;"   #>["
034125:  125603762416                           ;"*N#^4."
034126:  000000033374  rjscal                   ;"   #;\"
034127:  100425371666                           ;"($5?.V"
034130:  104000000107                           ;"(@  !'"
034131:  100425332465                           ;"($5;4U"
034132:  104000000112                           ;"(@  !*"
034133:  125523360762                           ;"*M3>'R"
034134:  000000033402  retpl1                   ;"   #<""
034135:  100000130566  tt%wkf,,                 ;"(  +%V"
034136:  263740000000  popj     p,              ;"6?@   "
034137:  040424634144  .iot     .chbsp, @634144(d);"$$4SAD"
034140:  104000000554                           ;"(@  %L"
034141:  125500143566                           ;"*M ,=V"
034142:  000000033633  rcuret                   ;"   #>;"
034143:  125474040064                           ;"*L\$ T"
034144:  000000033537  rcduer                   ;"   #=?"
034145:  125473774023                           ;"*L[_@3"
034146:  000000601377  rcdix2                   ;"   P+_"
034147:  040424546224  .iot     .chbsp, @546224(d);"$$4LR4"
034150:  104000000553                           ;"(@  %K"
034151:  125473757074                           ;"*L[]X\"
034152:  000000033467  rcderr                   ;"   #<W"
034153:  125473742144                           ;"*L[\1D"
034154:  000000033533  rcdamb                   ;"   #=;"
034155:  100405506127                           ;"($%HQ7"
034156:  104000000443                           ;"(@  $C"
034157:  100000000032  tt%wkf,,                 ;"(    :"
034160:  000000000017  p                        ;"     /"
034161:  100373230146                           ;"(#[3!F"
034162:  000000000133  osbkt                    ;"    !;"
034163:  123240100575                           ;"*:@(%]"
034164:  000000033475  obktok                   ;"   #<]"
034165:  100006134146                           ;"( &+AF"
034166:  000000000074  obkt                     ;"     \"
034167:  122630740017                           ;"*68\ /"
034170:  000000033642  nomstu                   ;"   #>B"
034171:  122551362416                           ;"*5I>4."
034172:  000000033410  njscal                   ;"   #<("
034173:  100000114420  tt%wkf,,                 ;"(  )D0"
034174:  104000000225                           ;"(@  "5"
034175:  100005041325                           ;"( %$+5"
034176:  104000000000                           ;"(@    "
034177:  057040372770                           ;"%X@?7X"
034200:  000000033370  istdev                   ;"   #;X"
034201:  057022534144                           ;"%X2KAD"
034202:  000000033406  ircusr                   ;"   #<&"
034203:  057022446224                           ;"%X2DR4"
034204:  000000033404  ircdir                   ;"   #<$"
034205:  057003406127                           ;"%X#@Q7"
034206:  000000033372  ipupnm                   ;"   #;Z"
034207:  116757527074                           ;")WOJX\"
034210:  000000033645  interr                   ;"   #>E"
034211:  116755241325                           ;")WM4+5"
034212:  000000033700  injsys                   ;"   #? "
034213:  040004623420  .iot     .chnul, 623420(d);"$ $R<0"
034214:  000000033366  inin                     ;"   #;V"
034215:  056673015515                           ;"%V[!M-"
034216:  000000033364  iidtnc                   ;"   #;T"
034217:  056672730440                           ;"%VZ[$@"
034220:  000000033362  iidcnv                   ;"   #;R"
034221:  056653255630                           ;"%VK5N8"
034222:  000000033360  igtjfn                   ;"   #;P"
034223:  040275456220  .iot     chtblc, @456220(s);"$"]ER0"
034224:  000000033356  iflin                    ;"   #;N"
034225:  100275115515                           ;"("])M-"
034226:  104000000231                           ;"(@  "9"
034227:  100275030440                           ;"("]#$@"
034230:  104000000223                           ;"(@  "3"
034231:  100255413015                           ;"("MA8-"
034232:  104000000024                           ;"(@   4"
034233:  100255355630                           ;"("M=N8"
034234:  104000000020                           ;"(@   0"
034235:  115212401345                           ;")J*@+E"
034236:  000000033666  getacs                   ;"   #>V"
034237:  100004026220                           ;"( $"R0"
034240:  104000000232                           ;"(@  ":"
034241:  114066647074                           ;")@VTX\"
034242:  000000033646  exterr                   ;"   #>F"
034243:  113773634264                           ;")?[SBT"
034244:  000000033662  errorj                   ;"   #>R"
034245:  100231344262                           ;"("9<BR"
034246:  320700000000  jump     q, z            ;":'    "
034247:  100231315416                           ;"("99L."
034250:  320740000000  jump     p, z            ;":'@   "
034251:  100000000017  tt%wkf,,                 ;"(    /"
034252:  000000000005  e                        ;"     %"
034253:  100000000016  tt%wkf,,                 ;"(    ."
034254:  000000000004  d                        ;"     $"
034255:  100206070146                           ;"("&'!F"
034256:  000000000135  csbkt                    ;"    !="
034257:  112252360542                           ;")2J>%B"
034260:  000000033567  ckstnx                   ;"   #=W"
034261:  112252360412                           ;")2J>$*"
034262:  000000033570  ckstlp                   ;"   #=X"
034263:  112252357764                           ;")2J=_T"
034264:  000000033564  ckster                   ;"   #=T"
034265:  112252357710                           ;")2J=_("
034266:  000000033613  ckstdn                   ;"   #>+"
034267:  112213156014                           ;")2+-P,"
034270:  000000033556  chkstr                   ;"   #=N"
034271:  112120500575                           ;")10H%]"
034272:  000000033514  cbktok                   ;"   #=,"
034273:  112120500530                           ;")10H%8"
034274:  000000033520  cbktnn                   ;"   #=0"
034275:  100003200146                           ;"( #0!F"
034276:  000000000076  cbkt                     ;"     ^"
034277:  100003175106                           ;"( #/I&"
034300:  260740000000  pushj    p, z            ;"6'@   "
034301:  100000000015  tt%wkf,,                 ;"(    -"
034302:  000000000003  c                        ;"     #"
034303:  100000000014  tt%wkf,,                 ;"(    ,"
034304:  000000000002  b                        ;"     ""
034305:  110654461017                           ;")&LF(/"
034306:  000000033635  ambstu                   ;"   #>="
034307:  100000000013  tt%wkf,,                 ;"(    +"
034310:  000000000001  a                        ;"     !"
034311:  026751070117                           ;""WI'!/"
034312:  000000033356  iflin                    ;"   #;N"
034313:  000000000000                           ;"      "
034314:  000000033356  iflin                    ;"   #;N"
034315:  100011174246                           ;"( )/BF"
034316:  256000000000  xct      z               ;"5P    " "+@\0\0\0"
034317:  100561010162                           ;"(%Q!!R"
034320:  000000032023  .uimp                    ;"   #03"
034321:  134630153345  ildb     z, @153345(h)   ;"+F8-;E"
034322:  000000032250  .svacs                   ;"   #2H"
034323:  100560457515                           ;"(%PE]-"
034324:  000000031667  .stak                    ;"   #.W"
034325:  134624515601  ildb     z, @515601(d)   ;"+F4IN!"
034326:  000000031541  .sgrf0                   ;"   #-A"
034327:  134624515550  ildb     z, @515550(d)   ;"+F4IMH"
034330:  000000031536  .sgref                   ;"   #->"
034331:  134615751345  ildb     z, 751345(s)    ;"+F-]+E"
034332:  000000032256  .rtacs                   ;"   #2N"
034333:  134571771307  ildb     y, @771307(w)   ;"+EY_+'"
034334:  000000000101  .priou                   ;"    !!"
034335:  534534524103  hrle     x, @524103(z)   ;"KE<JA#"
034336:  000000000040  .mref2                   ;"     @"
034337:  534534524102  hrle     x, @524102(z)   ;"KE<JA""
034340:  000000000200  birtst                   ;"    " "
034341:  134531430314  ildb     x, @430314(w)   ;"+E9C#,"
034342:  000000032452  .mentr                   ;"   #4J"
034343:  134464334046  ildb     w, @334046(d)   ;"+DT;@F"
034344:  000000031557  .immed                   ;"   #-O"
034345:  134464114663  ildb     w, @114663(d)   ;"+DT)FS"
034346:  000000032020  .ilgl2                   ;"   #00"
034347:  134464114661  ildb     w, @114661(d)   ;"+DT)FQ"
034350:  000000032015  .ilgl0                   ;"   #0-"
034351:  100556065076                           ;"(%N&H^"
034352:  000000032014  .ilgl                    ;"   #0,"
034353:  134464100743  ildb     w, @100743(d)   ;"+DT('C"
034354:  000000032042  .ilcsq                   ;"   #0B"
034355:  100011115272                           ;"( ))JZ"
034356:  133000000000  ibp      z               ;"+8    "
034357:  134425746300  ildb     h, @746300(e)   ;"+D5\S "
034360:  000000400000  .fhslf                   ;"   @  "
034361:  534416102570  hrle     h, 102570(q)    ;"KD.(5X"
034362:  000000200000  .eprev                   ;"   0  "
034363:  134415336246  ildb     h, 336246(s)    ;"+D-;RF"
034364:  000000032321  .emxct                   ;"   #31"
034365:  534415322602  hrle     h, 322602(s)    ;"KD-:6""
034366:  000000031461  $$pxct                   ;"   #,Q"
034367:  134415321505  ildb     h, 321505(s)    ;"+D-:-%"
034370:  000000000010  h                        ;"     ("
034371:  134415321504  ildb     h, 321504(s)    ;"+D-:-$"
034372:  000000031453  .emtab                   ;"   #,K"
034373:  134415320005  ildb     h, 320005(s)    ;"+D-: %"
034374:  000000032343  .emstk                   ;"   #3C"
034375:  134415313331  ildb     h, 313331(s)    ;"+D-9;9"
034376:  000000032316  .emraw                   ;"   #3."
034377:  134415263644  ildb     h, 263644(s)    ;"+D-6>D"
034400:  000000032320  .emjsr                   ;"   #30"
034401:  134415257206  ildb     h, 257206(s)    ;"+D-5Z&"
034402:  000000032315  .emiad                   ;"   #3-"
034403:  134415234406  ildb     h, 234406(s)    ;"+D-3D&"
034404:  000000032314  .emcad                   ;"   #3,"
034405:  134415233226  ildb     h, 233226(s)    ;"+D-3:6"
034406:  000000032322  .embyt                   ;"   #32"
034407:  134415226414  ildb     h, 226414(s)    ;"+D-2T,"
034410:  000000032317  .emadr                   ;"   #3/"
034411:  134415226345  ildb     h, 226345(s)    ;"+D-2SE"
034412:  000000032323  .emacs                   ;"   #33"
034413:  534413453363  hrle     h, 453363(y)    ;"KD+E;S"
034414:  000000000100  .priin                   ;"    ! "
034415:  534413453362  hrle     h, 453362(y)    ;"KD+E;R"
034416:  000000000400  .efad1                   ;"    $ "
034417:  134404042561  ildb     h, 42561(d)     ;"+D$$5Q"
034420:  000000031532  .doit0                   ;"   #-:"
034421:  100554715526                           ;"(%LYM6"
034422:  000000031524  .doit                    ;"   #-4"
034423:  134400744550  ildb     h, 744550       ;"+D \EH"
034424:  000000031544  .dbref                   ;"   #-D"
034425:  100554532200                           ;"(%LK2 "
034426:  000000032266  .crlf                    ;"   #2V"
034427:  134371301602  ildb     g, @301602(w)   ;"+CY8.""
034430:  000000032007  .ckrf1                   ;"   #0'"
034431:  100554363577                           ;"(%L>=_"
034432:  000000031562  .byte                    ;"   #-R"
034433:  100554313061                           ;"(%L98Q"
034434:  000000031652  .blt0                    ;"   #.J"
034435:  100011070216                           ;"( )'"."
034436:  000000031630  .blt                     ;"   #.8"
034437:  134357655135  ildb     g, 655135(p)    ;"+COUI="
034440:  000000032517  .block                   ;"   #5/"
034441:  100554261662                           ;"(%L6.R"
034442:  000000032025  .bdpx                    ;"   #05"
034443:  534345253114  hrle     g, 253114(e)    ;"KCE59,"
034444:  000000400000  .fhslf                   ;"   @  "
034445:  134344055372  ildb     g, 55372(d)     ;"+CD%KZ"
034446:  133000000000  ibp      z               ;"+8    "
034447:  040571515246  .iot     .chvtb, @515246(w);"$%YIJF"
034450:  000000031453  .emtab                   ;"   #,K"
034451:  040011312272  .iot     .chnul, 312272(w);"$ )92Z"
034452:  000000031455  $ibp                     ;"   #,M"
034453:  135200005571  ldb      d, 5571         ;"+J  MY"
034454:  000000031740  $cksq0                   ;"   #/@"
034455:  135200004663  ldb      d, 4663         ;"+J  FS"
034456:  000000031712  $ckseq                   ;"   #/*"
034457:  135165366106  ldb      c, @366106(e)   ;"+IU>Q&"
034460:  000000032061  $bhndl                   ;"   #0Q"
034461:  040566106016  .iot     .chvtb, @106016(f);"$%V(P."
034462:  000000032055  $bhlt                    ;"   #0M"
034463:  040566066045  .iot     .chvtb, @66045(f);"$%V&PE"
034464:  000000032050  $bchk                    ;"   #0H"
034465:  075152556642                           ;"'IJMVB"
034466:  000000031457  $adjsp                   ;"   #,O"
034467:  075152555372                           ;"'IJMKZ"
034470:  000000031455  $ibp                     ;"   #,M"
034471:  100574155756                           ;"(%\-ON"
034472:  000000032223  $.del                    ;"   #23"
034473:  100574150461                           ;"(%\-$Q"
034474:  000000032224  $.bpw                    ;"   #24"
034475:  100574144414                           ;"(%\,D,"
034476:  000000032222  $.adr                    ;"   #22"
034477:  135565315246  ldb      y, @315246(e)   ;"+MU9JF"
034500:  000000031461  $$pxct                   ;"   #,Q"
034501:  135565315211  ldb      y, @315211(e)   ;"+MU9J)"
034502:  000000031500  $$pxc0                   ;"   #- "
034503:  135563720676  ldb      y, @720676(c)   ;"+MSZ&^"
034504:  000000032245  $$jsrt                   ;"   #2E"
034505:  135563717664  ldb      y, @717664(c)   ;"+MSY^T"
034506:  000000032242  $$jser                   ;"   #2B"
034507:  135563503403  ldb      y, @503403(c)   ;"+MSH<#"
034510:  000000031701  $$inia                   ;"   #/!"
034511:  135561737446  ldb      y, @737446(a)   ;"+MQ[\F"
034512:  000000032160  $$bpst                   ;"   #1P"
034513:  135561737376  ldb      y, @737376(a)   ;"+MQ[[^"
034514:  000000032161  $$bprt                   ;"   #1Q"
034515:  135561737127  ldb      y, @737127(a)   ;"+MQ[Y7"
034516:  000000032150  $$bpnm                   ;"   #1H"
034517:  135561737121  ldb      y, @737121(a)   ;"+MQ[Y1"
034520:  000000032163  $$bpng                   ;"   #1S"
034521:  135561736641  ldb      y, @736641(a)   ;"+MQ[VA"
034522:  000000032145  $$bpj0                   ;"   #1E"
034523:  135561736442  ldb      y, @736442(a)   ;"+MQ[TB"
034524:  000000032205  $$bpfx                   ;"   #2%"
034525:  135561736420  ldb      y, @736420(a)   ;"+MQ[T0"
034526:  000000032200  $$bpff                   ;"   #2 "
034527:  135561736364  ldb      y, @736364(a)   ;"+MQ[ST"
034530:  000000032215  $$bper                   ;"   #2-"
034531:  135561736156  ldb      y, @736156(a)   ;"+MQ[QN"
034532:  000000032156  $$bpbd                   ;"   #1N"
034533:  135561474275  ldb      y, @474275(a)   ;"+MQGB]"
034534:  000000032225  $$adjs                   ;"   #25"
034535:  135561474254  ldb      y, @474254(a)   ;"+MQGBL"
034536:  000000032075  $$adjb                   ;"   #0]"
034537:  100000000044  tt%wkf,,                 ;"(    D"
034540:  000000000000                           ;"      "
034541:  500000002562  hll      z, 2562         ;"H   5R"
034542:  000000000044  btslft                   ;"     D"
034543:  100466355306                           ;"($V=K&"
034544:  000000032344  uupdl                    ;"   #3D"
034545:  070157367345                           ;"'!O>[E"
034546:  000000033175  usracs                   ;"   #9]"
034547:  500000002360  hll      z, 2360         ;"H   3P"
034550:  000000000006  f                        ;"     &"
034551:  040007527035  .iot     .chnul, 527035(g);"$ 'JX="
034552:  000000033005  ufpc                     ;"   #8%"
034553:  127674255305                           ;"*^\5K%"
034554:  000000031771  uadjac                   ;"   #/Y"
034555:  100453167105                           ;"($K.Y%"
034556:  000000000016  q                        ;"     ."
034557:  100007326562                           ;"( ':UR"
034560:  000000033011  temp                     ;"   #8)"
034561:  500000002246  hll      z, 2246         ;"H   2F"
034562:  000000000004  d                        ;"     $"
034563:  500000002244  hll      z, 2244         ;"H   2D"
034564:  000000000000                           ;"      "
034565:  066422774710                           ;"&T2_G("
034566:  000000032475  skmrtn                   ;"   #4]"
034567:  040007115736  .iot     .chnul, 115736(g);"$ ')O>"
034570:  000000032771  savt                     ;"   #7Y"
034571:  040007115733  .iot     .chnul, 115733(g);"$ ')O;"
034572:  000000032740  savq                     ;"   #7@"
034573:  040436055053  .iot     .chbsp, @55053(q);"$$>%HK"
034574:  000000032752  savpq                    ;"   #7J"
034575:  040007115732  .iot     .chnul, 115732(g);"$ ')O:"
034576:  000000032722  savp                     ;"   #72"
034577:  040425220016  .iot     .chbsp, @220016(e);"$$52 ."
034600:  000000032776  restt                    ;"   #7^"
034601:  040425220013  .iot     .chbsp, @220013(e);"$$52 +"
034602:  000000032744  restq                    ;"   #7D"
034603:  065523200653                           ;"&M30&K"
034604:  000000032762  restpq                   ;"   #7R"
034605:  040425220012  .iot     .chbsp, @220012(e);"$$52 *"
034606:  000000032731  restp                    ;"   #79"
034607:  100000002074  tt%wkf,,                 ;"(   0\"
034610:  000000000007  g                        ;"     '"
034611:  100000002073  tt%wkf,,                 ;"(   0["
034612:  000000000006  f                        ;"     &"
034613:  100000002072  tt%wkf,,                 ;"(   0Z"
034614:  000000000005  e                        ;"     %"
034615:  100405111466                           ;"($%),V"
034616:  104000000076                           ;"(@   ^"
034617:  124302364246                           ;"*C">BF"
034620:  000000031514  prinst                   ;"   #-,"
034621:  100403747635                           ;"($#\^="
034622:  000000032271  pntpc                    ;"   #2Y"
034623:  124236065146                           ;"*B>&IF"
034624:  000000032307  pntoct                   ;"   #3'"
034625:  124236043335                           ;"*B>$;="
034626:  000000032264  pntipc                   ;"   #2T"
034627:  100403747161                           ;"($#\YQ"
034630:  000000032276  pnthw                    ;"   #2^"
034631:  100000002027  tt%wkf,,                 ;"(   07"
034632:  000000000015  s                        ;"     -"
034633:  100000002026  tt%wkf,,                 ;"(   06"
034634:  000000000014  z                        ;"     ,"
034635:  100000002025  tt%wkf,,                 ;"(   05"
034636:  000000000013  y                        ;"     +"
034637:  100000002024  tt%wkf,,                 ;"(   04"
034640:  000000000012  x                        ;"     *"
034641:  100000002023  tt%wkf,,                 ;"(   03"
034642:  000000000011  w                        ;"     )"
034643:  100000002022  tt%wkf,,                 ;"(   02"
034644:  000000000010  h                        ;"     ("
034645:  100000000032  tt%wkf,,                 ;"(    :"
034646:  000000000017  p                        ;"     /"
034647:  100006010466                           ;"( &!$V"
034650:  104000000224                           ;"(@  "4"
034651:  122533461615                           ;"*5;F.-"
034652:  000000000003  c                        ;"     #"
034653:  062055522517                           ;"&0MJ5/"
034654:  000000032576  mretne                   ;"   #5^"
034655:  040347425210  .iot     .chbel, 425210(g);"$#GBJ("
034656:  000000032477  mretn                    ;"   #4_"
034657:  100000111752  tt%wkf,,                 ;"(  )/J"
034660:  000000033007  mpp                      ;"   #8'"
034661:  040344330314  .iot     .chbel, 330314(d);"$#D;#,"
034662:  000000032630  mentr                    ;"   #68"
034663:  121607255305                           ;"*.'5K%"
034664:  000000031765  madjac                   ;"   #/U"
034665:  521310155306  hlloi    f, 155306(h)    ;"J+(-K&" "T,AZc"
034666:  000000000024  luupdl                   ;"     4"
034667:  500333706306  hll      f, @706306(y)   ;"H#;XS&" "P\r_\fc"
034670:  000000000144  rlogjf                   ;"    !D"
034671:  100005026306                           ;"( %"S&"
034672:  000000033031  jpdl                     ;"   #89"
034673:  100301027652                           ;"(#!"^J"
034674:  000000032627  itrsx                    ;"   #67"
034675:  117051670117                           ;")XIW!/"
034676:  000000032614  itrsim                   ;"   #6,"
034677:  117051664566                           ;")XIVEV"
034700:  000000032606  itrret                   ;"   #6&"
034701:  057051600322                           ;"%XIP#2"
034702:  000000032540  itrap1                   ;"   #5@"
034703:  040301026322  .iot     .chcnf, rdcr(a) ;"$#!"S2"
034704:  000000032541  itrap                    ;"   #5A"
034705:  116757570172                           ;")WOO!Z"
034706:  000000032370  intpbp                   ;"   #3X"
034707:  040277456700  .iot     chtblc, @456700(p);"$"_EW "
034710:  000000033010  intdf                    ;"   #8("
034711:  116757411422                           ;")WOA,2"
034712:  000000032404  instyp                   ;"   #4$"
034713:  500000001417  hll      z, 1417         ;"H   ,/"
034714:  000000000002  b                        ;"     ""
034715:  500000001416  hll      z, 1416         ;"H   ,."
034716:  000000000007  g                        ;"     '"
034717:  100262466100                           ;"("RFQ "
034720:  104000000170                           ;"(@  !X"
034721:  100000000022  tt%wkf,,                 ;"(    2"
034722:  000000000010  h                        ;"     ("
034723:  100000000021  tt%wkf,,                 ;"(    1"
034724:  000000000007  g                        ;"     '"
034725:  114675613550                           ;")F]Q=H"
034726:  000000032003  fxuref                   ;"   #0#"
034727:  100000064035  tt%wkf,,                 ;"(  &@="
034730:  000000033006  fpc                      ;"   #8&"
034731:  100000000020  tt%wkf,,                 ;"(    0"
034732:  000000000006  f                        ;"     &"
034733:  054064143426                           ;"%@T,<6"
034734:  000000031442  exinit                   ;"   #,B"
034735:  100231344262                           ;"("9<BR"
034736:  320700000000  jump     q, z            ;":'    "
034737:  100231315416                           ;"("99L."
034740:  320740000000  jump     p, z            ;":'@   "
034741:  053712725162                           ;"%?*ZIR" "\n|W*9"
034742:  000000032600  emret1                   ;"   #6 "
034743:  053712725161                           ;"%?*ZIQ"
034744:  000000032577  emret0                   ;"   #5_"
034745:  113603463414                           ;")>#F<,"
034746:  000000031743  effadr                   ;"   #/C"
034747:  113603463362                           ;")>#F;R"
034750:  000000031757  effad1                   ;"   #/O"
034751:  113603463361                           ;")>#F;Q"
034752:  000000031745  effad0                   ;"   #/E"
034753:  100000000017  tt%wkf,,                 ;"(    /"
034754:  000000000005  e                        ;"     %"
034755:  500000001114  hll      z, 1114         ;"H   ),"
034756:  000000000001  a                        ;"     !"
034757:  100000055207  tt%wkf,,                 ;"(  %J'"
034760:  000000032574  die                      ;"   #5\"
034761:  040000054572  .iot     .chnul, 54572   ;"$  %EZ"
034762:  000000032632  dbp                      ;"   #6:"
034763:  100000000016  tt%wkf,,                 ;"(    ."
034764:  000000000004  d                        ;"     $"
034765:  112213141135                           ;")2+,)="
034766:  000000031774  chkopc                   ;"   #/\"
034767:  100000000015  tt%wkf,,                 ;"(    -"
034770:  000000000003  c                        ;"     #"
034771:  500000001003  hll      z, 1003         ;"H   (#"
034772:  000000000005  e                        ;"     %"
034773:  100000050066  tt%wkf,,                 ;"(  % V"
034774:  000000000000                           ;"      "
034775:  111573537036                           ;")-[KX>"
034776:  000000000044  btslft                   ;"     D"
034777:  051454417212                           ;"%,LAZ*"
035000:  000000032631  block1                   ;"   #69"
035001:  500000000766  hll      z, 766          ;"H   'V"
035002:  000000000003  c                        ;"     #"
035003:  040003031615  .iot     .chnul, 31615(c);"$ ##.-"
035004:  000000032656  bits                     ;"   #6N"
035005:  040000046735  .iot     .chnul, 46735   ;"$  $W="
035006:  000000032636  bhc                      ;"   #6>"
035007:  100000000014  tt%wkf,,                 ;"(    ,"
035010:  000000000002  b                        ;"     ""
035011:  100156755305                           ;"(!N]K%"
035012:  000000031763  adjac                    ;"   #/S"
035013:  100000000013  tt%wkf,,                 ;"(    +"
035014:  000000000001  a                        ;"     !"
035015:  026744362062                           ;""WD>0R"
035016:  777274031442  coni     770, @exinit(z) ;"_Z\#,B"
035017:  000000000000                           ;"      "
035020:  000000031442  exinit                   ;"   #,B"
035021:  440011156012  andcb    z, 156012(w)    ;"D )-P*"
035022:  000000000377  .stp                     ;"    #_"
035023:  474373644762  seto     g, @644762(y)   ;"GC[TGR"
035024:  000000000000                           ;"      "
035025:  474373643747  seto     g, @643747(y)   ;"GC[T?G"
035026:  000000000004  d                        ;"     $"
035027:  474373643641  seto     g, @643641(y)   ;"GC[T>A"
035030:  000000000003  c                        ;"     #"
035031:  474373643565  seto     g, @643565(y)   ;"GC[T=U"
035032:  000000000005  e                        ;"     %"
035033:  474373643556  seto     g, @643556(y)   ;"GC[T=N"
035034:  000000000006  f                        ;"     &"
035035:  474373643510  seto     g, @643510(y)   ;"GC[T=("
035036:  000000000001  a                        ;"     !"
035037:  474373643365  seto     g, @643365(y)   ;"GC[T;U"
035040:  000000000002  b                        ;"     ""
035041:  070772351574                           ;"''Z=-\"
035042:  000000031360  vt52tb                   ;"   #+P"
035043:  070772343374                           ;"''Z<;\"
035044:  000000031360  vt52tb                   ;"   #+P"
035045:  070771202074                           ;"''Y00\"
035046:  000000031351  vt05tb                   ;"   #+I"
035047:  067364331332                           ;"&[T;+:" "\ro#2m"
035050:  000000031321  ttype1                   ;"   #+1"
035051:  067364331331                           ;"&[T;+9"
035052:  000000031271  ttype0                   ;"   #*Y"
035053:  526633472222  hrlom    z, @472222(y)   ;"JV;G22" "UY\\tI"
035054:  000000000001  a                        ;"     !"
035055:  100442724072                           ;"($BZ@Z"
035056:  000000000000                           ;"      "
035057:  126547734251                           ;"*UG[BI"
035060:  000000000000                           ;"      "
035061:  462713405355  setcmm   q, 405355(y)    ;"F7+@KM"
035062:  000000000030  nttyps                   ;"     8"
035063:  500217754474  hll      d, 754474(p)    ;"H"/]D\"
035064:  000000777777  dsptb                    ;"   ___"
035065:  040003440174  .iot     .chnul, 440174(c);"$ #D!\"
035066:  000000031405  dmtb                     ;"   #,%"
035067:  051751722374                           ;"%/IZ3\" "\n>O$~"
035070:  000000031376  c100tb                   ;"   #+^"
035071:  050672346574                           ;"%&Z<U\" "\n\033SM>"
035072:  000000031367  ansitb                   ;"   #+W"
035073:  100161335274                           ;"(!Q;J\"
035074:  000000031414  anntb                    ;"   #,,"
035075:  026744363504                           ;""WD>=$"
035076:  777720031271  consz    774, @ttype0    ;"__0#*Y"
035077:  000000000000                           ;"      "
035100:  000000031271  ttype0                   ;"   #*Y"
035101:  100011174246                           ;"( )/BF"
035102:  256000000000  xct      z               ;"5P    " "+@\0\0\0"
035103:  134641402517  ildb     s, 402517(a)    ;"+FA@5/"
035104:  000000000013  y                        ;"     +"
035105:  474641372525  seto     s, 372525(a)    ;"GFA?55"
035106:  000000000001  a                        ;"     !"
035107:  074635757503                           ;"'F=]]#"
035110:  000000025662  .texti                   ;"   "NR"
035111:  074635123155                           ;"'F=*9M"
035112:  000000025504  .tbluk                   ;"   "M$"
035113:  074635070756                           ;"'F=''N"
035114:  000000025427  .tbdel                   ;"   "L7"
035115:  074635057376                           ;"'F=%[^"
035116:  000000025452  .tbadd                   ;"   "LJ"
035117:  074627570362                           ;"'F7O#R"
035120:  000000025373  .stcmp                   ;"   "K["
035121:  074612126356                           ;"'F**SN"
035122:  000000025645  .rdtxt                   ;"   "NE"
035123:  074612126123                           ;"'F**Q3"
035124:  000000025626  .rdtty                   ;"   "N6"
035125:  474612117723  seto     z, 117723(x)    ;"GF*)_3"
035126:  000000000006  f                        ;"     &"
035127:  474612063274  seto     z, 63274(x)     ;"GF*&:\"
035130:  000000000002  b                        ;"     ""
035131:  474612051601  seto     z, 51601(x)     ;"GF*%.!"
035132:  000000000001  a                        ;"     !"
035133:  474612042572  seto     z, 42572(x)     ;"GF*$5Z"
035134:  000000000003  c                        ;"     #"
035135:  474612042555  seto     z, 42555(x)     ;"GF*$5M"
035136:  000000000004  d                        ;"     $"
035137:  474612041164  seto     z, 41164(x)     ;"GF*$)T"
035140:  000000000000                           ;"      "
035141:  474612035565  seto     z, 35565(x)     ;"GF*#MU"
035142:  000000000007  g                        ;"     '"
035143:  474612035136  seto     z, 35136(x)     ;"GF*#I>"
035144:  000000000010  h                        ;"     ("
035145:  474612034632  seto     z, 34632(x)     ;"GF*#F:"
035146:  000000000005  e                        ;"     %"
035147:  134571771307  ildb     y, @771307(w)   ;"+EY_+'"
035150:  000000000101  .priou                   ;"    !!"
035151:  134571770720  ildb     y, @770720(w)   ;"+EY_'0"
035152:  000000000100  .priin                   ;"    ! "
035153:  474534006221  seto     x, @6221(z)     ;"GE< R1"
035154:  000000000030  nttyps                   ;"     8"
035155:  100011115272                           ;"( ))JZ"
035156:  133000000000  ibp      z               ;"+8    "
035157:  474440150655  seto     w, 150655       ;"GD@-&M"
035160:  000000000001  a                        ;"     !"
035161:  474440145723  seto     w, 145723       ;"GD@,O3"
035162:  000000000014  z                        ;"     ,"
035163:  474440113630  seto     w, 113630       ;"GD@)>8"
035164:  000000000010  h                        ;"     ("
035165:  474440102260  seto     w, 102260       ;"GD@(2P"
035166:  000000000000                           ;"      "
035167:  440555464603  andcb    y, 464603(s)    ;"D%MFF#"
035170:  000000000011  w                        ;"     )"
035171:  474440070770  seto     w, 70770        ;"GD@''X"
035172:  000000000002  b                        ;"     ""
035173:  474440066552  seto     w, 66552        ;"GD@&UJ"
035174:  000000000012  x                        ;"     *"
035175:  474440066535  seto     w, 66535        ;"GD@&U="
035176:  000000000013  y                        ;"     +"
035177:  500000164732  hll      z, 164732       ;"H  .G:"
035200:  000000000015  s                        ;"     -"
035201:  134425746300  ildb     h, @746300(e)   ;"+D5\S "
035202:  000000400000  .fhslf                   ;"   @  "
035203:  074372246616                           ;"'CZ4V."
035204:  000000022715  .comnd                   ;"   "7-"
035205:  474371706025  seto     g, @706025(w)   ;"GCYXP5"
035206:  000000000022  .cmuqs                   ;"     2"
035207:  474371703356  seto     g, @703356(w)   ;"GCYX;N"
035210:  000000000017  p                        ;"     /"
035211:  474371702575  seto     g, @702575(w)   ;"GCYX5]"
035212:  000000000023  .cmtok                   ;"     3"
035213:  474371701506  seto     g, @701506(w)   ;"GCYX-&"
035214:  000000000020  .cmtad                   ;"     0"
035215:  474371700173  seto     g, @700173(w)   ;"GCYX!["
035216:  000000000003  c                        ;"     #"
035217:  474371674723  seto     g, @674723(w)   ;"GCYWG3"
035220:  000000000002  b                        ;"     ""
035221:  474371671546  seto     g, @671546(w)   ;"GCYW-F"
035222:  000000000021  .cmqst                   ;"     1"
035223:  474371666562  seto     g, @666562(w)   ;"GCYVUR"
035224:  000000000030  nttyps                   ;"     8"
035225:  474371666514  seto     g, @666514(w)   ;"GCYVU,"
035226:  000000000004  d                        ;"     $"
035227:  474371662323  seto     g, @662323(w)   ;"GCYV33"
035230:  000000000005  e                        ;"     %"
035231:  474371660372  seto     g, @660372(w)   ;"GCYV#Z"
035232:  000000000024  luupdl                   ;"     4"
035233:  474371657773  seto     g, @657773(w)   ;"GCYU_["
035234:  000000000002  b                        ;"     ""
035235:  474371657766  seto     g, @657766(w)   ;"GCYU_V"
035236:  000000000026  .cmnod                   ;"     6"
035237:  474371640274  seto     g, @640274(w)   ;"GCYT"\"
035240:  000000000001  a                        ;"     !"
035241:  474371640215  seto     g, @640215(w)   ;"GCYT"-"
035242:  000000000006  f                        ;"     &"
035243:  474371637523  seto     g, @637523(w)   ;"GCYS]3"
035244:  000000000004  d                        ;"     $"
035245:  474371635012  seto     g, @635012(w)   ;"GCYSH*"
035246:  000000000002  b                        ;"     ""
035247:  474371631554  seto     g, @631554(w)   ;"GCYS-L"
035250:  000000000011  w                        ;"     )"
035251:  474371626732  seto     g, @626732(w)   ;"GCYRW:"
035252:  000000000000                           ;"      "
035253:  474371626616  seto     g, @626616(w)   ;"GCYRV."
035254:  000000000015  s                        ;"     -"
035255:  474371626601  seto     g, @626601(w)   ;"GCYRV!"
035256:  000000000000                           ;"      "
035257:  474371626576  seto     g, @626576(w)   ;"GCYRU^"
035260:  000000000007  g                        ;"     '"
035261:  474371626416  seto     g, @626416(w)   ;"GCYRT."
035262:  000000000006  f                        ;"     &"
035263:  474371620224  seto     g, @620224(w)   ;"GCYR"4"
035264:  000000000011  w                        ;"     )"
035265:  474371617770  seto     g, @617770(w)   ;"GCYQ_X"
035266:  000000000016  q                        ;"     ."
035267:  474371617750  seto     g, @617750(w)   ;"GCYQ_H"
035270:  000000000003  c                        ;"     #"
035271:  474371617526  seto     g, @617526(w)   ;"GCYQ]6"
035272:  000000000001  a                        ;"     !"
035273:  474371615436  seto     g, @615436(w)   ;"GCYQL>"
035274:  000000000005  e                        ;"     %"
035275:  474371615343  seto     g, @615343(w)   ;"GCYQKC"
035276:  000000000013  y                        ;"     +"
035277:  474371615054  seto     g, @615054(w)   ;"GCYQHL"
035300:  000000000027  .cmchr                   ;"     7"
035301:  474371611632  seto     g, @611632(w)   ;"GCYQ.:"
035302:  000000000003  c                        ;"     #"
035303:  474371606346  seto     g, @606346(w)   ;"GCYPSF"
035304:  000000000025  .cmact                   ;"     5"
035305:  474371606272  seto     g, @606272(w)   ;"GCYPRZ"
035306:  000000000007  g                        ;"     '"
035307:  474371606255  seto     g, @606255(w)   ;"GCYPRM"
035310:  000000000010  h                        ;"     ("
035311:  134344055372  ildb     g, 55372(d)     ;"+CD%KZ"
035312:  133000000000  ibp      z               ;"+8    "
035313:  500011063427  hll      z, 63427(w)     ;"H )&<7"
035314:  000000000016  q                        ;"     ."
035315:  500562414446  hll      y, @414446(b)   ;"H%RADF"
035316:  000000000003  c                        ;"     #"
035317:  500562365536  hll      y, @365536(b)   ;"H%R>M>"
035320:  000002000001  b,,                      ;"  "  !"
035321:  500562343740  hll      y, @343740(b)   ;"H%R<?@"
035322:  000000000003  c                        ;"     #"
035323:  500562343725  hll      y, @343725(b)   ;"H%R<?5"
035324:  000000000004  d                        ;"     $"
035325:  500011205476  hll      z, 205476(w)    ;"H )0L^"
035326:  000002000000                           ;"  "   "
035327:  500011367256  hll      z, 367256(w)    ;"H )>ZN"
035330:  000017777776  p,,                      ;"  /__^"
035331:  500572476506  hll      y, @476506(x)   ;"H%ZGU&"
035332:  000017777776  p,,                      ;"  /__^"
035333:  500011354553  hll      z, 354553(w)    ;"H )=EK"
035334:  000015000001  s,,                      ;"  -  !"
035335:  535443366633  hrlei    w, 366633(c)    ;"KLC>V;"
035336:  000015000010  s,,                      ;"  -  ("
035337:  535443365511  hrlei    w, 365511(c)    ;"KLC>M)"
035340:  000015000012  s,,                      ;"  -  *"
035341:  500572270761  hll      y, @270761(x)   ;"H%Z7'Q"
035342:  000015000002  s,,                      ;"  -  ""
035343:  500572270342  hll      y, @270342(x)   ;"H%Z7#B"
035344:  000015000011  s,,                      ;"  -  )"
035345:  535436320717  hrlei    h, @320717(q)   ;"KL>:'/"
035346:  000015000003  s,,                      ;"  -  #"
035347:  535431655025  hrlei    h, @655025(w)   ;"KL9UH5"
035350:  000017777774  p,,                      ;"  /__\"
035351:  535431655024  hrlei    h, @655024(w)   ;"KL9UH4" "W1NZ\n"
035352:  000017777775  p,,                      ;"  /__]"
035353:  535420775146  hrlei    h, @775146      ;"KL0_IF"
035354:  000015000003  s,,                      ;"  -  #"
035355:  535420354601  hrlei    h, @354601      ;"KL0=F!"
035356:  000015000017  s,,                      ;"  -  /"
035357:  500571513256  hll      y, @513256(w)   ;"H%YI:N"
035360:  000017777775  p,,                      ;"  /__]"
035361:  535401651416  hrlei    h, 651416(a)    ;"KL!U,."
035362:  000015000007  s,,                      ;"  -  '"
035363:  535367503441  hrlei    g, @503441(g)   ;"KKWH<A"
035364:  000015000006  s,,                      ;"  -  &"
035365:  500571112755  hll      y, @112755(w)   ;"H%Y)7M"
035366:  000017777775  p,,                      ;"  /__]"
035367:  535354310370  hrlei    g, 310370(z)    ;"KKL9#X"
035370:  000017777776  p,,                      ;"  /__^"
035371:  500011327666  hll      z, 327666(w)    ;"H ):^V"
035372:  000015000010  s,,                      ;"  -  ("
035373:  500000170446  hll      z, 170446       ;"H  /$F"
035374:  000017777774  p,,                      ;"  /__\"
035375:  535314552533  hrlei    f, 552533(z)    ;"KK,M5;"
035376:  000015000015  s,,                      ;"  -  -"
035377:  535235734461  hrlei    d, @734461(s)   ;"KJ=[DQ"
035400:  000015000004  s,,                      ;"  -  $"
035401:  500011276636  hll      z, 276636(w)    ;"H )7V>"
035402:  000015000002  s,,                      ;"  -  ""
035403:  535207256656  hrlei    d, 256656(g)    ;"KJ'5VN" "W(:]W"
035404:  000015000011  s,,                      ;"  -  )"
035405:  535202344641  hrlei    d, 344641(b)    ;"KJ"<FA"
035406:  000015000013  s,,                      ;"  -  +"
035407:  535202344451  hrlei    d, 344451(b)    ;"KJ"<DI"
035410:  000015000014  s,,                      ;"  -  ,"
035411:  535202147221  hrlei    d, 147221(b)    ;"KJ",Z1"
035412:  000017777775  p,,                      ;"  /__]"
035413:  535201547514  hrlei    d, 547514(a)    ;"KJ!L]," "W(\rO&"
035414:  000015000003  s,,                      ;"  -  #"
035415:  535201547205  hrlei    d, 547205(a)    ;"KJ!LZ%"
035416:  000017777775  p,,                      ;"  /__]"
035417:  500011270465  hll      z, 270465(w)    ;"H )7$U"
035420:  000015000004  s,,                      ;"  -  $"
035421:  535200373374  hrlei    d, 373374       ;"KJ ?;\"
035422:  000015000020  s,,                      ;"  -  0"
035423:  535200326661  hrlei    d, 326661       ;"KJ :VQ"
035424:  000015000021  s,,                      ;"  -  1"
035425:  535200315730  hrlei    d, 315730       ;"KJ 9O8"
035426:  000017777776  p,,                      ;"  /__^"
035427:  535200315725  hrlei    d, 315725       ;"KJ 9O5"
035430:  000017777766  p,,                      ;"  /__V"
035431:  535200315723  hrlei    d, 315723       ;"KJ 9O3"
035432:  000017777767  p,,                      ;"  /__W"
035433:  535200314537  hrlei    d, 314537       ;"KJ 9E?"
035434:  000015000005  s,,                      ;"  -  %"
035435:  535200314466  hrlei    d, 314466       ;"KJ 9DV"
035436:  000017777765  p,,                      ;"  /__U"
035437:  500566317465  hll      y, @317465(f)   ;"H%V9\U"
035440:  000017777776  p,,                      ;"  /__^"
035441:  535176024514  hrlei    c, @24514(q)    ;"KI^"E," "W'p)&"
035442:  000015000002  s,,                      ;"  -  ""
035443:  500566263436  hll      y, @263436(f)   ;"H%V6<>"
035444:  000015000001  s,,                      ;"  -  !"
035445:  535175773402  hrlei    c, @773402(s)   ;"KI]_<""
035446:  000017777776  p,,                      ;"  /__^"
035447:  535165536333  hrlei    c, @536333(e)   ;"KIUKS;"
035450:  000015000016  s,,                      ;"  -  ."
035451:  535156445633  hrlei    c, 445633(q)    ;"KINDN;"
035452:  000015000002  s,,                      ;"  -  ""
035453:  535156445456  hrlei    c, 445456(q)    ;"KINDLN"
035454:  000015000001  s,,                      ;"  -  !"
035455:  500565750250  hll      y, @750250(e)   ;"H%U]"H"
035456:  000017777774  p,,                      ;"  /__\"
035457:  100010705071                           ;"( (XHY"
035460:  000000026310  zero                     ;"   "S("
035461:  500000161564  hll      z, 161564       ;"H  .-T"
035462:  000000000002  b                        ;"     ""
035463:  500000002562  hll      z, 2562         ;"H   5R"
035464:  000000000047  xx                       ;"     G"
035465:  072413576075                           ;"'4+OP]"
035466:  000000025514  xtlook                   ;"   "M,"
035467:  132413575611  fsc      h, 575611(y)    ;"+4+ON)"
035470:  000000025515  xtlok0                   ;"   "M-"
035471:  040523342756  .iot     .chlfd, @342756(c);"$%3<7N"
035472:  000000025434  xtdel                    ;"   "L<"
035473:  132410773663  fsc      h, 773663(h)    ;"+4(_>S"
035474:  000000025477  xtadd2                   ;"   "L_"
035475:  100523331376                           ;"(%3;+^"
035476:  000000025460  xtadd                    ;"   "LP"
035477:  100522027164                           ;"(%2"YT"
035500:  000000025020  xnod3                    ;"   "H0"
035501:  100522027163                           ;"(%2"YS"
035502:  000000025013  xnod2                    ;"   "H+"
035503:  100522027162                           ;"(%2"YR"
035504:  000000025007  xnod1                    ;"   "H'"
035505:  100522027161                           ;"(%2"YQ"
035506:  000000024777  xnod0                    ;"   "G_"
035507:  132146347454  fsc      c, 347454(f)    ;"+1F<\L"
035510:  000000023156  xcomxr                   ;"   "9N"
035511:  132146347446  fsc      c, 347446(f)    ;"+1F<\F"
035512:  000000023134  xcomxl                   ;"   "9<"
035513:  132146347443  fsc      c, 347443(f)    ;"+1F<\C"
035514:  000000023160  xcomxi                   ;"   "9P"
035515:  132146347423  fsc      c, 347423(f)    ;"+1F<\3"
035516:  000000023171  xcomx2                   ;"   "9Y"
035517:  132146347422  fsc      c, 347422(f)    ;"+1F<\2"
035520:  000000023174  xcomx1                   ;"   "9\"
035521:  132146347072  fsc      c, 347072(f)    ;"+1F<XZ"
035522:  000000023145  xcomrp                   ;"   "9E"
035523:  132146347060  fsc      c, 347060(f)    ;"+1F<XP"
035524:  000000023117  xcomrf                   ;"   "9/"
035525:  132146346632  fsc      c, 346632(f)    ;"+1F<V:"
035526:  000000023211  xcomnp                   ;"   ":)"
035527:  132146346617  fsc      c, 346617(f)    ;"+1F<V/"
035530:  000000023210  xcomne                   ;"   ":("
035531:  072146346616                           ;"'1F<V."
035532:  000000022725  xcomnd                   ;"   "75"
035533:  132146346602  fsc      c, 346602(f)    ;"+1F<V""
035534:  000000023233  xcomn1                   ;"   ":;"
035535:  132146346601  fsc      c, 346601(f)    ;"+1F<V!"
035536:  000000022760  xcomn0                   ;"   "7P"
035537:  100517270736                           ;"(%/7'>"
035540:  000000022764  xcom5                    ;"   "7T"
035541:  100517270735                           ;"(%/7'="
035542:  000000023034  xcom4                    ;"   "8<"
035543:  100517270734                           ;"(%/7'<"
035544:  000000023024  xcom3                    ;"   "84"
035545:  100517270733                           ;"(%/7';"
035546:  000000023031  xcom2                    ;"   "89"
035547:  100517270732                           ;"(%/7':"
035550:  000000023036  xcom1                    ;"   "8>"
035551:  100517270731                           ;"(%/7'9"
035552:  000000023025  xcom0                    ;"   "85"
035553:  132146006144  fsc      c, 6144(f)      ;"+1F QD"
035554:  000000025200  xcmusr                   ;"   "J "
035555:  132146006025  fsc      c, 6025(f)      ;"+1F P5"
035556:  000000024750  xcmuqs                   ;"   "GH"
035557:  132146003356  fsc      c, 3356(f)      ;"+1F ;N"
035560:  000000024421  xcmtxt                   ;"   "D1"
035561:  132146002575  fsc      c, 2575(f)      ;"+1F 5]"
035562:  000000025160  xcmtok                   ;"   "IP"
035563:  132146001506  fsc      c, 1506(f)      ;"+1F -&"
035564:  000000024627  xcmtad                   ;"   "F7"
035565:  132146000173  fsc      c, 173(f)       ;"+1F !["
035566:  000000024150  xcmswi                   ;"   "AH"
035567:  132145771546  fsc      c, 771546(e)    ;"+1E_-F"
035570:  000000024736  xcmqst                   ;"   "G>"
035571:  132145766562  fsc      c, 766562(e)    ;"+1E^UR"
035572:  000000025317  xcmpup                   ;"   "K/"
035573:  132145762323  fsc      c, 762323(e)    ;"+1E^33"
035574:  000000025035  xcmofi                   ;"   "H="
035575:  132145760372  fsc      c, 760372(e)    ;"+1E^#Z"
035576:  000000024546  xcmnux                   ;"   "EF"
035577:  132145760357  fsc      c, 760357(e)    ;"+1E^#O"
035600:  000000024547  xcmnum                   ;"   "EG"
035601:  132145757773  fsc      c, 757773(e)    ;"+1E]_["
035602:  000000024425  xcmnoi                   ;"   "D5"
035603:  132145757766  fsc      c, 757766(e)    ;"+1E]_V"
035604:  000000024767  xcmnod                   ;"   "GW"
035605:  132145745673  fsc      c, 745673(e)    ;"+1E\N["
035606:  000000024164  xcmkey                   ;"   "AT"
035607:  132145740223  fsc      c, 740223(e)    ;"+1E\"3"
035610:  000000024101  xcmini                   ;"   "A!"
035611:  132145737523  fsc      c, 737523(e)    ;"+1E[]3"
035612:  000000025036  xcmifi                   ;"   "H>"
035613:  132145726616  fsc      c, 726616(e)    ;"+1EZV."
035614:  000000024531  xcmflt                   ;"   "E9"
035615:  132145726576  fsc      c, 726576(e)    ;"+1EZU^"
035616:  000000024760  xcmfld                   ;"   "GP"
035617:  132145726416  fsc      c, 726416(e)    ;"+1EZT."
035620:  000000025032  xcmfil                   ;"   "H:"
035621:  132145720224  fsc      c, 720224(e)    ;"+1EZ"4"
035622:  000000025201  xcmdir                   ;"   "J!"
035623:  132145717770  fsc      c, 717770(e)    ;"+1EY_X"
035624:  000000024702  xcmdev                   ;"   "G""
035625:  132145715343  fsc      c, 715343(e)    ;"+1EYKC"
035626:  000000025277  xcmcma                   ;"   "J_"
035627:  132145714727  fsc      c, 714727(e)    ;"+1EYG7"
035630:  000000024512  xcmcfm                   ;"   "E*"
035631:  132145706346  fsc      c, 706346(e)    ;"+1EXSF"
035632:  000000024764  xcmact                   ;"   "GT"
035633:  131556722722                           ;"+-NZ72"
035634:  000000026060  wrapx1                   ;"   "PP"
035635:  100511130362                           ;"(%)+#R"
035636:  000000026050  wrapx                    ;"   "PH"
035637:  100511130337                           ;"(%)+#?"
035640:  000000026033  wrape                    ;"   "P;"
035641:  100511130322                           ;"(%)+#2"
035642:  000000026044  wrap1                    ;"   "PD"
035643:  100511130321                           ;"(%)+#1"
035644:  000000026040  wrap0                    ;"   "P@"
035645:  100010165322                           ;"( (.K2"
035646:  000000026035  wrap                     ;"   "P="
035647:  070157770362                           ;"'!O_#R"
035650:  000000025407  ustcmp                   ;"   "L'"
035651:  130157373565                           ;"+!O?=U"
035652:  000000023372  usrbrk                   ;"   ";Z"
035653:  130073062200                           ;"+ [&2 "
035654:  000000023751  uncrlf                   ;"   "?I"
035655:  127443050543                           ;"*\C%%C"
035656:  000000024365  typtb2                   ;"   "CU"
035657:  127443050542                           ;"*\C%%B"
035660:  000000024376  typtb1                   ;"   "C^"
035661:  127443050504                           ;"*\C%%$"
035662:  000000024361  typtab                   ;"   "CQ"
035663:  500007422503  hll      z, 422503(g)    ;"H 'B5#"
035664:  000020000000                           ;"  0   "
035665:  127427375306                           ;"*\7?K&"
035666:  000000026063  txibad                   ;"   "PS"
035667:  467365343642  orcmb    g, @343642(e)   ;"F[U<>B" "Mo+GQ"
035670:  000000020000  tt%wkp                   ;"   "  "
035671:  467365343640  orcmb    g, @343640(e)   ;"F[U<>@" "Mo+GP"
035672:  000000040000  tt%wkn                   ;"   $  "
035673:  467365343630  orcmb    g, @343630(e)   ;"F[U<>8" "Mo+GL"
035674:  000000100000  tt%wkf                   ;"   (  "
035675:  467365343623  orcmb    g, @343623(e)   ;"F[U<>3"
035676:  000000010000  tt%wka                   ;"   !  "
035677:  467365343015  orcmb    g, @343015(e)   ;"F[U<8-"
035700:  000000170000  tt%wak                   ;"   /  "
035701:  467365335665  orcmb    g, @335665(e)   ;"F[U;NU"
035702:  000000000040  .mref2                   ;"     @"
035703:  467365252741  orcmb    g, @252741(e)   ;"F[U57A"
035704:  000000004000  tt%eco                   ;"    @ "
035705:  127301324621                           ;"*[!:F1"
035706:  000000026316  tops10                   ;"   "S."
035707:  500000137602  hll      z, 137602       ;"H  +^""
035710:  000000000000                           ;"      "
035711:  127245227222                           ;"*ZE2Z2"
035712:  000000601237  tlukx1                   ;"   P*?"
035713:  467247207777  orcmb    e, 207777(g)    ;"FZG0__"
035714:  400000000000  setz     z,              ;"@     " "@\0\0\0\0"
035715:  467247154447  orcmb    e, 154447(g)    ;"FZG-DG"
035716:  040000000000  .iot     .chnul, z       ;"$     "
035717:  467247137144  orcmb    e, 137144(g)    ;"FZG+YD" "Mj9>2"
035720:  200000000000  move     z, z            ;"0     " " \0\0\0\0"
035721:  467247136274  orcmb    e, 136274(g)    ;"FZG+R\" "Mj9<^"
035722:  100000000000                           ;"(     "
035723:  127204060632                           ;"*Z$&&:"
035724:  000000023564  tielch                   ;"   "=T"
035725:  127204025346                           ;"*Z$"KF"
035726:  000000023756  tiecmd                   ;"   "?N"
035727:  100450366524                           ;"($H>U4"
035730:  000000025450  tdelz                    ;"   "LH"
035731:  127123212323                           ;"*Y3133"
035732:  000000601403  tdelx2                   ;"   P,#"
035733:  127123212322                           ;"*Y3132"
035734:  000000601234  tdelx1                   ;"   P*<"
035735:  127101341402                           ;"*Y!<,""
035736:  000000025621  tblkn1                   ;"   "N1"
035737:  127101337703                           ;"*Y!;_#"
035740:  000000025602  tblk2a                   ;"   "N""
035741:  127065534323                           ;"*XUKC3"
035742:  000000601236  taddx2                   ;"   P*>"
035743:  127065534322                           ;"*XUKC2"
035744:  000000601235  taddx1                   ;"   P*="
035745:  127065172352                           ;"*XU/3J"
035746:  000000025550  tablkx                   ;"   "MH"
035747:  127065172340                           ;"*XU/3@"
035750:  000000025611  tablkn                   ;"   "N)"
035751:  127065172337                           ;"*XU/3?"
035752:  000000025547  tablkm                   ;"   "MG"
035753:  127065172330                           ;"*XU/38"
035754:  000000025541  tablkf                   ;"   "MA"
035755:  127065172323                           ;"*XU/33"
035756:  000000025551  tablka                   ;"   "MI"
035757:  127065172314                           ;"*XU/3,"
035760:  000000025555  tablk3                   ;"   "MM"
035761:  127065172313                           ;"*XU/3+"
035762:  000000025570  tablk2                   ;"   "MX"
035763:  127065172312                           ;"*XU/3*"
035764:  000000025553  tablk1                   ;"   "MK"
035765:  127065172311                           ;"*XU/3)"
035766:  000000025534  tablk0                   ;"   "M<"
035767:  040000002265  .iot     .chnul, 2265    ;"$   2U"
035770:  000000000004  d                        ;"     $"
035771:  040000002264  .iot     .chnul, 2264    ;"$   2T"
035772:  000000000003  c                        ;"     #"
035773:  040000002263  .iot     .chnul, 2263    ;"$   2S"
035774:  000000000002  b                        ;"     ""
035775:  040000002262  .iot     .chnul, 2262    ;"$   2R"
035776:  000000000001  a                        ;"     !"
035777:  100442724072                           ;"($BZ@Z"
036000:  000000000001  a                        ;"     !"
036001:  100442661372                           ;"($BV+Z"
036002:  000000023720  subbp                    ;"   "?0"
036003:  100442552655                           ;"($BM6M"
036004:  000000026570  stsrc                    ;"   "UX"
036005:  100442546413                           ;"($BLT+"
036006:  000000025422  strc2                    ;"   "L2"
036007:  100007210627                           ;"( '1&7"
036010:  000000026612  stp6                     ;"   "V*"
036011:  100007210624                           ;"( '1&4"
036012:  000000026624  stp3                     ;"   "V4"
036013:  126553252632                           ;"*UK56:"
036014:  000000023555  stolch                   ;"   "=M"
036015:  100442501601                           ;"($BH.!"
036016:  000000026600  stflg                    ;"   "V "
036017:  126547734251                           ;"*UG[BI"
036020:  000000000001  a                        ;"     !"
036021:  040007171466  .iot     .chnul, 171466(g);"$ '/,V"
036022:  104000000053                           ;"(@   K"
036023:  040007170057  .iot     .chnul, 170057(g);"$ '/ O"
036024:  104000000103                           ;"(@  !#"
036025:  100007145257                           ;"( ',JO"
036026:  104000000102                           ;"(@  !""
036027:  100437213205                           ;"($?1:%"
036030:  104000000526                           ;"(@  %6"
036031:  100437201666                           ;"($?0.V"
036032:  104000000110                           ;"(@  !("
036033:  100437142465                           ;"($?,4U"
036034:  104000000113                           ;"(@  !+"
036035:  466310620044  orcmm    f, 620044(h)    ;"FS(R D"
036036:  200000000000  move     z, z            ;"0     " " \0\0\0\0"
036037:  466310572045  orcmm    f, 572045(h)    ;"FS(O0E"
036040:  400000000000  setz     z,              ;"@     " "@\0\0\0\0"
036041:  466310552414  orcmm    f, 552414(h)    ;"FS(M4,"
036042:  100000000000                           ;"(     "
036043:  500007114517  hll      z, 114517(g)    ;"H ')E/"
036044:  000000000005  e                        ;"     %"
036045:  500007015671  hll      z, repini(g)    ;"H '!NY"
036046:  000000000006  f                        ;"     &"
036047:  100430765352                           ;"($8^KJ"
036050:  000000026513  rtypp                    ;"   "U+"
036051:  125747131365                           ;"*OG++U"
036052:  000000026514  rtypes                   ;"   "U,"
036053:  100430765337                           ;"($8^K?"
036054:  000000026506  rtype                    ;"   "U&"
036055:  100430765325                           ;"($8^K5"
036056:  000000026562  rtyp4                    ;"   "UR"
036057:  125747130444                           ;"*OG+$D"
036060:  000000026550  rtyp33                   ;"   "UH"
036061:  100430765324                           ;"($8^K4"
036062:  000000026556  rtyp3                    ;"   "UN"
036063:  125747130371                           ;"*OG+#Y"
036064:  000000026543  rtyp20                   ;"   "UC"
036065:  100430765322                           ;"($8^K2"
036066:  000000026563  rtyp1                    ;"   "US"
036067:  100430765321                           ;"($8^K1"
036070:  000000026547  rtyp0                    ;"   "UG"
036071:  500007014422  hll      z, 14422(g)     ;"H '!D2"
036072:  000000000007  g                        ;"     '"
036073:  500007014356  hll      z, 14356(g)     ;"H '!CN"
036074:  000010000000                           ;"  (   "
036075:  500007014123  hll      z, 14123(g)     ;"H '!A3"
036076:  000004000000                           ;"  $   "
036077:  100430743152                           ;"($8\9J"
036100:  000000026201  rtsw1                    ;"   "R!"
036101:  125745512221                           ;"*OEI21"
036102:  000000026176  rtsetw                   ;"   "Q^"
036103:  100006777474                           ;"( &_\\"
036104:  000000026215  rptb                     ;"   "R-"
036105:  040425403205  .iot     .chbsp, @403205(e);"$$5@:%"
036106:  104000000111                           ;"(@  !)"
036107:  040425371666  .iot     .chbsp, @371666(e);"$$5?.V"
036110:  104000000107                           ;"(@  !'"
036111:  040425332465  .iot     .chbsp, @332465(e);"$$5;4U"
036112:  104000000112                           ;"(@  !*"
036113:  040000130566  .iot     .chnul, 130566  ;"$  +%V"
036114:  263740000000  popj     p,              ;"6?@   "
036115:  125511602463                           ;"*M)P4S"
036116:  000000025654  rdtxt2                   ;"   "NL"
036117:  125511602462                           ;"*M)P4R"
036120:  000000025752  rdtxt1                   ;"   "OJ"
036121:  100425026322                           ;"($5"S2"
036122:  000000601010  rdtx1                    ;"   P(("
036123:  125511546147                           ;"*M)LQG"
036124:  000000025764  rdtopm                   ;"   "OT"
036125:  125511351466                           ;"*M)=,V"
036126:  000000026156  rdsout                   ;"   "QN"
036127:  500425014575  hll      h, @14575(e)    ;"H$5!E]"
036130:  000000000013  y                        ;"     +"
036131:  100006731726                           ;"( &[/6"
036132:  000000026341  rdqt                     ;"   "SA"
036133:  125505442200                           ;"*M%D2 "
036134:  000000023576  rdcrlf                   ;"   "=^"
036135:  500424740655  hll      h, @740655(d)   ;"H$4\&M"
036136:  000000000012  x                        ;"     *"
036137:  100424740643                           ;"($4\&C"
036140:  000000026335  rdcr2                    ;"   "S="
036141:  100424740642                           ;"($4\&B"
036142:  000000026330  rdcr1                    ;"   "S8"
036143:  100006730644                           ;"( &[&D"
036144:  000000026322  rdcr                     ;"   "S2"
036145:  100424737472                           ;"($4[\Z"
036146:  000000026164  rdcbp                    ;"   "QT"
036147:  125505234466                           ;"*M%3DV"
036150:  000000026150  rdbout                   ;"   "QH"
036151:  125505217120                           ;"*M%1Y0"
036152:  000000026232  rdbkin                   ;"   "R:"
036153:  125505211203                           ;"*M%1*#"
036154:  000000026132  rdbin2                   ;"   "Q:"
036155:  125505211202                           ;"*M%1*""
036156:  000000026140  rdbin1                   ;"   "Q@"
036157:  100424735020                           ;"($4[H0"
036160:  000000026130  rdbin                    ;"   "Q8"
036161:  465513732602  orcmi    x, 732602(y)    ;"FM+[6"" "M4_5A"
036162:  200000000000  move     z, z            ;"0     " " \0\0\0\0"
036163:  465513730053  orcmi    x, 730053(y)    ;"FM+[ K"
036164:  000100000000                           ;" !    "
036165:  465513724316  orcmi    x, 724316(y)    ;"FM+ZC." "M4_(g"
036166:  010000000000                           ;"!     "
036167:  465513724007  orcmi    x, 724007(y)    ;"FM+Z@'"
036170:  002000000000                           ;" 0    "
036171:  465513723313  orcmi    x, 723313(y)    ;"FM+Z;+"
036172:  000200000000                           ;" "    "
036173:  465513716560  orcmi    x, 716560(y)    ;"FM+YUP"
036174:  100000000000                           ;"(     "
036175:  465513672630  orcmi    x, 672630(y)    ;"FM+W68" "M4^uL"
036176:  004000000000                           ;" @    "
036177:  465513645660  orcmi    x, 645660(y)    ;"FM+TNP" "M4^KX"
036200:  020000000000                           ;""     "
036201:  465513642707  orcmi    x, 642707(y)    ;"FM+T7'"
036202:  000040000000                           ;"  @   "
036203:  465513642565  orcmi    x, 642565(y)    ;"FM+T5U"
036204:  400000000000  setz     z,              ;"@     " "@\0\0\0\0"
036205:  465513642214  orcmi    x, 642214(y)    ;"FM+T2," "M4^DF"
036206:  000010000000                           ;"  (   "
036207:  465513641617  orcmi    x, 641617(y)    ;"FM+T./"
036210:  000020000000                           ;"  0   "
036211:  465513641556  orcmi    x, 641556(y)    ;"FM+T-N" "M4^C7"
036212:  040000000000  .iot     .chnul, z       ;"$     "
036213:  465513641361  orcmi    x, 641361(y)    ;"FM+T+Q"
036214:  001000000000                           ;" (    "
036215:  100424610760                           ;"($4Q'P"
036216:  000000025716  rcomn                    ;"   "O."
036217:  465502105124  orcmi    x, 105124(b)    ;"FM"(I4"
036220:  000010000000                           ;"  (   "
036221:  465502077777  orcmi    x, 77777(b)     ;"FM"'__"
036222:  040000000000  .iot     .chnul, z       ;"$     "
036223:  465502027776  orcmi    x, 27776(b)     ;"FM""_^"
036224:  000002000000                           ;"  "   "
036225:  465502027144  orcmi    x, 27144(b)     ;"FM""YD"
036226:  020000000000                           ;""     "
036227:  100006720574                           ;"( &Z%\"
036230:  000000026220  ratb                     ;"   "R0"
036231:  500000002131  hll      z, 2131         ;"H   19"
036232:  214000000000  movm     z, z            ;"1@    " "#\0\0\0\0"
036233:  500000002123  hll      z, 2123         ;"H   13"
036234:  000000000007  g                        ;"     '"
036235:  100000002074  tt%wkf,,                 ;"(   0\"
036236:  000000000007  g                        ;"     '"
036237:  100000002073  tt%wkf,,                 ;"(   0["
036240:  000000000006  f                        ;"     &"
036241:  100000002072  tt%wkf,,                 ;"(   0Z"
036242:  000000000005  e                        ;"     %"
036243:  100405506451                           ;"($%HTI"
036244:  000000000001  a                        ;"     !"
036245:  524341367523  hrlo     g, 367523(a)    ;"JCA>]3"
036246:  000000602031  pupnx2                   ;"   P09"
036247:  100006424615                           ;"( &BF-"
036250:  000000026317  punc                     ;"   "S/"
036251:  500000123560  hll      z, 123560       ;"H  *=P"
036252:  000000000004  d                        ;"     $"
036253:  100000002026  tt%wkf,,                 ;"(   06"
036254:  000000000014  z                        ;"     ,"
036255:  100000002025  tt%wkf,,                 ;"(   05"
036256:  000000000013  y                        ;"     +"
036257:  100000002024  tt%wkf,,                 ;"(   04"
036260:  000000000012  x                        ;"     *"
036261:  100000002023  tt%wkf,,                 ;"(   03"
036262:  000000000011  w                        ;"     )"
036263:  100000002022  tt%wkf,,                 ;"(   02"
036264:  000000000010  h                        ;"     ("
036265:  040000000032  .iot     .chnul, .chcnz  ;"$    :"
036266:  000000000017  p                        ;"     /"
036267:  100372452620                           ;"(#ZE60"
036270:  104000000021                           ;"(@   1"
036271:  463313362654  setcmb   f, 362654(y)    ;"F;+>6L" "Ll[eV"
036272:  770000000000  blki     700, z          ;"_     " "~\0\0\0\0"
036273:  040367510440  .iot     .chbel, @510440(g);"$#WI$@"
036274:  104000000222                           ;"(@  "2"
036275:  122726071565                           ;"*76'-U"
036276:  000000024573  nuxbrk                   ;"   "E["
036277:  122723332565                           ;"*73;5U"
036300:  000000024567  numbrk                   ;"   "EW"
036301:  500361277474  hll      g, @277474(a)   ;"H#Q7\\"
036302:  000000000003  c                        ;"     #"
036303:  122645267356                           ;"*6E6[N"
036304:  000000602047  npxnul                   ;"   P0G"
036305:  122645267251                           ;"*6E6ZI"
036306:  000000602045  npxnsw                   ;"   P0E"
036307:  122645267125                           ;"*6E6Y5"
036310:  000000602054  npxnqs                   ;"   P0L"
036311:  122645266777                           ;"*6E6W_"
036312:  000000602046  npxnom                   ;"   P0F"
036313:  122645266666                           ;"*6E6VV"
036314:  000000602055  npxnmt                   ;"   P0M"
036315:  122645266646                           ;"*6E6VF"
036316:  000000602056  npxnmd                   ;"   P0N"
036317:  100360736115                           ;"(#P[Q-"
036320:  000000602051  npxnc                    ;"   P0I"
036321:  122645247241                           ;"*6E4ZA"
036322:  000000602050  npxinw                   ;"   P0H"
036323:  122645246416                           ;"*6E4T."
036324:  000000602053  npxidt                   ;"   P0K"
036325:  122645246340                           ;"*6E4S@"
036326:  000000602052  npxicn                   ;"   P0J"
036327:  122645224343                           ;"*6E2CC"
036330:  000000602057  npxcma                   ;"   P0O"
036331:  122645216144                           ;"*6E1QD"
036332:  000000602044  npxamb                   ;"   P0D"
036333:  100006010466                           ;"( &!$V"
036334:  104000000224                           ;"(@  "4"
036335:  522627676732  hllom    z, @676732(g)   ;"J67WW:" "TY>}m"
036336:  000000000051  noiech                   ;"     I"
036337:  122627671477                           ;"*67W,_"
036340:  000000024477  noicom                   ;"   "D_"
036341:  522627665432  hllom    z, @665432(g)   ;"J67VL:" "TY>k\r"
036342:  000000000050  noibch                   ;"     H"
036343:  100357673217                           ;"(#OW:/"
036344:  000000023006  nline                    ;"   "8&"
036345:  122536454676                           ;"*5>EF^"
036346:  000000025775  ninsrt                   ;"   "O]"
036347:  100350056154                           ;"(#H%QL"
036350:  104000000077                           ;"(@   _"
036351:  121655564064                           ;"*.MN@T"
036352:  000000027060  measur                   ;"   "XP"
036353:  521614133730  hlloi    z, 133730(z)    ;"J.,+?8" "T8a7l"
036354:  000000000031  maxcfn                   ;"     9"
036355:  121026746616                           ;"*(6\V."
036356:  000000027133  lcomnd                   ;"   "Y;"
036357:  500005252256  hll      z, 252256(e)    ;"H %52N"
036360:  000000000011  w                        ;"     )"
036361:  120352135256                           ;"*#J+JN"
036362:  000000026450  klword                   ;"   "TH"
036363:  500000103306  hll      z, 103306       ;"H  (;&"
036364:  000000000010  h                        ;"     ("
036365:  100320752755                           ;"(#0]7M"
036366:  000000024227  keyw4                    ;"   "B7"
036367:  100320752754                           ;"(#0]7L"
036370:  000000024215  keyw3                    ;"   "B-"
036371:  100320752753                           ;"(#0]7K"
036372:  000000024221  keyw2                    ;"   "B1"
036373:  100320752751                           ;"(#0]7I"
036374:  000000024165  keyw0                    ;"   "AU"
036375:  120246255504                           ;"*"F5M$"
036376:  000000024317  keytab                   ;"   "C/"
036377:  100005162476                           ;"( %.4^"
036400:  000000024351  key5                     ;"   "CI"
036401:  100005162475                           ;"( %.4]"
036402:  000000024350  key4                     ;"   "CH"
036403:  100005162474                           ;"( %.4\"
036404:  000000024333  key3                     ;"   "C;"
036405:  100005162473                           ;"( %.4["
036406:  000000024335  key2                     ;"   "C="
036407:  100005162472                           ;"( %.4Z"
036410:  000000024412  key1                     ;"   "D*"
036411:  040005041325  .iot     .chnul, 41325(e);"$ %$+5"
036412:  104000000000                           ;"(@    "
036413:  117046557503                           ;")XFM]#"
036414:  000000025715  itexti                   ;"   "O-"
036415:  500004624316  hll      z, 624316(d)    ;"H $RC."
036416:  000040000000                           ;"  @   "
036417:  116757402662                           ;")WO@6R"
036420:  000000026023  insrt1                   ;"   "P3"
036421:  100277454676                           ;"("_EF^"
036422:  000000026012  insrt                    ;"   "P*"
036423:  116755014632                           ;")WM!F:"
036424:  000000023546  inilch                   ;"   "=F"
036425:  116755014612                           ;")WM!F*"
036426:  000000023550  inilc1                   ;"   "=H"
036427:  440004572431  andcb    z, 572431(d)    ;"D $O49"
036430:  400000000000  setz     z,              ;"@     " "@\0\0\0\0"
036431:  100255416422                           ;"("MAT2"
036432:  104000000303                           ;"(@  ##"
036433:  100255413015                           ;"("MA8-"
036434:  104000000024                           ;"(@   4"
036435:  455425343670  orcai    h, @343670(e)   ;"EL5<>X" "K1+G\\"
036436:  001000000000                           ;" (    "
036437:  055270032521                           ;"%JX#51"
036440:  000000602064  gjfx48                   ;"   P0T"
036441:  455275527510  orcai    e, @527510(s)   ;"EJ]J](" "K+m/$"
036442:  000004000000                           ;"  $   "
036443:  455275465131  orcai    e, @465131(s)   ;"EJ]FI9"
036444:  040000000000  .iot     .chnul, z       ;"$     "
036445:  455275437007  orcai    e, @437007(s)   ;"EJ]CX'"
036446:  400000000000  setz     z,              ;"@     " "@\0\0\0\0"
036447:  115212507402                           ;")J*H\""
036450:  000000027053  getwth                   ;"   "XK"
036451:  115212461205                           ;")J*F*%"
036452:  000000024404  getpos                   ;"   "D$"
036453:  115212410465                           ;")J*A$U"
036454:  000000027046  getcoc                   ;"   "XF"
036455:  455015664316  orcai    z, 664316(s)    ;"EH-VC." "K nhg"
036456:  400000000000  setz     z,              ;"@     " "@\0\0\0\0"
036457:  455015664007  orcai    z, 664007(s)    ;"EH-V@'"
036460:  020000000000                           ;""     "
036461:  455015663437  orcai    z, 663437(s)    ;"EH-V<?"
036462:  040000000000  .iot     .chnul, z       ;"$     "
036463:  455015663360  orcai    z, 663360(s)    ;"EH-V;P" "K nfx"
036464:  200000000000  move     z, z            ;"0     " " \0\0\0\0"
036465:  114527734503                           ;")E7[E#"
036466:  000000026302  fndln2                   ;"   "S""
036467:  114527734502                           ;")E7[E""
036470:  000000026261  fndln1                   ;"   "RQ"
036471:  114527734220                           ;")E7[B0"
036472:  000000026252  fndlin                   ;"   "RJ"
036473:  114510175565                           ;")E(/MU"
036474:  000000024542  fltbrk                   ;"   "EB"
036475:  114504255565                           ;")E$5MU"
036476:  000000023360  fldbrk                   ;"   ";P"
036477:  114450775565                           ;")DH_MU"
036500:  000000023366  filbrk                   ;"   ";V"
036501:  040000000020  .iot     .chnul, .cmtad  ;"$    0"
036502:  000000000000                           ;"      "
036503:  100231401014                           ;"("9@(,"
036504:  104000000011                           ;"(@   )"
036505:  100231344262                           ;"("9<BR"
036506:  320700000000  jump     q, z            ;":'    "
036507:  500003642675  hll      z, 642675(c)    ;"H #T6]"
036510:  000000000003  c                        ;"     #"
036511:  113734755565                           ;")?<]MU"
036512:  000000023376  eolbrk                   ;"   ";^"
036513:  100003642662                           ;"( #T6R"
036514:  000000026336  eol1                     ;"   "S>"
036515:  500217754050  hll      d, 754050(p)    ;"H"/]@H"
036516:  000002000000                           ;"  "   "
036517:  113136010362                           ;")9>!#R"
036520:  000000026753  dpctl1                   ;"   "WK"
036521:  040217115006  .iot     .chcnd, 115006(p);"$"/)H&"
036522:  000000026735  dpctl                    ;"   "W="
036523:  100216737012                           ;"(".[X*"
036524:  000000024001  dohlp                    ;"   "@!"
036525:  040003445057  .iot     .chnul, 445057(c);"$ #DHO"
036526:  104000000104                           ;"(@  !$"
036527:  113035424475                           ;")8=BD]"
036530:  000000026103  disptc                   ;"   "Q#"
036531:  100003423221                           ;"( #B:1"
036532:  000000026030  ding                     ;"   "P8"
036533:  112764563204                           ;")7TN:$"
036534:  000000026447  delin3                   ;"   "TG"
036535:  112764563203                           ;")7TN:#"
036536:  000000026443  delin2                   ;"   "TC"
036537:  112764563202                           ;")7TN:""
036540:  000000026441  delin1                   ;"   "TA"
036541:  112764563201                           ;")7TN:!"
036542:  000000026414  delin0                   ;"   "T,"
036543:  100214411220                           ;"(",A*0"
036544:  000000026405  delin                    ;"   "T%"
036545:  100214410615                           ;"(",A&-"
036546:  000000026370  delc4                    ;"   "SX"
036547:  100214410613                           ;"(",A&+"
036550:  000000026371  delc2                    ;"   "SY"
036551:  100214410612                           ;"(",A&*"
036552:  000000026400  delc1                    ;"   "T "
036553:  100003406475                           ;"( #@T]"
036554:  000000026351  delc                     ;"   "SI"
036555:  100000000016  tt%wkf,,                 ;"(    ."
036556:  000000000004  d                        ;"     $"
036557:  040000001052  .iot     .chnul, 1052    ;"$   (J"
036560:  000000000016  q                        ;"     ."
036561:  100206544762                           ;"("&LGR"
036562:  000000026640  curup                    ;"   "V@"
036563:  112413700556                           ;")4+X%N"
036564:  000000026713  curspt                   ;"   "W+"
036565:  112413661167                           ;")4+V)W"
036566:  000000026672  curnrm                   ;"   "VZ"
036567:  100206543510                           ;"("&L=("
036570:  000000026636  curdn                    ;"   "V>"
036571:  112413613151                           ;")4+Q9I"
036572:  000000026650  curbkw                   ;"   "VH"
036573:  112413613113                           ;")4+Q9+"
036574:  000000026710  curbk2                   ;"   "W("
036575:  112413613112                           ;")4+Q9*"
036576:  000000026702  curbk1                   ;"   "W""
036577:  112413613111                           ;")4+Q9)"
036600:  000000026653  curbk0                   ;"   "VK"
036601:  100206543365                           ;"("&L;U"
036602:  000000026652  curbk                    ;"   "VJ"
036603:  100003267566                           ;"( #6]V"
036604:  000000026111  ctbl                     ;"   "Q)"
036605:  052320055371                           ;"%30%KY"
036606:  000000602212  comx20                   ;"   P2*"
036607:  052320055332                           ;"%30%K:"
036610:  000000602135  comx19                   ;"   P1="
036611:  052320055331                           ;"%30%K9"
036612:  000000602134  comx18                   ;"   P1<"
036613:  112320055330                           ;")30%K8"
036614:  000000602043  comx17                   ;"   P0C"
036615:  112320055327                           ;")30%K7"
036616:  000000602042  comx16                   ;"   P0B"
036617:  112320055326                           ;")30%K6"
036620:  000000602041  comx15                   ;"   P0A"
036621:  112320055325                           ;")30%K5"
036622:  000000602040  comx14                   ;"   P0@"
036623:  112320055324                           ;")30%K4"
036624:  000000602037  comx13                   ;"   P0?"
036625:  112320055323                           ;")30%K3"
036626:  000000602036  comx12                   ;"   P0>"
036627:  112320055322                           ;")30%K2"
036630:  000000602035  comx11                   ;"   P0="
036631:  112320055321                           ;")30%K1"
036632:  000000601767  comx10                   ;"   P/W"
036633:  112320020532                           ;")30"%:"
036634:  000000601413  comnx9                   ;"   P,+"
036635:  112320020531                           ;")30"%9"
036636:  000000601321  comnx8                   ;"   P+1"
036637:  112320020524                           ;")30"%4"
036640:  000000601261  comnx3                   ;"   P*Q"
036641:  112320020523                           ;")30"%3"
036642:  000000601260  comnx2                   ;"   P*P"
036643:  112320020522                           ;")30"%2"
036644:  000000601257  comnx1                   ;"   P*O"
036645:  100205146602                           ;"("%,V""
036646:  000000022724  comn1                    ;"   "74"
036647:  100205144162                           ;"("%,AR"
036650:  000000027022  colup                    ;"   "X2"
036651:  112317650565                           ;")3/U%U"
036652:  000000026761  colums                   ;"   "WQ"
036653:  100205144114                           ;"("%,A,"
036654:  000000027077  coltr                    ;"   "X_"
036655:  100205144103                           ;"("%,A#"
036656:  000000027123  colti                    ;"   "Y3"
036657:  100205144077                           ;"("%,@_"
036660:  000000027075  colte                    ;"   "X]"
036661:  112317644504                           ;")3/TE$"
036662:  000000027030  coltab                   ;"   "X8"
036663:  100205144063                           ;"("%,@S"
036664:  000000027037  colt2                    ;"   "X?"
036665:  100205144062                           ;"("%,@R"
036666:  000000027066  colt1                    ;"   "XV"
036667:  100205143742                           ;"("%,?B"
036670:  000000027102  colr1                    ;"   "Y""
036671:  100205143515                           ;"("%,=-"
036672:  000000027010  colnc                    ;"   "X("
036673:  100205142710                           ;"("%,7("
036674:  000000027001  coldn                    ;"   "X!"
036675:  112317551325                           ;")3/M+5"
036676:  000000027112  colacc                   ;"   "Y*"
036677:  100003250663                           ;"( #5&S"
036700:  000000027004  col2                     ;"   "X$"
036701:  100003250662                           ;"( #5&R"
036702:  000000027002  col1                     ;"   "X""
036703:  100003250661                           ;"( #5&Q"
036704:  000000027006  col0                     ;"   "X&"
036705:  512276367660  hllzm    e, @367660(q)   ;"I2^>^P" "RKsoX"
036706:  000000100000  tt%wkf                   ;"   (  "
036707:  112276367507                           ;")2^>]'"
036710:  000000024045  cmusou                   ;"   "@E"
036711:  112276367452                           ;")2^>\J"
036712:  000000024051  cmuso1                   ;"   "@I"
036713:  112276361512                           ;")2^>-*"
036714:  000000024750  xcmuqs                   ;"   "GH"
036715:  112276171666                           ;")2^/.V"
036716:  000000024660  cmtset                   ;"   "FP"
036717:  112276155613                           ;")2^-N+"
036720:  000000025166  cmtok2                   ;"   "IV"
036721:  112276155612                           ;")2^-N*"
036722:  000000025164  cmtok1                   ;"   "IT"
036723:  500204602002  hll      d, 602002(d)    ;"H"$P0""
036724:  000000002000  cmtf1                    ;"    0 "
036725:  112276101402                           ;")2^(,""
036726:  000000024673  cmtadh                   ;"   "F["
036727:  112276101243                           ;")2^(*C"
036730:  000000024265  cmtab2                   ;"   "BU"
036731:  112276101242                           ;")2^(*B"
036732:  000000024257  cmtab1                   ;"   "BO"
036733:  100204601504                           ;"("$P-$"
036734:  000000024355  cmtab                    ;"   "CM"
036735:  512276012407  hllzm    e, @12407(q)    ;"I2^!4'"
036736:  000000000072  cmswtm                   ;"     Z"
036737:  500204600170  hll      d, delfx1(d)    ;"H"$P!X"
036740:  000000200000  .eprev                   ;"   0  "
036741:  512276011132  hllzm    e, @11132(q)    ;"I2^!):"
036742:  000000000057  cmswch                   ;"     O"
036743:  112275761466                           ;")2]^,V"
036744:  000000024040  cmsout                   ;"   "@@"
036745:  112275744742                           ;")2]\GB"
036746:  000000023713  cmsksp                   ;"   "?+"
036747:  112275604422                           ;")2]PD2"
036750:  000000023237  cmrtyp                   ;"   ":?"
036751:  112275604377                           ;")2]PC_"
036752:  000000023276  cmrty6                   ;"   ":^"
036753:  112275604376                           ;")2]PC^"
036754:  000000023275  cmrty5                   ;"   ":]"
036755:  112275604375                           ;")2]PC]"
036756:  000000023270  cmrty4                   ;"   ":X"
036757:  112275604374                           ;")2]PC\"
036760:  000000023263  cmrty3                   ;"   ":S"
036761:  112275604373                           ;")2]PC["
036762:  000000023267  cmrty2                   ;"   ":W"
036763:  112275604372                           ;")2]PCZ"
036764:  000000023262  cmrty1                   ;"   ":R"
036765:  112275604371                           ;")2]PCY"
036766:  000000023254  cmrty0                   ;"   ":L"
036767:  112275601014                           ;")2]P(,"
036770:  000000023470  cmrstr                   ;"   "<X"
036771:  112275600626                           ;")2]P&6"
036772:  000000023514  cmrsqt                   ;"   "=,"
036773:  112275600535                           ;")2]P%="
036774:  000000023471  cmrspc                   ;"   "<Y"
036775:  112275600524                           ;")2]P%4"
036776:  000000023500  cmrsp3                   ;"   "= "
036777:  112275600522                           ;")2]P%2"
037000:  000000023474  cmrsp1                   ;"   "<\"
037001:  112275577666                           ;")2]O^V"
037002:  000000023127  cmrset                   ;"   "97"
037003:  100204574612                           ;"("$OF*"
037004:  000000023512  cmrs1                    ;"   "=*"
037005:  112275572666                           ;")2]O6V"
037006:  000000023440  cmrqut                   ;"   "<@"
037007:  112275572546                           ;")2]O5F"
037010:  000000023517  cmrqst                   ;"   "=/"
037011:  112275572513                           ;")2]O5+"
037012:  000000023544  cmrqs2                   ;"   "=D"
037013:  112275572512                           ;")2]O5*"
037014:  000000023531  cmrqs1                   ;"   "=9"
037015:  112275564077                           ;")2]N@_"
037016:  000000023445  cmroom                   ;"   "<E"
037017:  112275527576                           ;")2]J]^"
037020:  000000023402  cmrfld                   ;"   "<""
037021:  112275527416                           ;")2]J\."
037022:  000000023364  cmrfil                   ;"   ";T"
037023:  512275521565  hllzm    e, @521565(s)   ;"I2]J-U"
037024:  000000000010  h                        ;"     ("
037025:  512275521552  hllzm    e, @521552(s)   ;"I2]J-J" "RKm#5"
037026:  000000000177  cmrdo1                   ;"    !_"
037027:  112275521002                           ;")2]J(""
037030:  000000023464  cmrdf1                   ;"   "<T"
037031:  112275520750                           ;")2]J'H"
037032:  000000023457  cmrdef                   ;"   "<O"
037033:  112275510616                           ;")2]I&."
037034:  000000023453  cmratt                   ;"   "<K"
037035:  112275510614                           ;")2]I&,"
037036:  000000023452  cmratr                   ;"   "<J"
037037:  112275510607                           ;")2]I&'"
037040:  000000023356  cmratm                   ;"   ";N"
037041:  112275510564                           ;")2]I%T"
037042:  000000023436  cmrat3                   ;"   "<>"
037043:  112275510563                           ;")2]I%S"
037044:  000000023413  cmrat2                   ;"   "<+"
037045:  112275510562                           ;")2]I%R"
037046:  000000023405  cmrat1                   ;"   "<%"
037047:  512275411706  hllzm    e, @411706(s)   ;"I2]A/&"
037050:  000000000026  .cmnod                   ;"     6"
037051:  512275411065  hllzm    e, @411065(s)   ;"I2]A(U"
037052:  000000400000  .fhslf                   ;"   @  "
037053:  512275411033  hllzm    e, @411033(s)   ;"I2]A(;"
037054:  000000010000  tt%wka                   ;"   !  "
037055:  512275405632  hllzm    e, @405632(s)   ;"I2]@N:"
037056:  000000000042  cmqtch                   ;"     B"
037057:  100003242776                           ;"( #47^"
037060:  000000024272  cmq5                     ;"   "BZ"
037061:  100003242775                           ;"( #47]"
037062:  000000024313  cmq4                     ;"   "C+"
037063:  100003242774                           ;"( #47\"
037064:  000000024242  cmq3                     ;"   "BB"
037065:  100003242773                           ;"( #47["
037066:  000000024300  cmq2                     ;"   "C "
037067:  100003242772                           ;"( #47Z"
037070:  000000024241  cmq1                     ;"   "BA"
037071:  112275214755                           ;")2]1GM"
037072:  000000025325  cmpups                   ;"   "K5"
037073:  112275214742                           ;")2]1GB"
037074:  000000025351  cmpuph                   ;"   "KI"
037075:  112275214737                           ;")2]1G?"
037076:  000000025360  cmpupe                   ;"   "KP"
037077:  112275214723                           ;")2]1G3"
037100:  000000025343  cmpup2                   ;"   "KC"
037101:  112275214722                           ;")2]1G2"
037102:  000000025337  cmpup1                   ;"   "K?"
037103:  112275214721                           ;")2]1G1"
037104:  000000025330  cmpup0                   ;"   "K8"
037105:  112274634477                           ;")2\SD_"
037106:  000000024277  cmnxte                   ;"   "B_"
037107:  112274622564                           ;")2\R5T"
037110:  000000024561  cmnumr                   ;"   "EQ"
037111:  112274622552                           ;")2\R5J"
037112:  000000024577  cmnumh                   ;"   "E_"
037113:  112274577475                           ;")2\O\]"
037114:  000000024435  cmnoi4                   ;"   "D="
037115:  112274577474                           ;")2\O\\"
037116:  000000024440  cmnoi3                   ;"   "D@"
037117:  112274577473                           ;")2\O\["
037120:  000000024454  cmnoi2                   ;"   "DL"
037121:  112274577472                           ;")2\O\Z"
037122:  000000024445  cmnoi1                   ;"   "DE"
037123:  500204557766  hll      d, 557766(d)    ;"H"$M_V"
037124:  400000000000  setz     z,              ;"@     " "@\0\0\0\0"
037125:  100204557331                           ;"("$M[9"
037126:  000000024622  cmnh8                    ;"   "F2"
037127:  112274550321                           ;")2\M#1"
037130:  000000024624  cmnh10                   ;"   "F4"
037131:  100003242622                           ;"( #462"
037132:  000000024625  cmnh                     ;"   "F5"
037133:  112273752471                           ;")2[]4Y"
037134:  000000024165  keyw0                    ;"   "AU"
037135:  112273413376                           ;")2[A;^"
037136:  000000024111  cmini5                   ;"   "A)"
037137:  112273413375                           ;")2[A;]"
037140:  000000024132  cmini4                   ;"   "A:"
037141:  112273413374                           ;")2[A;\"
037142:  000000024141  cmini3                   ;"   "AA"
037143:  112273413373                           ;")2[A;["
037144:  000000024112  cmini2                   ;"   "A*"
037145:  112273413372                           ;")2[A;Z"
037146:  000000024116  cmini1                   ;"   "A."
037147:  512273413100  hllzm    e, @413100(y)   ;"I2[A9 "
037150:  000000001000  cmindf                   ;"    ( "
037151:  112273413077                           ;")2[A8_"
037152:  000000023337  cminde                   ;"   ";?"
037153:  512273413075  hllzm    e, @413075(y)   ;"I2[A8]"
037154:  000000000100  .priin                   ;"    ! "
037155:  112273413063                           ;")2[A8S"
037156:  000000023326  cmind2                   ;"   ";6"
037157:  112273413062                           ;")2[A8R"
037160:  000000023313  cmind1                   ;"   ";+"
037161:  100204540216                           ;"("$L"."
037162:  000000023302  cmind                    ;"   ";""
037163:  512273210635  hllzm    e, @210635(y)   ;"I2[1&="
037164:  000000000077  cmhlpc                   ;"     _"
037165:  112273044410                           ;")2[$D("
037166:  000000024411  cmgtln                   ;"   "D)"
037167:  100204531557                           ;"("$K-O"
037170:  000000025120  cmgje                    ;"   "I0"
037171:  100204531555                           ;"("$K-M"
037172:  000000025127  cmgjc                    ;"   "I7"
037173:  100204531542                           ;"("$K-B"
037174:  000000025130  cmgj1                    ;"   "I8"
037175:  100204531212                           ;"("$K**"
037176:  000000023043  cmgdp                    ;"   "8C"
037177:  112272761750                           ;")2Z^/H"
037200:  000000023454  cmgdef                   ;"   "<L"
037201:  112272663762                           ;")2ZV?R"
037202:  000000025033  cmfxl1                   ;"   "H;"
037203:  112272643666                           ;")2ZT>V"
037204:  000000023123  cmfset                   ;"   "93"
037205:  512272640545  hllzm    e, @640545(x)   ;"I2ZT%E"
037206:  000000000006  f                        ;"     &"
037207:  112272615662                           ;")2ZQNR"
037210:  000000024761  cmfld1                   ;"   "GQ"
037211:  112272605063                           ;")2ZPHS"
037212:  000000025071  cmfil2                   ;"   "HY"
037213:  112272605062                           ;")2ZPHR"
037214:  000000025070  cmfil1                   ;"   "HX"
037215:  112272605061                           ;")2ZPHQ"
037216:  000000025044  cmfil0                   ;"   "HD"
037217:  112272602012                           ;")2ZP0*"
037220:  000000025144  cmfhlp                   ;"   "ID"
037221:  100204526322                           ;"("$JS2"
037222:  000000025156  cmfh1                    ;"   "IN"
037223:  112272246545                           ;")2Z4UE"
037224:  000000025267  cmdrec                   ;"   "JW"
037225:  112272213462                           ;")2Z1<R"
037226:  000000025237  cmdirh                   ;"   "J?"
037227:  112272213452                           ;")2Z1<J"
037230:  000000025225  cmdir9                   ;"   "J5"
037231:  112272213451                           ;")2Z1<I"
037232:  000000025257  cmdir8                   ;"   "JO"
037233:  112272213450                           ;")2Z1<H"
037234:  000000025233  cmdir7                   ;"   "J;"
037235:  112272213447                           ;")2Z1<G"
037236:  000000025262  cmdir6                   ;"   "JR"
037237:  112272213446                           ;")2Z1<F"
037240:  000000025247  cmdir5                   ;"   "JG"
037241:  112272213445                           ;")2Z1<E"
037242:  000000025207  cmdir4                   ;"   "J'"
037243:  112272213444                           ;")2Z1<D"
037244:  000000025221  cmdir3                   ;"   "J1"
037245:  112272213443                           ;")2Z1<C"
037246:  000000025227  cmdir2                   ;"   "J7"
037247:  112272213442                           ;")2Z1<B"
037250:  000000025202  cmdir1                   ;"   "J""
037251:  100204520222                           ;"("$J"2"
037252:  000000023737  cmdip                    ;"   "??"
037253:  112272212273                           ;")2Z12["
037254:  000000023766  cmdibq                   ;"   "?V"
037255:  100204520204                           ;"("$J"$"
037256:  000000023765  cmdib                    ;"   "?U"
037257:  112272177322                           ;")2Z/[2"
037260:  000000024731  cmdevh                   ;"   "G9"
037261:  112272177304                           ;")2Z/[$"
037262:  000000024725  cmdev3                   ;"   "G5"
037263:  112272177303                           ;")2Z/[#"
037264:  000000024721  cmdev2                   ;"   "G1"
037265:  112272177302                           ;")2Z/[""
037266:  000000024713  cmdev1                   ;"   "G+"
037267:  112272176561                           ;")2Z/UQ"
037270:  000000025265  cmdemo                   ;"   "JU"
037271:  512272176120  hllzm    e, @176120(x)   ;"I2Z/Q0" "RKQ|("
037272:  000000040000  tt%wkn                   ;"   $  "
037273:  512272176115  hllzm    e, @176115(x)   ;"I2Z/Q-"
037274:  000000000043  cmdefc                   ;"     C"
037275:  100204517632                           ;"("$I^:"
037276:  000000023731  cmdch                    ;"   "?9"
037277:  112272041466                           ;")2Z$,V"
037300:  000000024031  cmcout                   ;"   "@9"
037301:  512272041015  hllzm    e, @41015(x)    ;"I2Z$(-"
037302:  000000000055  cmconc                   ;"     M"
037303:  512272040733  hllzm    e, @40733(x)    ;"I2Z$';"
037304:  000000000073  cmcom2                   ;"     ["
037305:  512272040732  hllzm    e, @40732(x)    ;"I2Z$':" "RKPAm"
037306:  000000000041  cmcom1                   ;"     A"
037307:  100204515477                           ;"("$IL_"
037310:  000000023053  cmcom                    ;"   "8K"
037311:  112272033163                           ;")2Z#9S"
037312:  000000023051  cmcmt2                   ;"   "8I"
037313:  112272033162                           ;")2Z#9R"
037314:  000000023052  cmcmt1                   ;"   "8J"
037315:  112272016236                           ;")2Z!R>"
037316:  000000023611  cmcint                   ;"   ">)"
037317:  112272016205                           ;")2Z!R%"
037320:  000000023706  cmcin4                   ;"   "?&"
037321:  112272016204                           ;")2Z!R$"
037322:  000000023675  cmcin3                   ;"   ">]"
037323:  112272016203                           ;")2Z!R#"
037324:  000000023646  cmcin2                   ;"   ">F"
037325:  112272016202                           ;")2Z!R""
037326:  000000023620  cmcin1                   ;"   ">0"
037327:  100204515120                           ;"("$II0"
037330:  000000023572  cmcin                    ;"   "=Z"
037331:  100204515054                           ;"("$IHL"
037332:  000000025301  cmchr                    ;"   "K!"
037333:  112272004631                           ;")2Z F9"
037334:  000000024515  cmcfm0                   ;"   "E-"
037335:  500204514720  hll      d, 514720(d)    ;"H"$IG0"
037336:  000000020000  tt%wkp                   ;"   "  "
037337:  500204512376  hll      d, 512376(d)    ;"H"$I3^"
037340:  000000004000  tt%eco                   ;"    @ "
037341:  112271466023                           ;")2YFP3"
037342:  000000025026  cmatfi                   ;"   "H6"
037343:  100204507335                           ;"("$H[="
037344:  000000023773  cmapc                    ;"   "?["
037345:  100204507144                           ;"("$HYD"
037346:  000000024020  cmamb                    ;"   "@0"
037347:  452300356610  setcam   f, 356610       ;"E3 =V("
037350:  002000000000                           ;" 0    "
037351:  452300353630  setcam   f, 353630       ;"E3 =>8"
037352:  001000000000                           ;" (    "
037353:  452300340206  setcam   f, 340206       ;"E3 <"&"
037354:  020000000000                           ;""     "
037355:  452300336602  setcam   f, 336602       ;"E3 ;V""
037356:  000001000000                           ;"  !   "
037357:  452300334456  setcam   f, 334456       ;"E3 ;DN"
037360:  040000000000  .iot     .chnul, z       ;"$     "
037361:  452300333313  setcam   f, 333313       ;"E3 ;;+"
037362:  004000000000                           ;" @    "
037363:  440204636751  andcb    d, 636751(d)    ;"D"$SWI"
037364:  000010000000                           ;"  (   "
037365:  452300325417  setcam   f, 325417       ;"E3 :L/"
037366:  010000000000                           ;"!     "
037367:  452300320242  setcam   f, 320242       ;"E3 :"B"
037370:  000400000000                           ;" $    "
037371:  452300320004  setcam   f, 320004       ;"E3 : $"
037372:  000000000002  b                        ;"     ""
037373:  452300317033  setcam   f, 317033       ;"E3 9X;"
037374:  100000000000                           ;"(     "
037375:  452300312046  setcam   f, 312046       ;"E3 90F"
037376:  000000777777  dsptb                    ;"   ___"
037377:  452300300607  setcam   f, 300607       ;"E3 8&'"
037400:  200000000000  move     z, z            ;"0     " " \0\0\0\0"
037401:  452300300240  setcam   f, 300240       ;"E3 8"@"
037402:  000000000001  a                        ;"     !"
037403:  452300277373  setcam   f, 277373       ;"E3 7[["
037404:  400000000000  setz     z,              ;"@     " "@\0\0\0\0"
037405:  452300275252  setcam   f, 275252       ;"E3 7JJ"
037406:  000004000000                           ;"  $   "
037407:  452300271554  setcam   f, 271554       ;"E3 7-L"
037410:  000000777777  dsptb                    ;"   ___"
037411:  440204636141  andcb    d, 636141(d)    ;"D"$SQA"
037412:  002000000000                           ;" 0    "
037413:  452300266715  setcam   f, 266715       ;"E3 6W-"
037414:  777000000000  blki     770, z          ;"_X    "
037415:  452300266432  setcam   f, 266432       ;"E3 6T:"
037416:  000200000000                           ;" "    "
037417:  452300266226  setcam   f, 266226       ;"E3 6R6"
037420:  000777000000                           ;" '_   "
037421:  452300264125  setcam   f, 264125       ;"E3 6A5"
037422:  400000000000  setz     z,              ;"@     " "@\0\0\0\0"
037423:  452300263665  setcam   f, 263665       ;"E3 6>U"
037424:  100000000000                           ;"(     "
037425:  452300261265  setcam   f, 261265       ;"E3 6*U"
037426:  400000000000  setz     z,              ;"@     " "@\0\0\0\0"
037427:  452300260652  setcam   f, 260652       ;"E3 6&J"
037430:  000002000000                           ;"  "   "
037431:  452300246274  setcam   f, 246274       ;"E3 4R\"
037432:  000000000004  d                        ;"     $"
037433:  112263756503                           ;")2S]U#"
037434:  000000026721  clrpgq                   ;"   "W1"
037435:  112263756111                           ;")2S]Q)"
037436:  000000026731  clrpag                   ;"   "W9"
037437:  100204366330                           ;"("$>S8"
037440:  104000000022                           ;"(@   2"
037441:  512214745256  hllzm    d, 745256(z)    ;"I2,\JN" "RHgJW"
037442:  000000000011  w                        ;"     )"
037443:  112213157575                           ;")2+-]]"
037444:  000000025365  chktbs                   ;"   "KU"
037445:  112213126632                           ;")2+*V:"
037446:  000000023561  chklch                   ;"   "=Q"
037447:  100203364472                           ;"("#>DZ"
037450:  000000024067  chkbp                    ;"   "@W"
037451:  112213070212                           ;")2+'"*"
037452:  000000026240  chkblp                   ;"   "R@"
037453:  112213070162                           ;")2+'!R"
037454:  000000026250  chkbl1                   ;"   "RH"
037455:  112213064272                           ;")2+&BZ"
037456:  000000024055  chkabp                   ;"   "@M"
037457:  112213064242                           ;")2+&BB"
037460:  000000024057  chkab1                   ;"   "@O"
037461:  112170326504                           ;")1X:U$"
037462:  000000023066  cfntab                   ;"   "8V"
037463:  040202764260  .iot     .chcnd, 764260(b);"$""^BP"
037464:  104000000100                           ;"(@  ! "
037465:  112130142504                           ;")18,5$"
037466:  000000026072  ccbtab                   ;"   "PZ"
037467:  512130101615  hllzm    b, @101615(h)   ;"I18(.-"
037470:  000000000004  d                        ;"     $"
037471:  452107034757  setcam   b, 34757(g)     ;"E1'#GO"
037472:  254000000000  jrst     z               ;"5@    " "+\0\0\0\0"
037473:  040003175106  .iot     .chnul, 175106(c);"$ #/I&"
037474:  260740000000  pushj    p, z            ;"6'@   "
037475:  100000000015  tt%wkf,,                 ;"(    -"
037476:  000000000003  c                        ;"     #"
037477:  100175325465                           ;"(!]:LU"
037500:  000000026456  bwrd4                    ;"   "TN"
037501:  100175325464                           ;"(!]:LT"
037502:  000000026475  bwrd3                    ;"   "T]"
037503:  100175325463                           ;"(!]:LS"
037504:  000000026477  bwrd2                    ;"   "T_"
037505:  100175325462                           ;"(!]:LR"
037506:  000000026465  bwrd1                    ;"   "TU"
037507:  500000047565  hll      z, 47565        ;"H  $]U"
037510:  000000000001  a                        ;"     !"
037511:  511544766105  hllzi    y, 766105(d)    ;"I-D^Q%"
037512:  740000000000  blki     .efad1, z       ;"\     " "x\0\0\0\0"
037513:  111544527045                           ;")-DJXE"
037514:  000000026313  breaks                   ;"   "S+"
037515:  040003054466  .iot     .chnul, 54466(c);"$ #%DV"
037516:  104000000051                           ;"(@   I"
037517:  100173172506                           ;"(![/5&"
037520:  000000026026  bnull                    ;"   "P6"
037521:  100172340630                           ;"(!Z<&8"
037522:  104000000042                           ;"(@   B"
037523:  100000047020  tt%wkf,,                 ;"(  $X0"
037524:  104000000050                           ;"(@   H"
037525:  100002777335                           ;"( "_[="
037526:  000000026223  back                     ;"   "R3"
037527:  100000000014  tt%wkf,,                 ;"(    ,"
037530:  000000000002  b                        ;"     ""
037531:  100000000013  tt%wkf,,                 ;"(    +"
037532:  000000000001  a                        ;"     !"
037533:  000205146616                           ;" "%,V."
037534:  775342021715  conso    750, (b)        ;"_KB"/-"
037535:  000000000000                           ;"      "
037536:  000000021715                           ;"   "/-"
037537:  074641067666                           ;"'FA&^V"
037540:  000000021555  .trset                   ;"   "-M"
037541:  074641064566                           ;"'FA&EV"
037542:  000000021562  .trret                   ;"   "-R"
037543:  074627621746                           ;"'F7R/F"
037544:  000000021532  .stkst                   ;"   "-:"
037545:  074627621676                           ;"'F7R.^"
037546:  000000021536  .stkrt                   ;"   "->"
037547:  040560365711  .iot     .chvtb, @365711 ;"$%P>O)"
037550:  000000021644  .sav8                    ;"   ".D"
037551:  040560365705  .iot     .chvtb, @365705 ;"$%P>O%"
037552:  000000021630  .sav4                    ;"   ".8"
037553:  040560365704  .iot     .chvtb, @365704 ;"$%P>O$"
037554:  000000021630  .sav4                    ;"   ".8"
037555:  040560365703  .iot     .chvtb, @365703 ;"$%P>O#"
037556:  000000021620  .sav2                    ;"   ".0"
037557:  040560365702  .iot     .chvtb, @365702 ;"$%P>O""
037560:  000000021612  .sav1                    ;"   ".*"
037561:  100011154405                           ;"( )-D%"
037562:  000000000016  q                        ;"     ."
037563:  474614016616  seto     z, 16616(z)     ;"GF,!V."
037564:  000000021714  .rlend                   ;"   "/,"
037565:  474613016100  seto     z, 16100(y)     ;"GF+!Q "
037566:  000000777777  dsptb                    ;"   ___"
037567:  134571771307  ildb     y, @771307(w)   ;"+EY_+'"
037570:  000000000101  .priou                   ;"    !!"
037571:  134571770720  ildb     y, @770720(w)   ;"+EY_'0"
037572:  000000000100  .priin                   ;"    ! "
037573:  500557262105  hll      y, 262105(p)    ;"H%O61%"
037574:  000000000010  h                        ;"     ("
037575:  474532413223  seto     x, @413223(x)   ;"GE:A:3"
037576:  400000000000  setz     z,              ;"@     " "@\0\0\0\0"
037577:  474520336100  seto     x, @336100      ;"GE0;Q "
037600:  777777000000  conso    774, @(p)       ;"___   "
037601:  474464503420  seto     w, @503420(d)   ;"GDTH<0"
037602:  377777777777  sosg     p, @dsptb(p)    ;"?_____"
037603:  474431455256  seto     h, @455256(w)   ;"GD9EJN"
037604:  777777777777  conso    774, @dsptb(p)  ;"______"
037605:  500555312105  hll      y, 312105(s)    ;"H%M91%"
037606:  000000000005  e                        ;"     %"
037607:  500000164732  hll      z, 164732       ;"H  .G:"
037610:  000000000015  s                        ;"     -"
037611:  134425746300  ildb     h, @746300(e)   ;"+D5\S "
037612:  000000400000  .fhslf                   ;"   @  "
037613:  474370530274  seto     g, @530274(h)   ;"GCXK"\"
037614:  000000000013  y                        ;"     +"
037615:  474370520504  seto     g, @520504(h)   ;"GCXJ%$"
037616:  000000000011  w                        ;"     )"
037617:  474370477356  seto     g, @477356(h)   ;"GCXG[N"
037620:  000000000000                           ;"      "
037621:  474370470016  seto     g, @470016(h)   ;"GCXG ."
037622:  000000000012  x                        ;"     *"
037623:  474370445216  seto     g, @445216(h)   ;"GCXDJ."
037624:  000000000014  z                        ;"     ,"
037625:  474370443125  seto     g, @443125(h)   ;"GCXD95"
037626:  000000000033  .chesc                   ;"     ;"
037627:  474370436756  seto     g, @436756(h)   ;"GCXCWN"
037630:  000000000177  cmrdo1                   ;"    !_"
037631:  474370435060  seto     g, @435060(h)   ;"GCXCHP"
037632:  000000000037  .chcun                   ;"     ?"
037633:  474370434676  seto     g, @434676(h)   ;"GCXCF^"
037634:  000000000015  s                        ;"     -"
037635:  474370434654  seto     g, @434654(h)   ;"GCXCFL"
037636:  000000000035  .chcrb                   ;"     ="
037637:  474370434444  seto     g, @434444(h)   ;"GCXCDD"
037640:  000000000032  .chcnz                   ;"     :"
037641:  474370434443  seto     g, @434443(h)   ;"GCXCDC"
037642:  000000000031  maxcfn                   ;"     9"
037643:  474370434442  seto     g, @434442(h)   ;"GCXCDB"
037644:  000000000030  nttyps                   ;"     8"
037645:  474370434441  seto     g, @434441(h)   ;"GCXCDA"
037646:  000000000027  .cmchr                   ;"     7"
037647:  474370434440  seto     g, @434440(h)   ;"GCXCD@"
037650:  000000000026  .cmnod                   ;"     6"
037651:  474370434437  seto     g, @434437(h)   ;"GCXCD?"
037652:  000000000025  .cmact                   ;"     5"
037653:  474370434436  seto     g, @434436(h)   ;"GCXCD>"
037654:  000000000024  luupdl                   ;"     4"
037655:  474370434435  seto     g, @434435(h)   ;"GCXCD="
037656:  000000000023  .cmtok                   ;"     3"
037657:  474370434434  seto     g, @434434(h)   ;"GCXCD<"
037660:  000000000022  .cmuqs                   ;"     2"
037661:  474370434433  seto     g, @434433(h)   ;"GCXCD;"
037662:  000000000021  .cmqst                   ;"     1"
037663:  474370434432  seto     g, @434432(h)   ;"GCXCD:"
037664:  000000000020  .cmtad                   ;"     0"
037665:  474370434431  seto     g, @434431(h)   ;"GCXCD9"
037666:  000000000017  p                        ;"     /"
037667:  474370434430  seto     g, @434430(h)   ;"GCXCD8"
037670:  000000000016  q                        ;"     ."
037671:  474370434420  seto     g, @434420(h)   ;"GCXCD0"
037672:  000000000006  f                        ;"     &"
037673:  474370434417  seto     g, @434417(h)   ;"GCXCD/"
037674:  000000000005  e                        ;"     %"
037675:  474370434416  seto     g, @434416(h)   ;"GCXCD."
037676:  000000000004  d                        ;"     $"
037677:  474370434415  seto     g, @434415(h)   ;"GCXCD-"
037700:  000000000003  c                        ;"     #"
037701:  474370434414  seto     g, @434414(h)   ;"GCXCD,"
037702:  000000000002  b                        ;"     ""
037703:  474370434413  seto     g, @434413(h)   ;"GCXCD+"
037704:  000000000001  a                        ;"     !"
037705:  474370433530  seto     g, @433530(h)   ;"GCXC=8"
037706:  000000000036  .chccf                   ;"     >"
037707:  474370433475  seto     g, @433475(h)   ;"GCXC<]"
037710:  000000000034  .chcbs                   ;"     <"
037711:  474370431642  seto     g, @431642(h)   ;"GCXC.B"
037712:  000000000010  h                        ;"     ("
037713:  474370430556  seto     g, @430556(h)   ;"GCXC%N"
037714:  000000000007  g                        ;"     '"
037715:  474370426116  seto     g, @426116(h)   ;"GCXBQ."
037716:  000000000175  .chalt                   ;"    !]"
037717:  474370426063  seto     g, @426063(h)   ;"GCXBPS"
037720:  000000000176  .chal2                   ;"    !^"
037721:  074347634666                           ;"'CGSFV"
037722:  000000021576  .asset                   ;"   "-^"
037723:  074347631566                           ;"'CGS-V"
037724:  000000021605  .asret                   ;"   ".%"
037725:  500011064314  hll      z, 64314(w)     ;"H )&C,"
037726:  000000000003  c                        ;"     #"
037727:  500011064313  hll      z, 64313(w)     ;"H )&C+"
037730:  000000000002  b                        ;"     ""
037731:  500011064312  hll      z, 64312(w)     ;"H )&C*"
037732:  000000000001  a                        ;"     !"
037733:  500011063427  hll      z, 63427(w)     ;"H )&<7"
037734:  000000000016  q                        ;"     ."
037735:  100010365727                           ;"( (>O7"
037736:  254600000000  jrst     14, z           ;"5F    "
037737:  132310122153  fsc      f, 122153(h)    ;"+3(*1K"
037740:  415000000000                           ;"AH    " "C \0\0\0"
037741:  132253451000  fsc      e, 451000(y)    ;"+2KE( "
037742:  254240000000  jrst     5, z            ;"5B@   " "+\n\0\0\0"
037743:  470627213451  orcb     z, @213451(g)   ;"G&71<I"
037744:  700000000000  blki     apr, z          ;"X     " "p\0\0\0\0"
037745:  470627154320  orcb     z, @154320(g)   ;"G&7-C0"
037746:  000077000000                           ;"  _   "
037747:  470627153614  orcb     z, @153614(g)   ;"G&7->,"
037750:  077700000000                           ;"'_    "
037751:  470627123010  orcb     z, @123010(g)   ;"G&7*8("
037752:  000000777777  dsptb                    ;"   ___"
037753:  127337331502                           ;"*[?;-""
037754:  000000021571  trsov1                   ;"   "-Y"
037755:  100453770510                           ;"($K_%("
037756:  000000021567  trsov                    ;"   "-W"
037757:  127337272162                           ;"*[?71R"
037760:  000000021561  trset1                   ;"   "-Q"
037761:  126552315510                           ;"*UJ9M("
037762:  000000021546  stksov                   ;"   "-F"
037763:  126552315452                           ;"*UJ9LJ"
037764:  000000021550  stkso1                   ;"   "-H"
037765:  126552314632                           ;"*UJ9F:"
037766:  000000021534  stkse1                   ;"   "-<"
037767:  126552312661                           ;"*UJ96Q"
037770:  000000021543  stkrt0                   ;"   "-C"
037771:  040007010242  .iot     .chnul, 10242(g);"$ '!"B"
037772:  000000021663  rskp                     ;"   ".S"
037773:  100000130566  tt%wkf,,                 ;"(  +%V"
037774:  263740000000  popj     p,              ;"6?@   "
037775:  040000000034  .iot     .chnul, .chcbs  ;"$    <"
037776:  000000021664  r                        ;"   ".T"
037777:  100405111466                           ;"($%),V"
tt%wkn:
040000:  104000000076                           ;"(@   ^"
040001:  464064726144  orcm     a, @726144(d)   ;"F@TZQD"
040002:  010000000000                           ;"!     "
040003:  464064725321  orcm     a, @725321(d)   ;"F@TZK1"
040004:  004000000000                           ;" @    "
040005:  464064703520  orcm     a, @703520(d)   ;"F@TX=0"
040006:  400000000000  setz     z,              ;"@     " "@\0\0\0\0"
040007:  464064677120  orcm     a, @677120(d)   ;"F@TWY0"
040010:  000040000000                           ;"  @   "
040011:  464064671222  orcm     a, @671222(d)   ;"F@TW*2"
040012:  002000000000                           ;" 0    "
040013:  464064647350  orcm     a, @647350(d)   ;"F@TT[H"
040014:  000100000000                           ;" !    "
040015:  464064647010  orcm     a, @647010(d)   ;"F@TTX("
040016:  040000000000  .iot     .chnul, z       ;"$     "
040017:  464064636272  orcm     a, @636272(d)   ;"F@TSRZ"
040020:  100000000000                           ;"(     "
040021:  464064636271  orcm     a, @636271(d)   ;"F@TSRY"
040022:  200000000000  move     z, z            ;"0     " " \0\0\0\0"
040023:  464064632025  orcm     a, @632025(d)   ;"F@TS05"
040024:  020000000000                           ;""     "
040025:  464064627610  orcm     a, @627610(d)   ;"F@TR^("
040026:  000600000000                           ;" &    "
040027:  464064626523  orcm     a, @626523(d)   ;"F@TRU3"
040030:  001000000000                           ;" (    "
040031:  100000000032  tt%wkf,,                 ;"(    :"
040032:  000000000017  p                        ;"     /"
040033:  057645376751                           ;"%^E?WI"
040034:  000000021514  jsmsg0                   ;"   "-,"
040035:  117644171062                           ;")^D/(R"
040036:  000000021526  jshlt1                   ;"   "-6"
040037:  057644171061                           ;"%^D/(Q"
040040:  000000021525  jshlt0                   ;"   "-5"
040041:  057643424541                           ;"%^CBEA"
040042:  000000021506  jserr0                   ;"   "-&"
040043:  100262466100                           ;"("RFQ "
040044:  104000000170                           ;"(@  !X"
040045:  100231401014                           ;"("9@(,"
040046:  104000000011                           ;"(@   )"
040047:  100003445057                           ;"( #DHO"
040050:  104000000104                           ;"(@  !$"
040051:  100000000016  tt%wkf,,                 ;"(    ."
040052:  000000000004  d                        ;"     $"
040053:  100202764260                           ;"(""^BP"
040054:  104000000100                           ;"(@  ! "
040055:  112107034757                           ;")1'#GO"
040056:  254000000000  jrst     z               ;"5@    " "+\0\0\0\0"
040057:  100003175106                           ;"( #/I&"
040060:  260740000000  pushj    p, z            ;"6'@   "
040061:  100000000015  tt%wkf,,                 ;"(    -"
040062:  000000000003  c                        ;"     #"
040063:  100000000014  tt%wkf,,                 ;"(    ,"
040064:  000000000002  b                        ;"     ""
040065:  110753202162                           ;")'K01R"
040066:  000000021604  asset1                   ;"   ".$"
040067:  100000000013  tt%wkf,,                 ;"(    +"
040070:  000000000001  a                        ;"     !"
040071:  021607111556                           ;"".')-N"
040072:  777442021506  datai    774, jserr0(b)  ;"_\B"-&"
040073:  000000000000                           ;"      "
040074:  000000021506  jserr0                   ;"   "-&"
040075:  134571771307  ildb     y, @771307(w)   ;"+EY_+'"
040076:  000000000101  .priou                   ;"    !!"
040077:  134425746300  ildb     h, @746300(e)   ;"+D5\S "
040100:  000000400000  .fhslf                   ;"   @  "
040101:  130157416116                           ;"+!OAQ."
040102:  000000021467  usrhnd                   ;"   ",W"
040103:  130157367345                           ;"+!O>[E"
040104:  000000021254  usracs                   ;"   "*L"
040105:  100465750202                           ;"($U]"""
040106:  000000021247  uslv1                    ;"   "*G"
040107:  130155274246                           ;"+!M7BF"
040110:  000000021243  usinst                   ;"   "*C"
040111:  130155274000                           ;"+!M7@ "
040112:  000000021242  usinon                   ;"   "*B"
040113:  130153671326                           ;"+!KW+6"
040114:  000000021241  usch15                   ;"   "*A"
040115:  127700150047                           ;"*_ - G"
040116:  000000021244  uatchm                   ;"   "*D"
040117:  127255660565                           ;"*ZMV%U"
040120:  000000021250  tmploc                   ;"   "*H"
040121:  126552244601                           ;"*UJ4F!"
040122:  000000021251  stkflg                   ;"   "*I"
040123:  126550734435                           ;"*UH[D="
040124:  000000021437  sterpc                   ;"   ",?"
040125:  040440373624  .iot     chrwrd, 373624  ;"$$@?>4"
040126:  104000000127                           ;"(@  !7"
040127:  100000134124  tt%wkf,,                 ;"(  +A4"
040130:  104000000125                           ;"(@  !5"
040131:  126263333345                           ;"*RS;;E"
040132:  000000021272  savacs                   ;"   "*Z"
040133:  125734061345                           ;"*O<&+E"
040134:  000000021277  rstacs                   ;"   "*_"
040135:  125627406600                           ;"*N7@V "
040136:  000000021401  rlsdon                   ;"   ",!"
040137:  100000131024  tt%wkf,,                 ;"(  +(4"
040140:  104000000144                           ;"(@  !D"
040141:  100000130437  tt%wkf,,                 ;"(  +$?"
040142:  104000000134                           ;"(@  !<"
040143:  124314215504                           ;"*C,1M$"
040144:  000000021246  psitab                   ;"   "*F"
040145:  100006412772                           ;"( &A7Z"
040146:  000000000001  a                        ;"     !"
040147:  100000000032  tt%wkf,,                 ;"(    :"
040150:  000000000017  p                        ;"     /"
040151:  121321515175                           ;"*+1II]"
040152:  000000000007  g                        ;"     '"
040153:  061264277074                           ;"&*T7X\"
040154:  000000021252  lsterr                   ;"   "*J"
040155:  121054166504                           ;"*(L.U$"
040156:  000000021171  levtab                   ;"   ")Y"
040157:  100005357302                           ;"( %=[""
040160:  000000000000                           ;"      "
040161:  117553444116                           ;")]KDA."
040162:  000000021451  jmphnd                   ;"   ",I"
040163:  100262466100                           ;"("RFQ "
040164:  104000000170                           ;"(@  !X"
040165:  100251671764                           ;"("IW/T"
040166:  104000000012                           ;"(@   *"
040167:  115212401275                           ;")J*@*]"
040170:  000000021304  getabs                   ;"   "+$"
040171:  053774236322                           ;"%?\3S2"
040172:  000000021240  ertrap                   ;"   "*@"
040173:  113774230775                           ;")?\3']"
040174:  000000021245  ertplc                   ;"   "*E"
040175:  100231401014                           ;"("9@(,"
040176:  104000000011                           ;"(@   )"
040177:  053773623027                           ;"%?[R87"
040200:  000000021360  errlse                   ;"   "+P"
040201:  053773622565                           ;"%?[R5U"
040202:  000000021253  errloc                   ;"   "*K"
040203:  100231344262                           ;"("9<BR"
040204:  320700000000  jump     q, z            ;":'    "
040205:  053771463426                           ;"%?YF<6"
040206:  000000021316  erinit                   ;"   "+."
040207:  113771266106                           ;")?Y6Q&"
040210:  000000021404  erhndl                   ;"   ",$"
040211:  100231315416                           ;"("99L."
040212:  320740000000  jump     p, z            ;":'@   "
040213:  100000060324  tt%wkf,,                 ;"(  &#4"
040214:  104000000126                           ;"(@  !6"
040215:  040000055224  .iot     .chnul, 55224   ;"$  %J4"
040216:  104000000130                           ;"(@  !8"
040217:  040214352565  .iot     .chcnd, 352565(z);"$",=5U"
040220:  104000000136                           ;"(@  !>"
040221:  100000000016  tt%wkf,,                 ;"(    ."
040222:  000000000004  d                        ;"     $"
040223:  112215235175                           ;")2-3I]"
040224:  000000000005  e                        ;"     %"
040225:  112213746504                           ;")2+\U$"
040226:  000000021174  chntab                   ;"   ")\"
040227:  100003221326                           ;"( #2+6"
040230:  000000000017  p                        ;"     /"
040231:  112107020116                           ;")1'"!."
040232:  000000021454  calhnd                   ;"   ",L"
040233:  100000000015  tt%wkf,,                 ;"(    -"
040234:  000000000003  c                        ;"     #"
040235:  100000000014  tt%wkf,,                 ;"(    ,"
040236:  000000000002  b                        ;"     ""
040237:  100000043705  tt%wkf,,                 ;"(  $?%"
040240:  104000000131                           ;"(@  !9"
040241:  100000000013  tt%wkf,,                 ;"(    +"
040242:  000000000001  a                        ;"     !"
040243:  000557006720                           ;" %O W0"
040244:  777626021171  cono     774, @levtab(f) ;"_^6")Y"
040245:  000000000000                           ;"      "
040246:  000000021171  levtab                   ;"   ")Y"
040247:  000557006720                           ;" %O W0"
040250:  777774021171  conso    774, @levtab(z) ;"__\")Y"
040251:  000000000000                           ;"      "
040252:  000000021171  levtab                   ;"   ")Y"
040253:  457054410303  orcab    a, 410303(z)    ;"EXLA##"
040254:  004000000000                           ;" @    "
040255:  440403607056  andcb    h, 607056(c)    ;"D$#PXN"
040256:  100000000000                           ;"(     "
040257:  474571771307  seto     y, @771307(w)   ;"GEY_+'"
040260:  000000000101  .priou                   ;"    !!"
040261:  474641402765  seto     s, 402765(a)    ;"GFA@7U"
040262:  000000400000  .fhslf                   ;"   @  "
040263:  474371706144  seto     g, @706144(w)   ;"GCYXQD"
040264:  000000000012  x                        ;"     *"
040265:  474425746300  seto     h, @746300(e)   ;"GD5\S "
040266:  000000400000  .fhslf                   ;"   @  "
040267:  474547151221  seto     y, 151221(g)    ;"GEG-*1"
040270:  000000377777  .nulio                   ;"   ?__"
040271:  454512413017  orca     x, 413017(x)    ;"EE*A8/"
040272:  020000000000                           ;""     "
040273:  474371640223  seto     g, @640223(w)   ;"GCYT"3"
040274:  000000000014  z                        ;"     ,"
040275:  474462004210  seto     w, @4210(b)     ;"GDR B("
040276:  000000000011  w                        ;"     )"
040277:  440403607404  andcb    h, 607404(c)    ;"D$#P\$"
040300:  040000000000  .iot     .chnul, z       ;"$     "
040301:  474475211631  seto     w, @211631(s)   ;"GD]1.9"
040302:  000000000002  b                        ;"     ""
040303:  463313357352  setcmb   f, 357352(y)    ;"F;+=[J" "Ll[^u"
040304:  000000020000  tt%wkp                   ;"   "  "
040305:  462634631026  setcmm   z, @631026(z)   ;"F6<S(6"
040306:  100000000000                           ;"(     "
040307:  474461756103  seto     w, @756103(a)   ;"GDQ]Q#"
040310:  000000000017  p                        ;"     /"
040311:  455275472676  orcai    e, @472676(s)   ;"EJ]G6^" "K+lu_"
040312:  100000000000                           ;"(     "
040313:  474371660357  seto     g, @660357(w)   ;"GCYV#O"
040314:  000000000001  a                        ;"     !"
040315:  452300320002  setcam   f, 320002       ;"E3 : ""
040316:  200000000000  move     z, z            ;"0     " " \0\0\0\0"
040317:  454512416136  orca     x, 416136(x)    ;"EE*AQ>"
040320:  004000000000                           ;" @    "
040321:  474424307006  seto     h, @307006(d)   ;"GD48X&"
040322:  000000000001  a                        ;"     !"
040323:  452323740164  setcam   f, @740164(c)   ;"E33\!T"
040324:  400000000000  setz     z,              ;"@     " "@\0\0\0\0"
040325:  474424370134  seto     h, @370134(d)   ;"GD4?!<"
040326:  000000000012  x                        ;"     *"
040327:  455275507056  orcai    e, @507056(s)   ;"EJ]HXN"
040330:  000001000000                           ;"  !   "
040331:  440370224056  andcb    g, @224056(h)   ;"D#X2@N"
040332:  000000200000  .eprev                   ;"   0  "
040333:  464226355563  orcm     d, @355563(f)   ;"FB6=MS"
040334:  000400000000                           ;" $    "
040335:  474626263453  seto     z, @263453(f)   ;"GF66<K"
040336:  000000000006  f                        ;"     &"
040337:  465502043561  orcmi    x, 43561(b)     ;"FM"$=Q"
040340:  000001000000                           ;"  !   "
040341:  467365247517  orcmb    g, @247517(e)   ;"F[U4]/"
040342:  000000000300  tt%dam                   ;"    # "
040343:  474371645673  seto     g, @645673(w)   ;"GCYTN["
040344:  000000000000                           ;"      "
040345:  463313452161  setcmb   f, 452161(y)    ;"F;+E1Q"
040346:  000000002000  cmtf1                    ;"    0 "
040347:  474371614727  seto     g, @614727(w)   ;"GCYQG7"
040350:  000000000010  h                        ;"     ("
040351:  440370224404  andcb    g, @224404(h)   ;"D#X2D$"
040352:  000000100000  tt%wkf                   ;"   (  "
040353:  454350670540  orca     g, 670540(h)    ;"ECHW%@"
040354:  020000000000                           ;""     "
040355:  463524226536  setcmb   x, @226536(d)   ;"F=42U>" "Lu\"-/"
040356:  000001000000                           ;"  !   "
040357:  462634705571  setcmm   z, @705571(z)   ;"F6<XMY"
040360:  040000000000  .iot     .chnul, z       ;"$     "
040361:  464226355436  orcm     d, @355436(f)   ;"FB6=L>"
040362:  400000000000  setz     z,              ;"@     " "@\0\0\0\0"
040363:  100425371666                           ;"($5?.V"
040364:  104000000107                           ;"(@  !'"
040365:  100437213514                           ;"($?1=,"
040366:  104000000027                           ;"(@   7"
040367:  100004253506                           ;"( $5=&"
040370:  104000000227                           ;"(@  "7"
040371:  100437201666                           ;"($?0.V"
040372:  104000000110                           ;"(@  !("
040373:  100367575217                           ;"(#WOJ/"
040374:  104000000220                           ;"(@  "0"
040375:  100004564377                           ;"( $NC_"
040376:  104000000701                           ;"(@  '!"
040377:  100441160102                           ;"($A.!""
040400:  104000000516                           ;"(@  %."
040401:  100000131020  tt%wkf,,                 ;"(  +(0"
040402:  104000000054                           ;"(@   L"
040403:  100215420646                           ;"("-B&F"
040404:  104000000041                           ;"(@   A"
040405:  100333115466                           ;"(#;)LV"
040406:  104000000003                           ;"(@   #"
040407:  100405111466                           ;"($%),V"
040410:  104000000076                           ;"(@   ^"
040411:  100000055205  tt%wkf,,                 ;"(  %J%"
040412:  104000000133                           ;"(@  !;"
040413:  100203345074                           ;"("#<H\"
040414:  104000000064                           ;"(@   T"
040415:  100231344262                           ;"("9<BR"
040416:  320700000000  jump     q, z            ;":'    "
040417:  100255341074                           ;"("M<(\"
040420:  104000000063                           ;"(@   S"
040421:  100241616466                           ;"("AQTV"
040422:  104000000233                           ;"(@  ";"
040423:  100440040550                           ;"($@$%H"
040424:  104000000036                           ;"(@   >"
040425:  100255325216                           ;"("M:J."
040426:  104000000634                           ;"(@  &<"
040427:  100007524074                           ;"( 'J@\"
040430:  001000000000                           ;" (    "
040431:  100003445057                           ;"( #DHO"
040432:  104000000104                           ;"(@  !$"
040433:  100425332465                           ;"($5;4U"
040434:  104000000112                           ;"(@  !*"
040435:  100454340131                           ;"($L<!9"
040436:  104000000775                           ;"(@  ']"
040437:  100006010466                           ;"( &!$V"
040440:  104000000224                           ;"(@  "4"
040441:  100437142465                           ;"($?,4U"
040442:  104000000113                           ;"(@  !+"
040443:  100427673422                           ;"($7W<2"
040444:  104000000150                           ;"(@  !H"
040445:  100000000044  tt%wkf,,                 ;"(    D"
040446:  000000000000                           ;"      "
040447:  100000066266  tt%wkf,,                 ;"(  &RV"
040450:  104000000200                           ;"(@  " "
040451:  100255416422                           ;"("MAT2"
040452:  104000000303                           ;"(@  ##"
040453:  100003175106                           ;"( #/I&"
040454:  260740000000  pushj    p, z            ;"6'@   "
040455:  100251700145                           ;"("IX!E"
040456:  104000000205                           ;"(@  "%"
040457:  100006372622                           ;"( &?62"
040460:  104000000056                           ;"(@   N"
040461:  100000043705  tt%wkf,,                 ;"(  $?%"
040462:  104000000131                           ;"(@  !9"
040463:  100424634144                           ;"($4SAD"
040464:  104000000554                           ;"(@  %L"
040465:  100372452620                           ;"(#ZE60"
040466:  104000000021                           ;"(@   1"
040467:  100003054466                           ;"( #%DV"
040470:  104000000051                           ;"(@   I"
040471:  100425216666                           ;"($51VV"
040472:  104000000147                           ;"(@  !G"
040473:  100006342055                           ;"( &<0M"
040474:  104000000311                           ;"(@  #)"
040475:  100000130566  tt%wkf,,                 ;"(  +%V"
040476:  263740000000  popj     p,              ;"6?@   "
040477:  100443733006                           ;"($C[8&"
040500:  104000000016                           ;"(@   ."
040501:  100214352565                           ;"(",=5U"
040502:  104000000136                           ;"(@  !>"
040503:  100000134120  tt%wkf,,                 ;"(  +A0"
040504:  104000000052                           ;"(@   J"
040505:  100007170057                           ;"( '/ O"
040506:  104000000103                           ;"(@  !#"
040507:  100262466100                           ;"("RFQ "
040510:  104000000170                           ;"(@  !X"
040511:  100251672263                           ;"("IW2S"
040512:  104000000507                           ;"(@  %'"
040513:  100000134124  tt%wkf,,                 ;"(  +A4"
040514:  104000000125                           ;"(@  !5"
040515:  100231401014                           ;"("9@(,"
040516:  104000000011                           ;"(@   )"
040517:  100275115515                           ;"("])M-"
040520:  104000000231                           ;"(@  "9"
040521:  100571452622                           ;"(%YE62"
040522:  104000000056                           ;"(@   N"
040523:  100204366330                           ;"("$>S8"
040524:  104000000022                           ;"(@   2"
040525:  100231315416                           ;"("99L."
040526:  320740000000  jump     p, z            ;":'@   "
040527:  100007343147                           ;"( '<9G"
040530:  104000000014                           ;"(@   ,"
040531:  100367510440                           ;"(#WI$@"
040532:  104000000222                           ;"(@  "2"
040533:  100007171466                           ;"( '/,V"
040534:  104000000053                           ;"(@   K"
040535:  100230723422                           ;"("8Z<2"
040536:  104000000151                           ;"(@  !I"
040537:  100251671504                           ;"("IW-$"
040540:  104000000010                           ;"(@   ("
040541:  100425403514                           ;"($5@=,"
040542:  104000000043                           ;"(@   C"
040543:  100215423365                           ;"("-B;U"
040544:  104000000167                           ;"(@  !W"
040545:  100255355630                           ;"("M=N8"
040546:  104000000020                           ;"(@   0"
040547:  100000060324  tt%wkf,,                 ;"(  &#4"
040550:  104000000126                           ;"(@  !6"
040551:  115270032401                           ;")JX#4!"
040552:  000000600110  gjfx28                   ;"   P!("
040553:  112165676125                           ;")1UWQ5"
040554:  000000600433  cfdbx4                   ;"   P$;"
040555:  126446772522                           ;"*TF_52"
040556:  000000600515  smonx1                   ;"   P%-"
040557:  100505023714                           ;"(%%"?,"
040560:  000000013141  waddr                    ;"   !9A"
040561:  125522347216                           ;"*M2<Z."
040562:  000000015727  repind                   ;"   !O7"
040563:  500214355751  hll      d, 355751(z)    ;"H",=OI"
040564:  000000000000                           ;"      "
040565:  116756756630                           ;")WN]V8"
040566:  000000000145  inqjfn                   ;"    !E"
040567:  125757372201                           ;"*OO?2!"
040570:  000000017521  rusrlg                   ;"   !]1"
040571:  116231713223                           ;")R9Y:3"
040572:  000000017701  hstini                   ;"   !_!"
040573:  115270032400                           ;")JX#4 "
040574:  000000600107  gjfx27                   ;"   P!'"
040575:  100204403222                           ;"("$@:2"
040576:  000000600160  clsx1                    ;"   P!P"
040577:  112165676124                           ;")1UWQ4"
040600:  000000600432  cfdbx3                   ;"   P$:"
040601:  526402466464  hrlom    h, 466464(b)    ;"JT"FTT"
040602:  000000000003  c                        ;"     #"
040603:  130116251502                           ;"+!.5-""
040604:  000000017065  upbirx                   ;"   !XU"
040605:  122024405006                           ;"*04@H&"
040606:  000000020125  movstl                   ;"   "!5"
040607:  115270032377                           ;")JX#3_"
040610:  000000600106  gjfx26                   ;"   P!&"
040611:  100204403223                           ;"("$@:3"
040612:  000000600161  clsx2                    ;"   P!Q"
040613:  112165676123                           ;")1UWQ3"
040614:  000000600431  cfdbx2                   ;"   P$9"
040615:  130153347116                           ;"+!K<Y."
040616:  000000013033  usattt                   ;"   !8;"
040617:  100253000522                           ;"("K %2"
040620:  000000600055  gjfx1                    ;"   P M"
040621:  115270032376                           ;")JX#3^"
040622:  000000600105  gjfx25                   ;"   P!%"
040623:  100346520322                           ;"(#FJ#2"
040624:  000000600345  mntx1                    ;"   P#E"
040625:  112165676122                           ;")1UWQ2"
040626:  000000600430  cfdbx1                   ;"   P$8"
040627:  500400545274  hll      h, 545274       ;"H$ LJ\"
040630:  000000000547  pagez                    ;"    %G"
040631:  112272165205                           ;")2Z.J%"
040632:  000000012641  cmdblk                   ;"   !6A"
040633:  100241452342                           ;"("AE3B"
040634:  000000010752  fkwsp                    ;"   !'J"
040635:  113143261131                           ;")9C6)9"
040636:  000000016513  dpymsg                   ;"   !U+"
040637:  116756731315                           ;")WN[+-"
040640:  000000017325  inqcls                   ;"   ![5"
040641:  113733406042                           ;")?;@PB"
040642:  000000000154  eofdsp                   ;"    !L"
040643:  100253000523                           ;"("K %3"
040644:  000000600056  gjfx2                    ;"   P N"
040645:  115270032375                           ;")JX#3]"
040646:  000000600104  gjfx24                   ;"   P!$"
040647:  100346520323                           ;"(#FJ#3"
040650:  000000600346  mntx2                    ;"   P#F"
040651:  114415727524                           ;")D-Z]4"
040652:  000000600546  ffufx3                   ;"   P%F"
040653:  124236477411                           ;"*B>G\)"
040654:  000000500006  pnvtlo                   ;"   H &"
040655:  100010132232                           ;"( (+2:"
040656:  000000012621  winp                     ;"   !61"
040657:  100253000524                           ;"("K %4"
040660:  000000600057  gjfx3                    ;"   P O"
040661:  115270032374                           ;")JX#3\"
040662:  000000600103  gjfx23                   ;"   P!#"
040663:  100346520324                           ;"(#FJ#4"
040664:  000000600347  mntx3                    ;"   P#G"
040665:  114415727523                           ;")D-Z]3"
040666:  000000600545  ffufx2                   ;"   P%E"
040667:  126536155523                           ;"*U>-M3"
040670:  000000600601  ssavx2                   ;"   P&!"
040671:  131535052032                           ;"+-=%0:"
040672:  000000015565  wphonp                   ;"   !MU"
040673:  130116251476                           ;"+!.5,^"
040674:  000000016766  upbirt                   ;"   !WV"
040675:  535167670533  hrlei    c, @670533(g)   ;"KIWW%;"
040676:  000000000010  h                        ;"     ("
040677:  117573575661                           ;")][ONQ"
040700:  000000012675  jobrt0                   ;"   !6]"
040701:  121201253045                           ;"**!58E"
040702:  000000017564  lnkchk                   ;"   !]T"
040703:  100253000525                           ;"("K %5"
040704:  000000600060  gjfx4                    ;"   P P"
040705:  115270032373                           ;")JX#3["
040706:  000000600102  gjfx22                   ;"   P!""
040707:  100454406022                           ;"($L@P2"
040710:  000000600360  ttyx1                    ;"   P#P"
040711:  126256721325                           ;"*RNZ+5"
040712:  000000600533  sactx4                   ;"   P%;"
040713:  114415727522                           ;")D-Z]2"
040714:  000000600544  ffufx1                   ;"   P%D"
040715:  126536155522                           ;"*U>-M2"
040716:  000000600600  ssavx1                   ;"   P& "
040717:  100362277143                           ;"(#R7YC"
040720:  000000500004  nvthi                    ;"   H $"
040721:  130156035106                           ;"+!N#I&"
040722:  000000013031  uslgot                   ;"   !89"
040723:  117573527545                           ;")][J]E"
040724:  000000543000  jobfks                   ;"   L8 "
040725:  100005745146                           ;"( %\IF"
040726:  000000012660  ndhl                     ;"   !6P"
040727:  111276371722                           ;")*^?/2"
040730:  000000020072  badnap                   ;"   " Z"
040731:  113773572042                           ;")?[O0B"
040732:  000000000155  errdsp                   ;"    !M"
040733:  100253000526                           ;"("K %6"
040734:  000000600061  gjfx5                    ;"   P Q"
040735:  115270032372                           ;")JX#3Z"
040736:  000000600101  gjfx21                   ;"   P!!"
040737:  126256721324                           ;"*RNZ+4"
040740:  000000600532  sactx3                   ;"   P%:"
040741:  100426755402                           ;"($6]L""
040742:  000000012704  rlogp                    ;"   !7$"
040743:  522637545265  hllom    z, @545265(p)   ;"J6?LJU"
040744:  000000000047  xx                       ;"     G"
040745:  127443024154                           ;"*\C"AL"
040746:  000000016506  typmsz                   ;"   !U&"
040747:  521614131024  hlloi    z, 131024(z)    ;"J.,+(4" "T8a2\n"
040750:  000000000010  h                        ;"     ("
040751:  511420044051  hllzi    h, @44051       ;"I,0$@I"
040752:  777777777777  conso    774, @dsptb(p)  ;"______"
040753:  100253000527                           ;"("K %7"
040754:  000000600062  gjfx6                    ;"   P R"
040755:  115270032371                           ;")JX#3Y"
040756:  000000600100  gjfx20                   ;"   P! "
040757:  126256721323                           ;"*RNZ+3"
040760:  000000600531  sactx2                   ;"   P%9"
040761:  500010406451  hll      z, 406451(h)    ;"H (@TI"
040762:  000000000000                           ;"      "
040763:  121752170176                           ;"*/J/!^"
040764:  000000016641  mkimgl                   ;"   !VA"
040765:  100003372577                           ;"( #?5_"
040766:  000000000167  date                     ;"    !W"
040767:  100253000530                           ;"("K %8"
040770:  000000600063  gjfx7                    ;"   P S"
040771:  126256721322                           ;"*RNZ+2"
040772:  000000600530  sactx1                   ;"   P%8"
040773:  521614145576  hlloi    z, 145576(z)    ;"J.,,M^" "T8aK?"
040774:  000000000022  .cmuqs                   ;"     2"
040775:  125570774766                           ;"*MX_GV"
040776:  000000015764  rindet                   ;"   !OT"
040777:  514451050111  hrlz     w, 50111(w)     ;"IDI%!)"
041000:  000000000500  filpag                   ;"    % "
041001:  500000114235  hll      z, 114235       ;"H  )B="
041002:  000000000500  filpag                   ;"    % "
041003:  100204377674                           ;"("$?^\"
041004:  000000016520  clrtb                    ;"   !U0"
041005:  516614070131  hrlzm    z, 70131(z)     ;"IV,'!9"
041006:  000000012421  tmpbuf                   ;"   !41"
041007:  100253000531                           ;"("K %9"
041010:  000000600064  gjfx8                    ;"   P T"
041011:  123451462332                           ;"*<IF3:"
041012:  000000600142  opnx19                   ;"   P!B"
041013:  115137321323                           ;")I?:+3"
041014:  000000600541  gactx2                   ;"   P%A"
041015:  535504364200  hrlei    x, 364200(d)    ;"KM$>B " "W4#h@"
041016:  000000000004  d                        ;"     $"
041017:  100004564377                           ;"( $NC_"
041020:  000000016425  idle                     ;"   !T5"
041021:  111420044046                           ;"),0$@F"
041022:  000000000200  birtst                   ;"    " "
041023:  100253000532                           ;"("K %:"
041024:  000000600065  gjfx9                    ;"   P U"
041025:  123451462331                           ;"*<IF39"
041026:  000000600141  opnx18                   ;"   P!A"
041027:  115430267123                           ;")L86Y3"
041030:  000000600270  gtabx2                   ;"   P"X"
041031:  115137321322                           ;")I?:+2"
041032:  000000600540  gactx1                   ;"   P%@"
041033:  112272254504                           ;")2Z5E$"
041034:  000000015663  cmdtab                   ;"   !NS"
041035:  114474073041                           ;")D\'8A"
041036:  000000012665  fkjob0                   ;"   !6U"
041037:  123451462330                           ;"*<IF38"
041040:  000000600140  opnx17                   ;"   P!@"
041041:  115430267122                           ;")L86Y2"
041042:  000000600267  gtabx1                   ;"   P"W"
041043:  114505504525                           ;")E%HE5"
041044:  000000600653  flinx4                   ;"   P&K"
041045:  127361531221                           ;"*[QK*1"
041046:  000000003252  ttnetw                   ;"    :J"
041047:  123533257717                           ;"*=;5_/"
041050:  000000000140  ournam                   ;"    !@"
041051:  116757007462                           ;")WO \R"
041052:  000000017332  inqrd1                   ;"   ![:"
041053:  522712772504  hllom    q, 772504(x)    ;"J7*_5$" "T\\Wu\""
041054:  000000000001  a                        ;"     !"
041055:  123451462327                           ;"*<IF37"
041056:  000000600137  opnx16                   ;"   P!?"
041057:  100217743422                           ;"("/\<2"
041060:  000000600555  dsmx1                    ;"   P%M"
041061:  114505504524                           ;")E%HE4"
041062:  000000600652  flinx3                   ;"   P&J"
041063:  100162721722                           ;"(!RZ/2"
041064:  000000600710  atpx1                    ;"   P'("
041065:  127364314506                           ;"*[T9E&"
041066:  000000505000  ttylad                   ;"   HH "
041067:  123451462326                           ;"*<IF36"
041070:  000000600136  opnx15                   ;"   P!>"
041071:  114505504523                           ;")E%HE3"
041072:  000000600651  flinx2                   ;"   P&I"
041073:  100162721723                           ;"(!RZ/3"
041074:  000000600711  atpx2                    ;"   P')"
041075:  517573513654  hrlzs    y, @513654(y)   ;"I][I>L"
041076:  000000000200  birtst                   ;"    " "
041077:  114451041717                           ;")DI$//"
041100:  000000012705  filnam                   ;"   !7%"
041101:  100005753545                           ;"( %]=E"
041102:  000000012657  nfks                     ;"   !6O"
041103:  116614021414                           ;")V,",,"
041104:  000000501000  idladr                   ;"   H( "
041105:  127256241236                           ;"*ZN4*>"
041106:  000000020017  tmrint                   ;"   " /"
041107:  123451462325                           ;"*<IF35"
041110:  000000600135  opnx14                   ;"   P!="
041111:  114505504522                           ;")E%HE2"
041112:  000000600650  flinx1                   ;"   P&H"
041113:  100162721724                           ;"(!RZ/4"
041114:  000000600712  atpx3                    ;"   P'*"
041115:  535261354147  hrlei    e, @354147(a)   ;"KJQ=AG"
041116:  000000000001  a                        ;"     !"
041117:  130157400766                           ;"+!O@'V"
041120:  000000526000  usrdet                   ;"   JP "
041121:  100241401364                           ;"("A@+T"
041122:  000000011452  fkjob                    ;"   !,J"
041123:  122024404277                           ;"*04@B_"
041124:  000000020133  movsle                   ;"   "!;"
041125:  123451462324                           ;"*<IF34"
041126:  000000600134  opnx13                   ;"   P!<"
041127:  114600533727                           ;")F K?7"
041130:  000000600255  frkhx6                   ;"   P"M"
041131:  100162721725                           ;"(!RZ/5"
041132:  000000600713  atpx4                    ;"   P'+"
041133:  530157446111  hlle     c, 446111(p)    ;"K!ODQ)"
041134:  000000000510  usrpag                   ;"    %("
041135:  535420775065  hrlei    h, @775065      ;"KL0_HU"
041136:  000000000015  s                        ;"     -"
041137:  100006733622                           ;"( &[>2"
041140:  000000017370  reap                     ;"   ![X"
041141:  125505767307                           ;"*M%^['"
041142:  000000000162  rdeftm                   ;"    !R"
041143:  123451462323                           ;"*<IF33"
041144:  000000600133  opnx12                   ;"   P!;"
041145:  114600533726                           ;")F K?6"
041146:  000000600254  frkhx5                   ;"   P"L"
041147:  100162721726                           ;"(!RZ/6"
041150:  000000600714  atpx5                    ;"   P',"
041151:  117573540362                           ;")][L#R"
041152:  000000006052  jobid1                   ;"    PJ"
041153:  124072353236                           ;"*@Z=:>"
041154:  000000020045  pdlint                   ;"   " E"
041155:  113602771324                           ;")>"_+4"
041156:  000000600052  efctx3                   ;"   P J"
041157:  123451462322                           ;"*<IF32"
041160:  000000600132  opnx11                   ;"   P!:"
041161:  124217552723                           ;"*B/M73"
041162:  000000600241  pmapx2                   ;"   P"A"
041163:  114600533725                           ;")F K?5"
041164:  000000600253  frkhx4                   ;"   P"K"
041165:  100162721727                           ;"(!RZ/7"
041166:  000000600715  atpx6                    ;"   P'-"
041167:  522640574441  hllom    s, 574441       ;"J6@ODA"
041170:  000000000010  h                        ;"     ("
041171:  125522347203                           ;"*M2<Z#"
041172:  000000015755  repin2                   ;"   !OM"
041173:  114451025630                           ;")DI"N8"
041174:  000000000143  filjfn                   ;"    !C"
041175:  100511565046                           ;"(%)NHF"
041176:  000000012661  wtlst                    ;"   !6Q"
041177:  117573553076                           ;")][M8^"
041200:  000000544000  jobltd                   ;"   L@ "
041201:  125474765676                           ;"*L\^N^"
041202:  000000017472  rchkrt                   ;"   !\Z"
041203:  127361172512                           ;"*[Q/5*"
041204:  000000002252  ttlnk1                   ;"    2J"
041205:  500006012306  hll      z, 12306(f)     ;"H &!3&"
041206:  000000000177  cmrdo1                   ;"    !_"
041207:  100000001301  tt%wkf,,                 ;"(   +!"
041210:  000000015617  go                       ;"   !N/"
041211:  113602771323                           ;")>"_+3"
041212:  000000600051  efctx2                   ;"   P I"
041213:  123451462321                           ;"*<IF31"
041214:  000000600131  opnx10                   ;"   P!9"
041215:  124217552722                           ;"*B/M72"
041216:  000000600240  pmapx1                   ;"   P"@"
041217:  114600533724                           ;")F K?4"
041220:  000000600252  frkhx3                   ;"   P"J"
041221:  100162721730                           ;"(!RZ/8"
041222:  000000600716  atpx7                    ;"   P'."
041223:  127361172511                           ;"*[Q/5)"
041224:  000000012666  ttlnk0                   ;"   !6V"
041225:  130116703727                           ;"+!.X?7"
041226:  000000016251  updt16                   ;"   !RI"
041227:  100000055577  tt%wkf,,                 ;"(  %M_"
041230:  000000000163  dom                      ;"    !S"
041231:  113602771322                           ;")>"_+2"
041232:  000000600050  efctx1                   ;"   P H"
041233:  114600533723                           ;")F K?3"
041234:  000000600251  frkhx2                   ;"   P"I"
041235:  112740214122                           ;")7@1A2"
041236:  000000600330  dchrx1                   ;"   P#8"
041237:  133750461422                           ;"+?HF,2"
041240:  000000600461  zonex1                   ;"   P$Q"
041241:  100162721731                           ;"(!RZ/9"
041242:  000000600717  atpx8                    ;"   P'/"
041243:  130116703726                           ;"+!.X?6"
041244:  000000016247  updt15                   ;"   !RG"
041245:  125516652142                           ;"*M.U1B"
041246:  000000017426  reapnx                   ;"   !\6"
041247:  127206054400                           ;"*Z&%D "
041250:  000000017751  timron                   ;"   !_I"
041251:  114600533722                           ;")F K?2"
041252:  000000600250  frkhx1                   ;"   P"H"
041253:  100162721732                           ;"(!RZ/:"
041254:  000000600720  atpx9                    ;"   P'0"
041255:  130116703725                           ;"+!.X?5"
041256:  000000016211  updt14                   ;"   !R)"
041257:  100004023556                           ;"( $"=N"
041260:  000000007052  fkpt                     ;"    XJ"
041261:  130771464131                           ;"+'YFA9"
041262:  000000016612  vt1msg                   ;"   !V*"
041263:  116160750736                           ;")QP]'>"
041264:  000000017070  holupd                   ;"   !XX"
041265:  115223667717                           ;")J3V_/"
041266:  000000017717  gfrnam                   ;"   !_/"
041267:  111544333122                           ;")-D;92"
041270:  000000015571  brdayp                   ;"   !MY"
041271:  122534064655                           ;"*5<&FM"
041272:  000000012702  nidlps                   ;"   !7""
041273:  122630133075                           ;"*68+8]"
041274:  000000000152  nojobs                   ;"    !J"
041275:  112171260224                           ;")1Y6"4"
041276:  000000600363  cfrkx3                   ;"   P#S"
041277:  535350713714  hrlei    g, 713714(h)    ;"KKHY?,"
041300:  000000000007  g                        ;"     '"
041301:  121214120507                           ;"**,*%'"
041302:  000000000150  looptm                   ;"    !H"
041303:  112310377411                           ;")3(?\)"
041304:  000000500010  cnvtlo                   ;"   H ("
041305:  115354413061                           ;")KLA8Q"
041306:  000000016420  goutt0                   ;"   !T0"
041307:  123452436631                           ;"*<JCV9"
041310:  000000500005  opruno                   ;"   H %"
041311:  130154637045                           ;"+!LSXE"
041312:  000000017673  usgchk                   ;"   !^["
041313:  100230540323                           ;"("8L#3"
041314:  000000020015  eofh2                    ;"   " -"
041315:  112171260223                           ;")1Y6"3"
041316:  000000600362  cfrkx2                   ;"   P#R"
041317:  100442556322                           ;"($BMS2"
041320:  000000600744  sttx1                    ;"   P'D"
041321:  522724730141  hllom    q, @730141(d)   ;"J74[!A"
041322:  000000000001  a                        ;"     !"
041323:  125626433326                           ;"*N6C;6"
041324:  000000012717  rlogfl                   ;"   !7/"
041325:  100162674022                           ;"(!RW@2"
041326:  000000600352  atix1                    ;"   P#J"
041327:  125521614142                           ;"*M1QAB"
041330:  000000015576  remrkp                   ;"   !M^"
041331:  100425170526                           ;"($5/%6"
041332:  000000013311  relat                    ;"   !;)"
041333:  123400045566                           ;"*< $MV"
041334:  000000000147  oldtod                   ;"    !G"
041335:  522711371717  hllom    q, 371717(w)    ;"J7)?//"
041336:  000000000001  a                        ;"     !"
041337:  100162674023                           ;"(!RW@3"
041340:  000000600353  atix2                    ;"   P#K"
041341:  100262433714                           ;"("RC?,"
041342:  000000013173  haddr                    ;"   !9["
041343:  121054166504                           ;"*(L.U$"
041344:  000000012761  levtab                   ;"   !7Q"
041345:  125626433526                           ;"*N6C=6"
041346:  000000017502  rlogit                   ;"   !]""
041347:  122024404764                           ;"*04@GT"
041350:  000000020002  movst3                   ;"   " ""
041351:  522723346576  hllom    q, @346576(c)   ;"J73<U^" "T]\033M?"
041352:  000000000017  p                        ;"     /"
041353:  522746033734  hllom    p, 33734(f)     ;"J7F#?<" "T^07n"
041354:  000000000020  .cmtad                   ;"     0"
041355:  122024404763                           ;"*04@GS"
041356:  000000017777  movst2                   ;"   !__"
041357:  117573507414                           ;")][H\,"
041360:  000000542000  jobadr                   ;"   L0 "
041361:  100216514147                           ;"(".IAG"
041362:  000000013072  dname                    ;"   !8Z"
041363:  121201253025                           ;"**!585"
041364:  000000017630  lnkch4                   ;"   !^8"
041365:  127206054370                           ;"*Z&%CX"
041366:  000000017761  timrof                   ;"   !_Q"
041367:  122024404762                           ;"*04@GR"
041370:  000000017771  movst1                   ;"   !_Y"
041371:  100007605672                           ;"( 'PNZ"
041372:  000000020052  uuoh                     ;"   " J"
041373:  116160744504                           ;")QP\E$"
041374:  000000017256  holtab                   ;"   !ZN"
041375:  121201253024                           ;"**!584"
041376:  000000017627  lnkch3                   ;"   !^7"
041377:  122024404761                           ;"*04@GQ"
041400:  000000017775  movst0                   ;"   !_]"
041401:  500473270654  hll      w, @270654(y)   ;"H$[7&L"
041402:  000000002156  varsz                    ;"    1N"
041403:  131311433772                           ;"++)C?Z"
041404:  000000015564  waddrp                   ;"   !MT"
041405:  100425127321                           ;"($5*[1"
041406:  000000017371  reap0                    ;"   ![Y"
041407:  121201253023                           ;"**!583"
041410:  000000017573  lnkch2                   ;"   !]["
041411:  500203326551  hll      d, 326551(c)    ;"H"#:UI"
041412:  000000000001  a                        ;"     !"
041413:  124314201214                           ;"*C,0*,"
041414:  000000000160  psipc3                   ;"    !P"
041415:  510740566551  hllz     p, 566551       ;"I'@NUI"
041416:  000000000000                           ;"      "
041417:  124314201213                           ;"*C,0*+"
041420:  000000000157  psipc2                   ;"    !O"
041421:  117573521531                           ;")][J-9"
041422:  000000542200  jobdno                   ;"   L2 "
041423:  130157370616                           ;"+!O?&."
041424:  000000530000  usratt                   ;"   K  "
041425:  112332227642                           ;")3:2^B"
041426:  000000017132  cpopj1                   ;"   !Y:"
041427:  100425127322                           ;"($5*[2"
041430:  000000017411  reap1                    ;"   !\)"
041431:  121201253022                           ;"**!582"
041432:  000000017565  lnkch1                   ;"   !]U"
041433:  130116612607                           ;"+!.Q6'"
041434:  000000500000  updatm                   ;"   H  "
041435:  130116251452                           ;"+!.5,J"
041436:  000000017061  upbir9                   ;"   !XQ"
041437:  100425127323                           ;"($5*[3"
041440:  000000017413  reap2                    ;"   !\+"
041441:  510527112126  hllz     x, @112126(g)   ;"I%7)16"
041442:  000000000001  a                        ;"     !"
041443:  124314201212                           ;"*C,0**"
041444:  000000000156  psipc1                   ;"    !N"
041445:  100557642622                           ;"(%OT62"
041446:  000000020134  .pmap                    ;"   "!<"
041447:  100214451522                           ;"(",E-2"
041450:  000000600335  devx1                    ;"   P#="
041451:  127140156422                           ;"*Y@-T2"
041452:  000000600350  termx1                   ;"   P#H"
041453:  500003604151  hll      z, 604151(c)    ;"H #PAI"
041454:  000000000000                           ;"      "
041455:  130116612606                           ;"+!.Q6&"
041456:  000000016421  updatl                   ;"   !T1"
041457:  100425127324                           ;"($5*[4"
041460:  000000017417  reap3                    ;"   !\/"
041461:  527256216050  hrlos    e, 216050(q)    ;"JZN1PH"
041462:  000000000003  c                        ;"     #"
041463:  100000000013  tt%wkf,,                 ;"(    +"
041464:  000000000001  a                        ;"     !"
041465:  100214451523                           ;"(",E-3"
041466:  000000600336  devx2                    ;"   P#>"
041467:  115220276124                           ;")J07Q4"
041470:  000000600426  gfdbx3                   ;"   P$6"
041471:  522534064641  hllom    x, @64641(z)    ;"J5<&FA"
041472:  000000000004  d                        ;"     $"
041473:  125571000670                           ;"*MY &X"
041474:  000000016027  rineof                   ;"   !P7"
041475:  130116704112                           ;"+!.XA*"
041476:  000000016413  updt41                   ;"   !T+"
041477:  130116251450                           ;"+!.5,H"
041500:  000000017051  upbir7                   ;"   !XI"
041501:  100000000014  tt%wkf,,                 ;"(    ,"
041502:  000000000002  b                        ;"     ""
041503:  121074434526                           ;"*(\CE6"
041504:  000000600014  lginx5                   ;"   P ,"
041505:  100214451524                           ;"(",E-4"
041506:  000000600337  devx3                    ;"   P#?"
041507:  115220276123                           ;")J07Q3"
041510:  000000600425  gfdbx2                   ;"   P$5"
041511:  110764314324                           ;")'T9C4"
041512:  000000600724  atpx13                   ;"   P'4"
041513:  522702733006  hllom    q, 733006(b)    ;"J7"[8&"
041514:  000000000006  f                        ;"     &"
041515:  130116704111                           ;"+!.XA)"
041516:  000000016377  updt40                   ;"   !S_"
041517:  130116251447                           ;"+!.5,G"
041520:  000000017042  upbir6                   ;"   !XB"
041521:  100000144724  tt%wkf,,                 ;"(  ,G4"
041522:  000000013403  var                      ;"   !<#"
041523:  127360344377                           ;"*[P<C_"
041524:  000000546000  ttidle                   ;"   LP "
041525:  100000000015  tt%wkf,,                 ;"(    -"
041526:  000000000003  c                        ;"     #"
041527:  122024404262                           ;"*04@BR"
041530:  000000020126  movsl1                   ;"   "!6"
041531:  121074434525                           ;"*(\CE5"
041532:  000000600013  lginx4                   ;"   P +"
041533:  115220276122                           ;")J07Q2"
041534:  000000600424  gfdbx1                   ;"   P$4"
041535:  110764314323                           ;")'T9C3"
041536:  000000600723  atpx12                   ;"   P'3"
041537:  535261774200  hrlei    e, @774200(a)   ;"KJQ_B "
041540:  000000000006  f                        ;"     &"
041541:  535152333436  hrlei    c, 333436(x)    ;"KIJ;<>"
041542:  000000000013  y                        ;"     +"
041543:  130116251446                           ;"+!.5,F"
041544:  000000017041  upbir5                   ;"   !XA"
041545:  116160750726                           ;")QP]'6"
041546:  000000017117  holup5                   ;"   !Y/"
041547:  100000000016  tt%wkf,,                 ;"(    ."
041550:  000000000004  d                        ;"     $"
041551:  121074434524                           ;"*(\CE4"
041552:  000000600012  lginx3                   ;"   P *"
041553:  100251673322                           ;"("IW;2"
041554:  000000600373  getx1                    ;"   P#["
041555:  110764314322                           ;")'T9C2"
041556:  000000600722  atpx11                   ;"   P'2"
041557:  110647076222                           ;")&G'R2"
041560:  000000015577  altbyp                   ;"   !M_"
041561:  112272215630                           ;")2Z1N8"
041562:  000000012642  cmdjfn                   ;"   !6B"
041563:  526552513325  hrlom    y, 513325(x)    ;"JUJI;5"
041564:  000000000001  a                        ;"     !"
041565:  510525051414  hllz     x, @51414(e)    ;"I%5%,,"
041566:  000000000000                           ;"      "
041567:  121074434523                           ;"*(\CE3"
041570:  000000600011  lginx2                   ;"   P )"
041571:  100251673323                           ;"("IW;3"
041572:  000000600374  getx2                    ;"   P#\"
041573:  116636763724                           ;")V>^?4"
041574:  000000600416  ifixx3                   ;"   P$."
041575:  110764314321                           ;")'T9C1"
041576:  000000600721  atpx10                   ;"   P'1"
041577:  126263333345                           ;"*RS;;E"
041600:  000000012655  savacs                   ;"   !6M"
041601:  100174070533                           ;"(!\'%;"
041602:  000000013242  brday                    ;"   !:B"
041603:  100000000020  tt%wkf,,                 ;"(    0"
041604:  000000000000                           ;"      "
041605:  516231740111  hrlzm    d, @740111(w)   ;"IR9\!)"
041606:  000000000400  .efad1                   ;"    $ "
041607:  121074434522                           ;"*(\CE2"
041610:  000000600010  lginx1                   ;"   P ("
041611:  116636763723                           ;")V>^?3"
041612:  000000600415  ifixx2                   ;"   P$-"
041613:  530154645616  hlle     c, 645616(z)    ;"K!LTN."
041614:  000000545401  usgend                   ;"   LL!"
041615:  534006171724  hrle     z, 171724(f)    ;"K@&//4"
041616:  000000000152  nojobs                   ;"    !J"
041617:  122664127355                           ;"*6T*[M"
041620:  000000012703  nreaps                   ;"   !7#"
041621:  100426536106                           ;"($6KQ&"
041622:  000000017463  rkill                    ;"   !\S"
041623:  127364307364                           ;"*[T8[T"
041624:  000000001652  ttyjob                   ;"    .J"
041625:  100220124022                           ;"("0*@2"
041626:  000000600355  dtix1                    ;"   P#M"
041627:  116636763722                           ;")V>^?2"
041630:  000000600414  ifixx1                   ;"   P$,"
041631:  524122450414  hrlo     b, @450414(b)   ;"JA2E$,"
041632:  000000500000  updatm                   ;"   H  "
041633:  130116612577                           ;"+!.Q5_"
041634:  000000016164  update                   ;"   !QT"
041635:  117573527512                           ;")][J]*"
041636:  000000006252  jobfk1                   ;"    RJ"
041637:  116614116123                           ;")V,)Q3"
041640:  000000000652  idltty                   ;"    &J"
041641:  130116251442                           ;"+!.5,B"
041642:  000000017010  upbir1                   ;"   !X("
041643:  116160750722                           ;")QP]'2"
041644:  000000017104  holup1                   ;"   !Y$"
041645:  125506043107                           ;"*M&$9'"
041646:  000000000161  rdettm                   ;"    !Q"
041647:  111453424414                           ;"),KBD,"
041650:  000000013375  blkadr                   ;"   !;]"
041651:  125776500315                           ;"*O^H#-"
041652:  000000005652  rwarnc                   ;"    NJ"
041653:  526552471717  hrlom    y, 471717(x)    ;"JUJG//"
041654:  000000000000                           ;"      "
041655:  115270032444                           ;")JX#4D"
041656:  000000600115  gjfx33                   ;"   P!-"
041657:  100000000024  tt%wkf,,                 ;"(    4"
041660:  000000000005  e                        ;"     %"
041661:  115270032443                           ;")JX#4C"
041662:  000000600114  gjfx32                   ;"   P!,"
041663:  100510564200                           ;"(%(NB "
041664:  000000013156  wphon                    ;"   !9N"
041665:  522640523446  hllom    s, 523446       ;"J6@J<F"
041666:  000000000007  g                        ;"     '"
041667:  522752667472  hllom    p, 667472(x)    ;"J7JV\Z"
041670:  000000000012  x                        ;"     *"
041671:  113032030207                           ;")8:#"'"
041672:  000000020104  diedie                   ;"   "!$"
041673:  115270032442                           ;")JX#4B"
041674:  000000600113  gjfx31                   ;"   P!+"
041675:  535400513570  hrlei    h, 513570       ;"KL I=X"
041676:  000000000012  x                        ;"     *"
041677:  100000054533  tt%wkf,,                 ;"(  %E;"
041700:  000000000166  day                      ;"    !V"
041701:  116160665625                           ;")QPVN5"
041702:  000000017152  holeas                   ;"   !YJ"
041703:  117573603531                           ;")][P=9"
041704:  000000542400  jobtno                   ;"   L4 "
041705:  522470753357  hllom    w, @753357(h)   ;"J4X];O"
041706:  000000000000                           ;"      "
041707:  134570557321  ildb     y, @557321(h)   ;"+EXM[1"
041710:  000000020141  .pmap0                   ;"   "!A"
041711:  115270032441                           ;")JX#4A"
041712:  000000600112  gjfx30                   ;"   P!*"
041713:  500357661545  hll      g, 661545(p)    ;"H#OV-E"
041714:  000000000030  nttyps                   ;"     8"
041715:  535354034147  hrlei    g, 34147(z)     ;"KKL#AG"
041716:  000000000002  b                        ;"     ""
041717:  124331731124                           ;"*C9[)4"
041720:  000000000242  ptypar                   ;"    "B"
041721:  516614063760  hrlzm    z, 63760(z)     ;"IV,&?P" "SX`gx"
041722:  000000000010  h                        ;"     ("
041723:  126343322522                           ;"*SC:52"
041724:  000000600377  sfrvx1                   ;"   P#_"
041725:  125646551423                           ;"*NFM,3"
041726:  000000600451  rnamx2                   ;"   P$I"
041727:  500362077675  hll      g, @77675(b)    ;"H#R'^]"
041730:  000000002000  cmtf1                    ;"    0 "
041731:  125521332612                           ;"*M1;6*"
041732:  000000015575  relatp                   ;"   !M]"
041733:  125570775036                           ;"*MX_H>"
041734:  000000015763  rindft                   ;"   !OS"
041735:  116614053223                           ;")V,%:3"
041736:  000000016054  idlini                   ;"   !PL"
041737:  500004113102  hll      z, 113102(d)    ;"H $)9""
041740:  000000400000  .fhslf                   ;"   @  "
041741:  112354414130                           ;")3LAA8"
041742:  000000600026  crjbx7                   ;"   P 6"
041743:  125646551422                           ;"*NFM,2"
041744:  000000600450  rnamx1                   ;"   P$H"
041745:  500004113103  hll      z, 113103(d)    ;"H $)9#"
041746:  000000200000  .eprev                   ;"   0  "
041747:  535436535364  hrlei    h, @535364(q)   ;"KL>KKT" "W1u:z"
041750:  000000000011  w                        ;"     )"
041751:  100241424461                           ;"("ABDQ"
041752:  000000012662  fkpt0                    ;"   !6R"
041753:  100274526132                           ;"("\JQ:"
041754:  000000015600  ibufp                    ;"   !N "
041755:  510530405614  hllz     x, @405614(h)   ;"I%8@N,"
041756:  000000000001  a                        ;"     !"
041757:  112354414127                           ;")3LAA7"
041760:  000000600025  crjbx6                   ;"   P 5"
041761:  100265554147                           ;"("UMAG"
041762:  000000013107  hname                    ;"   !9'"
041763:  100000000032  tt%wkf,,                 ;"(    :"
041764:  000000000017  p                        ;"     /"
041765:  112354414126                           ;")3LAA6"
041766:  000000600024  crjbx5                   ;"   P 4"
041767:  100425175065                           ;"($5/HU"
041770:  000000013343  remrk                    ;"   !;C"
041771:  515430264556  hrlzi    h, @264556(h)   ;"IL86EN" "S1Bi7"
041772:  000000012673  ttyjb0                   ;"   !6["
041773:  100000000033  tt%wkf,,                 ;"(    ;"
041774:  000000000016  q                        ;"     ."
041775:  130154637022                           ;"+!LSX2"
041776:  000000017674  usgch1                   ;"   !^\"
041777:  100362077005                           ;"(#R'X%"
042000:  000000545000  nusgs                    ;"   LH "
042001:  100003642322                           ;"( #T32"
042002:  000000020012  eofh                     ;"   " *"
042003:  113032022216                           ;")8:"2."
042004:  000000020120  dieblt                   ;"   "!0"
042005:  112354414125                           ;")3LAA5"
042006:  000000600023  crjbx4                   ;"   P 3"
042007:  122632713323                           ;"*6:Y;3"
042010:  000000600410  noutx2                   ;"   P$("
042011:  530154707111  hlle     c, 707111(z)    ;"K!LXY)"
042012:  000000000545  usgpag                   ;"    %E"
042013:  115430264555                           ;")L86EM"
042014:  000000012672  gtab1s                   ;"   !6Z"
042015:  527364314760  hrlos    g, @314760(d)   ;"J[T9GP"
042016:  000000000006  f                        ;"     &"
042017:  130157432101                           ;"+!OC1!"
042020:  000000524000  usrlgo                   ;"   J@ "
042021:  100275063731                           ;"("]&?9"
042022:  000000016427  idle0                    ;"   !T7"
042023:  112354414124                           ;")3LAA4"
042024:  000000600022  crjbx3                   ;"   P 2"
042025:  122632713322                           ;"*6:Y;2"
042026:  000000600407  noutx1                   ;"   P$'"
042027:  112353064027                           ;")3K&@7"
042030:  000000600625  crdix6                   ;"   P&5"
042031:  124303725332                           ;"*C#ZK:"
042032:  000000015573  projnp                   ;"   !M["
042033:  112213746504                           ;")2+\U$"
042034:  000000012764  chntab                   ;"   !7T"
042035:  127361531161                           ;"*[QK)Q"
042036:  000000012670  ttnet0                   ;"   !6X"
042037:  100004023573                           ;"( $"=["
042040:  000000007552  fkq2                     ;"    ]J"
042041:  114475421346                           ;")D]B+F"
042042:  000000010252  fkpgst                   ;"   !"J"
042043:  100000000035  tt%wkf,,                 ;"(    ="
042044:  000000000015  s                        ;"     -"
042045:  522420146514  hllom    h, @146514      ;"J40,U,"
042046:  000000000010  h                        ;"     ("
042047:  112354414123                           ;")3LAA3"
042050:  000000600021  crjbx2                   ;"   P 1"
042051:  126342722324                           ;"*SBZ34"
042052:  000000600177  sfptx3                   ;"   P!_"
042053:  112353064026                           ;")3K&@6"
042054:  000000600624  crdix5                   ;"   P&4"
042055:  130157446364                           ;"+!ODST"
042056:  000000510000  usrper                   ;"   I  "
042057:  127276310305                           ;"*Z^9#%"
042060:  000000000146  todclk                   ;"    !F"
042061:  100275063733                           ;"("]&?;"
042062:  000000016436  idle2                    ;"   !T>"
042063:  100000000036  tt%wkf,,                 ;"(    >"
042064:  000000000006  f                        ;"     &"
042065:  112354414122                           ;")3LAA2"
042066:  000000600020  crjbx1                   ;"   P 0"
042067:  126342722323                           ;"*SBZ33"
042070:  000000600176  sfptx2                   ;"   P!^"
042071:  112353064025                           ;")3K&@5"
042072:  000000600623  crdix4                   ;"   P&3"
042073:  500355542015  hll      g, 542015(s)    ;"H#ML0-"
042074:  000000000005  e                        ;"     %"
042075:  121752171131                           ;"*/J/)9"
042076:  000000016635  mkimsg                   ;"   !V="
042077:  116160717057                           ;")QPYXO"
042100:  000000017244  holmem                   ;"   !ZD"
042101:  526554070134  hrlom    y, 70134(z)     ;"JUL'!<" "UV`p."
042102:  000000000077  cmhlpc                   ;"     _"
042103:  100000000037  tt%wkf,,                 ;"(    ?"
042104:  000000000007  g                        ;"     '"
042105:  127255615345                           ;"*ZMQKE"
042106:  000000012202  tmpacs                   ;"   !2""
042107:  123451462373                           ;"*<IF3["
042110:  000000600145  opnx22                   ;"   P!E"
042111:  126342722322                           ;"*SBZ32"
042112:  000000600175  sfptx1                   ;"   P!]"
042113:  110760472226                           ;")'PG26"
042114:  000000600324  atacx5                   ;"   P#4"
042115:  131416152322                           ;"+,.-32"
042116:  000000600614  whelx1                   ;"   P&,"
042117:  112353064024                           ;")3K&@4"
042120:  000000600622  crdix3                   ;"   P&2"
042121:  117573604123                           ;")][PA3"
042122:  000000006452  jobtty                   ;"    TJ"
042123:  100000000040  tt%wkf,,                 ;"(    @"
042124:  000000000010  h                        ;"     ("
042125:  123451462372                           ;"*<IF3Z"
042126:  000000600144  opnx21                   ;"   P!D"
042127:  112372014522                           ;")3Z!E2"
042130:  000000600312  csynx1                   ;"   P#*"
042131:  110760472225                           ;")'PG25"
042132:  000000600323  atacx4                   ;"   P#3"
042133:  112353064023                           ;")3K&@3"
042134:  000000600621  crdix2                   ;"   P&1"
042135:  127360344362                           ;"*[P<CR"
042136:  000000002652  ttidl1                   ;"    6J"
042137:  122632043622                           ;"*6:$>2"
042140:  000000017430  noreap                   ;"   !\8"
042141:  100000000041  tt%wkf,,                 ;"(    A"
042142:  000000000011  w                        ;"     )"
042143:  123451462371                           ;"*<IF3Y"
042144:  000000600143  opnx20                   ;"   P!C"
042145:  110760472224                           ;")'PG24"
042146:  000000600322  atacx3                   ;"   P#2"
042147:  126550554522                           ;"*UHME2"
042150:  000000600332  stdvx1                   ;"   P#:"
042151:  112353064022                           ;")3K&@2"
042152:  000000600620  crdix1                   ;"   P&0"
042153:  113111750062                           ;")9)] R"
042154:  000000015561  dnamep                   ;"   !MQ"
042155:  100355113714                           ;"(#M)?,"
042156:  000000013225  naddr                    ;"   !:5"
042157:  127360344361                           ;"*[P<CQ"
042160:  000000012667  ttidl0                   ;"   !6W"
042161:  127364261544                           ;"*[T6-D"
042162:  000000001252  ttycpj                   ;"    *J"
042163:  130157432073                           ;"+!OC0["
042164:  000000522000  usrlgi                   ;"   J0 "
042165:  130116703777                           ;"+!.X?_"
042166:  000000016330  updt26                   ;"   !S8"
042167:  100477760131                           ;"($_^!9"
042170:  000000016603  vtmsg                    ;"   !V#"
042171:  121211302735                           ;"**)87="
042172:  000000000244  lodavs                   ;"    "D"
042173:  100277446456                           ;"("_DTN"
042174:  000000017333  inqrd                    ;"   ![;"
042175:  113773653217                           ;")?[U:/"
042176:  000000000151  errtim                   ;"    !I"
042177:  100000000042  tt%wkf,,                 ;"(    B"
042200:  000000000012  x                        ;"     *"
042201:  110760472223                           ;")'PG23"
042202:  000000600321  atacx2                   ;"   P#1"
042203:  500274526144  hll      e, @526144(z)   ;"H"\JQD"
042204:  000000013374  ibufz                    ;"   !;\"
042205:  500405506451  hll      h, 506451(e)    ;"H$%HTI"
042206:  000000000000                           ;"      "
042207:  130116703776                           ;"+!.X?^"
042210:  000000016325  updt25                   ;"   !S5"
042211:  100000000043  tt%wkf,,                 ;"(    C"
042212:  000000000013  y                        ;"     +"
042213:  110760472222                           ;")'PG22"
042214:  000000600320  atacx1                   ;"   P#0"
042215:  115223660222                           ;")J3V"2"
042216:  000000600371  gfrkx1                   ;"   P#Y"
042217:  116171552032                           ;")QYM0:"
042220:  000000015567  hphonp                   ;"   !MW"
042221:  110513116312                           ;")%+)S*"
042222:  000000015574  accntp                   ;"   !M\"
042223:  130116703775                           ;"+!.X?]"
042224:  000000016320  updt24                   ;"   !S0"
042225:  117573566246                           ;")][NRF"
042226:  000000543200  jobpct                   ;"   L: "
042227:  100010506624                           ;"( (HV4"
042230:  000000000164  year                     ;"    !T"
042231:  111453436224                           ;"),KCR4"
042232:  000000013376  blkdir                   ;"   !;^"
042233:  125776500303                           ;"*O^H##"
042234:  000000017454  rwarn2                   ;"   !\L"
042235:  121201313131                           ;"**!999"
042236:  000000017640  lnkmsg                   ;"   !^@"
042237:  100000000044  tt%wkf,,                 ;"(    D"
042240:  000000000014  z                        ;"     ,"
042241:  130116703774                           ;"+!.X?\"
042242:  000000016307  updt23                   ;"   !S'"
042243:  116121453112                           ;")Q1E9*"
042244:  000000017134  hldayh                   ;"   !Y<"
042245:  522752700410  hllom    p, 700410(x)    ;"J7JX$("
042246:  000000000026  .cmnod                   ;"     6"
042247:  516777035251  hrlzm    p, @35251(p)    ;"IW_#JI"
042250:  000000000000                           ;"      "
042251:  527364315641  hrlos    g, @315641(d)   ;"J[T9NA"
042252:  000000000505  ttylpg                   ;"    %%"
042253:  535154564603  hrlei    c, 564603(z)    ;"KILNF#"
042254:  000000000016  q                        ;"     ."
042255:  500011207262  hll      z, 207262(w)    ;"H )0ZR"
042256:  012000000000                           ;"!0    "
042257:  130116703773                           ;"+!.X?["
042260:  000000016270  updt22                   ;"   !RX"
042261:  100431441470                           ;"($9D,X"
042262:  000000017432  rwarn                    ;"   !\:"
042263:  125626433473                           ;"*N6C<["
042264:  000000017512  rlogi2                   ;"   !]*"
042265:  100004627622                           ;"( $R^2"
042266:  000000600215  iox1                     ;"   P"-"
042267:  126565233072                           ;"*UU38Z"
042270:  000000015572  superp                   ;"   !MZ"
042271:  127065161223                           ;"*XU.*3"
042272:  000000016060  tabini                   ;"   !PP"
042273:  130116703772                           ;"+!.X?Z"
042274:  000000016261  updt21                   ;"   !RQ"
042275:  500006030115  hll      z, 30115(f)     ;"H &#!-"
042276:  000000000400  .efad1                   ;"    $ "
042277:  100004627623                           ;"( $R^3"
042300:  000000600216  iox2                     ;"   P"."
042301:  113033612522                           ;")8;Q52"
042302:  000000600464  dilfx1                   ;"   P$T"
042303:  500400545231  hll      h, 545231       ;"H$ LJ9"
042304:  000000000500  filpag                   ;"    % "
042305:  527203700111  hrlos    d, 700111(c)    ;"JZ#X!)"
042306:  000000000546  tidpag                   ;"    %F"
042307:  130116703771                           ;"+!.X?Y"
042310:  000000016253  updt20                   ;"   !RK"
042311:  115270032332                           ;")JX#3:"
042312:  000000600077  gjfx19                   ;"   P _"
042313:  100004627624                           ;"( $R^4"
042314:  000000600217  iox3                     ;"   P"/"
042315:  522545316505  hllom    y, 316505(e)    ;"J5E9U%"
042316:  000000000003  c                        ;"     #"
042317:  117573564276                           ;")][NB^"
042320:  000000006652  jobort                   ;"    VJ"
042321:  522752675055  hllom    p, 675055(x)    ;"J7JWHM"
042322:  000000000007  g                        ;"     '"
042323:  115270032331                           ;")JX#39"
042324:  000000600076  gjfx18                   ;"   P ^"
042325:  100004627625                           ;"( $R^5"
042326:  000000600220  iox4                     ;"   P"0"
042327:  112717457427                           ;")7/E\7"
042330:  000000600473  datex6                   ;"   P$["
042331:  124236477143                           ;"*B>GYC"
042332:  000000500007  pnvthi                   ;"   H '"
042333:  115270032330                           ;")JX#38"
042334:  000000600075  gjfx17                   ;"   P ]"
042335:  100004627626                           ;"( $R^6"
042336:  000000600221  iox5                     ;"   P"1"
042337:  112717457426                           ;")7/E\6"
042340:  000000600472  datex5                   ;"   P$Z"
042341:  100440041272                           ;"($@$*Z"
042342:  000000013400  sizmx                    ;"   !< "
042343:  116160743014                           ;")QP\8,"
042344:  000000000220  holstr                   ;"    "0"
042345:  127443007221                           ;"*\C Z1"
042346:  000000000240  typing                   ;"    "@"
042347:  115270032327                           ;")JX#37"
042350:  000000600074  gjfx16                   ;"   P \"
042351:  100004627627                           ;"( $R^7"
042352:  000000600222  iox6                     ;"   P"2"
042353:  112717457425                           ;")7/E\5"
042354:  000000600471  datex4                   ;"   P$Y"
042355:  100362277411                           ;"(#R7\)"
042356:  000000500003  nvtlo                    ;"   H #"
042357:  500005767375  hll      z, 767375(e)    ;"H %^[]"
042360:  000000000200  birtst                   ;"    " "
042361:  115270032326                           ;")JX#36"
042362:  000000600073  gjfx15                   ;"   P ["
042363:  100214440222                           ;"(",D"2"
042364:  000000600150  desx1                    ;"   P!H"
042365:  125600675524                           ;"*N WM4"
042366:  000000600167  rjfnx3                   ;"   P!W"
042367:  112717457424                           ;")7/E\4"
042370:  000000600470  datex3                   ;"   P$X"
042371:  100005416102                           ;"( %AQ""
042372:  000000015644  loop                     ;"   !ND"
042373:  125571060123                           ;"*MY&!3"
042374:  000000015775  rintty                   ;"   !O]"
042375:  116614033564                           ;")V,#=T"
042376:  000000016502  idldob                   ;"   !U""
042377:  125746005574                           ;"*OF M\"
042400:  000000000252  rttytb                   ;"    "J"
042401:  115270032325                           ;")JX#35"
042402:  000000600072  gjfx14                   ;"   P Z"
042403:  100214440223                           ;"(",D"3"
042404:  000000600151  desx2                    ;"   P!I"
042405:  125600675523                           ;"*N WM3"
042406:  000000600166  rjfnx2                   ;"   P!V"
042407:  112717457423                           ;")7/E\3"
042410:  000000600467  datex2                   ;"   P$W"
042411:  117573567127                           ;")][NY7"
042412:  000000543400  jobpnm                   ;"   L< "
042413:  535500623714  hrlei    x, 623714       ;"KM R?,"
042414:  000000000003  c                        ;"     #"
042415:  516231752106  hrlzm    d, @752106(w)   ;"IR9]1&" "SIOT#"
042416:  000000000000                           ;"      "
042417:  115270032324                           ;")JX#34"
042420:  000000600071  gjfx13                   ;"   P Y"
042421:  100214440224                           ;"(",D"4"
042422:  000000600152  desx3                    ;"   P!J"
042423:  125600675522                           ;"*N WM2"
042424:  000000600165  rjfnx1                   ;"   P!U"
042425:  112717457422                           ;")7/E\2"
042426:  000000600466  datex1                   ;"   P$V"
042427:  100266174200                           ;"("V/B "
042430:  000000013210  hphon                    ;"   !:("
042431:  100156533436                           ;"(!NK<>"
042432:  000000013326  accnt                    ;"   !;6"
042433:  112210543170                           ;")2(L9X"
042434:  000000012671  chafrn                   ;"   !6Y"
042435:  122626207070                           ;"*660XX"
042436:  000000000241  noburn                   ;"    "A"
042437:  100477720314                           ;"($_Z#,"
042440:  000000016600  vtclr                    ;"   !V "
042441:  526551134700  hrlom    y, 134700(w)    ;"JUI+G " "UVI9`"
042442:  000000400000  .fhslf                   ;"   @  "
042443:  522605122126  hllom    z, 122126(e)    ;"J6%*16" "TX)$+"
042444:  000000000000                           ;"      "
042445:  522606457717  hllom    z, 457717(f)    ;"J6&E_/"
042446:  000000000000                           ;"      "
042447:  516231661414  hrlzm    d, @661414(w)   ;"IR9V,,"
042450:  000000400000  .fhslf                   ;"   @  "
042451:  116757576566                           ;")WOOUV"
042452:  000000020024  intret                   ;"   " 4"
042453:  115270032323                           ;")JX#33"
042454:  000000600070  gjfx12                   ;"   P X"
042455:  100214440225                           ;"(",D"5"
042456:  000000600153  desx4                    ;"   P!K"
042457:  123265643522                           ;"*:UT=2"
042460:  000000600462  odtnx1                   ;"   P$R"
042461:  127255621750                           ;"*ZMR/H"
042462:  000000012421  tmpbuf                   ;"   !41"
042463:  115270032322                           ;")JX#32"
042464:  000000600067  gjfx11                   ;"   P W"
042465:  100214440226                           ;"(",D"6"
042466:  000000600154  desx5                    ;"   P!L"
042467:  100004556750                           ;"( $MWH"
042470:  000000013072  dname                    ;"   !8Z"
042471:  100425126362                           ;"($5*SR"
042472:  000000017356  read1                    ;"   ![N"
042473:  115270032321                           ;")JX#31"
042474:  000000600066  gjfx10                   ;"   P V"
042475:  100214440227                           ;"(",D"7"
042476:  000000600155  desx6                    ;"   P!M"
042477:  112304024026                           ;")3$"@6"
042500:  000000600204  cndix5                   ;"   P"$"
042501:  100156722577                           ;"(!NZ5_"
042502:  000000013377  adate                    ;"   !;_"
042503:  114451023223                           ;")DI":3"
042504:  000000016037  filini                   ;"   !P?"
042505:  126635070374                           ;"*V='#\"
042506:  000000013034  sysgtb                   ;"   !8<"
042507:  114477241521                           ;")D_4-1"
042510:  000000012664  fkwsp0                   ;"   !6T"
042511:  534006105616  hrle     z, 105616(f)    ;"K@&(N."
042512:  000000000153  nujobs                   ;"    !K"
042513:  100403747775                           ;"($#\_]"
042514:  000000015561  dnamep                   ;"   !MQ"
042515:  100214440230                           ;"(",D"8"
042516:  000000600156  desx7                    ;"   P!N"
042517:  112304024025                           ;")3$"@5"
042520:  000000600203  cndix4                   ;"   P"#"
042521:  125534560222                           ;"*M<N"2"
042522:  000000600367  rfrkx1                   ;"   P#W"
042523:  125505604022                           ;"*M%P@2"
042524:  000000600560  rddix1                   ;"   P%P"
042525:  126554012324                           ;"*UL!34"
042526:  000000600742  strdx3                   ;"   P'B"
042527:  131432134164                           ;"+,:+AT"
042530:  000000012723  winner                   ;"   !73"
042531:  112304024024                           ;")3$"@4"
042532:  000000600202  cndix3                   ;"   P"""
042533:  100003451722                           ;"( #E/2"
042534:  000000600734  dpx1                     ;"   P'<"
042535:  126554012323                           ;"*UL!33"
042536:  000000600741  strdx2                   ;"   P'A"
042537:  522514323556  hllom    x, 323556(z)    ;"J5,:=N" "TTc'7"
042540:  000000000005  e                        ;"     %"
042541:  126003001466                           ;"*P# ,V"
042542:  000000017453  rwsout                   ;"   !\K"
042543:  112304024023                           ;")3$"@3"
042544:  000000600201  cndix2                   ;"   P"!"
042545:  126500632222                           ;"*U S22"
042546:  000000600245  spacx1                   ;"   P"E"
042547:  110752016324                           ;")'J!S4"
042550:  000000600302  asndx3                   ;"   P#""
042551:  100003451723                           ;"( #E/3"
042552:  000000600735  dpx2                     ;"   P'="
042553:  126554012322                           ;"*UL!32"
042554:  000000600740  strdx1                   ;"   P'@"
042555:  522514323555  hllom    x, 323555(z)    ;"J5,:=M"
042556:  000000000001  a                        ;"     !"
042557:  112304024022                           ;")3$"@2"
042560:  000000600200  cndix1                   ;"   P" "
042561:  110752016323                           ;")'J!S3"
042562:  000000600301  asndx2                   ;"   P#!"
042563:  125522335416                           ;"*M2;L."
042564:  000000012712  repfil                   ;"   !7*"
042565:  116121452602                           ;")Q1E6""
042566:  000000017124  hldath                   ;"   !Y4"
042567:  526553777414  hrlom    y, 777414(y)    ;"JUK_\,"
042570:  000000000000                           ;"      "
042571:  110752016322                           ;")'J!S2"
042572:  000000600300  asndx1                   ;"   P# "
042573:  112333034322                           ;")3;#C2"
042574:  000000600520  cprtx1                   ;"   P%0"
042575:  500006405451  hll      z, 405451(f)    ;"H &@LI"
042576:  000000000000                           ;"      "
042577:  527255621654  hrlos    e, 621654(s)    ;"JZMR.L" "Ujn#V"
042600:  000000000200  birtst                   ;"    " "
042601:  100404713570                           ;"($$Y=X"
042602:  000000013274  projn                    ;"   !:\"
042603:  126460605374                           ;"*TPPK\"
042604:  000000013042  snootb                   ;"   !8B"
042605:  100357323075                           ;"(#O:8]"
042606:  000000500002  njobs                    ;"   H ""
042607:  125626433560                           ;"*N6C=P"
042610:  000000000144  rlogjf                   ;"    !D"
042611:  112104721323                           ;")1$Z+3"
042612:  000000600046  cactx2                   ;"   P F"
042613:  100372507522                           ;"(#ZH]2"
042614:  000000600120  opnx1                    ;"   P!0"
042615:  115431104023                           ;")L9(@3"
042616:  000000600641  gtdix2                   ;"   P&A"
042617:  114366632123                           ;")CVS13"
042620:  000000600701  fdfrx2                   ;"   P'!"
042621:  100360234147                           ;"(#P3AG"
042622:  000000013124  nname                    ;"   !94"
042623:  122724212123                           ;"*74113"
042624:  000000545001  nuptty                   ;"   LH!"
042625:  112104721322                           ;")1$Z+2"
042626:  000000600045  cactx1                   ;"   P E"
042627:  100372507523                           ;"(#ZH]3"
042630:  000000600121  opnx2                    ;"   P!1"
042631:  115431104022                           ;")L9(@2"
042632:  000000600640  gtdix1                   ;"   P&@"
042633:  114366632122                           ;")CVS12"
042634:  000000600700  fdfrx1                   ;"   P' "
042635:  130157464115                           ;"+!OFA-"
042636:  000000520000  usrtts                   ;"   J  "
042637:  526460604006  hrlom    w, @604006      ;"JTPP@&"
042640:  000000012657  nfks                     ;"   !6O"
042641:  121202521775                           ;"**"J/]"
042642:  000000017634  lnptrs                   ;"   !^<"
042643:  100372507524                           ;"(#ZH]4"
042644:  000000600122  opnx3                    ;"   P!2"
042645:  100440011122                           ;"($@!)2"
042646:  000000600570  sirx1                    ;"   P%X"
042647:  116731404214                           ;")W9@B,"
042650:  000000600772  ilins3                   ;"   P'Z"
042651:  100442735364                           ;"($B[KT"
042652:  000000013257  super                    ;"   !:O"
042653:  125571035434                           ;"*MY#L<"
042654:  000000016006  rinnvr                   ;"   !P&"
042655:  110467041314                           ;")$W$+,"
042656:  000000016623  aaaclr                   ;"   !V3"
042657:  127361153225                           ;"*[Q-:5"
042660:  000000500400  ttlink                   ;"   H$ "
042661:  100372507525                           ;"(#ZH]5"
042662:  000000600123  opnx4                    ;"   P!3"
042663:  116731404213                           ;")W9@B+"
042664:  000000600771  ilins2                   ;"   P'Y"
042665:  522710544641  hllom    q, 544641(h)    ;"J7(LFA"
042666:  000000000001  a                        ;"     !"
042667:  127364306341                           ;"*[T8SA"
042670:  000000012673  ttyjb0                   ;"   !6["
042671:  500453024451  hll      w, 24451(y)     ;"H$K"DI"
042672:  000000000001  a                        ;"     !"
042673:  100372507526                           ;"(#ZH]6"
042674:  000000600124  opnx5                    ;"   P!4"
042675:  112764552522                           ;")7TM52"
042676:  000000600170  delfx1                   ;"   P!X"
042677:  116731404212                           ;")W9@B*"
042700:  000000600770  ilins1                   ;"   P'X"
042701:  122415733772                           ;"*4-[?Z"
042702:  000000015570  naddrp                   ;"   !MX"
042703:  500345337051  hll      g, 337051(e)    ;"H#E;XI"
042704:  000000000000                           ;"      "
042705:  100005576071                           ;"( %OPY"
042706:  000000016644  mki0                     ;"   !VD"
042707:  100000047750  tt%wkf,,                 ;"(  $_H"
042710:  000000013377  adate                    ;"   !;_"
042711:  100372507527                           ;"(#ZH]7"
042712:  000000600125  opnx6                    ;"   P!5"
042713:  111441440522                           ;"),AD%2"
042714:  000000600454  bkjfx1                   ;"   P$L"
042715:  522713405341  hllom    q, 405341(y)    ;"J7+@KA"
042716:  000000000003  c                        ;"     #"
042717:  115746133772                           ;")OF+?Z"
042720:  000000015566  haddrp                   ;"   !MV"
042721:  127065161204                           ;"*XU.*$"
042722:  000000016101  tabin3                   ;"   !Q!"
042723:  112310377143                           ;")3(?YC"
042724:  000000500011  cnvthi                   ;"   H )"
042725:  115354413123                           ;")KLA93"
042726:  000000016417  goutty                   ;"   !T/"
042727:  100005576072                           ;"( %OPZ"
042730:  000000016657  mki1                     ;"   !VO"
042731:  121215513323                           ;"**-I;3"
042732:  000000600036  loutx2                   ;"   P >"
042733:  100372507530                           ;"(#ZH]8"
042734:  000000600126  opnx7                    ;"   P!6"
042735:  127255472522                           ;"*ZMG52"
042736:  000000600515  smonx1                   ;"   P%-"
042737:  516614100111  hrlzm    z, 100111(z)    ;"IV,(!)"
042740:  000000000501  idlpag                   ;"    %!"
042741:  522724763505  hllom    q, @763505(d)   ;"J74^=%"
042742:  000000000032  .chcnz                   ;"     :"
042743:  127065161203                           ;"*XU.*#"
042744:  000000016073  tabin2                   ;"   !P["
042745:  100005576073                           ;"( %OP["
042746:  000000016673  mki2                     ;"   !V["
042747:  526554044732  hrlom    y, 44732(z)     ;"JUL$G:" "UV`Im"
042750:  000000000001  a                        ;"     !"
042751:  112731472351                           ;")79G3I"
042752:  000000012700  dbugsw                   ;"   !7 "
042753:  121215513322                           ;"**-I;2"
042754:  000000600035  loutx1                   ;"   P ="
042755:  100372507531                           ;"(#ZH]9"
042756:  000000600127  opnx8                    ;"   P!7"
042757:  125746005561                           ;"*OF MQ"
042760:  000000000251  rttyt0                   ;"    "I"
042761:  127065161202                           ;"*XU.*""
042762:  000000016061  tabin1                   ;"   !PQ"
042763:  116614067065                           ;")V,&XU"
042764:  000000016440  idlmes                   ;"   !T@"
042765:  100005576074                           ;"( %OP\"
042766:  000000016717  mki3                     ;"   !W/"
042767:  100372507532                           ;"(#ZH]:"
042770:  000000600130  opnx9                    ;"   P!8"
042771:  115430264626                           ;")L86F6"
042772:  000000013056  gtab2t                   ;"   !8N"
042773:  115223670635                           ;")J3W&="
042774:  000000017743  gfrnm4                   ;"   !_C"
042775:  115430264625                           ;")L86F5"
042776:  000000013055  gtab2s                   ;"   !8M"
042777:  114475421311                           ;")D]B+)"
043000:  000000012663  fkpgs0                   ;"   !6S"
043001:  130116703653                           ;"+!.X>K"
043002:  000000016201  updt02                   ;"   !R!"
043003:  130156034526                           ;"+!N#E6"
043004:  000000013030  uslgit                   ;"   !88"
043005:  115223670634                           ;")J3W&<"
043006:  000000017736  gfrnm3                   ;"   !_>"
043007:  122024404132                           ;"*04@A:"
043010:  000000020004  movsix                   ;"   " $"
043011:  100000122306  tt%wkf,,                 ;"(  *3&"
043012:  000000012222  pdl                      ;"   !22"
043013:  126337371223                           ;"*S??*3"
043014:  000000600211  sfbsx2                   ;"   P")"
043015:  122614150062                           ;"*6,- R"
043016:  000000015563  nnamep                   ;"   !MS"
043017:  125571071034                           ;"*MY'(<"
043020:  000000016015  rinwnr                   ;"   !P-"
043021:  526635070363  hrlom    z, @70363(s)    ;"JV='#S"
043022:  000000012672  gtab1s                   ;"   !6Z"
043023:  522700160102  hllom    q, 160102       ;"J7 .!""
043024:  000000000013  y                        ;"     +"
043025:  130116703652                           ;"+!.X>J"
043026:  000000016172  updt01                   ;"   !QZ"
043027:  115342603123                           ;")KBP93"
043030:  000000016415  gnutty                   ;"   !T-"
043031:  526401121514  hrlom    h, 121514(a)    ;"JT!*-," "UP\t#&"
043032:  000000000011  w                        ;"     )"
043033:  115223670633                           ;")J3W&;"
043034:  000000017732  gfrnm2                   ;"   !_:"
043035:  126337371222                           ;"*S??*2"
043036:  000000600210  sfbsx1                   ;"   P"("
043037:  116144350062                           ;")QD= R"
043040:  000000015562  hnamep                   ;"   !MR"
043041:  130154057216                           ;"+!L%Z."
043042:  000000013032  usdett                   ;"   !8:"
043043:  100347630374                           ;"(#GS#\"
043044:  000000016550  msgtb                    ;"   !UH"
043045:  100346672302                           ;"(#FW3""
043046:  000000000165  month                    ;"    !U"
043047:  117573606631                           ;")][PV9"
043050:  000000542000  jobadr                   ;"   L0 "
043051:  115223670632                           ;")J3W&:"
043052:  000000017724  gfrnm1                   ;"   !_4"
043053:  120256260223                           ;"*"N6"3"
043054:  000000600366  kfrkx2                   ;"   P#V"
043055:  114507105324                           ;")E'(K4"
043056:  000000600662  flotx3                   ;"   P&R"
043057:  512213722135  hllzm    d, 722135(y)    ;"I2+Z1="
043060:  740347200000  conso    .efad1, .eprev(g);"\#G0  "
043061:  100000113722  tt%wkf,,                 ;"(  )?2"
043062:  000000015654  nap                      ;"   !NL"
043063:  121752170510                           ;"*/J/%("
043064:  000000016753  mkimln                   ;"   !WK"
043065:  116756777150                           ;")WN_YH"
043066:  000000017313  inqopn                   ;"   ![+"
043067:  120256260222                           ;"*"N6"2"
043070:  000000600365  kfrkx1                   ;"   P#U"
043071:  114507105323                           ;")E'(K3"
043072:  000000600661  flotx2                   ;"   P&Q"
043073:  121107642010                           ;"*)'T0("
043074:  000000000247  lhostn                   ;"    "G"
043075:  117573540406                           ;")][L$&"
043076:  000000542600  jobidl                   ;"   L6 "
043077:  113143221314                           ;")9C2+,"
043100:  000000016507  dpyclr                   ;"   !U'"
043101:  112332226344                           ;")3:2SD"
043102:  000000017757  cpop1j                   ;"   !_O"
043103:  114507105322                           ;")E'(K2"
043104:  000000600660  flotx1                   ;"   P&P"
043105:  522470761514  hllom    w, @761514(h)   ;"J4X^-," "TSGc&"
043106:  000000000012  x                        ;"     *"
043107:  100205352144                           ;"("%=1D"
043110:  000000017760  cpopj                    ;"   !_P"
043111:  127205612522                           ;"*Z%Q52"
043112:  000000600465  tilfx1                   ;"   P$U"
043113:  535420770526  hrlei    h, @770526      ;"KL0_%6"
043114:  000000000014  z                        ;"     ,"
043115:  100160764603                           ;"(!P^F#"
043116:  000000013360  altby                    ;"   !;P"
043117:  125522347226                           ;"*M2<Z6"
043120:  000000015742  repinl                   ;"   !OB"
043121:  112426071514                           ;")46'-,"
043122:  000000000243  cvtptr                   ;"    "C"
043123:  110467101131                           ;")$W()9"
043124:  000000016626  aaamsg                   ;"   !V6"
043125:  122722613075                           ;"*72Q8]"
043126:  000000000153  nujobs                   ;"    !K"
043127:  116160663225                           ;")QPV:5"
043130:  000000017120  holdis                   ;"   !Y0"
043131:  125613265465                           ;"*N+6LU"
043132:  000000012743  rkilms                   ;"   !7C"
043133:  121264277074                           ;"**T7X\"
043134:  000000020030  lsterr                   ;"   " 8"
043135:  125756220322                           ;"*ON2#2"
043136:  000000600273  runtx1                   ;"   P"["
043137:  535256233714  hrlei    e, 233714(q)    ;"KJN3?," "W*r7f"
043140:  000000000005  e                        ;"     %"
043141:  130116704046                           ;"+!.X@F"
043142:  000000016367  updt35                   ;"   !SW"
043143:  116125253232                           ;")Q55::"
043144:  000000017150  hlspch                   ;"   !YH"
043145:  100311374576                           ;"(#)?E^"
043146:  000000543600  jobrt                    ;"   L> "
043147:  526552441601  hrlom    y, 441601(x)    ;"JUJD.!"
043150:  000000000002  b                        ;"     ""
043151:  117573604061                           ;")][P@Q"
043152:  000000012674  jobtt0                   ;"   !6\"
043153:  124102416763                           ;"*A"AWS"
043154:  000000013063  peekt2                   ;"   !8S"
043155:  535212314147  hrlei    d, 314147(x)    ;"KJ*9AG"
043156:  000000000000                           ;"      "
043157:  125522347223                           ;"*M2<Z3"
043160:  000000015671  repini                   ;"   !NY"
043161:  524102416762  hrlo     b, 416762(b)    ;"JA"AWR"
043162:  000000012662  fkpt0                    ;"   !6R"
043163:  122024405014                           ;"*04@H,"
043164:  000000017767  movstr                   ;"   !_W"
043165:  116732153236                           ;")W:-:>"
043166:  000000020046  illint                   ;"   " F"
043167:  113221206725                           ;"):10W5"
043170:  000000600443  dumpx4                   ;"   P$C"
043171:  112425655223                           ;")45UJ3"
043172:  000000600731  cvskx2                   ;"   P'9"
043173:  114600577504                           ;")F O]$"
043174:  000000012152  frktab                   ;"   !1J"
043175:  100361706425                           ;"(#QXT5"
043176:  000000500001  nttys                    ;"   H !"
043177:  113221206724                           ;"):10W4"
043200:  000000600442  dumpx3                   ;"   P$B"
043201:  112425655222                           ;")45UJ2"
043202:  000000600730  cvskx1                   ;"   P'8"
043203:  517573566111  hrlzs    y, @566111(y)   ;"I][NQ)"
043204:  000000000542  jobpag                   ;"    %B"
043205:  130116704042                           ;"+!.X@B"
043206:  000000016363  updt31                   ;"   !SS"
043207:  100561055672                           ;"(%Q%NZ"
043210:  000000012653  .uuoh                    ;"   !6K"
043211:  126547675323                           ;"*UGWK3"
043212:  000000600276  stadx2                   ;"   P"^"
043213:  113221206723                           ;"):10W3"
043214:  000000600441  dumpx2                   ;"   P$A"
043215:  130116704041                           ;"+!.X@A"
043216:  000000016343  updt30                   ;"   !SC"
043217:  111605322075                           ;").%:0]"
043220:  000000000170  busers                   ;"    !X"
043221:  125757372674                           ;"*OO?6\"
043222:  000000003652  rusrtb                   ;"    >J"
043223:  115270032402                           ;")JX#4""
043224:  000000600111  gjfx29                   ;"   P!)"
043225:  126547675322                           ;"*UGWK2"
043226:  000000600275  stadx1                   ;"   P"]"
043227:  113221206722                           ;"):10W2"
043230:  000000600440  dumpx1                   ;"   P$@"
043231:  127206004422                           ;"*Z& D2"
043232:  000000600460  timex1                   ;"   P$P"
043233:  126332411422                           ;"*S:A,2"
043234:  000000600610  sevex1                   ;"   P&("
043235:  524105600310  hrlo     b, 600310(e)    ;"JA%P#("
043236:  000000000004  d                        ;"     $"
043237:  500443711151  hll      w, 711151(c)    ;"H$CY)I"
043240:  777777777777  conso    774, @dsptb(p)  ;"______"
043241:  116757600026                           ;")WOP 6"
043242:  000000012701  intrvl                   ;"   !7!"
043243:  152157412564  fsbm     c, 412564(p)    ;"-1OA5T"
043244:  000000000001  a                        ;"     !"
043245:  012157412564                           ;"!1OA5T"
043246:  775002000140  blki     750, ournam(b)  ;"_H" !@"
043247:  500006405451  hll      z, 405451(f)    ;"H &@LI"
043250:  474440070770  seto     w, 70770        ;"GD@''X"
043251:  000000000002  b                        ;"     ""
043252:  474440066552  seto     w, 66552        ;"GD@&UJ"
043253:  000000000012  x                        ;"     *"
043254:  474440066535  seto     w, 66535        ;"GD@&U="
043255:  000000000013  y                        ;"     +"
043256:  500000164732  hll      z, 164732       ;"H  .G:"
043257:  000000000015  s                        ;"     -"
043260:  134425746300  ildb     h, @746300(e)   ;"+D5\S "
043261:  000000400000  .fhslf                   ;"   @  "
043262:  074372246616                           ;"'CZ4V."
043263:  000000022715  .comnd                   ;"   "7-"
043264:  474371706025  seto     g, @706025(w)   ;"GCYXP5"
043265:  000000000022  .cmuqs                   ;"     2"
043266:  474371703356  seto     g, @703356(w)   ;"GCYX;N"
043267:  000000000017  p                        ;"     /"
043270:  474371702575  seto     g, @702575(w)   ;"GCYX5]"
043271:  000000000023  .cmtok                   ;"     3"
043272:  474371701506  seto     g, @701506(w)   ;"GCYX-&"
043273:  000000000020  .cmtad                   ;"     0"
043274:  474371700173  seto     g, @700173(w)   ;"GCYX!["
043275:  000000000003  c                        ;"     #"
043276:  474371674723  seto     g, @674723(w)   ;"GCYWG3"
043277:  000000000002  b                        ;"     ""
043300:  474371671546  seto     g, @671546(w)   ;"GCYW-F"
043301:  000000000021  .cmqst                   ;"     1"
043302:  474371666562  seto     g, @666562(w)   ;"GCYVUR"
043303:  000000000030  nttyps                   ;"     8"
043304:  474371666514  seto     g, @666514(w)   ;"GCYVU,"
043305:  000000000004  d                        ;"     $"
043306:  474371662323  seto     g, @662323(w)   ;"GCYV33"
043307:  000000000005  e                        ;"     %"
043310:  474371660372  seto     g, @660372(w)   ;"GCYV#Z"
043311:  000000000024  luupdl                   ;"     4"
043312:  474371657773  seto     g, @657773(w)   ;"GCYU_["
043313:  000000000002  b                        ;"     ""
043314:  474371657766  seto     g, @657766(w)   ;"GCYU_V"
043315:  000000000026  .cmnod                   ;"     6"
043316:  474371640274  seto     g, @640274(w)   ;"GCYT"\"
043317:  000000000001  a                        ;"     !"
043320:  474371640215  seto     g, @640215(w)   ;"GCYT"-"
043321:  000000000006  f                        ;"     &"
043322:  474371637523  seto     g, @637523(w)   ;"GCYS]3"
043323:  000000000004  d                        ;"     $"
043324:  474371635012  seto     g, @635012(w)   ;"GCYSH*"
043325:  000000000002  b                        ;"     ""
043326:  474371631554  seto     g, @631554(w)   ;"GCYS-L"
043327:  000000000011  w                        ;"     )"
043330:  474371626732  seto     g, @626732(w)   ;"GCYRW:"
043331:  000000000000                           ;"      "
043332:  474371626616  seto     g, @626616(w)   ;"GCYRV."
043333:  000000000015  s                        ;"     -"
043334:  474371626601  seto     g, @626601(w)   ;"GCYRV!"
043335:  000000000000                           ;"      "
043336:  474371626576  seto     g, @626576(w)   ;"GCYRU^"
043337:  000000000007  g                        ;"     '"
043340:  474371626416  seto     g, @626416(w)   ;"GCYRT."
043341:  000000000006  f                        ;"     &"
043342:  474371620224  seto     g, @620224(w)   ;"GCYR"4"
043343:  000000000011  w                        ;"     )"
043344:  474371617770  seto     g, @617770(w)   ;"GCYQ_X"
043345:  000000000016  q                        ;"     ."
043346:  474371617750  seto     g, @617750(w)   ;"GCYQ_H"
043347:  000000000003  c                        ;"     #"
043350:  474371617526  seto     g, @617526(w)   ;"GCYQ]6"
043351:  000000000001  a                        ;"     !"
043352:  474371615436  seto     g, @615436(w)   ;"GCYQL>"
043353:  000000000005  e                        ;"     %"
043354:  474371615343  seto     g, @615343(w)   ;"GCYQKC"
043355:  000000000013  y                        ;"     +"
043356:  474371615054  seto     g, @615054(w)   ;"GCYQHL"
043357:  000000000027  .cmchr                   ;"     7"
043360:  474371611632  seto     g, @611632(w)   ;"GCYQ.:"
043361:  000000000003  c                        ;"     #"
043362:  474371606346  seto     g, @606346(w)   ;"GCYPSF"
043363:  000000000025  .cmact                   ;"     5"
043364:  474371606272  seto     g, @606272(w)   ;"GCYPRZ"
043365:  000000000007  g                        ;"     '"
043366:  474371606255  seto     g, @606255(w)   ;"GCYPRM"
043367:  000000000010  h                        ;"     ("
043370:  134344055372  ildb     g, 55372(d)     ;"+CD%KZ"
043371:  133000000000  ibp      z               ;"+8    "
043372:  500011063427  hll      z, 63427(w)     ;"H )&<7"
043373:  000000000016  q                        ;"     ."
043374:  500562414446  hll      y, @414446(b)   ;"H%RADF"
043375:  000000000003  c                        ;"     #"
043376:  500562365536  hll      y, @365536(b)   ;"H%R>M>"
043377:  000002000001  b,,                      ;"  "  !"
043400:  500562343740  hll      y, @343740(b)   ;"H%R<?@"
043401:  000000000003  c                        ;"     #"
043402:  500562343725  hll      y, @343725(b)   ;"H%R<?5"
043403:  000000000004  d                        ;"     $"
043404:  500011205476  hll      z, 205476(w)    ;"H )0L^"
043405:  000002000000                           ;"  "   "
043406:  500011367256  hll      z, 367256(w)    ;"H )>ZN"
043407:  000017777776  p,,                      ;"  /__^"
043410:  500572476506  hll      y, @476506(x)   ;"H%ZGU&"
043411:  000017777776  p,,                      ;"  /__^"
043412:  500011354553  hll      z, 354553(w)    ;"H )=EK"
043413:  000015000001  s,,                      ;"  -  !"
043414:  535443366633  hrlei    w, 366633(c)    ;"KLC>V;"
043415:  000015000010  s,,                      ;"  -  ("
043416:  535443365511  hrlei    w, 365511(c)    ;"KLC>M)"
043417:  000015000012  s,,                      ;"  -  *"
043420:  500572270761  hll      y, @270761(x)   ;"H%Z7'Q"
043421:  000015000002  s,,                      ;"  -  ""
043422:  500572270342  hll      y, @270342(x)   ;"H%Z7#B"
043423:  000015000011  s,,                      ;"  -  )"
043424:  535436320717  hrlei    h, @320717(q)   ;"KL>:'/"
043425:  000015000003  s,,                      ;"  -  #"
043426:  535431655025  hrlei    h, @655025(w)   ;"KL9UH5"
043427:  000017777774  p,,                      ;"  /__\"
043430:  535431655024  hrlei    h, @655024(w)   ;"KL9UH4" "W1NZ\n"
043431:  000017777775  p,,                      ;"  /__]"
043432:  535420775146  hrlei    h, @775146      ;"KL0_IF"
043433:  000015000003  s,,                      ;"  -  #"
043434:  535420354601  hrlei    h, @354601      ;"KL0=F!"
043435:  000015000017  s,,                      ;"  -  /"
043436:  500571513256  hll      y, @513256(w)   ;"H%YI:N"
043437:  000017777775  p,,                      ;"  /__]"
043440:  535401651416  hrlei    h, 651416(a)    ;"KL!U,."
043441:  000015000007  s,,                      ;"  -  '"
043442:  535367503441  hrlei    g, @503441(g)   ;"KKWH<A"
043443:  000015000006  s,,                      ;"  -  &"
043444:  500571112755  hll      y, @112755(w)   ;"H%Y)7M"
043445:  000017777775  p,,                      ;"  /__]"
043446:  535354310370  hrlei    g, 310370(z)    ;"KKL9#X"
043447:  000017777776  p,,                      ;"  /__^"
043450:  500011327666  hll      z, 327666(w)    ;"H ):^V"
043451:  000015000010  s,,                      ;"  -  ("
043452:  500000170446  hll      z, 170446       ;"H  /$F"
043453:  000017777774  p,,                      ;"  /__\"
043454:  535314552533  hrlei    f, 552533(z)    ;"KK,M5;"
043455:  000015000015  s,,                      ;"  -  -"
043456:  535235734461  hrlei    d, @734461(s)   ;"KJ=[DQ"
043457:  000015000004  s,,                      ;"  -  $"
043460:  500011276636  hll      z, 276636(w)    ;"H )7V>"
043461:  000015000002  s,,                      ;"  -  ""
043462:  535207256656  hrlei    d, 256656(g)    ;"KJ'5VN" "W(:]W"
043463:  000015000011  s,,                      ;"  -  )"
043464:  535202344641  hrlei    d, 344641(b)    ;"KJ"<FA"
043465:  000015000013  s,,                      ;"  -  +"
043466:  535202344451  hrlei    d, 344451(b)    ;"KJ"<DI"
043467:  000015000014  s,,                      ;"  -  ,"
043470:  535202147221  hrlei    d, 147221(b)    ;"KJ",Z1"
043471:  000017777775  p,,                      ;"  /__]"
043472:  535201547514  hrlei    d, 547514(a)    ;"KJ!L]," "W(\rO&"
043473:  000015000003  s,,                      ;"  -  #"
043474:  535201547205  hrlei    d, 547205(a)    ;"KJ!LZ%"
043475:  000017777775  p,,                      ;"  /__]"
043476:  500011270465  hll      z, 270465(w)    ;"H )7$U"
043477:  000015000004  s,,                      ;"  -  $"
043500:  535200373374  hrlei    d, 373374       ;"KJ ?;\"
043501:  000015000020  s,,                      ;"  -  0"
043502:  535200326661  hrlei    d, 326661       ;"KJ :VQ"
043503:  000015000021  s,,                      ;"  -  1"
043504:  535200315730  hrlei    d, 315730       ;"KJ 9O8"
043505:  000017777776  p,,                      ;"  /__^"
043506:  535200315725  hrlei    d, 315725       ;"KJ 9O5"
043507:  000017777766  p,,                      ;"  /__V"
043510:  535200315723  hrlei    d, 315723       ;"KJ 9O3"
043511:  000017777767  p,,                      ;"  /__W"
043512:  535200314537  hrlei    d, 314537       ;"KJ 9E?"
043513:  000015000005  s,,                      ;"  -  %"
043514:  535200314466  hrlei    d, 314466       ;"KJ 9DV"
043515:  000017777765  p,,                      ;"  /__U"
043516:  500566317465  hll      y, @317465(f)   ;"H%V9\U"
043517:  000017777776  p,,                      ;"  /__^"
043520:  535176024514  hrlei    c, @24514(q)    ;"KI^"E," "W'p)&"
043521:  000015000002  s,,                      ;"  -  ""
043522:  500566263436  hll      y, @263436(f)   ;"H%V6<>"
043523:  000015000001  s,,                      ;"  -  !"
043524:  535175773402  hrlei    c, @773402(s)   ;"KI]_<""
043525:  000017777776  p,,                      ;"  /__^"
043526:  535165536333  hrlei    c, @536333(e)   ;"KIUKS;"
043527:  000015000016  s,,                      ;"  -  ."
043530:  535156445633  hrlei    c, 445633(q)    ;"KINDN;"
043531:  000015000002  s,,                      ;"  -  ""
043532:  535156445456  hrlei    c, 445456(q)    ;"KINDLN"
043533:  000015000001  s,,                      ;"  -  !"
043534:  500565750250  hll      y, @750250(e)   ;"H%U]"H"
043535:  000017777774  p,,                      ;"  /__\"
043536:  100010705071                           ;"( (XHY"
043537:  000000026310  zero                     ;"   "S("
043540:  500000161564  hll      z, 161564       ;"H  .-T"
043541:  000000000002  b                        ;"     ""
043542:  500000002562  hll      z, 2562         ;"H   5R"
043543:  000000000047  xx                       ;"     G"
043544:  072413576075                           ;"'4+OP]"
043545:  000000025514  xtlook                   ;"   "M,"
043546:  132413575611  fsc      h, 575611(y)    ;"+4+ON)"
043547:  000000025515  xtlok0                   ;"   "M-"
043550:  040523342756  .iot     .chlfd, @342756(c);"$%3<7N"
043551:  000000025434  xtdel                    ;"   "L<"
043552:  132410773663  fsc      h, 773663(h)    ;"+4(_>S"
043553:  000000025477  xtadd2                   ;"   "L_"
043554:  100523331376                           ;"(%3;+^"
043555:  000000025460  xtadd                    ;"   "LP"
043556:  100522027164                           ;"(%2"YT"
043557:  000000025020  xnod3                    ;"   "H0"
043560:  100522027163                           ;"(%2"YS"
043561:  000000025013  xnod2                    ;"   "H+"
043562:  100522027162                           ;"(%2"YR"
043563:  000000025007  xnod1                    ;"   "H'"
043564:  100522027161                           ;"(%2"YQ"
043565:  000000024777  xnod0                    ;"   "G_"
043566:  132146347454  fsc      c, 347454(f)    ;"+1F<\L"
043567:  000000023156  xcomxr                   ;"   "9N"
043570:  132146347446  fsc      c, 347446(f)    ;"+1F<\F"
043571:  000000023134  xcomxl                   ;"   "9<"
043572:  132146347443  fsc      c, 347443(f)    ;"+1F<\C"
043573:  000000023160  xcomxi                   ;"   "9P"
043574:  132146347423  fsc      c, 347423(f)    ;"+1F<\3"
043575:  000000023171  xcomx2                   ;"   "9Y"
043576:  132146347422  fsc      c, 347422(f)    ;"+1F<\2"
043577:  000000023174  xcomx1                   ;"   "9\"
043600:  132146347072  fsc      c, 347072(f)    ;"+1F<XZ"
043601:  000000023145  xcomrp                   ;"   "9E"
043602:  132146347060  fsc      c, 347060(f)    ;"+1F<XP"
043603:  000000023117  xcomrf                   ;"   "9/"
043604:  132146346632  fsc      c, 346632(f)    ;"+1F<V:"
043605:  000000023211  xcomnp                   ;"   ":)"
043606:  132146346617  fsc      c, 346617(f)    ;"+1F<V/"
043607:  000000023210  xcomne                   ;"   ":("
043610:  072146346616                           ;"'1F<V."
043611:  000000022725  xcomnd                   ;"   "75"
043612:  132146346602  fsc      c, 346602(f)    ;"+1F<V""
043613:  000000023233  xcomn1                   ;"   ":;"
043614:  132146346601  fsc      c, 346601(f)    ;"+1F<V!"
043615:  000000022760  xcomn0                   ;"   "7P"
043616:  100517270736                           ;"(%/7'>"
043617:  000000022764  xcom5                    ;"   "7T"
043620:  100517270735                           ;"(%/7'="
043621:  000000023034  xcom4                    ;"   "8<"
043622:  100517270734                           ;"(%/7'<"
043623:  000000023024  xcom3                    ;"   "84"
043624:  100517270733                           ;"(%/7';"
043625:  000000023031  xcom2                    ;"   "89"
043626:  100517270732                           ;"(%/7':"
043627:  000000023036  xcom1                    ;"   "8>"
043630:  100517270731                           ;"(%/7'9"
043631:  000000023025  xcom0                    ;"   "85"
043632:  132146006144  fsc      c, 6144(f)      ;"+1F QD"
043633:  000000025200  xcmusr                   ;"   "J "
043634:  132146006025  fsc      c, 6025(f)      ;"+1F P5"
043635:  000000024750  xcmuqs                   ;"   "GH"
043636:  132146003356  fsc      c, 3356(f)      ;"+1F ;N"
043637:  000000024421  xcmtxt                   ;"   "D1"
043640:  132146002575  fsc      c, 2575(f)      ;"+1F 5]"
043641:  000000025160  xcmtok                   ;"   "IP"
043642:  132146001506  fsc      c, 1506(f)      ;"+1F -&"
043643:  000000024627  xcmtad                   ;"   "F7"
043644:  132146000173  fsc      c, 173(f)       ;"+1F !["
043645:  000000024150  xcmswi                   ;"   "AH"
043646:  132145771546  fsc      c, 771546(e)    ;"+1E_-F"
043647:  000000024736  xcmqst                   ;"   "G>"
043650:  132145766562  fsc      c, 766562(e)    ;"+1E^UR"
043651:  000000025317  xcmpup                   ;"   "K/"
043652:  132145762323  fsc      c, 762323(e)    ;"+1E^33"
043653:  000000025035  xcmofi                   ;"   "H="
043654:  132145760372  fsc      c, 760372(e)    ;"+1E^#Z"
043655:  000000024546  xcmnux                   ;"   "EF"
043656:  132145760357  fsc      c, 760357(e)    ;"+1E^#O"
043657:  000000024547  xcmnum                   ;"   "EG"
043660:  132145757773  fsc      c, 757773(e)    ;"+1E]_["
043661:  000000024425  xcmnoi                   ;"   "D5"
043662:  132145757766  fsc      c, 757766(e)    ;"+1E]_V"
043663:  000000024767  xcmnod                   ;"   "GW"
043664:  132145745673  fsc      c, 745673(e)    ;"+1E\N["
043665:  000000024164  xcmkey                   ;"   "AT"
043666:  132145740223  fsc      c, 740223(e)    ;"+1E\"3"
043667:  000000024101  xcmini                   ;"   "A!"
043670:  132145737523  fsc      c, 737523(e)    ;"+1E[]3"
043671:  000000025036  xcmifi                   ;"   "H>"
043672:  132145726616  fsc      c, 726616(e)    ;"+1EZV."
043673:  000000024531  xcmflt                   ;"   "E9"
043674:  132145726576  fsc      c, 726576(e)    ;"+1EZU^"
043675:  000000024760  xcmfld                   ;"   "GP"
043676:  132145726416  fsc      c, 726416(e)    ;"+1EZT."
043677:  000000025032  xcmfil                   ;"   "H:"
043700:  132145720224  fsc      c, 720224(e)    ;"+1EZ"4"
043701:  000000025201  xcmdir                   ;"   "J!"
043702:  132145717770  fsc      c, 717770(e)    ;"+1EY_X"
043703:  000000024702  xcmdev                   ;"   "G""
043704:  132145715343  fsc      c, 715343(e)    ;"+1EYKC"
043705:  000000025277  xcmcma                   ;"   "J_"
043706:  132145714727  fsc      c, 714727(e)    ;"+1EYG7"
043707:  000000024512  xcmcfm                   ;"   "E*"
043710:  132145706346  fsc      c, 706346(e)    ;"+1EXSF"
043711:  000000024764  xcmact                   ;"   "GT"
043712:  131556722722                           ;"+-NZ72"
043713:  000000026060  wrapx1                   ;"   "PP"
043714:  100511130362                           ;"(%)+#R"
043715:  000000026050  wrapx                    ;"   "PH"
043716:  100511130337                           ;"(%)+#?"
043717:  000000026033  wrape                    ;"   "P;"
043720:  100511130322                           ;"(%)+#2"
043721:  000000026044  wrap1                    ;"   "PD"
043722:  100511130321                           ;"(%)+#1"
043723:  000000026040  wrap0                    ;"   "P@"
043724:  100010165322                           ;"( (.K2"
043725:  000000026035  wrap                     ;"   "P="
043726:  070157770362                           ;"'!O_#R"
043727:  000000025407  ustcmp                   ;"   "L'"
043730:  130157373565                           ;"+!O?=U"
043731:  000000023372  usrbrk                   ;"   ";Z"
043732:  130073062200                           ;"+ [&2 "
043733:  000000023751  uncrlf                   ;"   "?I"
043734:  127443050543                           ;"*\C%%C"
043735:  000000024365  typtb2                   ;"   "CU"
043736:  127443050542                           ;"*\C%%B"
043737:  000000024376  typtb1                   ;"   "C^"
043740:  127443050504                           ;"*\C%%$"
043741:  000000024361  typtab                   ;"   "CQ"
043742:  500007422503  hll      z, 422503(g)    ;"H 'B5#"
043743:  000020000000                           ;"  0   "
043744:  127427375306                           ;"*\7?K&"
043745:  000000026063  txibad                   ;"   "PS"
043746:  467365343642  orcmb    g, @343642(e)   ;"F[U<>B" "Mo+GQ"
043747:  000000020000  tt%wkp                   ;"   "  "
043750:  467365343640  orcmb    g, @343640(e)   ;"F[U<>@" "Mo+GP"
043751:  000000040000  tt%wkn                   ;"   $  "
043752:  467365343630  orcmb    g, @343630(e)   ;"F[U<>8" "Mo+GL"
043753:  000000100000  tt%wkf                   ;"   (  "
043754:  467365343623  orcmb    g, @343623(e)   ;"F[U<>3"
043755:  000000010000  tt%wka                   ;"   !  "
043756:  467365343015  orcmb    g, @343015(e)   ;"F[U<8-"
043757:  000000170000  tt%wak                   ;"   /  "
043760:  467365335665  orcmb    g, @335665(e)   ;"F[U;NU"
043761:  000000000040  .mref2                   ;"     @"
043762:  467365252741  orcmb    g, @252741(e)   ;"F[U57A"
043763:  000000004000  tt%eco                   ;"    @ "
043764:  127301324621                           ;"*[!:F1"
043765:  000000026316  tops10                   ;"   "S."
043766:  500000137602  hll      z, 137602       ;"H  +^""
043767:  000000000000                           ;"      "
043770:  127245227222                           ;"*ZE2Z2"
043771:  000000601237  tlukx1                   ;"   P*?"
043772:  467247207777  orcmb    e, 207777(g)    ;"FZG0__"
043773:  400000000000  setz     z,              ;"@     " "@\0\0\0\0"
043774:  467247154447  orcmb    e, 154447(g)    ;"FZG-DG"
043775:  040000000000  .iot     .chnul, z       ;"$     "
043776:  467247137144  orcmb    e, 137144(g)    ;"FZG+YD" "Mj9>2"
043777:  200000000000  move     z, z            ;"0     " " \0\0\0\0"
