TENEX format

Page map:
File Page  Memory Page  Access
000002     000          120400 r-x-c-
000003     001          120400 r-x-c-
000004     002          120400 r-x-c-
000005     003          120400 r-x-c-
Start instruction:
         254000000152  jrst     152             ;"5@  !J"

Disassembly:

000000:  000000000000                           ;"      "
000001:  000000000000                           ;"      "
000002:  000000000000                           ;"      "
000003:  000000000000                           ;"      "
000004:  000000000000                           ;"      "
000005:  000000000000                           ;"      "
000006:  000000000000                           ;"      "
000007:  000000000000                           ;"      "
000010:  000000000000                           ;"      "
000011:  000000000000                           ;"      "
000012:  000000000000                           ;"      "
000013:  000000000000                           ;"      "
000014:  000000000000                           ;"      "
000015:  000000000000                           ;"      "
000016:  000000000000                           ;"      "
000017:  000000000000                           ;"      "
000020:  541103000700  hrri     2, 700(3)       ;"L)# ' "
000021:  104000000056                           ;"(@   N"
000022:  253140000020  aobjn    3, 20           ;"59@  0"
000023:  200040000030  move     1, 30           ;"0 @  8"
000024:  200100000031  move     2, 31           ;"0!   9"
000025:  200140000032  move     3, 32           ;"0!@  :"
000026:  104000000170                           ;"(@  !X"
000027:  254000000026  jrst     26              ;"5@   6"
000030:  047600000011  .access  14, 11          ;"$^   )"
000031:  255000000000  jfcl                     ;"5H    " "+ \0\0\0"
000032:  403000000007  setzb    0, 7            ;"@8   '"
000033:  000000000000                           ;"      "
000034:  000000000000                           ;"      "
000035:  000000000000                           ;"      "
000036:  000000000000                           ;"      "
000037:  000000000000                           ;"      "
000040:  000000000000                           ;"      "
000041:  254200000000  halt     0               ;"5B    "
000042:  000000000000                           ;"      "
000043:  000000000000                           ;"      "
000044:  000000003777                           ;"    ?_"
000045:  750100000006  blko     500, 6          ;"]!   &"
000046:  000000000000                           ;"      "
000047:  000000000000                           ;"      "
000050:  000000000000                           ;"      "
000051:  000000000000                           ;"      "
000052:  000000000000                           ;"      "
000053:  000000000000                           ;"      "
000054:  000000000000                           ;"      "
000055:  000000000000                           ;"      "
000056:  000000000000                           ;"      "
000057:  000000000000                           ;"      "
000060:  000000000000                           ;"      "
000061:  000000000000                           ;"      "
000062:  000000000000                           ;"      "
000063:  000000000000                           ;"      "
000064:  000000000000                           ;"      "
000065:  000000000000                           ;"      "
000066:  000000000000                           ;"      "
000067:  000000000000                           ;"      "
000070:  000000000000                           ;"      "
000071:  000000000000                           ;"      "
000072:  000000000000                           ;"      "
000073:  000000000000                           ;"      "
000074:  000000000000                           ;"      "
000075:  000000000000                           ;"      "
000076:  000000000000                           ;"      "
000077:  000000000000                           ;"      "
000100:  000000000000                           ;"      "
000101:  000000000000                           ;"      "
000102:  000000000000                           ;"      "
000103:  000000000000                           ;"      "
000104:  000000000000                           ;"      "
000105:  000000000000                           ;"      "
000106:  000000000000                           ;"      "
000107:  000000000000                           ;"      "
000110:  000000000000                           ;"      "
000111:  000000000000                           ;"      "
000112:  000000000000                           ;"      "
000113:  000000000000                           ;"      "
000114:  000000000000                           ;"      "
000115:  000000000000                           ;"      "
000116:  777204002607  cono     770, 2607(4)    ;"_Z$ 6'"
000117:  000000000000                           ;"      "
000120:  003403000152                           ;" <# !J"
000121:  000000003403                           ;"    <#"
000122:  000000000000                           ;"      "
000123:  000000000000                           ;"      "
000124:  000000000000                           ;"      "
000125:  000000000000                           ;"      "
000126:  000000000000                           ;"      "
000127:  000000000000                           ;"      "
000130:  750100000006  blko     500, 6          ;"]!   &"
000131:  000000000000                           ;"      "
000132:  000000000000                           ;"      "
000133:  003402000000                           ;" <"   "
000134:  000000000000                           ;"      "
000135:  000000000000                           ;"      "
000136:  000000000000                           ;"      "
000137:  000000000000                           ;"      "
000140:  242007000000  lsh      0, (7)          ;"40'   " "(@8\0\0"
000141:  141007000000                           ;",('   "
000142:  041007000000  .open    0, (7)          ;"$('   "
000143:  341007000002  aojl     0, 2(7)         ;"<('  ""
000144:  241007000002  rot      0, 2(7)         ;"4('  ""
000145:  042007000002                           ;"$0'  ""
000146:  242007000003  lsh      0, 3(7)         ;"40'  #"
000147:  141007000003                           ;",('  #"
000150:  041007000003  .open    0, 3(7)         ;"$('  #"
000151:  044007000004  .uset    0, 4(7)         ;"$@'  $"
000152:  104000000147                           ;"(@  !G"
000153:  201040400000  movei    1, 400000       ;"0(@@  "
000154:  200100001327  move     2, 1327         ;"0!  +7"
000155:  104000000125                           ;"(@  !5"
000156:  104000000126                           ;"(@  !6"
000157:  200740001330  move     17, 1330        ;"0'@ +8"
000160:  201040000052  movei    1, 52           ;"0(@  J"
000161:  104000000074                           ;"(@   \"
000162:  260740000470  pushj    17, 470         ;"6'@ $X"
000163:  254000000160  jrst     160             ;"5@  !P"
000164:  201100000200  movei    2, 200          ;"0)  " "
000165:  306040000077  cain     1, 77           ;"8P@  _"
000166:  201100000203  movei    2, 203          ;"0)  "#"
000167:  421040000040  andcmi   1, 40           ;"B(@  @"
000170:  306040000123  cain     1, 123          ;"8P@ !3"
000171:  201100000212  movei    2, 212          ;"0)  "*"
000172:  306040000122  cain     1, 122          ;"8P@ !2"
000173:  201100000265  movei    2, 265          ;"0)  "U"
000174:  306040000121  cain     1, 121          ;"8P@ !1"
000175:  201100000206  movei    2, 206          ;"0)  "&"
000176:  260742000000  pushj    17, (2)         ;"6'B   "
000177:  254000000160  jrst     160             ;"5@  !P"
000200:  561040001331  hrroi    1, 1331         ;"N(@ +9"
000201:  104000000076                           ;"(@   ^"
000202:  263740000000  popj     17,             ;"6?@   "
000203:  561040001332  hrroi    1, 1332         ;"N(@ +:"
000204:  104000000076                           ;"(@   ^"
000205:  263740000000  popj     17,             ;"6?@   "
000206:  561040001337  hrroi    1, 1337         ;"N(@ +?"
000207:  104000000076                           ;"(@   ^"
000210:  104000000170                           ;"(@  !X"
000211:  263740000000  popj     17,             ;"6?@   "
000212:  561040001341  hrroi    1, 1341         ;"N(@ +A"
000213:  104000000076                           ;"(@   ^"
000214:  205040120003  movsi    1, 120003       ;"0H@* #"
000215:  200100001344  move     2, 1344         ;"0!  +D"
000216:  260740000433  pushj    17, 433         ;"6'@ $;"
000217:  263740000000  popj     17,             ;"6?@   "
000220:  202040001112  movem    1, 1112         ;"00@ )*"
000221:  561040001345  hrroi    1, 1345         ;"N(@ +E"
000222:  104000000076                           ;"(@   ^"
000223:  260740000347  pushj    17, 347         ;"6'@ #G"
000224:  254000001347  jrst     1347            ;"5@  +G"
000225:  202040001111  movem    1, 1111         ;"00@ ))"
000226:  202100001113  movem    2, 1113         ;"01  )+"
000227:  200040001112  move     1, 1112         ;"0 @ )*"
000230:  200100001353  move     2, 1353         ;"0!  +K"
000231:  211140001000  movni    3, 1000         ;"1)@ ( "
000232:  104000000052                           ;"(@   J"
000233:  271140001000  addi     3, 1000         ;"7)@ ( "
000234:  322140000243  jumpe    3, 243          ;":1@ "C"
000235:  550040001111  hrrz     1, 1111         ;"M @ ))"
000236:  201100001114  movei    2, 1114         ;"0)  ),"
000237:  201200072460  movei    4, 72460        ;"0* '4P"
000240:  260740001726  pushj    17, 1726        ;"6'@ /6"
000241:  254000000251  jrst     251             ;"5@  "I"
000242:  254000000227  jrst     227             ;"5@  "7"
000243:  550040001111  hrrz     1, 1111         ;"M @ ))"
000244:  201200072460  movei    4, 72460        ;"0* '4P"
000245:  260740002032  pushj    17, 2032        ;"6'@ 0:"
000246:  254000000250  jrst     250             ;"5@  "H"
000247:  254000000254  jrst     254             ;"5@  "L"
000250:  400100000000  setz     2,              ;"@!    "
000251:  306040000003  cain     1, 3            ;"8P@  #"
000252:  254000001362  jrst     1362            ;"5@  +R"
000253:  260740000374  pushj    17, 374         ;"6'@ #\"
000254:  550040001111  hrrz     1, 1111         ;"M @ ))"
000255:  260740001711  pushj    17, 1711        ;"6'@ /)"
000256:  200040001113  move     1, 1113         ;"0 @ )+"
000257:  104000000022                           ;"(@   2"
000260:  260740000475  pushj    17, 475         ;"6'@ $]"
000261:  200040001112  move     1, 1112         ;"0 @ )*"
000262:  104000000022                           ;"(@   2"
000263:  260740000475  pushj    17, 475         ;"6'@ $]"
000264:  263740000000  popj     17,             ;"6?@   "
000265:  561040001367  hrroi    1, 1367         ;"N(@ +W"
000266:  104000000076                           ;"(@   ^"
000267:  205040460003  movsi    1, 460003       ;"0H@F #"
000270:  200100001372  move     2, 1372         ;"0!  +Z"
000271:  260740000433  pushj    17, 433         ;"6'@ $;"
000272:  263740000000  popj     17,             ;"6?@   "
000273:  202040001112  movem    1, 1112         ;"00@ )*"
000274:  561040001373  hrroi    1, 1373         ;"N(@ +["
000275:  104000000076                           ;"(@   ^"
000276:  260740000347  pushj    17, 347         ;"6'@ #G"
000277:  254000001376  jrst     1376            ;"5@  +^"
000300:  202040001111  movem    1, 1111         ;"00@ ))"
000301:  202100001113  movem    2, 1113         ;"01  )+"
000302:  561040001404  hrroi    1, 1404         ;"N(@ ,$"
000303:  104000000076                           ;"(@   ^"
000304:  550040001113  hrrz     1, 1113         ;"M @ )+"
000305:  104000000275                           ;"(@  "]"
000306:  260740000475  pushj    17, 475         ;"6'@ $]"
000307:  201040000101  movei    1, 101          ;"0(@ !!"
000310:  200100000003  move     2, 3            ;"0!   #"
000311:  201140000010  movei    3, 10           ;"0)@  ("
000312:  104000000224                           ;"(@  "4"
000313:  260740000475  pushj    17, 475         ;"6'@ $]"
000314:  561040001336  hrroi    1, 1336         ;"N(@ +>"
000315:  104000000076                           ;"(@   ^"
000316:  550040001111  hrrz     1, 1111         ;"M @ ))"
000317:  201100001114  movei    2, 1114         ;"0)  ),"
000320:  201200352300  movei    4, 352300       ;"0* =3 "
000321:  260740002121  pushj    17, 2121        ;"6'@ 11"
000322:  254000000330  jrst     330             ;"5@  #8"
000323:  200040001112  move     1, 1112         ;"0 @ )*"
000324:  200100001353  move     2, 1353         ;"0!  +K"
000325:  213000000003  movns    0, 3            ;"18   #"
000326:  104000000053                           ;"(@   K"
000327:  254000000316  jrst     316             ;"5@  #."
000330:  306040777776  cain     1, 777776       ;"8P@__^"
000331:  254000000336  jrst     336             ;"5@  #>"
000332:  260740000374  pushj    17, 374         ;"6'@ #\"
000333:  200040001112  move     1, 1112         ;"0 @ )*"
000334:  104000000026                           ;"(@   6"
000335:  300000000000  cai      0, 0            ;"8     " "0\0\0\0\0"
000336:  550040001111  hrrz     1, 1111         ;"M @ ))"
000337:  260740001711  pushj    17, 1711        ;"6'@ /)"
000340:  200040001113  move     1, 1113         ;"0 @ )+"
000341:  104000000022                           ;"(@   2"
000342:  260740000475  pushj    17, 475         ;"6'@ $]"
000343:  200040001112  move     1, 1112         ;"0 @ )*"
000344:  104000000022                           ;"(@   2"
000345:  261740000475  push     17, 475         ;"6/@ $]"
000346:  263740000000  popj     17,             ;"6?@   "
000347:  201040400000  movei    1, 400000       ;"0(@@  "
000350:  104000000150                           ;"(@  !H"
000351:  201040001410  movei    1, 1410         ;"0(@ ,("
000352:  561100001420  hrroi    2, 1420         ;"N)  ,0"
000353:  602140600000  trne     3, 600000       ;"P1@P  "
000354:  561100001422  hrroi    2, 1422         ;"N)  ,2"
000355:  104000000020                           ;"(@   0"
000356:  254000001424  jrst     1424            ;"5@  ,4"
000357:  506057000000  hrlm     1, (17)         ;"HPO   " "QBx\0\0"
000360:  200100001432  move     2, 1432         ;"0!  ,:"
000361:  104000000021                           ;"(@   1"
000362:  254000001433  jrst     1433            ;"5@  ,;"
000363:  200100000001  move     2, 1            ;"0!   !"
000364:  201040001065  movei    1, 1065         ;"0(@ (U"
000365:  211140000001  movni    3, 1            ;"1)@  !"
000366:  260740001620  pushj    17, 1620        ;"6'@ .0"
000367:  254000001446  jrst     1446            ;"5@  ,F"
000370:  201040001065  movei    1, 1065         ;"0(@ (U"
000371:  554117000000  hlrz     2, (17)         ;"MA/   "
000372:  350017000000  aos      (17)            ;"= /   "
000373:  263740000000  popj     17,             ;"6?@   "
000374:  301040600000  cail     1, 600000       ;"8(@P  "
000375:  301040700000  cail     1, 700000       ;"8(@X  "
000376:  304000000000  caia                     ;"8@    " "1\0\0\0\0"
000377:  254000000447  jrst     447             ;"5@  $G"
000400:  602040400000  trne     1, 400000       ;"P0@@  "
000401:  400100000000  setz     2,              ;"@!    "
000402:  306040777777  cain     1, 777777       ;"8P@___"
000403:  561040001454  hrroi    1, 1454         ;"N(@ ,L"
000404:  306040777775  cain     1, 777775       ;"8P@__]"
000405:  561040001464  hrroi    1, 1464         ;"N(@ ,T"
000406:  306040777774  cain     1, 777774       ;"8P@__\"
000407:  561040001474  hrroi    1, 1474         ;"N(@ ,\"
000410:  306040000001  cain     1, 1            ;"8P@  !"
000411:  561040001501  hrroi    1, 1501         ;"N(@ -!"
000412:  306040000002  cain     1, 2            ;"8P@  ""
000413:  561040001510  hrroi    1, 1510         ;"N(@ -("
000414:  306040000003  cain     1, 3            ;"8P@  #"
000415:  561040001517  hrroi    1, 1517         ;"N(@ -/"
000416:  306040000004  cain     1, 4            ;"8P@  $"
000417:  561040001525  hrroi    1, 1525         ;"N(@ -5"
000420:  607040777777  tlnn     1, 777777       ;"PX@___"
000421:  561040001533  hrroi    1, 1533         ;"N(@ -;"
000422:  104000000076                           ;"(@   ^"
000423:  561040001336  hrroi    1, 1336         ;"N(@ +>"
000424:  104000000076                           ;"(@   ^"
000425:  322100000432  jumpe    2, 432          ;":1  $:"
000426:  201040000101  movei    1, 101          ;"0(@ !!"
000427:  104000000053                           ;"(@   K"
000430:  561040001336  hrroi    1, 1336         ;"N(@ +>"
000431:  104000000076                           ;"(@   ^"
000432:  263740000000  popj     17,             ;"6?@   "
000433:  200140000001  move     3, 1            ;"0!@  !"
000434:  200200000002  move     4, 2            ;"0"   ""
000435:  200040000003  move     1, 3            ;"0 @  #"
000436:  200100001411  move     2, 1411         ;"0!  ,)"
000437:  104000000020                           ;"(@   0"
000440:  254000001537  jrst     1537            ;"5@  -?"
000441:  506057000000  hrlm     1, (17)         ;"HPO   " "QBx\0\0"
000442:  200100000004  move     2, 4            ;"0!   $"
000443:  104000000021                           ;"(@   1"
000444:  254000001546  jrst     1546            ;"5@  -F"
000445:  350017000000  aos      (17)            ;"= /   "
000446:  263740000000  popj     17,             ;"6?@   "
000447:  550100000001  hrrz     2, 1            ;"M!   !"
000450:  505100400000  hrli     2, 400000       ;"HI @  "
000451:  201040000101  movei    1, 101          ;"0(@ !!"
000452:  400140000000  setz     3,              ;"@!@   "
000453:  104000000011                           ;"(@   )"
000454:  254000001560  jrst     1560            ;"5@  -P"
000455:  260740000475  pushj    17, 475         ;"6'@ $]"
000456:  561040001336  hrroi    1, 1336         ;"N(@ +>"
000457:  104000000076                           ;"(@   ^"
000460:  263740000000  popj     17,             ;"6?@   "
000461:  561040001570  hrroi    1, 1570         ;"N(@ -X"
000462:  104000000076                           ;"(@   ^"
000463:  201040000764  movei    1, 764          ;"0(@ 'T"
000464:  104000000167                           ;"(@  !W"
000465:  201040000100  movei    1, 100          ;"0(@ ! "
000466:  104000000100                           ;"(@  ! "
000467:  263740000000  popj     17,             ;"6?@   "
000470:  104000000073                           ;"(@   ["
000471:  306040000177  cain     1, 177          ;"8P@ !_"
000472:  254000001573  jrst     1573            ;"5@  -["
000473:  350017000000  aos      (17)            ;"= /   "
000474:  263740000000  popj     17,             ;"6?@   "
000475:  261740000001  push     17, 1           ;"6/@  !"
000476:  561040001576  hrroi    1, 1576         ;"N(@ -^"
000477:  104000000076                           ;"(@   ^"
000500:  262740000001  pop      17, 1           ;"67@  !"
000501:  104000000170                           ;"(@  !X"
000502:  254000000501  jrst     501             ;"5@  %!"
000503:  000000000506                           ;"    %&"
000504:  000000000507                           ;"    %'"
000505:  000000000510                           ;"    %("
000506:  000000000000                           ;"      "
000507:  000000000000                           ;"      "
000510:  000000000000                           ;"      "
000511:  000000000000                           ;"      "
000512:  000000000000                           ;"      "
000513:  000000000000                           ;"      "
000514:  000000000000                           ;"      "
000515:  000000000000                           ;"      "
000516:  000000000000                           ;"      "
000517:  000000000000                           ;"      "
000520:  000000000000                           ;"      "
000521:  000000000000                           ;"      "
000522:  000000000000                           ;"      "
000523:  000000000000                           ;"      "
000524:  000000000000                           ;"      "
000525:  000000000000                           ;"      "
000526:  000000000000                           ;"      "
000527:  000000000000                           ;"      "
000530:  000000000000                           ;"      "
000531:  000000000000                           ;"      "
000532:  000000000000                           ;"      "
000533:  000000000000                           ;"      "
000534:  000000000000                           ;"      "
000535:  000000000000                           ;"      "
000536:  000000000000                           ;"      "
000537:  000000000000                           ;"      "
000540:  000000000000                           ;"      "
000541:  000000000000                           ;"      "
000542:  000000000000                           ;"      "
000543:  000000000000                           ;"      "
000544:  000000000000                           ;"      "
000545:  000000000000                           ;"      "
000546:  000000000000                           ;"      "
000547:  000000000000                           ;"      "
000550:  000000000000                           ;"      "
000551:  000000000000                           ;"      "
000552:  000000000000                           ;"      "
000553:  000000000000                           ;"      "
000554:  000000000000                           ;"      "
000555:  000000000000                           ;"      "
000556:  000000000000                           ;"      "
000557:  000000000000                           ;"      "
000560:  000000000000                           ;"      "
000561:  000000000000                           ;"      "
000562:  000000000000                           ;"      "
000563:  000000000000                           ;"      "
000564:  000000000000                           ;"      "
000565:  000000000000                           ;"      "
000566:  000000000000                           ;"      "
000567:  000000000000                           ;"      "
000570:  000000000000                           ;"      "
000571:  000000000000                           ;"      "
000572:  000000000000                           ;"      "
000573:  000000000000                           ;"      "
000574:  000000000000                           ;"      "
000575:  000000000000                           ;"      "
000576:  000000000000                           ;"      "
000577:  000000000000                           ;"      "
000600:  000000000000                           ;"      "
000601:  000000000000                           ;"      "
000602:  000000000000                           ;"      "
000603:  000000000000                           ;"      "
000604:  000000000000                           ;"      "
000605:  000000000000                           ;"      "
000606:  000000000000                           ;"      "
000607:  000000000000                           ;"      "
000610:  000000000000                           ;"      "
000611:  000000000000                           ;"      "
000612:  000000000000                           ;"      "
000613:  000000000000                           ;"      "
000614:  000000000000                           ;"      "
000615:  000000000000                           ;"      "
000616:  000000000000                           ;"      "
000617:  000000000000                           ;"      "
000620:  000000000000                           ;"      "
000621:  000000000000                           ;"      "
000622:  000000000000                           ;"      "
000623:  000000000000                           ;"      "
000624:  000000000000                           ;"      "
000625:  000000000000                           ;"      "
000626:  000000000000                           ;"      "
000627:  000000000000                           ;"      "
000630:  000000000000                           ;"      "
000631:  000000000000                           ;"      "
000632:  000000000000                           ;"      "
000633:  000000000000                           ;"      "
000634:  000000000000                           ;"      "
000635:  000000000000                           ;"      "
000636:  000000000000                           ;"      "
000637:  000000000000                           ;"      "
000640:  000000000000                           ;"      "
000641:  000000000000                           ;"      "
000642:  000000000000                           ;"      "
000643:  000000000000                           ;"      "
000644:  000000000000                           ;"      "
000645:  000000000000                           ;"      "
000646:  000000000000                           ;"      "
000647:  000000000000                           ;"      "
000650:  000000000000                           ;"      "
000651:  000000000000                           ;"      "
000652:  000000000000                           ;"      "
000653:  000000000000                           ;"      "
000654:  000000000000                           ;"      "
000655:  000000000000                           ;"      "
000656:  000000000000                           ;"      "
000657:  000000000000                           ;"      "
000660:  000000000000                           ;"      "
000661:  000000000000                           ;"      "
000662:  000000000000                           ;"      "
000663:  000000000000                           ;"      "
000664:  000000000000                           ;"      "
000665:  000000000000                           ;"      "
000666:  000000000000                           ;"      "
000667:  000000000000                           ;"      "
000670:  000000000000                           ;"      "
000671:  000000000000                           ;"      "
000672:  000000000000                           ;"      "
000673:  000000000000                           ;"      "
000674:  000000000000                           ;"      "
000675:  000000000000                           ;"      "
000676:  000000000000                           ;"      "
000677:  000000000000                           ;"      "
000700:  000000000000                           ;"      "
000701:  000000000000                           ;"      "
000702:  000000000000                           ;"      "
000703:  000000000000                           ;"      "
000704:  000000000000                           ;"      "
000705:  000000000000                           ;"      "
000706:  000000000000                           ;"      "
000707:  000000000000                           ;"      "
000710:  000000000000                           ;"      "
000711:  000000000000                           ;"      "
000712:  000000000000                           ;"      "
000713:  000000000000                           ;"      "
000714:  000000000000                           ;"      "
000715:  000000000000                           ;"      "
000716:  000000000000                           ;"      "
000717:  000000000000                           ;"      "
000720:  000000000000                           ;"      "
000721:  000000000000                           ;"      "
000722:  000000000000                           ;"      "
000723:  000000000000                           ;"      "
000724:  000000000000                           ;"      "
000725:  000000000000                           ;"      "
000726:  000000000000                           ;"      "
000727:  000000000000                           ;"      "
000730:  000000000000                           ;"      "
000731:  000000000000                           ;"      "
000732:  000000000000                           ;"      "
000733:  000000000000                           ;"      "
000734:  000000000000                           ;"      "
000735:  000000000000                           ;"      "
000736:  000000000000                           ;"      "
000737:  000000000000                           ;"      "
000740:  000000000000                           ;"      "
000741:  000000000000                           ;"      "
000742:  000000000000                           ;"      "
000743:  000000000000                           ;"      "
000744:  000000000000                           ;"      "
000745:  000000000000                           ;"      "
000746:  000000000000                           ;"      "
000747:  000000000000                           ;"      "
000750:  000000000000                           ;"      "
000751:  000000000000                           ;"      "
000752:  000000000000                           ;"      "
000753:  000000000000                           ;"      "
000754:  000000000000                           ;"      "
000755:  000000000000                           ;"      "
000756:  000000000000                           ;"      "
000757:  000000000000                           ;"      "
000760:  000000000000                           ;"      "
000761:  000000000000                           ;"      "
000762:  000000000000                           ;"      "
000763:  000000000000                           ;"      "
000764:  000000000000                           ;"      "
000765:  000000000000                           ;"      "
000766:  000000000000                           ;"      "
000767:  000000000000                           ;"      "
000770:  000000000000                           ;"      "
000771:  000000000000                           ;"      "
000772:  000000000000                           ;"      "
000773:  000000000000                           ;"      "
000774:  000000000000                           ;"      "
000775:  000000000000                           ;"      "
000776:  000000000000                           ;"      "
000777:  000000000000                           ;"      "
001000:  000000000000                           ;"      "
001001:  000000000000                           ;"      "
001002:  000000000000                           ;"      "
001003:  000000000000                           ;"      "
001004:  000000000000                           ;"      "
001005:  000000000000                           ;"      "
001006:  000000000000                           ;"      "
001007:  000000000000                           ;"      "
001010:  000000000000                           ;"      "
001011:  000000000000                           ;"      "
001012:  000000000000                           ;"      "
001013:  000000000000                           ;"      "
001014:  000000000000                           ;"      "
001015:  000000000000                           ;"      "
001016:  000000000000                           ;"      "
001017:  000000000000                           ;"      "
001020:  000000000000                           ;"      "
001021:  000000000000                           ;"      "
001022:  000000000000                           ;"      "
001023:  000000000000                           ;"      "
001024:  000000000000                           ;"      "
001025:  000000000000                           ;"      "
001026:  000000000000                           ;"      "
001027:  000000000000                           ;"      "
001030:  000000000000                           ;"      "
001031:  000000000000                           ;"      "
001032:  000000000000                           ;"      "
001033:  000000000000                           ;"      "
001034:  000000000000                           ;"      "
001035:  000000000000                           ;"      "
001036:  000000000000                           ;"      "
001037:  000000000000                           ;"      "
001040:  000000000000                           ;"      "
001041:  000000000000                           ;"      "
001042:  000000000000                           ;"      "
001043:  000000000000                           ;"      "
001044:  000000000000                           ;"      "
001045:  000000000000                           ;"      "
001046:  000000000000                           ;"      "
001047:  000000000000                           ;"      "
001050:  000000000000                           ;"      "
001051:  000000000000                           ;"      "
001052:  000000000000                           ;"      "
001053:  000000000000                           ;"      "
001054:  000000000000                           ;"      "
001055:  000000000000                           ;"      "
001056:  000000000000                           ;"      "
001057:  000000000000                           ;"      "
001060:  000000000000                           ;"      "
001061:  000000000000                           ;"      "
001062:  000000000000                           ;"      "
001063:  000000000000                           ;"      "
001064:  000000000000                           ;"      "
001065:  000000000000                           ;"      "
001066:  000000000000                           ;"      "
001067:  000000000000                           ;"      "
001070:  000000000000                           ;"      "
001071:  000000000000                           ;"      "
001072:  000000000000                           ;"      "
001073:  000000000000                           ;"      "
001074:  000000000000                           ;"      "
001075:  000000000000                           ;"      "
001076:  000000000000                           ;"      "
001077:  000000000000                           ;"      "
001100:  000000000000                           ;"      "
001101:  000000000000                           ;"      "
001102:  000000000000                           ;"      "
001103:  000000000000                           ;"      "
001104:  000000000000                           ;"      "
001105:  000000000000                           ;"      "
001106:  000000000000                           ;"      "
001107:  000000000000                           ;"      "
001110:  000000000000                           ;"      "
001111:  000000000000                           ;"      "
001112:  000000000000                           ;"      "
001113:  000000000000                           ;"      "
001114:  000000000000                           ;"      "
001115:  000000000000                           ;"      "
001116:  000000000000                           ;"      "
001117:  000000000000                           ;"      "
001120:  000000000000                           ;"      "
001121:  000000000000                           ;"      "
001122:  000000000000                           ;"      "
001123:  000000000000                           ;"      "
001124:  000000000000                           ;"      "
001125:  000000000000                           ;"      "
001126:  000000000000                           ;"      "
001127:  000000000000                           ;"      "
001130:  000000000000                           ;"      "
001131:  000000000000                           ;"      "
001132:  000000000000                           ;"      "
001133:  000000000000                           ;"      "
001134:  000000000000                           ;"      "
001135:  000000000000                           ;"      "
001136:  000000000000                           ;"      "
001137:  000000000000                           ;"      "
001140:  000000000000                           ;"      "
001141:  000000000000                           ;"      "
001142:  000000000000                           ;"      "
001143:  000000000000                           ;"      "
001144:  000000000000                           ;"      "
001145:  000000000000                           ;"      "
001146:  000000000000                           ;"      "
001147:  000000000000                           ;"      "
001150:  000000000000                           ;"      "
001151:  000000000000                           ;"      "
001152:  000000000000                           ;"      "
001153:  000000000000                           ;"      "
001154:  000000000000                           ;"      "
001155:  000000000000                           ;"      "
001156:  000000000000                           ;"      "
001157:  000000000000                           ;"      "
001160:  000000000000                           ;"      "
001161:  000000000000                           ;"      "
001162:  000000000000                           ;"      "
001163:  000000000000                           ;"      "
001164:  000000000000                           ;"      "
001165:  000000000000                           ;"      "
001166:  000000000000                           ;"      "
001167:  000000000000                           ;"      "
001170:  000000000000                           ;"      "
001171:  000000000000                           ;"      "
001172:  000000000000                           ;"      "
001173:  000000000000                           ;"      "
001174:  000000000000                           ;"      "
001175:  000000000000                           ;"      "
001176:  000000000000                           ;"      "
001177:  000000000000                           ;"      "
001200:  000000000000                           ;"      "
001201:  000000000000                           ;"      "
001202:  000000000000                           ;"      "
001203:  000000000000                           ;"      "
001204:  000000000000                           ;"      "
001205:  000000000000                           ;"      "
001206:  000000000000                           ;"      "
001207:  000000000000                           ;"      "
001210:  000000000000                           ;"      "
001211:  000000000000                           ;"      "
001212:  000000000000                           ;"      "
001213:  000000000000                           ;"      "
001214:  000000000000                           ;"      "
001215:  000000000000                           ;"      "
001216:  000000000000                           ;"      "
001217:  000000000000                           ;"      "
001220:  000000000000                           ;"      "
001221:  000000000000                           ;"      "
001222:  000000000000                           ;"      "
001223:  000000000000                           ;"      "
001224:  000000000000                           ;"      "
001225:  000000000000                           ;"      "
001226:  000000000000                           ;"      "
001227:  000000000000                           ;"      "
001230:  000000000000                           ;"      "
001231:  000000000000                           ;"      "
001232:  000000000000                           ;"      "
001233:  000000000000                           ;"      "
001234:  000000000000                           ;"      "
001235:  000000000000                           ;"      "
001236:  000000000000                           ;"      "
001237:  000000000000                           ;"      "
001240:  000000000000                           ;"      "
001241:  000000000000                           ;"      "
001242:  000000000000                           ;"      "
001243:  000000000000                           ;"      "
001244:  000000000000                           ;"      "
001245:  000000000000                           ;"      "
001246:  000000000000                           ;"      "
001247:  000000000000                           ;"      "
001250:  000000000000                           ;"      "
001251:  000000000000                           ;"      "
001252:  000000000000                           ;"      "
001253:  000000000000                           ;"      "
001254:  000000000000                           ;"      "
001255:  000000000000                           ;"      "
001256:  000000000000                           ;"      "
001257:  000000000000                           ;"      "
001260:  000000000000                           ;"      "
001261:  000000000000                           ;"      "
001262:  000000000000                           ;"      "
001263:  000000000000                           ;"      "
001264:  000000000000                           ;"      "
001265:  000000000000                           ;"      "
001266:  000000000000                           ;"      "
001267:  000000000000                           ;"      "
001270:  000000000000                           ;"      "
001271:  000000000000                           ;"      "
001272:  000000000000                           ;"      "
001273:  000000000000                           ;"      "
001274:  000000000000                           ;"      "
001275:  000000000000                           ;"      "
001276:  000000000000                           ;"      "
001277:  000000000000                           ;"      "
001300:  000000000000                           ;"      "
001301:  000000000000                           ;"      "
001302:  000000000000                           ;"      "
001303:  000000000000                           ;"      "
001304:  000000000000                           ;"      "
001305:  000000000000                           ;"      "
001306:  000000000000                           ;"      "
001307:  000000000000                           ;"      "
001310:  000000000000                           ;"      "
001311:  000000000000                           ;"      "
001312:  000000000000                           ;"      "
001313:  000000000000                           ;"      "
001314:  000000000000                           ;"      "
001315:  000000000000                           ;"      "
001316:  000000000000                           ;"      "
001317:  000000000000                           ;"      "
001320:  000000000000                           ;"      "
001321:  000000000000                           ;"      "
001322:  000000000000                           ;"      "
001323:  000000000000                           ;"      "
001324:  000000000000                           ;"      "
001325:  000000000000                           ;"      "
001326:  000000000000                           ;"      "
001327:  000503000511                           ;" %# %)"
001330:  777470000554  datai    774, @554(10)   ;"_\X %L"
001331:  201761505000  movei    17, @505000(1)  ;"0/QHH " " ?\r\n\0"
001332:  202454561712  movem    11, 561712(14)  ;"04LN/*" " Rece"
001333:  647554526100  tlcn     13, 526100(14)  ;"T]LJQ " "ive, "
001334:  517135662130  hrlzs    2, @662130(15)  ;"IY=V18" "Send,"
001335:  202436564750  movem    10, @564750(16) ;"04>NGH" " Quit"
001336:  064240000000                           ;"&B@   " "\r\n\0\0\0"
001337:  727236406424  cono     270, @406424(16);"ZZ>@T4" "uit\r\n"
001340:  000000000000                           ;"      "
001341:  627354420314  tlzn     7, 420314(14)   ;"R[LB#," "end f"
001342:  647314535100  tlcn     6, 535100(14)   ;"T[,KI " "ile: "
001343:  000000000000                           ;"      "
001344:  100000200000                           ;"(  0  "
001345:  723364064336  conso    230, @64336(4)  ;"Z;T&C>" "to ho"
001346:  717507220000  blko     174, 220000(7)  ;"Y]'2  " "st: \0"
001347:  200040001112  move     1, 1112         ;"0 @ )*"
001350:  104000000022                           ;"(@   2"
001351:  300000000000  cai      0, 0            ;"8     " "0\0\0\0\0"
001352:  263740000000  popj     17,             ;"6?@   "
001353:  441000001121  andcbi   0, 1121         ;"D(  )1"
001354:  513134362722  hllzs    2, @362722(14)  ;"I9<>72" "Recei"
001355:  733136220304  blko     330, @220304(16);"[9>2#$" "ver b"
001356:  727477126100  datai    274, @126100(17);"Z\_*Q " "usy, "
001357:  737035172322  blki     370, @172322(15);"[X=/32" "waiti"
001360:  673165627134  tsoe     3, @627134(5)   ;"W9URY<" "ng..."
001361:  064240000000                           ;"&B@   " "\r\n\0\0\0"
001362:  561040001354  hrroi    1, 1354         ;"N(@ +L"
001363:  104000000076                           ;"(@   ^"
001364:  201040023420  movei    1, 23420        ;"0(@"<0"
001365:  104000000167                           ;"(@  !W"
001366:  254000000227  jrst     227             ;"5@  "7"
001367:  627074564754  tlzn     1, @564754(14)  ;"RX\NGL" "eceiv"
001370:  625014664730  tlza     0, 664730(14)   ;"RH,VG8" "e fil"
001371:  625644000000  tlza     15, (4)         ;"RND   " "e: \0\0"
001372:  100000100000                           ;"(  (  "
001373:  633455766500  tsze     11, 766500(15)  ;"S<M^U " "from "
001374:  643376372164  tlce     7, @372164(16)  ;"T;^?1T" "host:"
001375:  200000000000  move     0, 0            ;"0     " " \0\0\0\0"
001376:  200040001112  move     1, 1112         ;"0 @ )*"
001377:  104000000026                           ;"(@   6"
001400:  200040001112  move     1, 1112         ;"0 @ )*"
001401:  104000000022                           ;"(@   2"
001402:  300000000000  cai      0, 0            ;"8     " "0\0\0\0\0"
001403:  263740000000  popj     17,             ;"6?@   "
001404:  463236372312  setcmb   4, @372312(16)  ;"F:>?3*" "Liste"
001405:  673235663500  tsoe     4, @663500(15)  ;"W:=V= " "ning "
001406:  677344071736  tson     7, 71736(4)     ;"W[D'/>" "on so"
001407:  617274572100  tsnn     5, @572100(14)  ;"QZ\O1 " "cket "
001410:  000000000000                           ;"      "
001411:  000100000101                           ;" !  !!"
001412:  000000000000                           ;"      "
001413:  000000000000                           ;"      "
001414:  000000000000                           ;"      "
001415:  000000000000                           ;"      "
001416:  000000000000                           ;"      "
001417:  000000000000                           ;"      "
001420:  502532035102  hllm     12, @35102(12)  ;"H5:#I"" "PUP:!"
001421:  451340000000  setcai   7,              ;"E+@   " "J.\0\0\0"
001422:  502532035144  hllm     12, @35144(12)  ;"H5:#ID" "PUP:2"
001423:  301030127000  cail     0, @127000(10)  ;"8(8*X " "0!A.\0"
001424:  201040000100  movei    1, 100          ;"0(@ ! "
001425:  104000000042                           ;"(@   B"
001426:  260740000470  pushj    17, 470         ;"6'@ $X"
001427:  263740000000  popj     17,             ;"6?@   "
001430:  260740000461  pushj    17, 461         ;"6'@ $Q"
001431:  254000000347  jrst     347             ;"5@  #G"
001432:  007000300000                           ;" X 8  "
001433:  260740000447  pushj    17, 447         ;"6'@ $G"
001434:  554057000000  hlrz     1, (17)         ;"M@O   "
001435:  104000000023                           ;"(@   3"
001436:  300000000000  cai      0, 0            ;"8     " "0\0\0\0\0"
001437:  263740000000  popj     17,             ;"6?@   "
001440:  433035166312  xorb     0, @166312(15)  ;"C8=.S*" "Faile"
001441:  621016467500  tlz      0, 467500(16)   ;"R(.F] " "d to "
001442:  677414567100  tson     10, 567100(14)  ;"W\,NY " "open "
001443:  426152450100  setam    3, 450100(12)   ;"BQJE! " "EFTP "
001444:  717374365712  conso    170, @365712(14);"Y[\>O*" "socke"
001445:  720321200000  consz    200, @200000(1) ;"Z#10  " "t\r\n\0\0"
001446:  561040001440  hrroi    1, 1440         ;"N(@ ,@"
001447:  104000000076                           ;"(@   ^"
001450:  554057000000  hlrz     1, (17)         ;"M@O   "
001451:  104000000022                           ;"(@   2"
001452:  300000000000  cai      0, 0            ;"8     " "0\0\0\0\0"
001453:  263740000000  popj     17,             ;"6?@   "
001454:  523235562736  hllos    4, @562736(15)  ;"J:=N7>" "Timeo"
001455:  727505420334  blko     274, 420334(5)  ;"Z]%B#<" "ut, n"
001456:  675016262746  tsoa     0, 262746(16)   ;"WH.67F" "o res"
001457:  703375671712  conso    30, @671712(15) ;"X;]W/*" "ponse"
001460:  203156267732  moves    3, 267732(16)   ;"09N6_:" " from"
001461:  203454566736  moves    11, 566736(14)  ;"0<LNW>" " remo"
001462:  723124064336  blko     230, @64336(4)  ;"Z94&C>" "te ho"
001463:  717500000000  blko     174, 0          ;"Y]    " "st\0\0\0"
001464:  417375667312  setmb    7, @667312(15)  ;"A[]V[*" "Conne"
001465:  617515167734  tsnn     12, 167734(15)  ;"Q]-._<" "ction"
001466:  203454571712  moves    11, 571712(14)  ;"0<LO/*" " rese"
001467:  721016262706  blki     210, 262706(16) ;"Z(.67&" "t rec"
001470:  627236662710  tlzn     4, @662710(16)  ;"RZ>V7(" "eived"
001471:  261014161336  push     0, 161336(14)   ;"6(,.+>" ", abo"
001472:  713515167316  blko     134, 167316(15) ;"Y=-.[." "rting"
001473:  000000000000                           ;"      "
001474:  517136172712  hrlzs    2, @172712(16)  ;"IY>/7*" "Seque"
001475:  673074520312  tsoe     1, @520312(14)  ;"W8\J#*" "nce e"
001476:  713455771130  datai    134, 771130(15) ;"Y<M_)8" "rror,"
001477:  203034267744  moves    0, @267744(14)  ;"08<6_D" " abor"
001500:  723235663400  cono     230, @663400(15);"Z:=V< " "ting\0"
001501:  427616462744  setab    14, 462744(16)  ;"B^.F7D" "Exter"
001502:  673035420346  tsoe     0, @420346(15)  ;"W8=B#F" "nal s"
001503:  627354462744  tlzn     7, 462744(14)   ;"R[LF7D" "ender"
001504:  203034267744  moves    0, @267744(14)  ;"08<6_D" " abor"
001505:  721016262706  blki     210, 262706(16) ;"Z(.67&" "t rec"
001506:  627236662710  tlzn     4, @662710(16)  ;"RZ>V7(" "eived"
001507:  000000000000                           ;"      "
001510:  427616462744  setab    14, 462744(16)  ;"B^.F7D" "Exter"
001511:  673035420344  tsoe     0, @420344(15)  ;"W8=B#D" "nal r"
001512:  627074564754  tlzn     1, @564754(14)  ;"RX\NGL" "eceiv"
001513:  627444060704  tlzn     11, 60704(4)    ;"R\D&'$" "er ab"
001514:  677456420344  tson     11, 420344(16)  ;"W\NB#D" "ort r"
001515:  627074564754  tlzn     1, @564754(14)  ;"RX\NGL" "eceiv"
001516:  627100000000  tlzn     2, 0            ;"RY    " "ed\0\0\0"
001517:  513134362722  hllzs    2, @362722(14)  ;"I9<>72" "Recei"
001520:  733136220304  blko     330, @220304(16);"[9>2#$" "ver b"
001521:  727477120302  datai    274, @120302(17);"Z\_*#"" "usy a"
001522:  613376272100  tsne     7, @272100(16)  ;"Q;^71 " "bort "
001523:  713134362722  blko     130, @362722(14);"Y9<>72" "recei"
001524:  733134400000  blko     330, @400000(14);"[9<@  " "ved\0\0"
001525:  477536420336  setob    12, @420336(16) ;"G]>B#>" "Out o"
001526:  631016374734  tsz      0, 374734(16)   ;"S(.?G<" "f syn"
001527:  615014161336  tsna     0, 161336(14)   ;"QH,.+>" "c abo"
001530:  713504071312  blko     134, 71312(4)   ;"Y=$'+*" "rt re"
001531:  617135173312  tsnn     2, @173312(15)  ;"QY=/;*" "ceive"
001532:  620000000000  trz      0, 0            ;"R     " "d\0\0\0\0"
001533:  527355367336  hrlos    7, 367336(15)   ;"J[M>[>" "Unkno"
001534:  737344042614  conso    370, 42614(4)   ;"[[D$6," "wn EF"
001535:  522404062744  hllom    10, 62744(4)    ;"J4$&7D" "TP er"
001536:  713376200000  conso    130, @200000(16);"Y;^0  " "ror\0\0"
001537:  201040000100  movei    1, 100          ;"0(@ ! "
001540:  104000000042                           ;"(@   B"
001541:  260740000475  pushj    17, 475         ;"6'@ $]"
001542:  260740000470  pushj    17, 470         ;"6'@ $X"
001543:  263740000000  popj     17,             ;"6?@   "
001544:  260740000461  pushj    17, 461         ;"6'@ $Q"
001545:  254000000435  jrst     435             ;"5@  $="
001546:  260740000447  pushj    17, 447         ;"6'@ $G"
001547:  554057000000  hlrz     1, (17)         ;"M@O   "
001550:  104000000023                           ;"(@   3"
001551:  260740000475  pushj    17, 475         ;"6'@ $]"
001552:  263740000000  popj     17,             ;"6?@   "
001553:  527354462714  hrlos    7, 462714(14)   ;"J[LF7," "Undef"
001554:  647354562100  tlcn     7, 562100(14)   ;"T[LN1 " "ined "
001555:  452473151500  setcam   11, @151500(13) ;"E4[-- " "JSYS "
001556:  627456267744  tlzn     11, 267744(16)  ;"R\N6_D" "error"
001557:  200000000000  move     0, 0            ;"0     " " \0\0\0\0"
001560:  561040001553  hrroi    1, 1553         ;"N(@ -K"
001561:  104000000076                           ;"(@   ^"
001562:  201040000101  movei    1, 101          ;"0(@ !!"
001563:  553000000002  hrrzs    0, 2            ;"M8   ""
001564:  201140000010  movei    3, 10           ;"0)@  ("
001565:  104000000224                           ;"(@  "4"
001566:  260740000475  pushj    17, 475         ;"6'@ $]"
001567:  254000000456  jrst     456             ;"5@  $N"
001570:  201764000000  movei    17, @(4)        ;"0/T   " " ? \0\0"
001571:  542613006424  hrrm     14, 6424(13)    ;"L6+ T4" "XXX\r\n"
001572:  000000000000                           ;"      "
001573:  561040001571  hrroi    1, 1571         ;"N(@ -Y"
001574:  104000000076                           ;"(@   ^"
001575:  263740000000  popj     17,             ;"6?@   "
001576:  407344064732  andb     7, 64732(4)     ;"@[D&G:" "An im"
001577:  703376371722  conso    30, @371722(16) ;"X;^?/2" "possi"
001600:  613314520312  tsne     6, 520312(14)   ;"Q;,J#*" "ble e"
001601:  713455771100  datai    134, 771100(15) ;"Y<M_) " "rror "
001602:  643036320336  tlce     0, @320336(16)  ;"T8>:#>" "has o"
001603:  617076571344  tsnn     1, @571344(16)  ;"QX^O+D" "ccurr"
001604:  627104120502  tlzn     2, 120502(4)    ;"RY$*%"" "ed!!!"
001605:  000000000000                           ;"      "
001606:  242007000000  lsh      0, (7)          ;"40'   " "(@8\0\0"
001607:  141007000000                           ;",('   "
001610:  041007000000  .open    0, (7)          ;"$('   "
001611:  341007000002  aojl     0, 2(7)         ;"<('  ""
001612:  241007000002  rot      0, 2(7)         ;"4('  ""
001613:  042007000002                           ;"$0'  ""
001614:  242007000003  lsh      0, 3(7)         ;"40'  #"
001615:  141007000003                           ;",('  #"
001616:  041007000003  .open    0, 3(7)         ;"$('  #"
001617:  044007000004  .uset    0, 4(7)         ;"$@'  $"
001620:  261740000006  push     17, 6           ;"6/@  &"
001621:  201301000000  movei    6, (1)          ;"0+!   "
001622:  202106000000  movem    2, (6)          ;"01&   " " D0\0\0"
001623:  402006000001  setzm    1(6)            ;"@0&  !"
001624:  476006000005  setom    5(6)            ;"GP&  %"
001625:  201040001750  movei    1, 1750         ;"0(@ /H"
001626:  202046000004  movem    1, 4(6)         ;"00F  $"
001627:  200040002372  move     1, 2372         ;"0 @ 3Z"
001630:  400100000000  setz     2,              ;"@!    "
001631:  104000000152                           ;"(@  !J"
001632:  254000001722  jrst     1722            ;"5@  /2"
001633:  202046000002  movem    1, 2(6)         ;"00F  ""
001634:  325140001643  jumpge   3, 1643         ;":I@ .C"
001635:  201040400000  movei    1, 400000       ;"0(@@  "
001636:  104000000134                           ;"(@  !<"
001637:  460100000001  setcm    2, 1            ;"F!   !"
001640:  404100002373  and      2, 2373         ;"@A  3["
001641:  243100001643  jffo     2, 1643         ;"49  .C"
001642:  254000001720  jrst     1720            ;"5@  /0"
001643:  202146000003  movem    3, 3(6)         ;"01F  #"
001644:  201040400000  movei    1, 400000       ;"0(@@  "
001645:  104000000144                           ;"(@  !D"
001646:  271103000000  addi     2, (3)          ;"7)#   "
001647:  200200002374  move     4, 2374         ;"0"  3\"
001650:  202202000000  movem    4, (2)          ;"02"   "
001651:  210046000003  movn     1, 3(6)         ;"1 F  #"
001652:  205100400000  movsi    2, 400000       ;"0I @  "
001653:  242101000000  lsh      2, (1)          ;"41!   "
001654:  201040400000  movei    1, 400000       ;"0(@@  "
001655:  104000000131                           ;"(@  !9"
001656:  550046000000  hrrz     1, (6)          ;"M F   "
001657:  104000000275                           ;"(@  "]"
001660:  254000001713  jrst     1713            ;"5@  /+"
001661:  202106000010  movem    2, 10(6)        ;"01&  ("
001662:  202146000011  movem    3, 11(6)        ;"01F  )"
001663:  201146000012  movei    3, 12(6)        ;"0)F  *"
001664:  505140000002  hrli     3, 2            ;"HI@  ""
001665:  104000000145                           ;"(@  !E"
001666:  201040000020  movei    1, 20           ;"0(@  0"
001667:  336006000013  skipn    13(6)           ;";P&  +"
001670:  202046000013  movem    1, 13(6)        ;"00F  +"
001671:  554046000010  hlrz     1, 10(6)        ;"M@F  ("
001672:  326040001706  jumpn    1, 1706         ;":P@ /&"
001673:  554146000012  hlrz     3, 12(6)        ;"MAF  *"
001674:  322140001706  jumpe    3, 1706         ;":1@ /&"
001675:  200040002375  move     1, 2375         ;"0 @ 3]"
001676:  104000000016                           ;"(@   ."
001677:  550040000002  hrrz     1, 2            ;"M @  ""
001700:  505043777777  hrli     1, 777777(3)    ;"HHC___"
001701:  104000000010                           ;"(@   ("
001702:  254000001713  jrst     1713            ;"5@  /+"
001703:  606040777777  trnn     1, 777777       ;"PP@___"
001704:  135140002376  ldb      3, 2376         ;"+I@ 3^"
001705:  506146000010  hrlm     3, 10(6)        ;"HQF  ("
001706:  262740000006  pop      17, 6           ;"67@  &"
001707:  350017000000  aos      (17)            ;"= /   "
001710:  263740000000  popj     17,             ;"6?@   "
001711:  261740000006  push     17, 6           ;"6/@  &"
001712:  201301000000  movei    6, (1)          ;"0+!   "
001713:  210046000003  movn     1, 3(6)         ;"1 F  #"
001714:  205100400000  movsi    2, 400000       ;"0I @  "
001715:  242101000000  lsh      2, (1)          ;"41!   "
001716:  201040400000  movei    1, 400000       ;"0(@@  "
001717:  104000000133                           ;"(@  !;"
001720:  200046000002  move     1, 2(6)         ;"0 F  ""
001721:  104000000153                           ;"(@  !K"
001722:  262740000006  pop      17, 6           ;"67@  &"
001723:  263740000000  popj     17,             ;"6?@   "
001724:  402001000001  setzm    1(1)            ;"@0!  !"
001725:  263740000000  popj     17,             ;"6?@   "
001726:  505100000030  hrli     2, 30           ;"HI   8"
001727:  261740000006  push     17, 6           ;"6/@  &"
001730:  261740000007  push     17, 7           ;"6/@  '"
001731:  270740002377  add      17, 2377        ;"7'@ 3_"
001732:  201301000000  movei    6, (1)          ;"0+!   "
001733:  201342000000  movei    7, (2)          ;"0+B   "
001734:  402007000000  setzm    (7)             ;"@0'   " "@@8\0\0"
001735:  271140000026  addi     3, 26           ;"7)@  6"
001736:  137140001606  dpb      3, 1606         ;"+Y@ .&"
001737:  554040000002  hlrz     1, 2            ;"M@@  ""
001740:  137040001610  dpb      1, 1610         ;"+X@ .("
001741:  200046000001  move     1, 1(6)         ;"0 F  !"
001742:  242040000004  lsh      1, 4            ;"40@  $"
001743:  202047000001  movem    1, 1(7)         ;"00G  !"
001744:  260740002256  pushj    17, 2256        ;"6'@ 2N"
001745:  104000000014                           ;"(@   ,"
001746:  202046000007  movem    1, 7(6)         ;"00F  '"
001747:  270040000004  add      1, 4            ;"7 @  $"
001750:  202046000006  movem    1, 6(6)         ;"00F  &"
001751:  205347000000  movsi    7, (7)          ;"0KG   " "!.8\0\0"
001752:  541357777750  hrri     7, 777750(17)   ;"L+O__H"
001753:  104000000014                           ;"(@   ,"
001754:  311046000006  caml     1, 6(6)         ;"9(F  &"
001755:  254000002400  jrst     2400            ;"5@  4 "
001756:  550046000000  hrrz     1, (6)          ;"M F   "
001757:  505040200000  hrli     1, 200000       ;"HH@0  "
001760:  554100000007  hlrz     2, 7            ;"MA   '"
001761:  505100000213  hrli     2, 213          ;"HI  "+"
001762:  104000000442                           ;"(@  $B"
001763:  254000002025  jrst     2025            ;"5@  05"
001764:  201040000002  movei    1, 2            ;"0(@  ""
001765:  250046000005  exch     1, 5(6)         ;"5 F  %"
001766:  325040001774  jumpge   1, 1774         ;":H@ /\"
001767:  550046000002  hrrz     1, 2(6)         ;"M F  ""
001770:  104000000162                           ;"(@  !R"
001771:  370006000005  sos      5(6)            ;"? &  %"
001772:  201100002313  movei    2, 2313         ;"0)  3+"
001773:  104000000157                           ;"(@  !O"
001774:  550046000000  hrrz     1, (6)          ;"M F   "
001775:  505040300000  hrli     1, 300000       ;"HH@8  "
001776:  201117777750  movei    2, 777750(17)   ;"0)/__H"
001777:  505100000031  hrli     2, 31           ;"HI   9"
002000:  260740002346  pushj    17, 2346        ;"6'@ 3F"
002001:  254000002402  jrst     2402            ;"5@  4""
002002:  200047000001  move     1, 1(7)         ;"0 G  !"
002003:  242040777774  lsh      1, 777774       ;"40@__\"
002004:  312046000001  came     1, 1(6)         ;"90F  !"
002005:  254000001774  jrst     1774            ;"5@  /\"
002006:  135040001610  ldb      1, 1610         ;"+H@ .("
002007:  306040000031  cain     1, 31           ;"8P@  9"
002010:  254000002406  jrst     2406            ;"5@  4&"
002011:  302040000033  caie     1, 33           ;"80@  ;"
002012:  254000001774  jrst     1774            ;"5@  /\"
002013:  260740002355  pushj    17, 2355        ;"6'@ 3M"
002014:  207040000007  movss    1, 7            ;"0X@  '"
002015:  251047000030  blt      1, 30(7)        ;"5(G  8"
002016:  135040002412  ldb      1, 2412         ;"+H@ 4*"
002017:  201107000005  movei    2, 5(7)         ;"0)'  %"
002020:  505100241000  hrli     2, 241000       ;"HI 4( "
002021:  135140001606  ldb      3, 1606         ;"+I@ .&"
002022:  303140000144  caile    3, 144          ;"89@ !D"
002023:  201140000144  movei    3, 144          ;"0)@ !D"
002024:  275140000030  subi     3, 30           ;"7I@  8"
002025:  402006000005  setzm    5(6)            ;"@0&  %"
002026:  274740002377  sub      17, 2377        ;"7G@ 3_"
002027:  262740000007  pop      17, 7           ;"67@  '"
002030:  262740000006  pop      17, 6           ;"67@  &"
002031:  263740000000  popj     17,             ;"6?@   "
002032:  261740000006  push     17, 6           ;"6/@  &"
002033:  270740002377  add      17, 2377        ;"7'@ 3_"
002034:  201301000000  movei    6, (1)          ;"0+!   "
002035:  201117777750  movei    2, 777750(17)   ;"0)/__H"
002036:  505100000032  hrli     2, 32           ;"HI   :"
002037:  400140000000  setz     3,              ;"@!@   "
002040:  260740001727  pushj    17, 1727        ;"6'@ /7"
002041:  254000002054  jrst     2054            ;"5@  0L"
002042:  201117777750  movei    2, 777750(17)   ;"0)/__H"
002043:  200046000001  move     1, 1(6)         ;"0 F  !"
002044:  242040000004  lsh      1, 4            ;"40@  $"
002045:  202042000001  movem    1, 1(2)         ;"00B  !"
002046:  550046000000  hrrz     1, (6)          ;"M F   "
002047:  505040200000  hrli     1, 200000       ;"HH@0  "
002050:  505100000213  hrli     2, 213          ;"HI  "+"
002051:  104000000442                           ;"(@  $B"
002052:  300000000000  cai      0, 0            ;"8     " "0\0\0\0\0"
002053:  350017777746  aos      777746(17)      ;"= /__F"
002054:  274740002377  sub      17, 2377        ;"7G@ 3_"
002055:  262740000006  pop      17, 6           ;"67@  &"
002056:  263740000000  popj     17,             ;"6?@   "
002057:  261740000006  push     17, 6           ;"6/@  &"
002060:  261740000007  push     17, 7           ;"6/@  '"
002061:  270740002377  add      17, 2377        ;"7'@ 3_"
002062:  201357777750  movei    7, 777750(17)   ;"0+O__H"
002063:  402007000000  setzm    (7)             ;"@0'   " "@@8\0\0"
002064:  200300000001  move     6, 1            ;"0#   !"
002065:  137140002412  dpb      3, 2412         ;"+Y@ 4*"
002066:  201047000005  movei    1, 5(7)         ;"0(G  %"
002067:  505040241000  hrli     1, 241000       ;"HH@4( "
002070:  201140000112  movei    3, 112          ;"0)@ !*"
002071:  400200000000  setz     4,              ;"@"    "
002072:  104000000053                           ;"(@   K"
002073:  332000000003  skipe    3               ;";0   #"
002074:  275140000001  subi     3, 1            ;"7I@  !"
002075:  201040000140  movei    1, 140          ;"0(@ !@"
002076:  275043000000  subi     1, (3)          ;"7HC   "
002077:  137040001606  dpb      1, 1606         ;"+X@ .&"
002100:  201040000033  movei    1, 33           ;"0(@  ;"
002101:  137040001610  dpb      1, 1610         ;"+X@ .("
002102:  200046000001  move     1, 1(6)         ;"0 F  !"
002103:  242040000004  lsh      1, 4            ;"40@  $"
002104:  202047000001  movem    1, 1(7)         ;"00G  !"
002105:  321300002413  jumpl    6, 2413         ;":+  4+"
002106:  260740002256  pushj    17, 2256        ;"6'@ 2N"
002107:  550046000000  hrrz     1, (6)          ;"M F   "
002110:  505040200000  hrli     1, 200000       ;"HH@0  "
002111:  201107000000  movei    2, (7)          ;"0)'   " " $8\0\0"
002112:  505100000213  hrli     2, 213          ;"HI  "+"
002113:  104000000442                           ;"(@  $B"
002114:  300000000000  cai      0, 0            ;"8     " "0\0\0\0\0"
002115:  274740002377  sub      17, 2377        ;"7G@ 3_"
002116:  262740000007  pop      17, 7           ;"67@  '"
002117:  262740000006  pop      17, 6           ;"67@  &"
002120:  263740000000  popj     17,             ;"6?@   "
002121:  261740000006  push     17, 6           ;"6/@  &"
002122:  261740000007  push     17, 7           ;"6/@  '"
002123:  201301000000  movei    6, (1)          ;"0+!   "
002124:  201342000000  movei    7, (2)          ;"0+B   "
002125:  242200777777  lsh      4, 777777       ;"42 ___"
002126:  202206000004  movem    4, 4(6)         ;"02&  $"
002127:  201040000003  movei    1, 3            ;"0(@  #"
002130:  250046000005  exch     1, 5(6)         ;"5 F  %"
002131:  325040002137  jumpge   1, 2137         ;":H@ 1?"
002132:  550046000002  hrrz     1, 2(6)         ;"M F  ""
002133:  104000000162                           ;"(@  !R"
002134:  370006000005  sos      5(6)            ;"? &  %"
002135:  201100002313  movei    2, 2313         ;"0)  3+"
002136:  104000000157                           ;"(@  !O"
002137:  550046000000  hrrz     1, (6)          ;"M F   "
002140:  505040300000  hrli     1, 300000       ;"HH@8  "
002141:  201107000000  movei    2, (7)          ;"0)'   " " $8\0\0"
002142:  505100000213  hrli     2, 213          ;"HI  "+"
002143:  260740002346  pushj    17, 2346        ;"6'@ 3F"
002144:  254000002421  jrst     2421            ;"5@  41"
002145:  135100001615  ldb      2, 1615         ;"+I  .-"
002146:  135040001616  ldb      1, 1616         ;"+H@ .."
002147:  505042000000  hrli     1, (2)          ;"HHB   "
002150:  135100001617  ldb      2, 1617         ;"+I  ./"
002151:  336006000001  skipn    1(6)            ;";P&  !"
002152:  254000002427  jrst     2427            ;"5@  47"
002153:  316046000012  camn     1, 12(6)        ;"9PF  *"
002154:  312106000013  came     2, 13(6)        ;"91&  +"
002155:  254000002445  jrst     2445            ;"5@  4E"
002156:  200047000001  move     1, 1(7)         ;"0 G  !"
002157:  242040777774  lsh      1, 777774       ;"40@__\"
002160:  200100000001  move     2, 1            ;"0!   !"
002161:  274046000001  sub      1, 1(6)         ;"7@F  !"
002162:  322040002174  jumpe    1, 2174         ;":0@ 1\"
002163:  342040002175  aoje     1, 2175         ;"<0@ 1]"
002164:  322100002453  jumpe    2, 2453         ;":1  4K"
002165:  201046000000  movei    1, (6)          ;"0(F   " " \"0\0\0"
002166:  505040400000  hrli     1, 400000       ;"HH@@  "
002167:  561100002460  hrroi    2, 2460         ;"N)  4P"
002170:  201140000004  movei    3, 4            ;"0)@  $"
002171:  260740002057  pushj    17, 2057        ;"6'@ 0O"
002172:  201040777774  movei    1, 777774       ;"0(@__\"
002173:  254000002224  jrst     2224            ;"5@  24"
002174:  625300400000  tlza     6, 400000       ;"RK @  "
002175:  661300400000  tlo      6, 400000       ;"V+ @  "
002176:  135040001610  ldb      1, 1610         ;"+H@ .("
002177:  306040000033  cain     1, 33           ;"8P@  ;"
002200:  254000002466  jrst     2466            ;"5@  4V"
002201:  306040000030  cain     1, 30           ;"8P@  8"
002202:  254000002210  jrst     2210            ;"5@  2("
002203:  302040000032  caie     1, 32           ;"80@  :"
002204:  254000002137  jrst     2137            ;"5@  1?"
002205:  201040777776  movei    1, 777776       ;"0(@__^"
002206:  603300200000  tlne     6, 200000       ;"P; 0  "
002207:  325300002224  jumpge   6, 2224         ;":K  24"
002210:  603300400000  tlne     6, 400000       ;"P; @  "
002211:  370006000001  sos      1(6)            ;"? &  !"
002212:  260740002230  pushj    17, 2230        ;"6'@ 28"
002213:  254000002224  jrst     2224            ;"5@  24"
002214:  350006000001  aos      1(6)            ;"= &  !"
002215:  321300002137  jumpl    6, 2137         ;":+  1?"
002216:  135040001610  ldb      1, 1610         ;"+H@ .("
002217:  306040000032  cain     1, 32           ;"8P@  :"
002220:  254000002474  jrst     2474            ;"5@  4\"
002221:  135140001606  ldb      3, 1606         ;"+I@ .&"
002222:  275140000026  subi     3, 26           ;"7I@  6"
002223:  350017777776  aos      777776(17)      ;"= /__^"
002224:  402006000005  setzm    5(6)            ;"@0&  %"
002225:  262740000007  pop      17, 7           ;"67@  '"
002226:  262740000006  pop      17, 6           ;"67@  &"
002227:  263740000000  popj     17,             ;"6?@   "
002230:  261740000007  push     17, 7           ;"6/@  '"
002231:  270740002506  add      17, 2506        ;"7'@ 5&"
002232:  201357777773  movei    7, 777773(17)   ;"0+O__["
002233:  402007000000  setzm    (7)             ;"@0'   " "@@8\0\0"
002234:  201140000026  movei    3, 26           ;"0)@  6"
002235:  137140001606  dpb      3, 1606         ;"+Y@ .&"
002236:  201140000031  movei    3, 31           ;"0)@  9"
002237:  137140001610  dpb      3, 1610         ;"+Y@ .("
002240:  200046000001  move     1, 1(6)         ;"0 F  !"
002241:  242040000004  lsh      1, 4            ;"40@  $"
002242:  202047000001  movem    1, 1(7)         ;"00G  !"
002243:  260740002256  pushj    17, 2256        ;"6'@ 2N"
002244:  550046000000  hrrz     1, (6)          ;"M F   "
002245:  505040200000  hrli     1, 200000       ;"HH@0  "
002246:  201107000000  movei    2, (7)          ;"0)'   " " $8\0\0"
002247:  505100000006  hrli     2, 6            ;"HI   &"
002250:  104000000442                           ;"(@  $B"
002251:  254000002253  jrst     2253            ;"5@  2K"
002252:  350017777771  aos      777771(17)      ;"= /__Y"
002253:  274740002506  sub      17, 2506        ;"7G@ 5&"
002254:  262740000007  pop      17, 7           ;"67@  '"
002255:  263740000000  popj     17,             ;"6?@   "
002256:  554046000012  hlrz     1, 12(6)        ;"M@F  *"
002257:  137040001611  dpb      1, 1611         ;"+X@ .)"
002260:  550046000012  hrrz     1, 12(6)        ;"M F  *"
002261:  137040001612  dpb      1, 1612         ;"+X@ .*"
002262:  200046000013  move     1, 13(6)        ;"0 F  +"
002263:  137040001614  dpb      1, 1614         ;"+X@ .,"
002264:  242040777760  lsh      1, 777760       ;"40@__P"
002265:  137040001613  dpb      1, 1613         ;"+X@ .+"
002266:  554046000010  hlrz     1, 10(6)        ;"M@F  ("
002267:  137040001615  dpb      1, 1615         ;"+X@ .-"
002270:  550046000010  hrrz     1, 10(6)        ;"M F  ("
002271:  137040001616  dpb      1, 1616         ;"+X@ .."
002272:  200046000011  move     1, 11(6)        ;"0 F  )"
002273:  137040001617  dpb      1, 1617         ;"+X@ ./"
002274:  263740000000  popj     17,             ;"6?@   "
002275:  200047000002  move     1, 2(7)         ;"0 G  ""
002276:  200107000003  move     2, 3(7)         ;"0!'  #"
002277:  242040777774  lsh      1, 777774       ;"40@__\"
002300:  246040777760  lshc     1, 777760       ;"4P@__P"
002301:  250107000004  exch     2, 4(7)         ;"5!'  $"
002302:  242040000024  lsh      1, 24           ;"40@  4"
002303:  242100777774  lsh      2, 777774       ;"41 __\"
002304:  245040777760  rotc     1, 777760       ;"4H@__P"
002305:  250047000003  exch     1, 3(7)         ;"5 G  #"
002306:  242040777774  lsh      1, 777774       ;"40@__\"
002307:  242100000024  lsh      2, 24           ;"41   4"
002310:  246040777760  lshc     1, 777760       ;"4P@__P"
002311:  202107000002  movem    2, 2(7)         ;"01'  ""
002312:  263740000000  popj     17,             ;"6?@   "
002313:  200046000004  move     1, 4(6)         ;"0 F  $"
002314:  104000000167                           ;"(@  !W"
002315:  373046000005  sosle    1, 5(6)         ;"?8F  %"
002316:  254000002313  jrst     2313            ;"5@  3+"
002317:  321040002326  jumpl    1, 2326         ;":(@ 36"
002320:  210046000003  movn     1, 3(6)         ;"1 F  #"
002321:  205100400000  movsi    2, 400000       ;"0I @  "
002322:  242101000000  lsh      2, (1)          ;"41!   "
002323:  201040777777  movei    1, 777777       ;"0(@___"
002324:  104000000132                           ;"(@  !:"
002325:  254000002313  jrst     2313            ;"5@  3+"
002326:  104000000306                           ;"(@  #&"
002327:  261740000002  push     17, 2           ;"6/@  ""
002330:  261740000001  push     17, 1           ;"6/@  !"
002331:  201040400000  movei    1, 400000       ;"0(@@  "
002332:  104000000144                           ;"(@  !D"
002333:  554100000002  hlrz     2, 2            ;"MA   ""
002334:  550102000002  hrrz     2, 2(2)         ;"M!"  ""
002335:  550042000000  hrrz     1, (2)          ;"M B   "
002336:  301040002346  cail     1, 2346         ;"8(@ 3F"
002337:  303040002351  caile    1, 2351         ;"88@ 3I"
002340:  254000002343  jrst     2343            ;"5@  3C"
002341:  201040002353  movei    1, 2353         ;"0(@ 3K"
002342:  202042000000  movem    1, (2)          ;"00B   "
002343:  262740000001  pop      17, 1           ;"67@  !"
002344:  262740000002  pop      17, 2           ;"67@  ""
002345:  104000000136                           ;"(@  !>"
002346:  337006000005  skipg    5(6)            ;";X&  %"
002347:  254000002353  jrst     2353            ;"5@  3K"
002350:  104000000441                           ;"(@  $A"
002351:  263740000000  popj     17,             ;"6?@   "
002352:  354017000000  aosa     (17)            ;"=@/   "
002353:  201040602012  movei    1, 602012       ;"0(@P0*"
002354:  263740000000  popj     17,             ;"6?@   "
002355:  104000000014                           ;"(@   ,"
002356:  274046000007  sub      1, 7(6)         ;"7@F  '"
002357:  307040000372  caig     1, 372          ;"8X@ #Z"
002360:  201040000372  movei    1, 372          ;"0(@ #Z"
002361:  301040011610  cail     1, 11610        ;"8(@!.("
002362:  201040011610  movei    1, 11610        ;"0(@!.("
002363:  200106000004  move     2, 4(6)         ;"0!&  $"
002364:  242100000003  lsh      2, 3            ;"41   #"
002365:  274106000004  sub      2, 4(6)         ;"7A&  $"
002366:  270100000001  add      2, 1            ;"7!   !"
002367:  242100777775  lsh      2, 777775       ;"41 __]"
002370:  202106000004  movem    2, 4(6)         ;"01&  $"
002371:  263740000000  popj     17,             ;"6?@   "
002372:  660000002326  tro      0, 2326         ;"V   36"
002373:  770000007777  blki     700, 7777       ;"_   __"
002374:  000003002327                           ;"  # 37"
002375:  606560625765  trnn     13, @625765     ;"PUPROU"
002376:  321000000001  jumpl    0, 1            ;":(   !"
002377:  000031000031                           ;"  9  9"
002400:  201040777777  movei    1, 777777       ;"0(@___"
002401:  254000002025  jrst     2025            ;"5@  05"
002402:  302040602012  caie     1, 602012       ;"80@P0*"
002403:  254000001774  jrst     1774            ;"5@  /\"
002404:  260740002355  pushj    17, 2355        ;"6'@ 3M"
002405:  254000001753  jrst     1753            ;"5@  /K"
002406:  350017777745  aos      777745(17)      ;"= /__E"
002407:  350006000001  aos      1(6)            ;"= &  !"
002410:  260740002355  pushj    17, 2355        ;"6'@ 3M"
002411:  254000002025  jrst     2025            ;"5@  05"
002412:  242007000005  lsh      0, 5(7)         ;"40'  %"
002413:  200057777747  move     1, 777747(17)   ;"0 O__G"
002414:  205041000001  movsi    1, 1(1)         ;"0HA  !"
002415:  541047000001  hrri     1, 1(7)         ;"L(G  !"
002416:  251047000004  blt      1, 4(7)         ;"5(G  $"
002417:  260740002275  pushj    17, 2275        ;"6'@ 2]"
002420:  254000002107  jrst     2107            ;"5@  1'"
002421:  302040602012  caie     1, 602012       ;"80@P0*"
002422:  254000002137  jrst     2137            ;"5@  1?"
002423:  201040777777  movei    1, 777777       ;"0(@___"
002424:  603300200000  tlne     6, 200000       ;"P; 0  "
002425:  201040777776  movei    1, 777776       ;"0(@__^"
002426:  254000002224  jrst     2224            ;"5@  24"
002427:  135140001610  ldb      3, 1610         ;"+I@ .("
002430:  302140000030  caie     3, 30           ;"81@  8"
002431:  254000002165  jrst     2165            ;"5@  1U"
002432:  202046000012  movem    1, 12(6)        ;"00F  *"
002433:  202106000013  movem    2, 13(6)        ;"01&  +"
002434:  135040001611  ldb      1, 1611         ;"+H@ .)"
002435:  135100001612  ldb      2, 1612         ;"+I  .*"
002436:  505101000000  hrli     2, (1)          ;"HI!   "
002437:  202106000010  movem    2, 10(6)        ;"01&  ("
002440:  254000002156  jrst     2156            ;"5@  1N"
002441:  426152450100  setam    3, 450100(12)   ;"BQJE! " "EFTP "
002442:  513134362722  hllzs    2, @362722(14)  ;"I9<>72" "Recei"
002443:  733136220304  blko     330, @220304(16);"[9>2#$" "ver b"
002444:  727477100000  datai    274, @100000(17);"Z\_(  " "usy\0\0"
002445:  201046000000  movei    1, (6)          ;"0(F   " " \"0\0\0"
002446:  505040400000  hrli     1, 400000       ;"HH@@  "
002447:  561100002441  hrroi    2, 2441         ;"N)  4A"
002450:  201140000003  movei    3, 3            ;"0)@  #"
002451:  260740002057  pushj    17, 2057        ;"6'@ 0O"
002452:  254000002137  jrst     2137            ;"5@  1?"
002453:  135040001610  ldb      1, 1610         ;"+H@ .("
002454:  302040000030  caie     1, 30           ;"80@  8"
002455:  254000002137  jrst     2137            ;"5@  1?"
002456:  201040777775  movei    1, 777775       ;"0(@__]"
002457:  254000002224  jrst     2224            ;"5@  24"
002460:  426152450100  setam    3, 450100(12)   ;"BQJE! " "EFTP "
002461:  703034365712  blki     30, @365712(14) ;"X8<>O*" "packe"
002462:  721015772750  blki     210, 772750(15) ;"Z(-_7H" "t out"
002463:  203374620346  moves    7, @620346(14)  ;"0;\R#F" " of s"
002464:  627436562734  tlzn     10, @562734(16) ;"R\>N7<" "equen"
002465:  617120000000  tsnn     2, @0           ;"QY0   " "ce\0\0\0"
002466:  135040002412  ldb      1, 2412         ;"+H@ 4*"
002467:  201107000005  movei    2, 5(7)         ;"0)'  %"
002470:  505100241000  hrli     2, 241000       ;"HI 4( "
002471:  135140001606  ldb      3, 1606         ;"+I@ .&"
002472:  275140000030  subi     3, 30           ;"7I@  8"
002473:  254000002224  jrst     2224            ;"5@  24"
002474:  661300200000  tlo      6, 200000       ;"V+ 0  "
002475:  550046000002  hrrz     1, 2(6)         ;"M F  ""
002476:  104000000162                           ;"(@  !R"
002477:  201100011610  movei    2, 11610        ;"0) !.("
002500:  202106000004  movem    2, 4(6)         ;"01&  $"
002501:  201100000001  movei    2, 1            ;"0)   !"
002502:  202106000005  movem    2, 5(6)         ;"01&  %"
002503:  201100002313  movei    2, 2313         ;"0)  3+"
002504:  104000000157                           ;"(@  !O"
002505:  254000002137  jrst     2137            ;"5@  1?"
002506:  000006000006                           ;"  &  &"
002507:  000000000000                           ;"      "
002510:  000000000000                           ;"      "
002511:  000000000000                           ;"      "
002512:  000000000000                           ;"      "
002513:  000000000000                           ;"      "
002514:  000000000000                           ;"      "
002515:  000000000000                           ;"      "
002516:  000000000000                           ;"      "
002517:  000000000000                           ;"      "
002520:  000000000000                           ;"      "
002521:  000000000000                           ;"      "
002522:  000000000000                           ;"      "
002523:  000000000000                           ;"      "
002524:  000000000000                           ;"      "
002525:  000000000000                           ;"      "
002526:  000000000000                           ;"      "
002527:  000000000000                           ;"      "
002530:  000000000000                           ;"      "
002531:  000000000000                           ;"      "
002532:  000000000000                           ;"      "
002533:  000000000000                           ;"      "
002534:  000000000000                           ;"      "
002535:  000000000000                           ;"      "
002536:  000000000000                           ;"      "
002537:  000000000000                           ;"      "
002540:  000000000000                           ;"      "
002541:  000000000000                           ;"      "
002542:  000000000000                           ;"      "
002543:  000000000000                           ;"      "
002544:  000000000000                           ;"      "
002545:  000000000000                           ;"      "
002546:  000000000000                           ;"      "
002547:  000000000000                           ;"      "
002550:  000000000000                           ;"      "
002551:  000000000000                           ;"      "
002552:  000000000000                           ;"      "
002553:  000000000000                           ;"      "
002554:  000000000000                           ;"      "
002555:  000000000000                           ;"      "
002556:  000000000000                           ;"      "
002557:  000000000000                           ;"      "
002560:  000000000000                           ;"      "
002561:  000000000000                           ;"      "
002562:  000000000000                           ;"      "
002563:  000000000000                           ;"      "
002564:  000000000000                           ;"      "
002565:  000000000000                           ;"      "
002566:  000000000000                           ;"      "
002567:  000000000000                           ;"      "
002570:  000000000000                           ;"      "
002571:  000000000000                           ;"      "
002572:  000000000000                           ;"      "
002573:  000000000000                           ;"      "
002574:  000000000000                           ;"      "
002575:  000000000000                           ;"      "
002576:  000000000000                           ;"      "
002577:  000000000000                           ;"      "
002600:  000000000000                           ;"      "
002601:  000000000000                           ;"      "
002602:  000000000000                           ;"      "
002603:  000000000000                           ;"      "
002604:  000000000000                           ;"      "
002605:  000000000000                           ;"      "
002606:  000000000000                           ;"      "
002607:  440400617555  andcb    10, 617555      ;"D$ Q]M"
002610:  000000002507                           ;"    5'"
002611:  000000000000                           ;"      "
002612:  000000002507                           ;"    5'"
002613:  100524120726                           ;"(%4*'6"
002614:  000000002326                           ;"    36"
002615:  132346705610  fsc      7, 705610(6)    ;"+3FXN("
002616:  000000002353                           ;"    3K"
002617:  132346705607  fsc      7, 705607(6)    ;"+3FXN'"
002620:  000000002351                           ;"    3I"
002621:  100522444743                           ;"(%2DGC"
002622:  000000002346                           ;"    3F"
002623:  100010100726                           ;"( (('6"
002624:  104000000306                           ;"(@  #&"
002625:  130116705217                           ;"+!.XJ/"
002626:  000000002355                           ;"    3M"
002627:  127206020236                           ;"*Z&"">"
002630:  000000002327                           ;"    37"
002631:  127206007165                           ;"*Z& YU"
002632:  000000002313                           ;"    3+"
002633:  100007343147                           ;"( '<9G"
002634:  104000000014                           ;"(@   ,"
002635:  100443733006                           ;"($C[8&"
002636:  104000000016                           ;"(@   ."
002637:  100007171466                           ;"( '/,V"
002640:  104000000053                           ;"(@   K"
002641:  526467500217  hrlom    11, @500217(7)  ;"JTWH"/"
002642:  000000000004                           ;"     $"
002643:  500441307775  hll      11, 307775(1)   ;"H$A8_]"
002644:  000000000005                           ;"     %"
002645:  526467476007  hrlom    11, @476007(7)  ;"JTWGP'"
002646:  000000000007                           ;"     '"
002647:  526467474663  hrlom    11, @474663(7)  ;"JTWGFS"
002650:  000000000001                           ;"     !"
002651:  526467450116  hrlom    11, @450116(7)  ;"JTWE!." "US<P'"
002652:  000000000006                           ;"     &"
002653:  526467450035  hrlom    11, @450035(7)  ;"JTWE ="
002654:  000000000011                           ;"     )"
002655:  526467447522  hrlom    11, @447522(7)  ;"JTWD]2" "US<O)"
002656:  000000000010                           ;"     ("
002657:  526467440630  hrlom    11, @440630(7)  ;"JTWD&8" "US<AL"
002660:  000000000000                           ;"      "
002661:  526467425235  hrlom    11, @425235(7)  ;"JTWBJ="
002662:  000000000013                           ;"     +"
002663:  526467425165  hrlom    11, @425165(7)  ;"JTWBIU"
002664:  000000000002                           ;"     ""
002665:  526467424722  hrlom    11, @424722(7)  ;"JTWBG2" "US<)i"
002666:  000000000012                           ;"     *"
002667:  526467413050  hrlom    11, @413050(7)  ;"JTWA8H"
002670:  000000000003                           ;"     #"
002671:  126455771335                           ;"*TM_+="
002672:  000000002230                           ;"    28"
002673:  100437210265                           ;"($?1"U"
002674:  104000000157                           ;"(@  !O"
002675:  100000000035                           ;"(    ="
002676:  000000000006                           ;"     &"
002677:  100000131024                           ;"(  +(4"
002700:  104000000144                           ;"(@  !D"
002701:  100000130437                           ;"(  +$?"
002702:  104000000134                           ;"(@  !<"
002703:  100405506724                           ;"($%HW4"
002704:  000000602012                           ;"   P0*"
002705:  124341412422                           ;"*CAA42"
002706:  000000001610                           ;"    .("
002707:  124341410624                           ;"*CAA&4"
002710:  000000001607                           ;"    .'"
002711:  100006424751                           ;"( &BGI"
002712:  104000000442                           ;"(@  $B"
002713:  124341357760                           ;"*CA=_P"
002714:  000000001606                           ;"    .&"
002715:  100006424743                           ;"( &BGC"
002716:  104000000441                           ;"(@  $A"
002717:  524332261616  hrlo     6, @261616(12)  ;"JC:6.." "U\rRcG"
002720:  000000000032                           ;"     :"
002721:  524332255526  hrlo     6, @255526(12)  ;"JC:5M6" "U\rR[+"
002722:  000000000030                           ;"     8"
002723:  524332244335  hrlo     6, @244335(12)  ;"JC:4C="
002724:  000000000031                           ;"     9"
002725:  524332244276  hrlo     6, @244276(12)  ;"JC:4B^" "U\rRH_"
002726:  000000000033                           ;"     ;"
002727:  124261706445                           ;"*BQXTE"
002730:  000000001617                           ;"    ./"
002731:  124261706440                           ;"*BQXT@"
002732:  000000001615                           ;"    .-"
002733:  124261706432                           ;"*BQXT:"
002734:  000000001616                           ;"    .."
002735:  124261705310                           ;"*BQXK("
002736:  000000001611                           ;"    .)"
002737:  124261705302                           ;"*BQXK""
002740:  000000001612                           ;"    .*"
002741:  124261705262                           ;"*BQXJR"
002742:  000000001614                           ;"    .,"
002743:  124261705261                           ;"*BQXJQ"
002744:  000000001613                           ;"    .+"
002745:  524045731606  hrlo     1, 731606(5)    ;"J@E[.&"
002746:  000000000000                           ;"      "
002747:  524044611036  hrlo     1, 611036(4)    ;"J@DQ(>"
002750:  000000000005                           ;"     %"
002751:  100000002034                           ;"(   0<"
002752:  000000000007                           ;"     '"
002753:  100000000032                           ;"(    :"
002754:  000000000017                           ;"     /"
002755:  522152707760  hllom    3, 707760(12)   ;"J1JX_P"
002756:  000000001052                           ;"    (J"
002757:  522152651210  hllom    3, 651210(12)   ;"J1JU*(" "TFVRD"
002760:  000000000213                           ;"    "+"
002761:  522011167760  hllom    0, 167760(11)   ;"J0)._P" "T@Iox"
002762:  000000000026                           ;"     6"
002763:  522011131210  hllom    0, 131210(11)   ;"J0)+*(" "T@I2D"
002764:  000000000006                           ;"     &"
002765:  521727757217  hlloi    16, @757217(7)  ;"J/7]Z/"
002766:  000000000372                           ;"    #Z"
002767:  521614221217  hlloi    14, 221217(14)  ;"J.,2*/"
002770:  000000011610                           ;"   !.("
002771:  521000364534  hlloi    0, 364534       ;"J( >E<"
002772:  000000000031                           ;"     9"
002773:  100321110265                           ;"(#1)"U"
002774:  104000000153                           ;"(@  !K"
002775:  516755046217  hrlzm    17, 46217(15)   ;"IWM$R/"
002776:  000000001750                           ;"    /H"
002777:  100000074705                           ;"(  'G%"
003000:  104000000132                           ;"(@  !:"
003001:  100263660265                           ;"("SV"U"
003002:  104000000162                           ;"(@  !R"
003003:  100251671504                           ;"("IW-$"
003004:  104000000010                           ;"(@   ("
003005:  100251473015                           ;"("IG8-"
003006:  104000000145                           ;"(@  !E"
003007:  114062543256                           ;")@RL:N"
003010:  000000002275                           ;"    2]"
003011:  114002307063                           ;")@"8XS"
003012:  000000002054                           ;"    0L"
003013:  040231521616  .iot     4, @521616(11)  ;"$"9J.."
003014:  000000002032                           ;"    0:"
003015:  114002042622                           ;")@"$62"
003016:  000000002025                           ;"    05"
003017:  054002042573                           ;"%@"$5["
003020:  000000001726                           ;"    /6"
003021:  114002042564                           ;")@"$5T"
003022:  000000001774                           ;"    /\"
003023:  114002042563                           ;")@"$5S"
003024:  000000001764                           ;"    /T"
003025:  114002042562                           ;")@"$5R"
003026:  000000001753                           ;"    /K"
003027:  114002042561                           ;")@"$5Q"
003030:  000000001727                           ;"    /7"
003031:  040231504276  .iot     4, @504276(11)  ;"$"9HB^"
003032:  000000002057                           ;"    0O"
003033:  053770516666                           ;"%?XIVV"
003034:  000000001724                           ;"    /4"
003035:  113770232622                           ;")?X362"
003036:  000000002224                           ;"    24"
003037:  053770232573                           ;"%?X35["
003040:  000000002121                           ;"    11"
003041:  113770232567                           ;")?X35W"
003042:  000000002210                           ;"    2("
003043:  113770232566                           ;")?X35V"
003044:  000000002175                           ;"    1]"
003045:  113770232565                           ;")?X35U"
003046:  000000002174                           ;"    1\"
003047:  113770232564                           ;")?X35T"
003050:  000000002165                           ;"    1U"
003051:  113770232563                           ;")?X35S"
003052:  000000002156                           ;"    1N"
003053:  113770232562                           ;")?X35R"
003054:  000000002137                           ;"    1?"
003055:  113735752604                           ;")?=]6$"
003056:  000000001706                           ;"    /&"
003057:  113735752602                           ;")?=]6""
003060:  000000001643                           ;"    .C"
003061:  040230577360  .iot     4, @577360(10)  ;"$"8O[P"
003062:  000000001620                           ;"    .0"
003063:  053547666327                           ;"%=GVS7"
003064:  000000001711                           ;"    /)"
003065:  113547666313                           ;")=GVS+"
003066:  000000001722                           ;"    /2"
003067:  113547666312                           ;")=GVS*"
003070:  000000001720                           ;"    /0"
003071:  113547666311                           ;")=GVS)"
003072:  000000001713                           ;"    /+"
003073:  513074246217  hllzs    1, @246217(14)  ;"I8\4R/"
003074:  000000011610                           ;"   !.("
003075:  100215423365                           ;"("-B;U"
003076:  104000000167                           ;"(@  !W"
003077:  100000055205                           ;"(  %J%"
003100:  104000000133                           ;"(@  !;"
003101:  112763233376                           ;")7S3;^"
003102:  000000002256                           ;"    2N"
003103:  100214352565                           ;"(",=5U"
003104:  104000000136                           ;"(@  !>"
003105:  100000000016                           ;"(    ."
003106:  000000000004                           ;"     $"
003107:  100206744246                           ;"("&\BF"
003110:  104000000275                           ;"(@  "]"
003111:  100203010265                           ;"("#!"U"
003112:  104000000152                           ;"(@  !J"
003113:  100000000015                           ;"(    -"
003114:  000000000003                           ;"     #"
003115:  100000000014                           ;"(    ,"
003116:  000000000002                           ;"     ""
003117:  100000043705                           ;"(  $?%"
003120:  104000000131                           ;"(@  !9"
003121:  510521021353  hllz     12, @21353(1)   ;"I%1"+K"
003122:  000000000003                           ;"     #"
003123:  510521011323  hllz     12, @11323(1)   ;"I%1!+3"
003124:  000000000004                           ;"     $"
003125:  510520752123  hllz     12, @752123     ;"I%0]13"
003126:  000000000001                           ;"     !"
003127:  510520752053  hllz     12, @752053     ;"I%0]0K"
003130:  000000000002                           ;"     ""
003131:  100000000013                           ;"(    +"
003132:  000000000001                           ;"     !"
003133:  000003607312                           ;"  #P[*"
003134:  000000001606                           ;"    .&"
003135:  000000000000                           ;"      "
003136:  000000001606                           ;"    .&"
003137:  526552266760  hrlom    13, 266760(12)  ;"JUJ6WP" "UVRmx"
003140:  000000000310                           ;"    #("
003141:  100442461335                           ;"($BF+="
003142:  000000000555                           ;"    %M"
003143:  100007171466                           ;"( '/,V"
003144:  104000000053                           ;"(@   K"
003145:  100000134124                           ;"(  +A4"
003146:  104000000125                           ;"(@  !5"
003147:  100000134120                           ;"(  +A0"
003150:  104000000052                           ;"(@   J"
003151:  100437007122                           ;"($? Y2"
003152:  000000000254                           ;"    "L"
003153:  100437007070                           ;"($? XX"
003154:  000000000251                           ;"    "I"
003155:  100437007067                           ;"($? XW"
003156:  000000000250                           ;"    "H"
003157:  100437007066                           ;"($? XV"
003160:  000000000243                           ;"    "C"
003161:  100437007062                           ;"($? XR"
003162:  000000000227                           ;"    "7"
003163:  100007131616                           ;"( '+.."
003164:  000000000212                           ;"    "*"
003165:  126306005407                           ;"*S& L'"
003166:  000000000475                           ;"    $]"
003167:  100000000035                           ;"(    ="
003170:  000000000006                           ;"     &"
003171:  100427673422                           ;"($7W<2"
003172:  104000000150                           ;"(@  !H"
003173:  100426735630                           ;"($6[N8"
003174:  104000000023                           ;"(@   3"
003175:  100425216666                           ;"($51VV"
003176:  104000000147                           ;"(@  !G"
003177:  125517202342                           ;"*M/03B"
003200:  000000000336                           ;"    #>"
003201:  125517202306                           ;"*M/03&"
003202:  000000000330                           ;"    #8"
003203:  125517202302                           ;"*M/03""
003204:  000000000316                           ;"    #."
003205:  125517201330                           ;"*M/0+8"
003206:  000000000265                           ;"    "U"
003207:  100006621326                           ;"( &R+6"
003210:  000000000206                           ;"    "&"
003211:  124341412422                           ;"*CAA42"
003212:  000000000142                           ;"    !B"
003213:  124341410624                           ;"*CAA&4"
003214:  000000000141                           ;"    !A"
003215:  124341357760                           ;"*CA=_P"
003216:  000000000140                           ;"    !@"
003217:  124341351630                           ;"*CA=.8"
003220:  000000001113                           ;"    )+"
003221:  100405111466                           ;"($%),V"
003222:  104000000076                           ;"(@   ^"
003223:  124261706445                           ;"*BQXTE"
003224:  000000000151                           ;"    !I"
003225:  124261706440                           ;"*BQXT@"
003226:  000000000147                           ;"    !G"
003227:  124261706432                           ;"*BQXT:"
003230:  000000000150                           ;"    !H"
003231:  124261705310                           ;"*BQXK("
003232:  000000000143                           ;"    !C"
003233:  124261705302                           ;"*BQXK""
003234:  000000000144                           ;"    !D"
003235:  124261705262                           ;"*BQXJR"
003236:  000000000146                           ;"    !F"
003237:  124261705261                           ;"*BQXJQ"
003240:  000000000145                           ;"    !E"
003241:  100400774466                           ;"($ _DV"
003242:  104000000074                           ;"(@   \"
003243:  100006331020                           ;"( &;(0"
003244:  104000000073                           ;"(@   ["
003245:  524045731606  hrlo     1, 731606(5)    ;"J@E[.&"
003246:  000000000000                           ;"      "
003247:  524044611036  hrlo     1, 611036(4)    ;"J@DQ(>"
003250:  000000000005                           ;"     %"
003251:  100000002034                           ;"(   0<"
003252:  000000000007                           ;"     '"
003253:  124032763666                           ;"*@:^>V"
003254:  000000001114                           ;"    ),"
003255:  100000000032                           ;"(    :"
003256:  000000000017                           ;"     /"
003257:  123451433376                           ;"*<IC;^"
003260:  000000000347                           ;"    #G"
003261:  123451373416                           ;"*<I?<."
003262:  000000000433                           ;"    $;"
003263:  123451373372                           ;"*<I?;Z"
003264:  000000000435                           ;"    $="
003265:  100372452620                           ;"(#ZE60"
003266:  104000000021                           ;"(@   1"
003267:  100000120102                           ;"(  *!""
003270:  000000000461                           ;"    $Q"
003271:  100006010466                           ;"( &!$V"
003272:  104000000224                           ;"(@  "4"
003273:  522152707760  hllom    3, 707760(12)   ;"J1JX_P"
003274:  000000001052                           ;"    (J"
003275:  522152651210  hllom    3, 651210(12)   ;"J1JU*(" "TFVRD"
003276:  000000000213                           ;"    "+"
003277:  522011167760  hllom    0, 167760(11)   ;"J0)._P" "T@Iox"
003300:  000000000026                           ;"     6"
003301:  522011131210  hllom    0, 131210(11)   ;"J0)+*(" "T@I2D"
003302:  000000000006                           ;"     &"
003303:  121054166504                           ;"*(L.U$"
003304:  000000000503                           ;"    %#"
003305:  121054046435                           ;"*(L$T="
003306:  000000000510                           ;"    %("
003307:  121054043335                           ;"*(L$;="
003310:  000000000507                           ;"    %'"
003311:  121054040235                           ;"*(L$"="
003312:  000000000506                           ;"    %&"
003313:  100004372512                           ;"( $?5*"
003314:  000000000203                           ;"    "#"
003315:  100262466100                           ;"("RFQ "
003316:  104000000170                           ;"(@  !X"
003317:  100255355630                           ;"("M=N8"
003320:  104000000020                           ;"(@   0"
003321:  115212410346                           ;")J*A#F"
003322:  000000000160                           ;"    !P"
003323:  114451025630                           ;")DI"N8"
003324:  000000001112                           ;"    )*"
003325:  100231401014                           ;"("9@(,"
003326:  104000000011                           ;"(@   )"
003327:  100231375404                           ;"("9?L$"
003330:  000000000462                           ;"    $R"
003331:  100231364466                           ;"("9>DV"
003332:  000000000447                           ;"    $G"
003333:  100000060324                           ;"(  &#4"
003334:  104000000126                           ;"(@  !6"
003335:  113607102465                           ;")>'(4U"
003336:  000000001111                           ;"    ))"
003337:  053607070237                           ;"%>''"?"
003340:  000000000152                           ;"    !J"
003341:  113607015205                           ;")>'!J%"
003342:  000000001065                           ;"    (U"
003343:  113127241020                           ;")974(0"
003344:  000000000470                           ;"    $X"
003345:  100215423365                           ;"("-B;U"
003346:  104000000167                           ;"(@  !W"
003347:  100003406500                           ;"( #@U "
003350:  104000000026                           ;"(@   6"
003351:  100000000016                           ;"(    ."
003352:  000000000004                           ;"     $"
003353:  100206744246                           ;"("&\BF"
003354:  104000000275                           ;"(@  "]"
003355:  100204366330                           ;"("$>S8"
003356:  104000000022                           ;"(@   2"
003357:  112213746504                           ;")2+\U$"
003360:  000000000511                           ;"    %)"
003361:  100202764260                           ;"(""^BP"
003362:  104000000100                           ;"(@  ! "
003363:  100000000015                           ;"(    -"
003364:  000000000003                           ;"     #"
003365:  100172340630                           ;"(!Z<&8"
003366:  104000000042                           ;"(@   B"
003367:  111276330346                           ;")*^;#F"
003370:  000000000200                           ;"    " "
003371:  100000000014                           ;"(    ,"
003372:  000000000002                           ;"     ""
003373:  110505420131                           ;")%%B!9"
003374:  000000000374                           ;"    #\"
003375:  110505420112                           ;")%%B!*"
003376:  000000000432                           ;"    $:"
003377:  100000000013                           ;"(    +"
003400:  000000000001                           ;"     !"
003401:  013607070237                           ;"!>''"?"
003402:  777532000140  blko     774, @140(12)   ;"_]: !@"
003403:  100006621326                           ;"( &R+6"
003404:  000000000000                           ;"      "
003405:  000000000000                           ;"      "
003406:  000000000000                           ;"      "
003407:  000000000000                           ;"      "
003410:  000000000000                           ;"      "
003411:  000000000000                           ;"      "
003412:  000000000000                           ;"      "
003413:  000000000000                           ;"      "
003414:  000000000000                           ;"      "
003415:  000000000000                           ;"      "
003416:  000000000000                           ;"      "
003417:  000000000000                           ;"      "
003420:  000000000000                           ;"      "
003421:  000000000000                           ;"      "
003422:  000000000000                           ;"      "
003423:  000000000000                           ;"      "
003424:  000000000000                           ;"      "
003425:  000000000000                           ;"      "
003426:  000000000000                           ;"      "
003427:  000000000000                           ;"      "
003430:  000000000000                           ;"      "
003431:  000000000000                           ;"      "
003432:  000000000000                           ;"      "
003433:  000000000000                           ;"      "
003434:  000000000000                           ;"      "
003435:  000000000000                           ;"      "
003436:  000000000000                           ;"      "
003437:  000000000000                           ;"      "
003440:  000000000000                           ;"      "
003441:  000000000000                           ;"      "
003442:  000000000000                           ;"      "
003443:  000000000000                           ;"      "
003444:  000000000000                           ;"      "
003445:  000000000000                           ;"      "
003446:  000000000000                           ;"      "
003447:  000000000000                           ;"      "
003450:  000000000000                           ;"      "
003451:  000000000000                           ;"      "
003452:  000000000000                           ;"      "
003453:  000000000000                           ;"      "
003454:  000000000000                           ;"      "
003455:  000000000000                           ;"      "
003456:  000000000000                           ;"      "
003457:  000000000000                           ;"      "
003460:  000000000000                           ;"      "
003461:  000000000000                           ;"      "
003462:  000000000000                           ;"      "
003463:  000000000000                           ;"      "
003464:  000000000000                           ;"      "
003465:  000000000000                           ;"      "
003466:  000000000000                           ;"      "
003467:  000000000000                           ;"      "
003470:  000000000000                           ;"      "
003471:  000000000000                           ;"      "
003472:  000000000000                           ;"      "
003473:  000000000000                           ;"      "
003474:  000000000000                           ;"      "
003475:  000000000000                           ;"      "
003476:  000000000000                           ;"      "
003477:  000000000000                           ;"      "
003500:  000000000000                           ;"      "
003501:  000000000000                           ;"      "
003502:  000000000000                           ;"      "
003503:  000000000000                           ;"      "
003504:  000000000000                           ;"      "
003505:  000000000000                           ;"      "
003506:  000000000000                           ;"      "
003507:  000000000000                           ;"      "
003510:  000000000000                           ;"      "
003511:  000000000000                           ;"      "
003512:  000000000000                           ;"      "
003513:  000000000000                           ;"      "
003514:  000000000000                           ;"      "
003515:  000000000000                           ;"      "
003516:  000000000000                           ;"      "
003517:  000000000000                           ;"      "
003520:  000000000000                           ;"      "
003521:  000000000000                           ;"      "
003522:  000000000000                           ;"      "
003523:  000000000000                           ;"      "
003524:  000000000000                           ;"      "
003525:  000000000000                           ;"      "
003526:  000000000000                           ;"      "
003527:  000000000000                           ;"      "
003530:  000503000511                           ;" %# %)"
003531:  777470000554  datai    774, @554(10)   ;"_\X %L"
003532:  201761505000  movei    17, @505000(1)  ;"0/QHH " " ?\r\n\0"
003533:  202454561712  movem    11, 561712(14)  ;"04LN/*" " Rece"
003534:  647554526100  tlcn     13, 526100(14)  ;"T]LJQ " "ive, "
003535:  517135662130  hrlzs    2, @662130(15)  ;"IY=V18" "Send,"
003536:  202436564750  movem    10, @564750(16) ;"04>NGH" " Quit"
003537:  064240000000                           ;"&B@   " "\r\n\0\0\0"
003540:  727236406424  cono     270, @406424(16);"ZZ>@T4" "uit\r\n"
003541:  000000000000                           ;"      "
003542:  627354420314  tlzn     7, 420314(14)   ;"R[LB#," "end f"
003543:  647314535100  tlcn     6, 535100(14)   ;"T[,KI " "ile: "
003544:  000000000000                           ;"      "
003545:  100000200000                           ;"(  0  "
003546:  723364064336  conso    230, @64336(4)  ;"Z;T&C>" "to ho"
003547:  717507220000  blko     174, 220000(7)  ;"Y]'2  " "st: \0"
003550:  200040001112  move     1, 1112         ;"0 @ )*"
003551:  104000000022                           ;"(@   2"
003552:  300000000000  cai      0, 0            ;"8     " "0\0\0\0\0"
003553:  263740000000  popj     17,             ;"6?@   "
003554:  441000001121  andcbi   0, 1121         ;"D(  )1"
003555:  513134362722  hllzs    2, @362722(14)  ;"I9<>72" "Recei"
003556:  733136220304  blko     330, @220304(16);"[9>2#$" "ver b"
003557:  727477126100  datai    274, @126100(17);"Z\_*Q " "usy, "
003560:  737035172322  blki     370, @172322(15);"[X=/32" "waiti"
003561:  673165627134  tsoe     3, @627134(5)   ;"W9URY<" "ng..."
003562:  064240000000                           ;"&B@   " "\r\n\0\0\0"
003563:  561040001354  hrroi    1, 1354         ;"N(@ +L"
003564:  104000000076                           ;"(@   ^"
003565:  201040023420  movei    1, 23420        ;"0(@"<0"
003566:  104000000167                           ;"(@  !W"
003567:  254000000227  jrst     227             ;"5@  "7"
003570:  627074564754  tlzn     1, @564754(14)  ;"RX\NGL" "eceiv"
003571:  625014664730  tlza     0, 664730(14)   ;"RH,VG8" "e fil"
003572:  625644000000  tlza     15, (4)         ;"RND   " "e: \0\0"
003573:  100000100000                           ;"(  (  "
003574:  633455766500  tsze     11, 766500(15)  ;"S<M^U " "from "
003575:  643376372164  tlce     7, @372164(16)  ;"T;^?1T" "host:"
003576:  200000000000  move     0, 0            ;"0     " " \0\0\0\0"
003577:  200040001112  move     1, 1112         ;"0 @ )*"
003600:  104000000026                           ;"(@   6"
003601:  200040001112  move     1, 1112         ;"0 @ )*"
003602:  104000000022                           ;"(@   2"
003603:  300000000000  cai      0, 0            ;"8     " "0\0\0\0\0"
003604:  263740000000  popj     17,             ;"6?@   "
003605:  463236372312  setcmb   4, @372312(16)  ;"F:>?3*" "Liste"
003606:  673235663500  tsoe     4, @663500(15)  ;"W:=V= " "ning "
003607:  677344071736  tson     7, 71736(4)     ;"W[D'/>" "on so"
003610:  617274572100  tsnn     5, @572100(14)  ;"QZ\O1 " "cket "
003611:  000000000000                           ;"      "
003612:  000100000101                           ;" !  !!"
003613:  000000000000                           ;"      "
003614:  000000000000                           ;"      "
003615:  000000000000                           ;"      "
003616:  000000000000                           ;"      "
003617:  000000000000                           ;"      "
003620:  000000000000                           ;"      "
003621:  502532035102  hllm     12, @35102(12)  ;"H5:#I"" "PUP:!"
003622:  451340000000  setcai   7,              ;"E+@   " "J.\0\0\0"
003623:  502532035144  hllm     12, @35144(12)  ;"H5:#ID" "PUP:2"
003624:  301030127000  cail     0, @127000(10)  ;"8(8*X " "0!A.\0"
003625:  201040000100  movei    1, 100          ;"0(@ ! "
003626:  104000000042                           ;"(@   B"
003627:  260740000470  pushj    17, 470         ;"6'@ $X"
003630:  263740000000  popj     17,             ;"6?@   "
003631:  260740000461  pushj    17, 461         ;"6'@ $Q"
003632:  254000000347  jrst     347             ;"5@  #G"
003633:  007000300000                           ;" X 8  "
003634:  260740000447  pushj    17, 447         ;"6'@ $G"
003635:  554057000000  hlrz     1, (17)         ;"M@O   "
003636:  104000000023                           ;"(@   3"
003637:  300000000000  cai      0, 0            ;"8     " "0\0\0\0\0"
003640:  263740000000  popj     17,             ;"6?@   "
003641:  433035166312  xorb     0, @166312(15)  ;"C8=.S*" "Faile"
003642:  621016467500  tlz      0, 467500(16)   ;"R(.F] " "d to "
003643:  677414567100  tson     10, 567100(14)  ;"W\,NY " "open "
003644:  426152450100  setam    3, 450100(12)   ;"BQJE! " "EFTP "
003645:  717374365712  conso    170, @365712(14);"Y[\>O*" "socke"
003646:  720321200000  consz    200, @200000(1) ;"Z#10  " "t\r\n\0\0"
003647:  561040001440  hrroi    1, 1440         ;"N(@ ,@"
003650:  104000000076                           ;"(@   ^"
003651:  554057000000  hlrz     1, (17)         ;"M@O   "
003652:  104000000022                           ;"(@   2"
003653:  300000000000  cai      0, 0            ;"8     " "0\0\0\0\0"
003654:  263740000000  popj     17,             ;"6?@   "
003655:  523235562736  hllos    4, @562736(15)  ;"J:=N7>" "Timeo"
003656:  727505420334  blko     274, 420334(5)  ;"Z]%B#<" "ut, n"
003657:  675016262746  tsoa     0, 262746(16)   ;"WH.67F" "o res"
003660:  703375671712  conso    30, @671712(15) ;"X;]W/*" "ponse"
003661:  203156267732  moves    3, 267732(16)   ;"09N6_:" " from"
003662:  203454566736  moves    11, 566736(14)  ;"0<LNW>" " remo"
003663:  723124064336  blko     230, @64336(4)  ;"Z94&C>" "te ho"
003664:  717500000000  blko     174, 0          ;"Y]    " "st\0\0\0"
003665:  417375667312  setmb    7, @667312(15)  ;"A[]V[*" "Conne"
003666:  617515167734  tsnn     12, 167734(15)  ;"Q]-._<" "ction"
003667:  203454571712  moves    11, 571712(14)  ;"0<LO/*" " rese"
003670:  721016262706  blki     210, 262706(16) ;"Z(.67&" "t rec"
003671:  627236662710  tlzn     4, @662710(16)  ;"RZ>V7(" "eived"
003672:  261014161336  push     0, 161336(14)   ;"6(,.+>" ", abo"
003673:  713515167316  blko     134, 167316(15) ;"Y=-.[." "rting"
003674:  000000000000                           ;"      "
003675:  517136172712  hrlzs    2, @172712(16)  ;"IY>/7*" "Seque"
003676:  673074520312  tsoe     1, @520312(14)  ;"W8\J#*" "nce e"
003677:  713455771130  datai    134, 771130(15) ;"Y<M_)8" "rror,"
003700:  203034267744  moves    0, @267744(14)  ;"08<6_D" " abor"
003701:  723235663400  cono     230, @663400(15);"Z:=V< " "ting\0"
003702:  427616462744  setab    14, 462744(16)  ;"B^.F7D" "Exter"
003703:  673035420346  tsoe     0, @420346(15)  ;"W8=B#F" "nal s"
003704:  627354462744  tlzn     7, 462744(14)   ;"R[LF7D" "ender"
003705:  203034267744  moves    0, @267744(14)  ;"08<6_D" " abor"
003706:  721016262706  blki     210, 262706(16) ;"Z(.67&" "t rec"
003707:  627236662710  tlzn     4, @662710(16)  ;"RZ>V7(" "eived"
003710:  000000000000                           ;"      "
003711:  427616462744  setab    14, 462744(16)  ;"B^.F7D" "Exter"
003712:  673035420344  tsoe     0, @420344(15)  ;"W8=B#D" "nal r"
003713:  627074564754  tlzn     1, @564754(14)  ;"RX\NGL" "eceiv"
003714:  627444060704  tlzn     11, 60704(4)    ;"R\D&'$" "er ab"
003715:  677456420344  tson     11, 420344(16)  ;"W\NB#D" "ort r"
003716:  627074564754  tlzn     1, @564754(14)  ;"RX\NGL" "eceiv"
003717:  627100000000  tlzn     2, 0            ;"RY    " "ed\0\0\0"
003720:  513134362722  hllzs    2, @362722(14)  ;"I9<>72" "Recei"
003721:  733136220304  blko     330, @220304(16);"[9>2#$" "ver b"
003722:  727477120302  datai    274, @120302(17);"Z\_*#"" "usy a"
003723:  613376272100  tsne     7, @272100(16)  ;"Q;^71 " "bort "
003724:  713134362722  blko     130, @362722(14);"Y9<>72" "recei"
003725:  733134400000  blko     330, @400000(14);"[9<@  " "ved\0\0"
003726:  477536420336  setob    12, @420336(16) ;"G]>B#>" "Out o"
003727:  631016374734  tsz      0, 374734(16)   ;"S(.?G<" "f syn"
003730:  615014161336  tsna     0, 161336(14)   ;"QH,.+>" "c abo"
003731:  713504071312  blko     134, 71312(4)   ;"Y=$'+*" "rt re"
003732:  617135173312  tsnn     2, @173312(15)  ;"QY=/;*" "ceive"
003733:  620000000000  trz      0, 0            ;"R     " "d\0\0\0\0"
003734:  527355367336  hrlos    7, 367336(15)   ;"J[M>[>" "Unkno"
003735:  737344042614  conso    370, 42614(4)   ;"[[D$6," "wn EF"
003736:  522404062744  hllom    10, 62744(4)    ;"J4$&7D" "TP er"
003737:  713376200000  conso    130, @200000(16);"Y;^0  " "ror\0\0"
003740:  201040000100  movei    1, 100          ;"0(@ ! "
003741:  104000000042                           ;"(@   B"
003742:  260740000475  pushj    17, 475         ;"6'@ $]"
003743:  260740000470  pushj    17, 470         ;"6'@ $X"
003744:  263740000000  popj     17,             ;"6?@   "
003745:  260740000461  pushj    17, 461         ;"6'@ $Q"
003746:  254000000435  jrst     435             ;"5@  $="
003747:  260740000447  pushj    17, 447         ;"6'@ $G"
003750:  554057000000  hlrz     1, (17)         ;"M@O   "
003751:  104000000023                           ;"(@   3"
003752:  260740000475  pushj    17, 475         ;"6'@ $]"
003753:  263740000000  popj     17,             ;"6?@   "
003754:  527354462714  hrlos    7, 462714(14)   ;"J[LF7," "Undef"
003755:  647354562100  tlcn     7, 562100(14)   ;"T[LN1 " "ined "
003756:  452473151500  setcam   11, @151500(13) ;"E4[-- " "JSYS "
003757:  627456267744  tlzn     11, 267744(16)  ;"R\N6_D" "error"
003760:  200000000000  move     0, 0            ;"0     " " \0\0\0\0"
003761:  561040001553  hrroi    1, 1553         ;"N(@ -K"
003762:  104000000076                           ;"(@   ^"
003763:  201040000101  movei    1, 101          ;"0(@ !!"
003764:  553000000002  hrrzs    0, 2            ;"M8   ""
003765:  201140000010  movei    3, 10           ;"0)@  ("
003766:  104000000224                           ;"(@  "4"
003767:  260740000475  pushj    17, 475         ;"6'@ $]"
003770:  254000000456  jrst     456             ;"5@  $N"
003771:  201764000000  movei    17, @(4)        ;"0/T   " " ? \0\0"
003772:  542613006424  hrrm     14, 6424(13)    ;"L6+ T4" "XXX\r\n"
003773:  000000000000                           ;"      "
003774:  561040001571  hrroi    1, 1571         ;"N(@ -Y"
003775:  104000000076                           ;"(@   ^"
003776:  263740000000  popj     17,             ;"6?@   "
003777:  407344064732  andb     7, 64732(4)     ;"@[D&G:" "An im"
