Raw format

Disassembly:

000000:  777761000000  conso    774, @(1)       ;"__Q   "
000001:  710600000060  iordi    14, 60          ;"Y&   P"
000002:  541440000004  hrri     11, 4           ;"L,@  $"
000003:  710740000010  iordi    17, 10          ;"Y'@  ("
000004:  254000000003  jrst     3               ;"5@   #"
000005:  241011777776  rot      0, 777776(11)   ;"4()__^"
000006:  710471000010  iordi    11, @10(11)     ;"Y$Y  ("
000007:  256011000010  xct      10(11)          ;"5P)  ("
000010:  256011000013  xct      13(11)          ;"5P)  +"
000011:  364440000000  soja     11, 0           ;">D@   "
000012:  312000000017  came     0, 17           ;"90   /"
000013:  270017000000  add      0, (17)         ;"7 /   "
000014:  331740000000  skipl    17, 0           ;";/@   " "6>\0\0\0"
000015:  254200000001  halt     1               ;"5B   !"
000016:  253740000003  aobjn    17, 3           ;"5?@  #"
000017:  254000000002  jrst     2               ;"5@   ""
000020:  777777000041  conso    774, @41(17)    ;"___  A"
000021:  264000004174  jsr      4174            ;"6@  A\"
000022:  263776004277  popj     17, @4277(16)   ;"6?^ B_"
000023:  777777000042  conso    774, @42(17)    ;"___  B"
000024:  264000004616  jsr      4616            ;"6@  F."
000025:  263776004723  popj     17, @4723(16)   ;"6?^ G3"
000026:  777777000044  conso    774, @44(17)    ;"___  D"
000027:  264000000062  jsr      62              ;"6@   R"
000030:  263776000173  popj     17, @173(16)    ;"6?^ !["
000031:  777777000063  conso    774, @63(17)    ;"___  S"
000032:  254120000062  jrstf    @62             ;"5A0  R"
000033:  254116000231  jrstf    231(16)         ;"5A. "9"
000034:  777777000061  conso    774, @61(17)    ;"___  Q"
000035:  264000004174  jsr      4174            ;"6@  A\"
000036:  263776004337  popj     17, @4337(16)   ;"6?^ C?"
000037:  777777000077  conso    774, @77(17)    ;"___  _"
000040:  000000000000                           ;"      "
000041:  777776000177  conso    774, @177(16)   ;"__^ !_"
000042:  777742000100  conso    774, 100(2)     ;"__B ! "
000043:  700200000000  cono     apr, 0          ;"X"    "
000044:  200040005520  move     1, 5520         ;"0 @ M0"
000045:  202040000041  movem    1, 41           ;"00@  A"
000046:  700600010000  cono     pi, 10000       ;"X& !  "
000047:  700200637550  cono     apr, 637550     ;"X" S]H"
000050:  102100005077  xctr     2, 5077         ;"(1  H_"
000051:  402000005060  setzm    5060            ;"@0  HP"
000052:  201040000000  movei    1, 0            ;"0(@   " " \"\0\0\0"
000053:  271040040000  addi     1, 40000        ;"7(@$  "
000054:  310001000000  cam      0, (1)          ;"9 !   "
000055:  700340010000  conso    apr, 10000      ;"X#@!  "
000056:  301040777777  cail     1, 777777       ;"8(@___"
000057:  364040000116  soja     1, 116          ;">@@ !."
000060:  254000000110  jrst     110             ;"5@  !("
000061:  700200010000  cono     apr, 10000      ;"X" !  "
000062:  202040005057  movem    1, 5057         ;"00@ HO"
000063:  201740005417  movei    17, 5417        ;"0/@ L/"
000064:  402000007755  setzm    7755            ;"@0  _M"
000065:  201300774000  movei    6, 774000       ;"0+ _@ "
000066:  336046777777  skipn    1, 777777(6)    ;";PF___"
000067:  254000003614  jrst     3614            ;"5@  >,"
000070:  302046777776  caie     1, 777776(6)    ;"80F__^"
000071:  254000003614  jrst     3614            ;"5@  >,"
000072:  202300007755  movem    6, 7755         ;"03  _M"
000073:  264000003541  jsr      3541            ;"6@  =A"
000074:  700600016240  cono     pi, 16240       ;"X& !R@"
000075:  476000005063  setom    5063            ;"GP  HS"
000076:  211040000002  movni    1, 2            ;"1(@  ""
000077:  202040003467  movem    1, 3467         ;"00@ <W"
000100:  260740004166  pushj    17, 4166        ;"6'@ AV"
000101:  760423051305  blki     604, @51305(3)  ;"^$3%+%"
000102:  777742000136  conso    774, 136(2)     ;"__B !>"
000103:  402000005117  setzm    5117            ;"@0  I/"
000104:  205100777770  movsi    2, 777770       ;"0I __X"
000105:  335000005063  skipge   0, 5063         ;";H  HS"
000106:  260740004156  pushj    17, 4156        ;"6'@ AN"
000107:  331000005063  skipl    0, 5063         ;";(  HS"
000110:  200040003467  move     1, 3467         ;"0 @ <W"
000111:  202042005026  movem    1, 5026(2)      ;"00B H6"
000112:  253100000140  aobjn    2, 140          ;"59  !@"
000113:  205100777770  movsi    2, 777770       ;"0I __X"
000114:  205040000001  movsi    1, 1            ;"0H@  !"
000115:  436040005031  orm      1, 5031         ;"CP@ H9"
000116:  102100005026  xctr     2, 5026         ;"(1  H6"
000117:  102040005036  xctr     1, 5036         ;"(0@ H>"
000120:  200042005026  move     1, 5026(2)      ;"0 B H6"
000121:  430042005036  xor      1, 5036(2)      ;"C B H>"
000122:  404042005046  and      1, 5046(2)      ;"@@B HF"
000123:  322040000202  jumpe    1, 202          ;":0@ """
000124:  200142005026  move     3, 5026(2)      ;"0!B H6"
000125:  200202005036  move     4, 5036(2)      ;"0"" H>"
000126:  550240000002  hrrz     5, 2            ;"M"@  ""
000127:  040000005521  .iot     0, 5521         ;"$   M1"
000130:  044000005531  .uset    0, 5531         ;"$@  M9"
000131:  102100005026  xctr     2, 5026         ;"(1  H6"
000132:  102040005036  xctr     1, 5036         ;"(0@ H>"
000133:  200042005036  move     1, 5036(2)      ;"0 B H>"
000134:  430042005026  xor      1, 5026(2)      ;"C B H6"
000135:  404042005046  and      1, 5046(2)      ;"@@B HF"
000136:  332000000001  skipe    0, 1            ;";0   !"
000137:  350000007756  aos      0, 7756         ;"=   _N"
000140:  700540007756  datao    pi, 7756        ;"X%@ _N"
000141:  401001507640  setzi    0, 507640(1)    ;"@(!H^@"
000142:  777742000174  conso    774, 174(2)     ;"__B !\"
000143:  712340000040  iord     7, 40           ;"Y3@  @"
000144:  254000000164  jrst     164             ;"5@  !T"
000145:  260740004451  pushj    17, 4451        ;"6'@ DI"
000146:  302040000131  caie     1, 131          ;"80@ !9"
000147:  254000004261  jrst     4261            ;"5@  BQ"
000150:  260740004773  pushj    17, 4773        ;"6'@ G["
000151:  253100000151  aobjn    2, 151          ;"59  !I"
000152:  700040000001  datai    apr, 1          ;"X @  !"
000153:  335000005117  skipge   0, 5117         ;";H  I/"
000154:  321040000151  jumpl    1, 151          ;":(@ !I"
000155:  200040003467  move     1, 3467         ;"0 @ <W"
000156:  241040000001  rot      1, 1            ;"4(@  !"
000157:  202040003467  movem    1, 3467         ;"00@ <W"
000160:  367440000136  sojg     11, 136         ;">\@ !>"
000161:  357000005063  aosg     0, 5063         ;"=X  HS"
000162:  254000000135  jrst     135             ;"5@  !="
000163:  264000003541  jsr      3541            ;"6@  =A"
000164:  042000005534                           ;"$0  M<"
000165:  700600001100  cono     pi, 1100        ;"X&  ) "
000166:  200040005542  move     1, 5542         ;"0 @ MB"
000167:  202040000344  movem    1, 344          ;"00@ #D"
000170:  205040000005  movsi    1, 5            ;"0H@  %"
000171:  202040000341  movem    1, 341          ;"00@ #A"
000172:  200040005543  move     1, 5543         ;"0 @ MC"
000173:  202040000350  movem    1, 350          ;"00@ #H"
000174:  200040005544  move     1, 5544         ;"0 @ MD"
000175:  251040000547  blt      1, 547          ;"5(@ %G"
000176:  200040005545  move     1, 5545         ;"0 @ ME"
000177:  202041420000  movem    1, 420000(1)    ;"00AB  " " B\f \0"
000200:  253040000230  aobjn    1, 230          ;"58@ "8"
000201:  001361643365                           ;" +QT;U"
000202:  777742000232  conso    774, 232(2)     ;"__B ":"
000203:  102100000336  xctr     2, 336          ;"(1  #>"
000204:  200040400000  move     1, 400000       ;"0 @@  "
000205:  254000000245  jrst     245             ;"5@  "E"
000206:  265300000301  jsp      6, 301          ;"6K  #!"
000207:  265300000301  jsp      6, 301          ;"6K  #!"
000210:  265300000301  jsp      6, 301          ;"6K  #!"
000211:  265300000301  jsp      6, 301          ;"6K  #!"
000212:  265300000301  jsp      6, 301          ;"6K  #!"
000213:  265300000301  jsp      6, 301          ;"6K  #!"
000214:  265300000301  jsp      6, 301          ;"6K  #!"
000215:  265300000301  jsp      6, 301          ;"6K  #!"
000216:  700300060000  consz    apr, 60000      ;"X# &  "
000217:  254000000274  jrst     274             ;"5@  "\"
000220:  316040005545  camn     1, 5545         ;"9P@ ME"
000221:  254000000253  jrst     253             ;"5@  "K"
000222:  040000005546  .iot     0, 5546         ;"$   MF"
000223:  254000000313  jrst     313             ;"5@  #+"
000224:  200040401777  move     1, 401777       ;"0 @@/_"
000225:  254000000265  jrst     265             ;"5@  "U"
000226:  265300000277  jsp      6, 277          ;"6K  "_"
000227:  265300000277  jsp      6, 277          ;"6K  "_"
000230:  265300000277  jsp      6, 277          ;"6K  "_"
000231:  265300000277  jsp      6, 277          ;"6K  "_"
000232:  265300000277  jsp      6, 277          ;"6K  "_"
000233:  265300000277  jsp      6, 277          ;"6K  "_"
000234:  265300000277  jsp      6, 277          ;"6K  "_"
000235:  265300000277  jsp      6, 277          ;"6K  "_"
000236:  700300060000  consz    apr, 60000      ;"X# &  "
000237:  254000000274  jrst     274             ;"5@  "\"
000240:  316040005563  camn     1, 5563         ;"9P@ MS"
000241:  544717410535  hlr      16, 410535(17)  ;"LG/A%="
000242:  777742000270  conso    774, 270(2)     ;"__B "X"
000243:  254000000273  jrst     273             ;"5@  "["
000244:  040000005564  .iot     0, 5564         ;"$   MT"
000245:  254000000313  jrst     313             ;"5@  #+"
000246:  254000000601  jrst     601             ;"5@  &!"
000247:  102040005036  xctr     1, 5036         ;"(0@ H>"
000250:  201300000000  movei    6, 0            ;"0+    " " ,\0\0\0"
000251:  254000000304  jrst     304             ;"5@  #$"
000252:  275300000255  subi     6, 255          ;"7K  "M"
000253:  304000000000  caia     0, 0            ;"8@    " "1\0\0\0\0"
000254:  275300000235  subi     6, 235          ;"7K  "="
000255:  553000000006  hrrzs    0, 6            ;"M8   &"
000256:  102040005036  xctr     1, 5036         ;"(0@ H>"
000257:  040000005601  .iot     0, 5601         ;"$   N!"
000260:  510140005041  hllz     3, 5041         ;"I!@ HA"
000261:  260740004777  pushj    17, 4777        ;"6'@ G_"
000262:  260740004773  pushj    17, 4773        ;"6'@ G["
000263:  332000000006  skipe    0, 6            ;";0   &"
000264:  044000005611  .uset    0, 5611         ;"$@  N)"
000265:  044000005616  .uset    0, 5616         ;"$@  N."
000266:  102100000336  xctr     2, 336          ;"(1  #>"
000267:  200000400000  move     0, 400000       ;"0  @  "
000270:  254000000330  jrst     330             ;"5@  #8"
000271:  255000000000  nop                      ;"5H    " "+ \0\0\0"
000272:  255000000000  nop                      ;"5H    " "+ \0\0\0"
000273:  255000000000  nop                      ;"5H    " "+ \0\0\0"
000274:  255000000000  nop                      ;"5H    " "+ \0\0\0"
000275:  255000000000  nop                      ;"5H    " "+ \0\0\0"
000276:  255000000000  nop                      ;"5H    " "+ \0\0\0"
000277:  255000000000  nop                      ;"5H    " "+ \0\0\0"
000300:  255000000000  nop                      ;"5H    " "+ \0\0\0"
000301:  235363446533  divi     7, @446533(3)   ;"3KSDU;"
000302:  777756000326  conso    774, 326(16)    ;"__N #6"
000303:  350000007756  aos      0, 7756         ;"=   _N"
000304:  700540007756  datao    pi, 7756        ;"X%@ _N"
000305:  712340000040  iord     7, 40           ;"Y3@  @"
000306:  254000000313  jrst     313             ;"5@  #+"
000307:  260740004451  pushj    17, 4451        ;"6'@ DI"
000310:  302040000131  caie     1, 131          ;"80@ !9"
000311:  254000004261  jrst     4261            ;"5@  BQ"
000312:  254000000601  jrst     601             ;"5@  &!"
000313:  000000000000                           ;"      "
000314:  000000000000                           ;"      "
000315:  000000000000                           ;"      "
000316:  000001000000                           ;"  !   "
000317:  000000000000                           ;"      "
000320:  000000000000                           ;"      "
000321:  000000000000                           ;"      "
000322:  000000000000                           ;"      "
000323:  300500005076  cai      12, 5076        ;"8%  H^"
000324:  230500005076  idiv     12, 5076        ;"3%  H^"
000325:  440467330102  andcb    11, @330102(7)  ;"D$W;!""
000326:  777742000601  conso    774, 601(2)     ;"__B &!"
000327:  264000003541  jsr      3541            ;"6@  =A"
000330:  042000005621                           ;"$0  N1"
000331:  201440000000  movei    11, 0           ;"0,@   " " 2\0\0\0"
000332:  700600001100  cono     pi, 1100        ;"X&  ) "
000333:  200040005630  move     1, 5630         ;"0 @ N8"
000334:  202040007757  movem    1, 7757         ;"00@ _O"
000335:  200040005631  move     1, 5631         ;"0 @ N9"
000336:  202040020020  movem    1, 20020        ;"00@" 0"
000337:  200040005542  move     1, 5542         ;"0 @ MB"
000340:  202040000342  movem    1, 342          ;"00@ #B"
000341:  202040000343  movem    1, 343          ;"00@ #C"
000342:  202040000344  movem    1, 344          ;"00@ #D"
000343:  200040005543  move     1, 5543         ;"0 @ MC"
000344:  202040000350  movem    1, 350          ;"00@ #H"
000345:  200040005544  move     1, 5544         ;"0 @ MD"
000346:  251040000547  blt      1, 547          ;"5(@ %G"
000347:  201040000005  movei    1, 5            ;"0(@  %"
000350:  516040000341  hrlzm    1, 341          ;"IP@ #A"
000351:  402000007760  setzm    7760            ;"@0  _P"
000352:  201040400000  movei    1, 400000       ;"0(@@  "
000353:  335000007757  skipge   0, 7757         ;";H  _O"
000354:  242040777777  lsh      1, 777777       ;"40@___"
000355:  202040007761  movem    1, 7761         ;"00@ _Q"
000356:  102100000336  xctr     2, 336          ;"(1  #>"
000357:  402000007762  setzm    7762            ;"@0  _R"
000360:  476000007763  setom    7763            ;"GP  _S"
000361:  200040007760  move     1, 7760         ;"0 @ _P"
000362:  316040007762  camn     1, 7762         ;"9P@ _R"
000363:  254000000720  jrst     720             ;"5@  '0"
000364:  331000007757  skipl    0, 7757         ;";(  _O"
000365:  421140357002  andcmi   3, 357002       ;"B)@=X""
000366:  777742000637  conso    774, 637(2)     ;"__B &?"
000367:  254000000646  jrst     646             ;"5@  &F"
000370:  200100007762  move     2, 7762         ;"0!  _R"
000371:  270100007757  add      2, 7757         ;"7!  _O"
000372:  202100007764  movem    2, 7764         ;"01  _T"
000373:  242100000012  lsh      2, 12           ;"41   *"
000374:  103040005632  xctri    1, 5632         ;"(8@ N:"
000375:  254000000657  jrst     657             ;"5@  &O"
000376:  200100007762  move     2, 7762         ;"0!  _R"
000377:  270100007757  add      2, 7757         ;"7!  _O"
000400:  301100000400  cail     2, 400          ;"8)  $ "
000401:  275100000200  subi     2, 200          ;"7I  " "
000402:  305100000200  caige    2, 200          ;"8I  " "
000403:  271100000200  addi     2, 200          ;"7)  " "
000404:  202100007764  movem    2, 7764         ;"01  _T"
000405:  242100000012  lsh      2, 12           ;"41   *"
000406:  200042000020  move     1, 20(2)        ;"0 B  0"
000407:  200100007764  move     2, 7764         ;"0!  _T"
000410:  500100007757  hll      2, 7757         ;"H!  _O"
000411:  641100400000  tlc      2, 400000       ;"T) @  "
000412:  350040007763  aos      1, 7763         ;"= @ _S"
000413:  202101000560  movem    2, 560(1)       ;"01! %P"
000414:  102040000550  xctr     1, 550          ;"(0@ %H"
000415:  135040005633  ldb      1, 5633         ;"+H@ N;"
000416:  350100007762  aos      2, 7762         ;"=!  _R"
000417:  316040000002  camn     1, 2            ;"9P@  ""
000420:  254000000633  jrst     633             ;"5@  &;"
000421:  200100007764  move     2, 7764         ;"0!  _T"
000422:  641100400000  tlc      2, 400000       ;"T) @  "
000423:  200140007762  move     3, 7762         ;"0!@ _R"
000424:  040000005634  .iot     0, 5634         ;"$   N<"
000425:  102425527246  xctr     10, @527246(5)  ;"(45JZF"
000426:  777742000675  conso    774, 675(2)     ;"__B &]"
000427:  331000000002  skipl    0, 2            ;";(   ""
000430:  044000005637  .uset    0, 5637         ;"$@  N?"
000431:  335000000002  skipge   0, 2            ;";H   ""
000432:  044000005643  .uset    0, 5643         ;"$@  NC"
000433:  135200005633  ldb      4, 5633         ;"+J  N;"
000434:  044000005647  .uset    0, 5647         ;"$@  NG"
000435:  335000007763  skipge   0, 7763         ;";H  _S"
000436:  254000001012  jrst     1012            ;"5@  (*"
000437:  044000005662  .uset    0, 5662         ;"$@  NR"
000440:  403040007765  setzb    1, 7765         ;"@8@ _U"
000441:  044000005671  .uset    0, 5671         ;"$@  NY"
000442:  200101000560  move     2, 560(1)       ;"0!! %P"
000443:  335000000002  skipge   0, 2            ;";H   ""
000444:  044000005673  .uset    0, 5673         ;"$@  N["
000445:  331000000002  skipl    0, 2            ;";(   ""
000446:  044000005676  .uset    0, 5676         ;"$@  N^"
000447:  315040007763  camge    1, 7763         ;"9H@ _S"
000450:  344040000707  aoja     1, 707          ;"<@@ ''"
000451:  254000001012  jrst     1012            ;"5@  (*"
000452:  200100007757  move     2, 7757         ;"0!  _O"
000453:  242100000012  lsh      2, 12           ;"41   *"
000454:  331000007757  skipl    0, 7757         ;";(  _O"
000455:  103040005632  xctri    1, 5632         ;"(8@ N:"
000456:  335000007757  skipge   0, 7757         ;";H  _O"
000457:  200042000020  move     1, 20(2)        ;"0 B  0"
000460:  102040000550  xctr     1, 550          ;"(0@ %H"
000461:  200240007760  move     5, 7760         ;"0"@ _P"
000462:  350000000005  aos      0, 5            ;"=    %"
000463:  405240000017  andi     5, 17           ;"@J@  /"
000464:  350040007763  aos      1, 7763         ;"= @ _S"
000465:  417433701126  setmb    10, @701126(13) ;"A\;X)6"
000466:  777742000733  conso    774, 733(2)     ;"__B ';"
000467:  200140007757  move     3, 7757         ;"0!@ _O"
000470:  202141000560  movem    3, 560(1)       ;"01A %P"
000471:  135200005633  ldb      4, 5633         ;"+J  N;"
000472:  316200000005  camn     4, 5            ;"9R   %"
000473:  254000000743  jrst     743             ;"5@  'C"
000474:  200100007757  move     2, 7757         ;"0!  _O"
000475:  200140000005  move     3, 5            ;"0!@  %"
000476:  254000000674  jrst     674             ;"5@  &\"
000477:  430100007761  xor      2, 7761         ;"C!  _Q"
000500:  331000007757  skipl    0, 7757         ;";(  _O"
000501:  103040005632  xctri    1, 5632         ;"(8@ N:"
000502:  335000007757  skipge   0, 7757         ;";H  _O"
000503:  200042000020  move     1, 20(2)        ;"0 B  0"
000504:  102040000550  xctr     1, 550          ;"(0@ %H"
000505:  135200005633  ldb      4, 5633         ;"+J  N;"
000506:  242100777766  lsh      2, 777766       ;"41 __V"
000507:  500100007757  hll      2, 7757         ;"H!  _O"
000510:  350040007763  aos      1, 7763         ;"= @ _S"
000511:  202101000560  movem    2, 560(1)       ;"01! %P"
000512:  200140007760  move     3, 7760         ;"0!@ _P"
000513:  271140000002  addi     3, 2            ;"7)@  ""
000514:  405140000017  andi     3, 17           ;"@I@  /"
000515:  312200000003  came     4, 3            ;"92   #"
000516:  254000000674  jrst     674             ;"5@  &\"
000517:  200040007761  move     1, 7761         ;"0 @ _Q"
000520:  242040777777  lsh      1, 777777       ;"40@___"
000521:  202040007761  movem    1, 7761         ;"00@ _Q"
000522:  606040001000  trnn     1, 1000         ;"PP@ ( "
000523:  254000000630  jrst     630             ;"5@  &8"
000524:  350040007760  aos      1, 7760         ;"= @ _P"
000525:  460445703463  setcm    11, 703463(5)   ;"F$EX<S"
000526:  777742000771  conso    774, 771(2)     ;"__B 'Y"
000527:  305040000020  caige    1, 20           ;"8H@  0"
000530:  254000000624  jrst     624             ;"5@  &4"
000531:  350040007757  aos      1, 7757         ;"= @ _O"
000532:  553000000001  hrrzs    0, 1            ;"M8   !"
000533:  200100000011  move     2, 11           ;"0!   )"
000534:  700040000003  datai    apr, 3          ;"X @  #"
000535:  405140000007  andi     3, 7            ;"@I@  '"
000536:  242103000000  lsh      2, (3)          ;"41#   "
000537:  305100000400  caige    2, 400          ;"8I  $ "
000540:  301040000400  cail     1, 400          ;"8(@ $ "
000541:  254000001005  jrst     1005            ;"5@  (%"
000542:  344440000623  aoja     11, 623         ;"<D@ &3"
000543:  331000007757  skipl    0, 7757         ;";(  _O"
000544:  254000001035  jrst     1035            ;"5@  (="
000545:  201040000000  movei    1, 0            ;"0(@   " " \"\0\0\0"
000546:  202040007757  movem    1, 7757         ;"00@ _O"
000547:  254000000623  jrst     623             ;"5@  &3"
000550:  044000005701  .uset    0, 5701         ;"$@  O!"
000551:  102100000336  xctr     2, 336          ;"(1  #>"
000552:  201040000000  movei    1, 0            ;"0(@   " " \"\0\0\0"
000553:  317040007763  camg     1, 7763         ;"9X@ _S"
000554:  254000001025  jrst     1025            ;"5@  (5"
000555:  712340000040  iord     7, 40           ;"Y3@  @"
000556:  254000001013  jrst     1013            ;"5@  (+"
000557:  260740004451  pushj    17, 4451        ;"6'@ DI"
000560:  302040000131  caie     1, 131          ;"80@ !9"
000561:  254000004261  jrst     4261            ;"5@  BQ"
000562:  254000000763  jrst     763             ;"5@  'S"
000563:  200101000560  move     2, 560(1)       ;"0!! %P"
000564:  550140000002  hrrz     3, 2            ;"M!@  ""
000565:  604225034407  trna     4, @34407(5)    ;"PB5#D'"
000566:  777742001027  conso    774, 1027(2)    ;"__B (7"
000567:  242140000012  lsh      3, 12           ;"41@  *"
000570:  331000000002  skipl    0, 2            ;";(   ""
000571:  103040005704  xctri    1, 5704         ;"(8@ O$"
000572:  335000000002  skipge   0, 2            ;";H   ""
000573:  200203000020  move     4, 20(3)        ;"0"#  0"
000574:  344040001015  aoja     1, 1015         ;"<@@ (-"
000575:  264000003541  jsr      3541            ;"6@  =A"
000576:  201040000000  movei    1, 0            ;"0(@   " " \"\0\0\0"
000577:  137040005705  dpb      1, 5705         ;"+X@ O%"
000600:  200040005706  move     1, 5706         ;"0 @ O&"
000601:  202040020020  movem    1, 20020        ;"00@" 0"
000602:  445040000000  eqvi     1, 0            ;"DH@   " "I\"\0\0\0"
000603:  202040022020  movem    1, 22020        ;"00@"00"
000604:  200040005707  move     1, 5707         ;"0 @ O'"
000605:  202040024020  movem    1, 24020        ;"00@"@0"
000606:  402000005063  setzm    5063            ;"@0  HS"
000607:  201040400020  movei    1, 400020       ;"0(@@ 0"
000610:  202040005061  movem    1, 5061         ;"00@ HQ"
000611:  200040005710  move     1, 5710         ;"0 @ O("
000612:  202040005075  movem    1, 5075         ;"00@ H]"
000613:  205040000004  movsi    1, 4            ;"0H@  $"
000614:  436040005072  orm      1, 5072         ;"CP@ HZ"
000615:  402000005074  setzm    5074            ;"@0  H\"
000616:  402000005073  setzm    5073            ;"@0  H["
000617:  200040005711  move     1, 5711         ;"0 @ O)"
000620:  202040005062  movem    1, 5062         ;"00@ HR"
000621:  254000001067  jrst     1067            ;"5@  (W"
000622:  402000005120  setzm    5120            ;"@0  I0"
000623:  200040005712  move     1, 5712         ;"0 @ O*"
000624:  251040005317  blt      1, 5317         ;"5(@ K/"
000625:  211301443101  movni    6, 443101(1)    ;"1+!D9!"
000626:  777742001065  conso    774, 1065(2)    ;"__B (U"
000627:  402000005064  setzm    5064            ;"@0  HT"
000630:  263740000000  popj     17,             ;"6?@   "
000631:  260740004166  pushj    17, 4166        ;"6'@ AV"
000632:  402000005117  setzm    5117            ;"@0  I/"
000633:  260740001062  pushj    17, 1062        ;"6'@ (R"
000634:  102100005067  xctr     2, 5067         ;"(1  HW"
000635:  205100777760  movsi    2, 777760       ;"0I __P"
000636:  402000007766  setzm    7766            ;"@0  _V"
000637:  540100005061  hrr      2, 5061         ;"L!  HQ"
000640:  200200005713  move     4, 5713         ;"0"  O+"
000641:  201640200010  movei    15, 200010      ;"0.@0 ("
000642:  260740003633  pushj    17, 3633        ;"6'@ >;"
000643:  256000005062  xct      5062            ;"5P  HR"
000644:  316040020020  camn     1, 20020        ;"9P@" 0"
000645:  254000001115  jrst     1115            ;"5@  )-"
000646:  040000005714  .iot     0, 5714         ;"$   O,"
000647:  332000005063  skipe    0, 5063         ;";0  HS"
000650:  044000005717  .uset    0, 5717         ;"$@  O/"
000651:  336000005063  skipn    0, 5063         ;";P  HS"
000652:  044000005721  .uset    0, 5721         ;"$@  O1"
000653:  044000005723  .uset    0, 5723         ;"$@  O3"
000654:  044000005734  .uset    0, 5734         ;"$@  O<"
000655:  476000005117  setom    5117            ;"GP  I/"
000656:  254000001232  jrst     1232            ;"5@  *:"
000657:  271100001777  addi     2, 1777         ;"7)  /_"
000660:  350000007766  aos      0, 7766         ;"=   _V"
000661:  253100001101  aobjn    2, 1101         ;"59  )!"
000662:  205100777760  movsi    2, 777760       ;"0I __P"
000663:  540100005061  hrr      2, 5061         ;"L!  HQ"
000664:  402000007766  setzm    7766            ;"@0  _V"
000665:  215243735676  movmi    5, 735676(3)    ;"1JC[N^"
000666:  777742001123  conso    774, 1123(2)    ;"__B )3"
000667:  200200005713  move     4, 5713         ;"0"  O+"
000670:  201640200011  movei    15, 200011      ;"0.@0 )"
000671:  260740003633  pushj    17, 3633        ;"6'@ >;"
000672:  256000005062  xct      5062            ;"5P  HR"
000673:  316040020020  camn     1, 20020        ;"9P@" 0"
000674:  254000001144  jrst     1144            ;"5@  )D"
000675:  040000005742  .iot     0, 5742         ;"$   OB"
000676:  332000005063  skipe    0, 5063         ;";0  HS"
000677:  044000005761  .uset    0, 5761         ;"$@  OQ"
000700:  336000005063  skipn    0, 5063         ;";P  HS"
000701:  044000005763  .uset    0, 5763         ;"$@  OS"
000702:  044000005675  .uset    0, 5675         ;"$@  N]"
000703:  044000005765  .uset    0, 5765         ;"$@  OU"
000704:  044000005770  .uset    0, 5770         ;"$@  OX"
000705:  044000005774  .uset    0, 5774         ;"$@  O\"
000706:  476000005117  setom    5117            ;"GP  I/"
000707:  254000001232  jrst     1232            ;"5@  *:"
000710:  271100001777  addi     2, 1777         ;"7)  /_"
000711:  350000007766  aos      0, 7766         ;"=   _V"
000712:  253100001126  aobjn    2, 1126         ;"59  )6"
000713:  200100005061  move     2, 5061         ;"0!  HQ"
000714:  271100040000  addi     2, 40000        ;"7) $  "
000715:  405100777777  andi     2, 777777       ;"@I ___"
000716:  301100740000  cail     2, 740000       ;"8) \  "
000717:  275100100000  subi     2, 100000       ;"7I (  "
000720:  332000005063  skipe    0, 5063         ;";0  HS"
000721:  254000001161  jrst     1161            ;"5@  )Q"
000722:  305100400000  caige    2, 400000       ;"8I @  "
000723:  271100400000  addi     2, 400000       ;"7) @  "
000724:  552100007767  hrrzm    2, 7767         ;"M1  _W"
000725:  630577562524  tdz      13, @562524(17) ;"S%_N54"
000726:  777742001161  conso    774, 1161(2)    ;"__B )Q"
000727:  505100777760  hrli     2, 777760       ;"HI __P"
000730:  402000007766  setzm    7766            ;"@0  _V"
000731:  200200005713  move     4, 5713         ;"0"  O+"
000732:  201640200012  movei    15, 200012      ;"0.@0 *"
000733:  260740003633  pushj    17, 3633        ;"6'@ >;"
000734:  256000005062  xct      5062            ;"5P  HR"
000735:  316040024020  camn     1, 24020        ;"9P@"@0"
000736:  254000001202  jrst     1202            ;"5@  *""
000737:  550300000002  hrrz     6, 2            ;"M#   ""
000740:  274300007767  sub      6, 7767         ;"7C  _W"
000741:  270300005061  add      6, 5061         ;"7#  HQ"
000742:  040000006000  .iot     0, 6000         ;"$   P "
000743:  044000006011  .uset    0, 6011         ;"$@  P)"
000744:  044000006014  .uset    0, 6014         ;"$@  P,"
000745:  044000006022  .uset    0, 6022         ;"$@  P2"
000746:  476000005117  setom    5117            ;"GP  I/"
000747:  254000001232  jrst     1232            ;"5@  *:"
000750:  271100001777  addi     2, 1777         ;"7)  /_"
000751:  350000007766  aos      0, 7766         ;"=   _V"
000752:  253100001166  aobjn    2, 1166         ;"59  )V"
000753:  205100777760  movsi    2, 777760       ;"0I __P"
000754:  540100005061  hrr      2, 5061         ;"L!  HQ"
000755:  402000007766  setzm    7766            ;"@0  _V"
000756:  200200005713  move     4, 5713         ;"0"  O+"
000757:  201640200011  movei    15, 200011      ;"0.@0 )"
000760:  260740003633  pushj    17, 3633        ;"6'@ >;"
000761:  256000005062  xct      5062            ;"5P  HR"
000762:  316040022020  camn     1, 22020        ;"9P@"00"
000763:  254000001227  jrst     1227            ;"5@  *7"
000764:  550300000002  hrrz     6, 2            ;"M#   ""
000765:  646272611664  trcn     5, @611664(12)  ;"TRZQ.T"
000766:  777742001217  conso    774, 1217(2)    ;"__B */"
000767:  274300005061  sub      6, 5061         ;"7C  HQ"
000770:  270300007767  add      6, 7767         ;"7#  _W"
000771:  040000006030  .iot     0, 6030         ;"$   P8"
000772:  044000006041  .uset    0, 6041         ;"$@  PA"
000773:  044000006044  .uset    0, 6044         ;"$@  PD"
000774:  044000006052  .uset    0, 6052         ;"$@  PJ"
000775:  476000005117  setom    5117            ;"GP  I/"
000776:  254000001232  jrst     1232            ;"5@  *:"
000777:  271100001777  addi     2, 1777         ;"7)  /_"
001000:  350000007766  aos      0, 7766         ;"=   _V"
001001:  253100001213  aobjn    2, 1213         ;"59  *+"
001002:  700040000001  datai    apr, 1          ;"X @  !"
001003:  603040100000  tlne     1, 100000       ;"P8@(  "
001004:  254000001070  jrst     1070            ;"5@  (X"
001005:  335000005117  skipge   0, 5117         ;";H  I/"
001006:  321040001070  jumpl    1, 1070         ;":(@ (X"
001007:  201040002000  movei    1, 2000         ;"0(@ 0 "
001010:  270040005061  add      1, 5061         ;"7 @ HQ"
001011:  405040777777  andi     1, 777777       ;"@H@___"
001012:  305040740000  caige    1, 740000       ;"8H@\  "
001013:  254000001247  jrst     1247            ;"5@  *G"
001014:  201040000020  movei    1, 20           ;"0(@  0"
001015:  336000005063  skipn    0, 5063         ;";P  HS"
001016:  201040400020  movei    1, 400020       ;"0(@@ 0"
001017:  202040005061  movem    1, 5061         ;"00@ HQ"
001020:  367440001070  sojg     11, 1070        ;">\@ (X"
001021:  335000005063  skipge   0, 5063         ;";H  HS"
001022:  254000001267  jrst     1267            ;"5@  *W"
001023:  476000005063  setom    5063            ;"GP  HS"
001024:  201040000020  movei    1, 20           ;"0(@  0"
001025:  534355667772  hrle     7, 667772(15)   ;"KCMV_Z"
001026:  777742001255  conso    774, 1255(2)    ;"__B *M"
001027:  202040005061  movem    1, 5061         ;"00@ HQ"
001030:  402000005075  setzm    5075            ;"@0  H]"
001031:  205040000004  movsi    1, 4            ;"0H@  $"
001032:  412040005072  andcam   1, 5072         ;"A0@ HZ"
001033:  200040006060  move     1, 6060         ;"0 @ PP"
001034:  202040005073  movem    1, 5073         ;"00@ H["
001035:  271040000100  addi     1, 100          ;"7(@ ! "
001036:  202040005074  movem    1, 5074         ;"00@ H\"
001037:  200040006061  move     1, 6061         ;"0 @ PQ"
001040:  254000001060  jrst     1060            ;"5@  (P"
001041:  264000003541  jsr      3541            ;"6@  =A"
001042:  700600001100  cono     pi, 1100        ;"X&  ) "
001043:  260740004166  pushj    17, 4166        ;"6'@ AV"
001044:  042000006062                           ;"$0  PR"
001045:  476000005063  setom    5063            ;"GP  HS"
001046:  205100777760  movsi    2, 777760       ;"0I __P"
001047:  201640000000  movei    15, 0           ;"0.@   " " :\0\0\0"
001050:  260740003637  pushj    17, 3637        ;"6'@ >?"
001051:  200040006070  move     1, 6070         ;"0 @ PX"
001052:  202040005073  movem    1, 5073         ;"00@ H["
001053:  476000003467  setom    3467            ;"GP  <W"
001054:  102100005067  xctr     2, 5067         ;"(1  HW"
001055:  201040000100  movei    1, 100          ;"0(@ ! "
001056:  200100000001  move     2, 1            ;"0!   !"
001057:  242100777766  lsh      2, 777766       ;"41 __V"
001060:  231100000002  idivi    2, 2            ;"3)   ""
001061:  135103001402  ldb      2, 1402(3)      ;"+I# ,""
001062:  103240006071  xctri    5, 6071         ;"(:@ PY"
001063:  254000001313  jrst     1313            ;"5@  ++"
001064:  254000001316  jrst     1316            ;"5@  +."
001065:  426554222142  setam    13, 222142(14)  ;"BUL21B" "EVb$1"
001066:  777742001313  conso    774, 1313(2)    ;"__B ++"
001067:  135140006072  ldb      3, 6072         ;"+I@ PZ"
001070:  040000006073  .iot     0, 6073         ;"$   P["
001071:  254000001363  jrst     1363            ;"5@  +S"
001072:  102040005036  xctr     1, 5036         ;"(0@ H>"
001073:  510140005041  hllz     3, 5041         ;"I!@ HA"
001074:  603140000010  tlne     3, 10           ;"P9@  ("
001075:  254000001326  jrst     1326            ;"5@  +6"
001076:  040000006106  .iot     0, 6106         ;"$   Q&"
001077:  260740004777  pushj    17, 4777        ;"6'@ G_"
001100:  260740004773  pushj    17, 4773        ;"6'@ G["
001101:  254000001363  jrst     1363            ;"5@  +S"
001102:  607140002762  tlnn     3, 2762         ;"PY@ 7R"
001103:  254000001334  jrst     1334            ;"5@  +<"
001104:  040000006116  .iot     0, 6116         ;"$   Q."
001105:  260740004777  pushj    17, 4777        ;"6'@ G_"
001106:  260740004773  pushj    17, 4773        ;"6'@ G["
001107:  254000001363  jrst     1363            ;"5@  +S"
001110:  260740001404  pushj    17, 1404        ;"6'@ ,$"
001111:  135140006072  ldb      3, 6072         ;"+I@ PZ"
001112:  316100000015  camn     2, 15           ;"9Q   -"
001113:  254000001342  jrst     1342            ;"5@  +B"
001114:  040000006126  .iot     0, 6126         ;"$   Q6"
001115:  254000001363  jrst     1363            ;"5@  +S"
001116:  271040002000  addi     1, 2000         ;"7(@ 0 "
001117:  305040040000  caige    1, 40000        ;"8H@$  "
001120:  254000001304  jrst     1304            ;"5@  +$"
001121:  352000003467  aose     0, 3467         ;"=0  <W"
001122:  254000001353  jrst     1353            ;"5@  +K"
001123:  205100777760  movsi    2, 777760       ;"0I __P"
001124:  201640001777  movei    15, 1777        ;"0.@ /_"
001125:  514354636224  hrlz     7, 636224(14)   ;"ICLSR4"
001126:  777742001351  conso    774, 1351(2)    ;"__B +I"
001127:  260740003633  pushj    17, 3633        ;"6'@ >;"
001130:  254000001302  jrst     1302            ;"5@  +""
001131:  350040005063  aos      1, 5063         ;"= @ HS"
001132:  303040000001  caile    1, 1            ;"88@  !"
001133:  254000001413  jrst     1413            ;"5@  ,+"
001134:  201100000020  movei    2, 20           ;"0)   0"
001135:  402000005076  setzm    5076            ;"@0  H^"
001136:  137101000346  dpb      2, 346(1)       ;"+Y! #F"
001137:  042021001411                           ;"$01 ,)"
001140:  254000001274  jrst     1274            ;"5@  *\"
001141:  044000006141  .uset    0, 6141         ;"$@  QA"
001142:  201100000100  movei    2, 100          ;"0)  ! "
001143:  102100005067  xctr     2, 5067         ;"(1  HW"
001144:  103240006144  xctri    5, 6144         ;"(:@ QD"
001145:  255000000000  nop                      ;"5H    " "+ \0\0\0"
001146:  311100000001  caml     2, 1            ;"9)   !"
001147:  254000001374  jrst     1374            ;"5@  +\"
001150:  271100002000  addi     2, 2000         ;"7)  0 "
001151:  254000001366  jrst     1366            ;"5@  +V"
001152:  712340000040  iord     7, 40           ;"Y3@  @"
001153:  254000001364  jrst     1364            ;"5@  +T"
001154:  260740004451  pushj    17, 4451        ;"6'@ DI"
001155:  302040000131  caie     1, 131          ;"80@ !9"
001156:  254000004261  jrst     4261            ;"5@  BQ"
001157:  254000001415  jrst     1415            ;"5@  ,-"
001160:  222202005120  imulm    4, 5120(2)      ;"22" I0"
001161:  002202005120                           ;" 2" I0"
001162:  135140006145  ldb      3, 6145         ;"+I@ QE"
001163:  135100006146  ldb      2, 6146         ;"+I  QF"
001164:  242140000005  lsh      3, 5            ;"41@  %"
001165:  501402532763                           ;"H,"K7S"
001166:  777742001407  conso    774, 1407(2)    ;"__B ,'"
001167:  434100000003  or       2, 3            ;"CA   #"
001170:  263740000000  popj     17,             ;"6?@   "
001171:  000000006147                           ;"    QG"
001172:  000000006155                           ;"    QM"
001173:  402000005076  setzm    5076            ;"@0  H^"
001174:  365440001272  sojge    11, 1272        ;">L@ *Z"
001175:  264000003541  jsr      3541            ;"6@  =A"
001176:  042000006163                           ;"$0  QS"
001177:  260740004166  pushj    17, 4166        ;"6'@ AV"
001200:  242440000003  lsh      11, 3           ;"44@  #"
001201:  200040000011  move     1, 11           ;"0 @  )"
001202:  137040000346  dpb      1, 346          ;"+X@ #F"
001203:  242040777773  lsh      1, 777773       ;"40@__["
001204:  137040000347  dpb      1, 347          ;"+X@ #G"
001205:  205100777777  movsi    2, 777777       ;"0I ___"
001206:  201640600010  movei    15, 600010      ;"0.@P ("
001207:  260740003633  pushj    17, 3633        ;"6'@ >;"
001210:  200040006175  move     1, 6175         ;"0 @ Q]"
001211:  202040005073  movem    1, 5073         ;"00@ H["
001212:  402000005074  setzm    5074            ;"@0  H\"
001213:  402000005075  setzm    5075            ;"@0  H]"
001214:  201040003720  movei    1, 3720         ;"0(@ ?0"
001215:  137040006176  dpb      1, 6176         ;"+X@ Q^"
001216:  102100005067  xctr     2, 5067         ;"(1  HW"
001217:  201040000017  movei    1, 17           ;"0(@  /"
001220:  202041003720  movem    1, 3720(1)      ;"00A ?0"
001221:  365040001440  sojge    1, 1440         ;">H@ ,@"
001222:  201100000017  movei    2, 17           ;"0)   /"
001223:  260740004156  pushj    17, 4156        ;"6'@ AN"
001224:  202040005065  movem    1, 5065         ;"00@ HU"
001225:  227351717405  mulb     7, 717405(11)   ;"2[IY\%"
001226:  777742001445  conso    774, 1445(2)    ;"__B ,E"
001227:  103040006177  xctri    1, 6177         ;"(8@ Q_"
001230:  334000000000  skipa    0, 0            ;";@    " "7\0\0\0\0"
001231:  254000003533  jrst     3533            ;"5@  =;"
001232:  312040005065  came     1, 5065         ;"90@ HU"
001233:  041000006200  .open    0, 6200         ;"$(  R "
001234:  312142003720  came     3, 3720(2)      ;"91B ?0"
001235:  041000006206  .open    0, 6206         ;"$(  R&"
001236:  365100001445  sojge    2, 1445         ;">I  ,E"
001237:  042000006222                           ;"$0  R2"
001240:  205700777763  movsi    16, 777763      ;"0O __S"
001241:  202716000000  movem    16, (16)        ;"07.   " " \\p\0\0"
001242:  476016020100  setom    20100(16)       ;"GP."! " "O@p  "
001243:  212716003720  movnm    16, 3720(16)    ;"17. ?0"
001244:  253700001457  aobjn    16, 1457        ;"5?  ,O"
001245:  403700003467  setzb    16, 3467        ;"@?  <W"
001246:  137700006227  dpb      16, 6227        ;"+_  R7"
001247:  137700006230  dpb      16, 6230        ;"+_  R8"
001250:  507000000016  hrls     0, 16           ;"HX   ."
001251:  271700000100  addi     16, 100         ;"7/  ! "
001252:  103100006231  xctri    2, 6231         ;"(9  R9"
001253:  334000000000  skipa    0, 0            ;";@    " "7\0\0\0\0"
001254:  040020003524  .iot     0, @3524        ;"$ 0 =4"
001255:  256000003470  xct      3470            ;"5P  <X"
001256:  254000003471  jrst     3471            ;"5@  <Y"
001257:  201700000001  movei    16, 1           ;"0/   !"
001260:  273700003467  addb     16, 3467        ;"7?  <W"
001261:  305700000016  caige    16, 16          ;"8O   ."
001262:  254000001464  jrst     1464            ;"5@  ,T"
001263:  042000006232                           ;"$0  R:"
001264:  201000000000  movei    0, 0            ;"0(    " "  \0\0\0"
001265:  006566261046                           ;" UV6(F"
001266:  777742001503  conso    774, 1503(2)    ;"__B -#"
001267:  201700000001  movei    16, 1           ;"0/   !"
001270:  251700000015  blt      16, 15          ;"5/   -"
001271:  403700003467  setzb    16, 3467        ;"@?  <W"
001272:  137700006227  dpb      16, 6227        ;"+_  R7"
001273:  137700006230  dpb      16, 6230        ;"+_  R8"
001274:  505716000100  hrli     16, 100(16)     ;"HO. ! "
001275:  103040006231  xctri    1, 6231         ;"(8@ R9"
001276:  334000000000  skipa    0, 0            ;";@    " "7\0\0\0\0"
001277:  040020003524  .iot     0, @3524        ;"$ 0 =4"
001300:  256000003470  xct      3470            ;"5P  <X"
001301:  254000003472  jrst     3472            ;"5@  <Z"
001302:  201700000001  movei    16, 1           ;"0/   !"
001303:  273700003467  addb     16, 3467        ;"7?  <W"
001304:  305700000016  caige    16, 16          ;"8O   ."
001305:  254000001506  jrst     1506            ;"5@  -&"
001306:  042000006237                           ;"$0  R?"
001307:  201700020100  movei    16, 20100       ;"0/ "! "
001310:  202716000000  movem    16, (16)        ;"07.   " " \\p\0\0"
001311:  476016000100  setom    100(16)         ;"GP. ! "
001312:  305700020177  caige    16, 20177       ;"8O "!_"
001313:  344700001524  aoja     16, 1524        ;"<G  -4"
001314:  403700003467  setzb    16, 3467        ;"@?  <W"
001315:  505656000100  hrli     15, 100(16)     ;"HNN ! "
001316:  541656000200  hrri     15, 200(16)     ;"L.N " "
001317:  103140006244  xctri    3, 6244         ;"(9@ RD"
001320:  334000000000  skipa    0, 0            ;";@    " "7\0\0\0\0"
001321:  040020003524  .iot     0, @3524        ;"$ 0 =4"
001322:  200056020100  move     1, 20100(16)    ;"0 N"! "
001323:  200116020200  move     2, 20200(16)    ;"0!."" "
001324:  312040000002  came     1, 2            ;"90@  ""
001325:  005432256556                           ;" L:5UN"
001326:  777742001541  conso    774, 1541(2)    ;"__B -A"
001327:  254000003502  jrst     3502            ;"5@  =""
001330:  201700000001  movei    16, 1           ;"0/   !"
001331:  273700003467  addb     16, 3467        ;"7?  <W"
001332:  305700000100  caige    16, 100         ;"8O  ! "
001333:  254000001531  jrst     1531            ;"5@  -9"
001334:  476000005063  setom    5063            ;"GP  HS"
001335:  200040005063  move     1, 5063         ;"0 @ HS"
001336:  042021003526                           ;"$01 =6"
001337:  200040006246  move     1, 6246         ;"0 @ RF"
001340:  202040005075  movem    1, 5075         ;"00@ H]"
001341:  205040000004  movsi    1, 4            ;"0H@  $"
001342:  436040005072  orm      1, 5072         ;"CP@ HZ"
001343:  102100005067  xctr     2, 5067         ;"(1  HW"
001344:  201700020100  movei    16, 20100       ;"0/ "! "
001345:  202716000000  movem    16, (16)        ;"07.   " " \\p\0\0"
001346:  476016002000  setom    2000(16)        ;"GP. 0 "
001347:  305700020177  caige    16, 20177       ;"8O "!_"
001350:  344700001557  aoja     16, 1557        ;"<G  -O"
001351:  200040006247  move     1, 6247         ;"0 @ RG"
001352:  331000005063  skipl    0, 5063         ;";(  HS"
001353:  254000003506  jrst     3506            ;"5@  =&"
001354:  103000006250  xctri    0, 6250         ;"(8  RH"
001355:  334000000000  skipa    0, 0            ;";@    " "7\0\0\0\0"
001356:  040020003524  .iot     0, @3524        ;"$ 0 =4"
001357:  201700000100  movei    16, 100         ;"0/  ! "
001360:  200056020000  move     1, 20000(16)    ;"0 N"  "
001361:  200116022000  move     2, 22000(16)    ;"0!."0 "
001362:  312040000002  came     1, 2            ;"90@  ""
001363:  254000003527  jrst     3527            ;"5@  =7"
001364:  305700000177  caige    16, 177         ;"8O  !_"
001365:  403213722367  setzb    4, 722367(13)   ;"@:+Z3W"
001366:  777742001577  conso    774, 1577(2)    ;"__B -_"
001367:  344700001572  aoja     16, 1572        ;"<G  -Z"
001370:  357000005063  aosg     0, 5063         ;"=X  HS"
001371:  254000001547  jrst     1547            ;"5@  -G"
001372:  402000005075  setzm    5075            ;"@0  H]"
001373:  205040000004  movsi    1, 4            ;"0H@  $"
001374:  412040005072  andcam   1, 5072         ;"A0@ HZ"
001375:  102100005067  xctr     2, 5067         ;"(1  HW"
001376:  042000006251                           ;"$0  RI"
001377:  200040006257  move     1, 6257         ;"0 @ RO"
001400:  251040003724  blt      1, 3724         ;"5(@ ?4"
001401:  260740004156  pushj    17, 4156        ;"6'@ AN"
001402:  202040020100  movem    1, 20100        ;"00@"! "
001403:  202040003467  movem    1, 3467         ;"00@ <W"
001404:  205700003517  movsi    16, 3517        ;"0O  =/"
001405:  251700000004  blt      16, 4           ;"5/   $"
001406:  103040006260  xctri    1, 6260         ;"(8@ RP"
001407:  334000000000  skipa    0, 0            ;";@    " "7\0\0\0\0"
001410:  040020003524  .iot     0, @3524        ;"$ 0 =4"
001411:  200640003467  move     15, 3467        ;"0&@ <W"
001412:  312700000015  came     16, 15          ;"97   -"
001413:  040000006261  .iot     0, 6261         ;"$   RQ"
001414:  042000006271                           ;"$0  RY"
001415:  476000000037  setom    37              ;"GP   ?"
001416:  260740004156  pushj    17, 4156        ;"6'@ AN"
001417:  202040003467  movem    1, 3467         ;"00@ <W"
001420:  202040020037  movem    1, 20037        ;"00@" ?"
001421:  201040000000  movei    1, 0            ;"0(@   " " \"\0\0\0"
001422:  103140006277  xctri    3, 6277         ;"(9@ R_"
001423:  334000000000  skipa    0, 0            ;";@    " "7\0\0\0\0"
001424:  040020003524  .iot     0, @3524        ;"$ 0 =4"
001425:  213172430274  movns    3, @430274(12)  ;"19ZC"\" "\"gT0^"
001426:  777742001635  conso    774, 1635(2)    ;"__B .="
001427:  312040003467  came     1, 3467         ;"90@ <W"
001430:  040000006300  .iot     0, 6300         ;"$   S "
001431:  042000006306                           ;"$0  S&"
001432:  402000000037  setzm    37              ;"@0   ?"
001433:  200040006311  move     1, 6311         ;"0 @ S)"
001434:  202040020037  movem    1, 20037        ;"00@" ?"
001435:  260740004156  pushj    17, 4156        ;"6'@ AN"
001436:  202040020100  movem    1, 20100        ;"00@"! "
001437:  135100006312  ldb      2, 6312         ;"+I  S*"
001440:  103040006313  xctri    1, 6313         ;"(8@ S+"
001441:  334000000000  skipa    0, 0            ;";@    " "7\0\0\0\0"
001442:  040020003524  .iot     0, @3524        ;"$ 0 =4"
001443:  312040000002  came     1, 2            ;"90@  ""
001444:  040000006314  .iot     0, 6314         ;"$   S,"
001445:  042000006325                           ;"$0  S5"
001446:  200040006246  move     1, 6246         ;"0 @ RF"
001447:  202040005075  movem    1, 5075         ;"00@ H]"
001450:  200040006332  move     1, 6332         ;"0 @ S:"
001451:  202040005073  movem    1, 5073         ;"00@ H["
001452:  205040000004  movsi    1, 4            ;"0H@  $"
001453:  436040005072  orm      1, 5072         ;"CP@ HZ"
001454:  102100005067  xctr     2, 5067         ;"(1  HW"
001455:  200040006333  move     1, 6333         ;"0 @ S;"
001456:  202041020000  movem    1, 20000(1)     ;"00A"  "
001457:  476001022000  setom    22000(1)        ;"GP!"0 "
001460:  253040001664  aobjn    1, 1664         ;"58@ .T"
001461:  200040006334  move     1, 6334         ;"0 @ S<"
001462:  103040006250  xctri    1, 6250         ;"(8@ RH"
001463:  334000000000  skipa    0, 0            ;";@    " "7\0\0\0\0"
001464:  040020003524  .iot     0, @3524        ;"$ 0 =4"
001465:  423450524170  andcmb   11, 524170(10)  ;"B<HJAX" "DrE(<"
001466:  777742001673  conso    774, 1673(2)    ;"__B .["
001467:  200040006333  move     1, 6333         ;"0 @ S;"
001470:  200101020000  move     2, 20000(1)     ;"0!!"  "
001471:  200141022000  move     3, 22000(1)     ;"0!A"0 "
001472:  201201400000  movei    4, 400000(1)    ;"0*!@  " " (\f\0\0"
001473:  312100000003  came     2, 3            ;"91   #"
001474:  040000006335  .iot     0, 6335         ;"$   S="
001475:  253040001674  aobjn    1, 1674         ;"58@ .\"
001476:  200040006344  move     1, 6344         ;"0 @ SD"
001477:  202041022000  movem    1, 22000(1)     ;"00A"0 "
001500:  476001020000  setom    20000(1)        ;"GP!"  "
001501:  253040001703  aobjn    1, 1703         ;"58@ /#"
001502:  200040006345  move     1, 6345         ;"0 @ SE"
001503:  103100006346  xctri    2, 6346         ;"(9  SF"
001504:  334000000000  skipa    0, 0            ;";@    " "7\0\0\0\0"
001505:  040020003524  .iot     0, @3524        ;"$ 0 =4"
001506:  200040006344  move     1, 6344         ;"0 @ SD"
001507:  200101022000  move     2, 22000(1)     ;"0!!"0 "
001510:  200141020000  move     3, 20000(1)     ;"0!A"  "
001511:  201201400000  movei    4, 400000(1)    ;"0*!@  " " (\f\0\0"
001512:  312100000003  came     2, 3            ;"91   #"
001513:  040000006347  .iot     0, 6347         ;"$   SG"
001514:  253040001713  aobjn    1, 1713         ;"58@ /+"
001515:  367440001421  sojg     11, 1421        ;">\@ ,1"
001516:  264000003541  jsr      3541            ;"6@  =A"
001517:  260740004166  pushj    17, 4166        ;"6'@ AV"
001520:  242440777775  lsh      11, 777775      ;"44@__]"
001521:  201640200010  movei    15, 200010      ;"0.@0 ("
001522:  205100777400  movsi    2, 777400       ;"0I _\ "
001523:  260740003633  pushj    17, 3633        ;"6'@ >;"
001524:  201500000000  movei    12, 0           ;"0-    " " 4\0\0\0"
001525:  053670767734                           ;"%>X^_<" "\n{Gon"
001526:  777742001731  conso    774, 1731(2)    ;"__B /9"
001527:  476000005063  setom    5063            ;"GP  HS"
001530:  200040006060  move     1, 6060         ;"0 @ PP"
001531:  202040005073  movem    1, 5073         ;"00@ H["
001532:  271040000100  addi     1, 100          ;"7(@ ! "
001533:  202040005074  movem    1, 5074         ;"00@ H\"
001534:  402000005075  setzm    5075            ;"@0  H]"
001535:  402000005066  setzm    5066            ;"@0  HV"
001536:  260740004156  pushj    17, 4156        ;"6'@ AN"
001537:  202040005065  movem    1, 5065         ;"00@ HU"
001540:  202040020105  movem    1, 20105        ;"00@"!%"
001541:  205040000004  movsi    1, 4            ;"0H@  $"
001542:  336000005063  skipn    0, 5063         ;";P  HS"
001543:  436040005072  orm      1, 5072         ;"CP@ HZ"
001544:  332000005063  skipe    0, 5063         ;";0  HS"
001545:  412040005072  andcam   1, 5072         ;"A0@ HZ"
001546:  200040005066  move     1, 5066         ;"0 @ HV"
001547:  332000005063  skipe    0, 5063         ;";0  HS"
001550:  660040000020  tro      1, 20           ;"V @  0"
001551:  137052000346  dpb      1, 346(12)      ;"+XJ #F"
001552:  242040000016  lsh      1, 16           ;"40@  ."
001553:  505040777760  hrli     1, 777760       ;"HH@__P"
001554:  102100005067  xctr     2, 5067         ;"(1  HW"
001555:  332000005063  skipe    0, 5063         ;";0  HS"
001556:  103040006356  xctri    1, 6356         ;"(8@ SN"
001557:  331000005063  skipl    0, 5063         ;";(  HS"
001560:  200101000105  move     2, 105(1)       ;"0!! !%"
001561:  312100020105  came     2, 20105        ;"91 "!%"
001562:  041000006357  .open    0, 6357         ;"$(  SO"
001563:  102040005036  xctr     1, 5036         ;"(0@ H>"
001564:  135100006362  ldb      2, 6362         ;"+I  SR"
001565:  113443130102                           ;")<C+!""
001566:  777742001767  conso    774, 1767(2)    ;"__B /W"
001567:  322100001772  jumpe    2, 1772         ;":1  /Z"
001570:  200140005066  move     3, 5066         ;"0!@ HV"
001571:  040032003463  .iot     0, @3463(12)    ;"$ : <S"
001572:  271040001777  addi     1, 1777         ;"7(@ /_"
001573:  253040001756  aobjn    1, 1756         ;"58@ /N"
001574:  350040005066  aos      1, 5066         ;"= @ HV"
001575:  305040000020  caige    1, 20           ;"8H@  0"
001576:  254000001743  jrst     1743            ;"5@  /C"
001577:  352000005063  aose     0, 5063         ;"=0  HS"
001600:  254000002010  jrst     2010            ;"5@  0("
001601:  402000005073  setzm    5073            ;"@0  H["
001602:  402000005074  setzm    5074            ;"@0  H\"
001603:  200040006060  move     1, 6060         ;"0 @ PP"
001604:  202040005075  movem    1, 5075         ;"00@ H]"
001605:  201040000010  movei    1, 10           ;"0(@  ("
001606:  202040005066  movem    1, 5066         ;"00@ HV"
001607:  254000001743  jrst     1743            ;"5@  /C"
001610:  305500000001  caige    12, 1           ;"8M   !"
001611:  344500001731  aoja     12, 1731        ;"<E  /9"
001612:  365440001730  sojge    11, 1730        ;">L@ /8"
001613:  264000003541  jsr      3541            ;"6@  =A"
001614:  260740004166  pushj    17, 4166        ;"6'@ AV"
001615:  242440000003  lsh      11, 3           ;"44@  #"
001616:  042000006363                           ;"$0  SS"
001617:  200040000011  move     1, 11           ;"0 @  )"
001620:  137040000346  dpb      1, 346          ;"+X@ #F"
001621:  242040777773  lsh      1, 777773       ;"40@__["
001622:  137040000347  dpb      1, 347          ;"+X@ #G"
001623:  402000005026  setzm    5026            ;"@0  H6"
001624:  200040006371  move     1, 6371         ;"0 @ SY"
001625:  346031455316  aojn     0, @455316(11)  ;"<P9EK." "9ALZg"
001626:  777742002025  conso    774, 2025(2)    ;"__B 05"
001627:  251040005035  blt      1, 5035         ;"5(@ H="
001630:  205040000001  movsi    1, 1            ;"0H@  !"
001631:  202040005031  movem    1, 5031         ;"00@ H9"
001632:  043000002033  .call    2033            ;"$8  0;"
001633:  102300005026  xctr     6, 5026         ;"(3  H6"
001634:  040000006372  .iot     0, 6372         ;"$   SZ"
001635:  205040000001  movsi    1, 1            ;"0H@  !"
001636:  412040004726  andcam   1, 4726         ;"A0@ G6"
001637:  205040777770  movsi    1, 777770       ;"0H@__X"
001640:  200101004723  move     2, 4723(1)      ;"0!! G3"
001641:  200140000002  move     3, 2            ;"0!@  ""
001642:  404101005046  and      2, 5046(1)      ;"@A! HF"
001643:  332000000002  skipe    0, 2            ;";0   ""
001644:  040000006377  .iot     0, 6377         ;"$   S_"
001645:  253040002036  aobjn    1, 2036         ;"58@ 0>"
001646:  264000004713  jsr      4713            ;"6@  G+"
001647:  042000006405                           ;"$0  T%"
001650:  402000005074  setzm    5074            ;"@0  H\"
001651:  402000005075  setzm    5075            ;"@0  H]"
001652:  205040000004  movsi    1, 4            ;"0H@  $"
001653:  412040005072  andcam   1, 5072         ;"A0@ HZ"
001654:  402000005120  setzm    5120            ;"@0  I0"
001655:  200040005712  move     1, 5712         ;"0 @ O*"
001656:  251040005317  blt      1, 5317         ;"5(@ K/"
001657:  200040006060  move     1, 6060         ;"0 @ PP"
001660:  202040005073  movem    1, 5073         ;"00@ H["
001661:  102100005067  xctr     2, 5067         ;"(1  HW"
001662:  201040000020  movei    1, 20           ;"0(@  0"
001663:  043000002064  .call    2064            ;"$8  0T"
001664:  103040006411  xctri    1, 6411         ;"(8@ T)"
001665:  505470004047  hrli     11, @4047(10)   ;"HLX @G"
001666:  777742002063  conso    774, 2063(2)    ;"__B 0S"
001667:  040000006412  .iot     0, 6412         ;"$   T*"
001670:  554100004726  hlrz     2, 4726         ;"MA  G6"
001671:  620100000005  trz      2, 5            ;"R!   %"
001672:  135140006417  ldb      3, 6417         ;"+I@ T/"
001673:  554200004726  hlrz     4, 4726         ;"MB  G6"
001674:  302100001010  caie     2, 1010         ;"81  (("
001675:  040000006420  .iot     0, 6420         ;"$   T0"
001676:  135240006431  ldb      5, 6431         ;"+J@ T9"
001677:  135140006072  ldb      3, 6072         ;"+I@ PZ"
001700:  660140000400  tro      3, 400          ;"V!@ $ "
001701:  312240000003  came     5, 3            ;"92@  #"
001702:  040000006432  .iot     0, 6432         ;"$   T:"
001703:  205100001010  movsi    2, 1010         ;"0I  (("
001704:  412100004726  andcam   2, 4726         ;"A1  G6"
001705:  102000004723  xctr     0, 4723         ;"(0  G3"
001706:  264000004713  jsr      4713            ;"6@  G+"
001707:  271040002000  addi     1, 2000         ;"7(@ 0 "
001710:  305040040020  caige    1, 40020        ;"8H@$ 0"
001711:  254000002061  jrst     2061            ;"5@  0Q"
001712:  042000006443                           ;"$0  TC"
001713:  043000002112  .call    2112            ;"$8  1*"
001714:  103040006447  xctri    1, 6447         ;"(8@ TG"
001715:  040000006450  .iot     0, 6450         ;"$   TH"
001716:  554100004726  hlrz     2, 4726         ;"MA  G6"
001717:  200200000002  move     4, 2            ;"0"   ""
001720:  620100000005  trz      2, 5            ;"R!   %"
001721:  302100001200  caie     2, 1200         ;"81  * "
001722:  040000006455  .iot     0, 6455         ;"$   TM"
001723:  135240006431  ldb      5, 6431         ;"+J@ T9"
001724:  302240000777  caie     5, 777          ;"82@ '_"
001725:  132470275406  fsc      11, @275406(10) ;"+4X7L&"
001726:  777742002121  conso    774, 2121(2)    ;"__B 11"
001727:  040000006462  .iot     0, 6462         ;"$   TR"
001730:  205100001200  movsi    2, 1200         ;"0I  * "
001731:  412100004726  andcam   2, 4726         ;"A1  G6"
001732:  102000004723  xctr     0, 4723         ;"(0  G3"
001733:  264000004713  jsr      4713            ;"6@  G+"
001734:  042000006474                           ;"$0  T\"
001735:  205100777777  movsi    2, 777777       ;"0I ___"
001736:  201640200010  movei    15, 200010      ;"0.@0 ("
001737:  260740003633  pushj    17, 3633        ;"6'@ >;"
001740:  102100005067  xctr     2, 5067         ;"(1  HW"
001741:  043000002136  .call    2136            ;"$8  1>"
001742:  103100006501  xctri    2, 6501         ;"(9  U!"
001743:  040000006502  .iot     0, 6502         ;"$   U""
001744:  554040004726  hlrz     1, 4726         ;"M@@ G6"
001745:  200200000001  move     4, 1            ;"0"   !"
001746:  620040000005  trz      1, 5            ;"R @  %"
001747:  302040001100  caie     1, 1100         ;"80@ ) "
001750:  040020002116  .iot     0, @2116        ;"$ 0 1."
001751:  205100001100  movsi    2, 1100         ;"0I  ) "
001752:  412100004726  andcam   2, 4726         ;"A1  G6"
001753:  102000004723  xctr     0, 4723         ;"(0  G3"
001754:  264000004713  jsr      4713            ;"6@  G+"
001755:  042000006507                           ;"$0  U'"
001756:  205100777777  movsi    2, 777777       ;"0I ___"
001757:  201640400010  movei    15, 400010      ;"0.@@ ("
001760:  260740003633  pushj    17, 3633        ;"6'@ >;"
001761:  102100005067  xctr     2, 5067         ;"(1  HW"
001762:  043000002157  .call    2157            ;"$8  1O"
001763:  103100006501  xctri    2, 6501         ;"(9  U!"
001764:  040000006515  .iot     0, 6515         ;"$   U-"
001765:  105227675345                           ;"(J7WKE"
001766:  777742002157  conso    774, 2157(2)    ;"__B 1O"
001767:  554040004726  hlrz     1, 4726         ;"M@@ G6"
001770:  200200000001  move     4, 1            ;"0"   !"
001771:  620040000005  trz      1, 5            ;"R @  %"
001772:  302040001040  caie     1, 1040         ;"80@ (@"
001773:  040020002116  .iot     0, @2116        ;"$ 0 1."
001774:  205100001040  movsi    2, 1040         ;"0I  (@"
001775:  412100004726  andcam   2, 4726         ;"A1  G6"
001776:  102000004723  xctr     0, 4723         ;"(0  G3"
001777:  264000004713  jsr      4713            ;"6@  G+"
002000:  042000006522                           ;"$0  U2"
002001:  560040005057  hrro     1, 5057         ;"N @ HO"
002002:  342040002232  aoje     1, 2232         ;"<0@ 2:"
002003:  505040000002  hrli     1, 2            ;"HH@  ""
002004:  202040005074  movem    1, 5074         ;"00@ H\"
002005:  102100005067  xctr     2, 5067         ;"(1  HW"
002006:  043000002201  .call    2201            ;"$8  2!"
002007:  103040006525  xctri    1, 6525         ;"(8@ U5"
002010:  040000006526  .iot     0, 6526         ;"$   U6"
002011:  554040004726  hlrz     1, 4726         ;"M@@ G6"
002012:  200200000001  move     4, 1            ;"0"   !"
002013:  620040000005  trz      1, 5            ;"R @  %"
002014:  302040000400  caie     1, 400          ;"80@ $ "
002015:  040020002116  .iot     0, @2116        ;"$ 0 1."
002016:  700340010000  conso    apr, 10000      ;"X#@!  "
002017:  040000006533  .iot     0, 6533         ;"$   U;"
002020:  700200010001  cono     apr, 10001      ;"X" ! !"
002021:  264000004713  jsr      4713            ;"6@  G+"
002022:  402000005074  setzm    5074            ;"@0  H\"
002023:  402000005075  setzm    5075            ;"@0  H]"
002024:  205040000004  movsi    1, 4            ;"0H@  $"
002025:  207455027224  movss    11, 27224(15)   ;"0\M"Z4" "!rh.J"
002026:  777742002215  conso    774, 2215(2)    ;"__B 2-"
002027:  412040005072  andcam   1, 5072         ;"A0@ HZ"
002030:  102100005067  xctr     2, 5067         ;"(1  HW"
002031:  560040005057  hrro     1, 5057         ;"N @ HO"
002032:  342040002232  aoje     1, 2232         ;"<0@ 2:"
002033:  043000002224  .call    2224            ;"$8  24"
002034:  102041000000  xctr     1, (1)          ;"(0A   "
002035:  040000006544  .iot     0, 6544         ;"$   UD"
002036:  554040004726  hlrz     1, 4726         ;"M@@ G6"
002037:  200200000001  move     4, 1            ;"0"   !"
002040:  620040000005  trz      1, 5            ;"R @  %"
002041:  302040000400  caie     1, 400          ;"80@ $ "
002042:  040020002116  .iot     0, @2116        ;"$ 0 1."
002043:  264000004713  jsr      4713            ;"6@  G+"
002044:  042000006551                           ;"$0  UI"
002045:  102100005067  xctr     2, 5067         ;"(1  HW"
002046:  254120006555  jrstf    @6555           ;"5A0 UM"
002047:  265040002236  jsp      1, 2236         ;"6H@ 2>"
002050:  607040002000  tlnn     1, 2000         ;"PX@ 0 "
002051:  040000006556  .iot     0, 6556         ;"$   UN"
002052:  200040006565  move     1, 6565         ;"0 @ UU"
002053:  202040000046  movem    1, 46           ;"00@  F"
002054:  700600006220  cono     pi, 6220        ;"X&  R0"
002055:  254200002243  halt     2243            ;"5B  2C"
002056:  000000000000                           ;"      "
002057:  254400002246  jrst     10, 2246        ;"5D  2F"
002060:  700600001020  cono     pi, 1020        ;"X&  (0"
002061:  200040002244  move     1, 2244         ;"0 @ 2D"
002062:  607040002000  tlnn     1, 2000         ;"PX@ 0 "
002063:  040000006566  .iot     0, 6566         ;"$   UV"
002064:  265040002253  jsp      1, 2253         ;"6H@ 2K"
002065:  600465703755  trn      11, @703755(5)  ;"P$UX?M"
002066:  777742002253  conso    774, 2253(2)    ;"__B 2K"
002067:  603040002000  tlne     1, 2000         ;"P8@ 0 "
002070:  040000006577  .iot     0, 6577         ;"$   U_"
002071:  402000005074  setzm    5074            ;"@0  H\"
002072:  200040006607  move     1, 6607         ;"0 @ V'"
002073:  202040005073  movem    1, 5073         ;"00@ H["
002074:  200040006610  move     1, 6610         ;"0 @ V("
002075:  202040020100  movem    1, 20100        ;"00@"! "
002076:  200040006611  move     1, 6611         ;"0 @ V)"
002077:  202040020101  movem    1, 20101        ;"00@"!!"
002100:  200040006620  move     1, 6620         ;"0 @ V0"
002101:  202040020102  movem    1, 20102        ;"00@"!""
002102:  202040020103  movem    1, 20103        ;"00@"!#"
002103:  102100005067  xctr     2, 5067         ;"(1  HW"
002104:  201040000144  movei    1, 144          ;"0(@ !D"
002105:  043000002273  .call    2273            ;"$8  2["
002106:  254120006621  jrstf    @6621           ;"5A0 V1"
002107:  554100004726  hlrz     2, 4726         ;"MA  G6"
002110:  620100000005  trz      2, 5            ;"R!   %"
002111:  302100001200  caie     2, 1200         ;"81  * "
002112:  040020002116  .iot     0, @2116        ;"$ 0 1."
002113:  550100004724  hrrz     2, 4724         ;"M!  G4"
002114:  302100000101  caie     2, 101          ;"81  !!"
002115:  040000006622  .iot     0, 6622         ;"$   V2"
002116:  264000004713  jsr      4713            ;"6@  G+"
002117:  200040006633  move     1, 6633         ;"0 @ V;"
002120:  202040005073  movem    1, 5073         ;"00@ H["
002121:  102100005067  xctr     2, 5067         ;"(1  HW"
002122:  201040000144  movei    1, 144          ;"0(@ !D"
002123:  043000002311  .call    2311            ;"$8  3)"
002124:  254120006621  jrstf    @6621           ;"5A0 V1"
002125:  207640310255  movss    15, 310255      ;"0^@9"M"
002126:  777742002311  conso    774, 2311(2)    ;"__B 3)"
002127:  554100004726  hlrz     2, 4726         ;"MA  G6"
002130:  620100000005  trz      2, 5            ;"R!   %"
002131:  302100001020  caie     2, 1020         ;"81  (0"
002132:  040020002116  .iot     0, @2116        ;"$ 0 1."
002133:  550100004724  hrrz     2, 4724         ;"M!  G4"
002134:  302100000100  caie     2, 100          ;"81  ! "
002135:  040020002301  .iot     0, @2301        ;"$ 0 3!"
002136:  264000004713  jsr      4713            ;"6@  G+"
002137:  200040006332  move     1, 6332         ;"0 @ S:"
002140:  202040005073  movem    1, 5073         ;"00@ H["
002141:  102100005067  xctr     2, 5067         ;"(1  HW"
002142:  201040023420  movei    1, 23420        ;"0(@"<0"
002143:  043000002327  .call    2327            ;"$8  37"
002144:  254120006621  jrstf    @6621           ;"5A0 V1"
002145:  554100004726  hlrz     2, 4726         ;"MA  G6"
002146:  620100000005  trz      2, 5            ;"R!   %"
002147:  302100001020  caie     2, 1020         ;"81  (0"
002150:  040020002116  .iot     0, @2116        ;"$ 0 1."
002151:  550100004724  hrrz     2, 4724         ;"M!  G4"
002152:  302100000100  caie     2, 100          ;"81  ! "
002153:  040020002301  .iot     0, @2301        ;"$ 0 3!"
002154:  264000004713  jsr      4713            ;"6@  G+"
002155:  365440002232  sojge    11, 2232        ;">L@ 2:"
002156:  264000003541  jsr      3541            ;"6@  =A"
002157:  260740004166  pushj    17, 4166        ;"6'@ AV"
002160:  242440777772  lsh      11, 777772      ;"44@__Z"
002161:  202440007770  movem    11, 7770        ;"04@ _X"
002162:  200040006060  move     1, 6060         ;"0 @ PP"
002163:  202040005073  movem    1, 5073         ;"00@ H["
002164:  200040005710  move     1, 5710         ;"0 @ O("
002165:  440440562711  andcb    11, 562711      ;"D$@N7)"
002166:  777742002347  conso    774, 2347(2)    ;"__B 3G"
002167:  202040005074  movem    1, 5074         ;"00@ H\"
002170:  402000005075  setzm    5075            ;"@0  H]"
002171:  205040000004  movsi    1, 4            ;"0H@  $"
002172:  412040005072  andcam   1, 5072         ;"A0@ HZ"
002173:  402000005120  setzm    5120            ;"@0  I0"
002174:  200040005712  move     1, 5712         ;"0 @ O*"
002175:  251040005317  blt      1, 5317         ;"5(@ K/"
002176:  102100005067  xctr     2, 5067         ;"(1  HW"
002177:  042000006634                           ;"$0  V<"
002200:  201040000037  movei    1, 37           ;"0(@  ?"
002201:  200100000001  move     2, 1            ;"0!   !"
002202:  505100010000  hrli     2, 10000        ;"HI !  "
002203:  043000002365  .call    2365            ;"$8  3U"
002204:  254120000002  jrstf    @2              ;"5A0  ""
002205:  550100004724  hrrz     2, 4724         ;"M!  G4"
002206:  312100000001  came     2, 1            ;"91   !"
002207:  040000006637  .iot     0, 6637         ;"$   V?"
002210:  264000004713  jsr      4713            ;"6@  G+"
002211:  242040000001  lsh      1, 1            ;"40@  !"
002212:  660040000001  tro      1, 1            ;"V @  !"
002213:  607040000001  tlnn     1, 1            ;"PX@  !"
002214:  254000002361  jrst     2361            ;"5@  3Q"
002215:  042000006647                           ;"$0  VG"
002216:  201040000040  movei    1, 40           ;"0(@  @"
002217:  504100000001  hrl      2, 1            ;"HA   !"
002220:  541100000100  hrri     2, 100          ;"L)  ! "
002221:  661100010000  tlo      2, 10000        ;"V) !  "
002222:  043000002404  .call    2404            ;"$8  4$"
002223:  254120000002  jrstf    @2              ;"5A0  ""
002224:  554100004724  hlrz     2, 4724         ;"MA  G4"
002225:  247314276312                           ;"4[,7S*" ")lb|e"
002226:  777742002405  conso    774, 2405(2)    ;"__B 4%"
002227:  242100000005  lsh      2, 5            ;"41   %"
002230:  405100776540  andi     2, 776540       ;"@I _U@"
002231:  200140000001  move     3, 1            ;"0!@  !"
002232:  405140776540  andi     3, 776540       ;"@I@_U@"
002233:  660140010000  tro      3, 10000        ;"V!@!  "
002234:  312100000003  came     2, 3            ;"91   #"
002235:  040000006653  .iot     0, 6653         ;"$   VK"
002236:  264000004713  jsr      4713            ;"6@  G+"
002237:  242040000001  lsh      1, 1            ;"40@  !"
002240:  607040000001  tlnn     1, 1            ;"PX@  !"
002241:  254000002377  jrst     2377            ;"5@  3_"
002242:  042000006662                           ;"$0  VR"
002243:  201640600010  movei    15, 600010      ;"0.@P ("
002244:  205100777777  movsi    2, 777777       ;"0I ___"
002245:  260740003633  pushj    17, 3633        ;"6'@ >;"
002246:  102100005067  xctr     2, 5067         ;"(1  HW"
002247:  200040006666  move     1, 6666         ;"0 @ VV"
002250:  202040020100  movem    1, 20100        ;"00@"! "
002251:  200040006611  move     1, 6611         ;"0 @ V)"
002252:  202040020101  movem    1, 20101        ;"00@"!!"
002253:  201040400000  movei    1, 400000       ;"0(@@  "
002254:  202040020110  movem    1, 20110        ;"00@"!("
002255:  043000002435  .call    2435            ;"$8  4="
002256:  254040000100  portal   100             ;"5@@ ! "
002257:  550040004724  hrrz     1, 4724         ;"M @ G4"
002260:  302040000100  caie     1, 100          ;"80@ ! "
002261:  040000006667  .iot     0, 6667         ;"$   VW"
002262:  554040004724  hlrz     1, 4724         ;"M@@ G4"
002263:  242040000005  lsh      1, 5            ;"40@  %"
002264:  606040020000  trnn     1, 20000        ;"PP@"  "
002265:  472320074570  orcbm    6, @74570       ;"G30'EX"
002266:  777742002443  conso    774, 2443(2)    ;"__B 4C"
002267:  040000006677  .iot     0, 6677         ;"$   V_"
002270:  264000004713  jsr      4713            ;"6@  G+"
002271:  200040006705  move     1, 6705         ;"0 @ W%"
002272:  202040020100  movem    1, 20100        ;"00@"! "
002273:  043000002451  .call    2451            ;"$8  4I"
002274:  254040000100  portal   100             ;"5@@ ! "
002275:  550040004724  hrrz     1, 4724         ;"M @ G4"
002276:  302040000100  caie     1, 100          ;"80@ ! "
002277:  040000006706  .iot     0, 6706         ;"$   W&"
002300:  554040004724  hlrz     1, 4724         ;"M@@ G4"
002301:  242040000005  lsh      1, 5            ;"40@  %"
002302:  602040020000  trne     1, 20000        ;"P0@"  "
002303:  040000006714  .iot     0, 6714         ;"$   W,"
002304:  264000004713  jsr      4713            ;"6@  G+"
002305:  042000006723                           ;"$0  W3"
002306:  200040006731  move     1, 6731         ;"0 @ W9"
002307:  202040020100  movem    1, 20100        ;"00@"! "
002310:  201700001777  movei    16, 1777        ;"0/  /_"
002311:  043000002467  .call    2467            ;"$8  4W"
002312:  254040000100  portal   100             ;"5@@ ! "
002313:  550040004724  hrrz     1, 4724         ;"M @ G4"
002314:  302040000100  caie     1, 100          ;"80@ ! "
002315:  040000006732  .iot     0, 6732         ;"$   W:"
002316:  302700001777  caie     16, 1777        ;"87  /_"
002317:  040000006737  .iot     0, 6737         ;"$   W?"
002320:  264000004713  jsr      4713            ;"6@  G+"
002321:  200040006747  move     1, 6747         ;"0 @ WG"
002322:  202040020100  movem    1, 20100        ;"00@"! "
002323:  200700006750  move     16, 6750        ;"0'  WH"
002324:  043000002502  .call    2502            ;"$8  5""
002325:  573462141072  hrres    11, @141072(2)  ;"O<R,(Z"
002326:  777742002501  conso    774, 2501(2)    ;"__B 5!"
002327:  254040000100  portal   100             ;"5@@ ! "
002330:  550040004724  hrrz     1, 4724         ;"M @ G4"
002331:  302040000100  caie     1, 100          ;"80@ ! "
002332:  040000006751  .iot     0, 6751         ;"$   WI"
002333:  312700006750  came     16, 6750        ;"97  WH"
002334:  040000006756  .iot     0, 6756         ;"$   WN"
002335:  264000004713  jsr      4713            ;"6@  G+"
002336:  200040006767  move     1, 6767         ;"0 @ WW"
002337:  202040020100  movem    1, 20100        ;"00@"! "
002340:  201700001777  movei    16, 1777        ;"0/  /_"
002341:  043000002515  .call    2515            ;"$8  5-"
002342:  254040000100  portal   100             ;"5@@ ! "
002343:  550040004724  hrrz     1, 4724         ;"M @ G4"
002344:  302040000100  caie     1, 100          ;"80@ ! "
002345:  040000006770  .iot     0, 6770         ;"$   WX"
002346:  302700001777  caie     16, 1777        ;"87  /_"
002347:  040000006775  .iot     0, 6775         ;"$   W]"
002350:  264000004713  jsr      4713            ;"6@  G+"
002351:  042000007005                           ;"$0  X%"
002352:  200040007010  move     1, 7010         ;"0 @ X("
002353:  202040020100  movem    1, 20100        ;"00@"! "
002354:  200700007011  move     16, 7011        ;"0'  X)"
002355:  043000002531  .call    2531            ;"$8  59"
002356:  254040000100  portal   100             ;"5@@ ! "
002357:  550040004724  hrrz     1, 4724         ;"M @ G4"
002360:  302040000100  caie     1, 100          ;"80@ ! "
002361:  040000007012  .iot     0, 7012         ;"$   X*"
002362:  312700007020  came     16, 7020        ;"97  X0"
002363:  040000007021  .iot     0, 7021         ;"$   X1"
002364:  264000004713  jsr      4713            ;"6@  G+"
002365:  305410250025  caige    10, 250025(10)  ;"8L(5 5"
002366:  777742002537  conso    774, 2537(2)    ;"__B 5?"
002367:  200040007034  move     1, 7034         ;"0 @ X<"
002370:  202040020100  movem    1, 20100        ;"00@"! "
002371:  200700007035  move     16, 7035        ;"0'  X="
002372:  043000002544  .call    2544            ;"$8  5D"
002373:  254040000100  portal   100             ;"5@@ ! "
002374:  550040004724  hrrz     1, 4724         ;"M @ G4"
002375:  302040000100  caie     1, 100          ;"80@ ! "
002376:  040020002533  .iot     0, @2533        ;"$ 0 5;"
002377:  312700007036  came     16, 7036        ;"97  X>"
002400:  040000007037  .iot     0, 7037         ;"$   X?"
002401:  264000004713  jsr      4713            ;"6@  G+"
002402:  042000007052                           ;"$0  XJ"
002403:  200040007056  move     1, 7056         ;"0 @ XN"
002404:  202040021775  movem    1, 21775        ;"00@"/]"
002405:  200040007064  move     1, 7064         ;"0 @ XT"
002406:  202040021776  movem    1, 21776        ;"00@"/^"
002407:  200040007065  move     1, 7065         ;"0 @ XU"
002410:  202040021777  movem    1, 21777        ;"00@"/_"
002411:  201640200000  movei    15, 200000      ;"0.@0  "
002412:  137640007066  dpb      15, 7066        ;"+^@ XV"
002413:  102100005067  xctr     2, 5067         ;"(1  HW"
002414:  700200000000  cono     apr, 0          ;"X"    "
002415:  200040007067  move     1, 7067         ;"0 @ XW"
002416:  202040000046  movem    1, 46           ;"00@  F"
002417:  254120007070  jrstf    @7070           ;"5A0 XX"
002420:  000000000000                           ;"      "
002421:  102040004723  xctr     1, 4723         ;"(0@ G3"
002422:  550040004724  hrrz     1, 4724         ;"M @ G4"
002423:  302040001777  caie     1, 1777         ;"80@ /_"
002424:  040020002533  .iot     0, @2533        ;"$ 0 5;"
002425:  515337442454  hrlzi    6, @442454(17)  ;"IK?D4L"
002426:  777742002575  conso    774, 2575(2)    ;"__B 5]"
002427:  554040004726  hlrz     1, 4726         ;"M@@ G6"
002430:  602040000010  trne     1, 10           ;"P0@  ("
002431:  040000007071  .iot     0, 7071         ;"$   XY"
002432:  205040001110  movsi    1, 1110         ;"0H@ )("
002433:  412040004726  andcam   1, 4726         ;"A0@ G6"
002434:  102000004723  xctr     0, 4723         ;"(0  G3"
002435:  254400002604  jrst     10, 2604        ;"5D  6$"
002436:  201040002607  movei    1, 2607         ;"0(@ 6'"
002437:  542040000046  hrrm     1, 46           ;"L0@  F"
002440:  254520007101  jen      @7101           ;"5E0 Y!"
002441:  000000000000                           ;"      "
002442:  102040004723  xctr     1, 4723         ;"(0@ G3"
002443:  550040004724  hrrz     1, 4724         ;"M @ G4"
002444:  302040001777  caie     1, 1777         ;"80@ /_"
002445:  040020002533  .iot     0, @2533        ;"$ 0 5;"
002446:  550040002607  hrrz     1, 2607         ;"M @ 6'"
002447:  302040002000  caie     1, 2000         ;"80@ 0 "
002450:  040000007102  .iot     0, 7102         ;"$   Y""
002451:  554040004726  hlrz     1, 4726         ;"M@@ G6"
002452:  602040001110  trne     1, 1110         ;"P0@ )("
002453:  040020002577  .iot     0, @2577        ;"$ 0 5_"
002454:  205040001110  movsi    1, 1110         ;"0H@ )("
002455:  412040004726  andcam   1, 4726         ;"A0@ G6"
002456:  102000004723  xctr     0, 4723         ;"(0  G3"
002457:  254400002626  jrst     10, 2626        ;"5D  66"
002460:  201040002632  movei    1, 2632         ;"0(@ 6:"
002461:  542040000046  hrrm     1, 46           ;"L0@  F"
002462:  700200020000  cono     apr, 20000      ;"X" "  "
002463:  254120007101  jrstf    @7101           ;"5A0 Y!"
002464:  000000000000                           ;"      "
002465:  600037442210  trn      0, @442210(17)  ;"P ?D2("
002466:  777742002633  conso    774, 2633(2)    ;"__B 6;"
002467:  550040002632  hrrz     1, 2632         ;"M @ 6:"
002470:  302040002002  caie     1, 2002         ;"80@ 0""
002471:  040000007111  .iot     0, 7111         ;"$   Y)"
002472:  700340020000  conso    apr, 20000      ;"X#@"  "
002473:  040000007121  .iot     0, 7121         ;"$   Y1"
002474:  700200020001  cono     apr, 20001      ;"X" " !"
002475:  254400002642  jrst     10, 2642        ;"5D  6B"
002476:  402000005075  setzm    5075            ;"@0  H]"
002477:  205040000004  movsi    1, 4            ;"0H@  $"
002500:  436040005072  orm      1, 5072         ;"CP@ HZ"
002501:  102100005067  xctr     2, 5067         ;"(1  HW"
002502:  043000002651  .call    2651            ;"$8  6I"
002503:  200000400000  move     0, 400000       ;"0  @  "
002504:  040000007127  .iot     0, 7127         ;"$   Y7"
002505:  135040006431  ldb      1, 6431         ;"+H@ T9"
002506:  302040000200  caie     1, 200          ;"80@ " "
002507:  040000007134  .iot     0, 7134         ;"$   Y<"
002510:  264000004713  jsr      4713            ;"6@  G+"
002511:  043000002660  .call    2660            ;"$8  6P"
002512:  200000777777  move     0, 777777       ;"0  ___"
002513:  040000007143  .iot     0, 7143         ;"$   YC"
002514:  135040006431  ldb      1, 6431         ;"+H@ T9"
002515:  302040000377  caie     1, 377          ;"80@ #_"
002516:  040000007150  .iot     0, 7150         ;"$   YH"
002517:  264000004713  jsr      4713            ;"6@  G+"
002520:  205040000004  movsi    1, 4            ;"0H@  $"
002521:  412040005072  andcam   1, 5072         ;"A0@ HZ"
002522:  102100005067  xctr     2, 5067         ;"(1  HW"
002523:  042000007160                           ;"$0  YP"
002524:  205100777776  movsi    2, 777776       ;"0I __^"
002525:  606506005444  trnn     12, 5444(6)     ;"PU& LD"
002526:  777742002671  conso    774, 2671(2)    ;"__B 6Y"
002527:  201640600010  movei    15, 600010      ;"0.@P ("
002530:  260740003633  pushj    17, 3633        ;"6'@ >;"
002531:  201040000007  movei    1, 7            ;"0(@  '"
002532:  137040007165  dpb      1, 7165         ;"+X@ YU"
002533:  102100005067  xctr     2, 5067         ;"(1  HW"
002534:  103040007166  xctri    1, 7166         ;"(8@ YV"
002535:  334000000000  skipa    0, 0            ;";@    " "7\0\0\0\0"
002536:  040020003524  .iot     0, @3524        ;"$ 0 =4"
002537:  200040005120  move     1, 5120         ;"0 @ I0"
002540:  200100007167  move     2, 7167         ;"0!  YW"
002541:  202100003467  movem    2, 3467         ;"01  <W"
002542:  201140000017  movei    3, 17           ;"0)@  /"
002543:  137140007170  dpb      3, 7170         ;"+Y@ YX"
002544:  312040000002  came     1, 2            ;"90@  ""
002545:  040000007171  .iot     0, 7171         ;"$   YY"
002546:  102100005067  xctr     2, 5067         ;"(1  HW"
002547:  201040000000  movei    1, 0            ;"0(@   " " \"\0\0\0"
002550:  137040007201  dpb      1, 7201         ;"+X@ Z!"
002551:  103040007202  xctri    1, 7202         ;"(8@ Z""
002552:  334000000000  skipa    0, 0            ;";@    " "7\0\0\0\0"
002553:  040020003524  .iot     0, @3524        ;"$ 0 =4"
002554:  200100003467  move     2, 3467         ;"0!  <W"
002555:  201140000017  movei    3, 17           ;"0)@  /"
002556:  137140007203  dpb      3, 7203         ;"+Y@ Z#"
002557:  200040005120  move     1, 5120         ;"0 @ I0"
002560:  312040000002  came     1, 2            ;"90@  ""
002561:  040020002707  .iot     0, @2707        ;"$ 0 7'"
002562:  202100005120  movem    2, 5120         ;"01  I0"
002563:  201040000000  movei    1, 0            ;"0(@   " " \"\0\0\0"
002564:  137040007165  dpb      1, 7165         ;"+X@ YU"
002565:  157470633030  fsbrb    11, @633030(10) ;"-\XS88" "\033sF6\f"
002566:  777742002727  conso    774, 2727(2)    ;"__B 77"
002567:  102100005067  xctr     2, 5067         ;"(1  HW"
002570:  103040007166  xctri    1, 7166         ;"(8@ YV"
002571:  334000000000  skipa    0, 0            ;";@    " "7\0\0\0\0"
002572:  040020003524  .iot     0, @3524        ;"$ 0 =4"
002573:  200100003467  move     2, 3467         ;"0!  <W"
002574:  201140000017  movei    3, 17           ;"0)@  /"
002575:  137140007203  dpb      3, 7203         ;"+Y@ Z#"
002576:  200040005120  move     1, 5120         ;"0 @ I0"
002577:  312040000002  came     1, 2            ;"90@  ""
002600:  040020002707  .iot     0, @2707        ;"$ 0 7'"
002601:  102100005067  xctr     2, 5067         ;"(1  HW"
002602:  103040007202  xctri    1, 7202         ;"(8@ Z""
002603:  334000000000  skipa    0, 0            ;";@    " "7\0\0\0\0"
002604:  040020003524  .iot     0, @3524        ;"$ 0 =4"
002605:  200100003467  move     2, 3467         ;"0!  <W"
002606:  200040005120  move     1, 5120         ;"0 @ I0"
002607:  312040000002  came     1, 2            ;"90@  ""
002610:  040020002707  .iot     0, @2707        ;"$ 0 7'"
002611:  042000007204                           ;"$0  Z$"
002612:  201100000004  movei    2, 4            ;"0)   $"
002613:  201640600000  movei    15, 600000      ;"0.@P  "
002614:  200600007207  move     14, 7207        ;"0&  Z'"
002615:  136640000014  idpb     15, 14          ;"+V@  ,"
002616:  350000000015  aos      0, 15           ;"=    -"
002617:  367100002755  sojg     2, 2755         ;">Y  7M"
002620:  402000005122  setzm    5122            ;"@0  I2"
002621:  200040007210  move     1, 7210         ;"0 @ Z("
002622:  251040005317  blt      1, 5317         ;"5(@ K/"
002623:  211040000001  movni    1, 1            ;"1(@  !"
002624:  542040005067  hrrm     1, 5067         ;"L0@ HW"
002625:  074754442712                           ;"'GLD7*"
002626:  777742002765  conso    774, 2765(2)    ;"__B 7U"
002627:  102100005067  xctr     2, 5067         ;"(1  HW"
002630:  043000002772  .call    2772            ;"$8  7Z"
002631:  254040002770  portal   2770            ;"5@@ 7X"
002632:  200000400000  move     0, 400000       ;"0  @  "
002633:  040000007211  .iot     0, 7211         ;"$   Z)"
002634:  550040004723  hrrz     1, 4723         ;"M @ G3"
002635:  302040777777  caie     1, 777777       ;"80@___"
002636:  040000007215  .iot     0, 7215         ;"$   Z-"
002637:  264000004713  jsr      4713            ;"6@  G+"
002640:  043000003003  .call    3003            ;"$8  8#"
002641:  254040003000  portal   3000            ;"5@@ 8 "
002642:  254000003001  jrst     3001            ;"5@  8!"
002643:  200000400000  move     0, 400000       ;"0  @  "
002644:  040020002771  .iot     0, @2771        ;"$ 0 7Y"
002645:  550040004723  hrrz     1, 4723         ;"M @ G3"
002646:  302040003000  caie     1, 3000         ;"80@ 8 "
002647:  040000007223  .iot     0, 7223         ;"$   Z3"
002650:  264000004713  jsr      4713            ;"6@  G+"
002651:  043000003023  .call    3023            ;"$8  83"
002652:  201040003013  movei    1, 3013         ;"0(@ 8+"
002653:  542040000041  hrrm     1, 41           ;"L0@  A"
002654:  254040003015  portal   3015            ;"5@@ 8-"
002655:  000000000000                           ;"      "
002656:  254120003013  jrstf    @3013           ;"5A0 8+"
002657:  254000003016  jrst     3016            ;"5@  8."
002660:  047000000000  .access  0, 0            ;"$X    " "\t`\0\0\0"
002661:  200000400000  move     0, 400000       ;"0  @  "
002662:  201040004174  movei    1, 4174         ;"0(@ A\"
002663:  542040000041  hrrm     1, 41           ;"L0@  A"
002664:  040020002771  .iot     0, @2771        ;"$ 0 7Y"
002665:  326161122363  jumpn    3, @122363(1)   ;":QQ*3S"
002666:  777742003023  conso    774, 3023(2)    ;"__B 83"
002667:  201040004174  movei    1, 4174         ;"0(@ A\"
002670:  542040000041  hrrm     1, 41           ;"L0@  A"
002671:  550040004723  hrrz     1, 4723         ;"M @ G3"
002672:  302040003015  caie     1, 3015         ;"80@ 8-"
002673:  040000007232  .iot     0, 7232         ;"$   Z:"
002674:  264000004713  jsr      4713            ;"6@  G+"
002675:  200040007240  move     1, 7240         ;"0 @ Z@"
002676:  200100006611  move     2, 6611         ;"0!  V)"
002677:  043000003035  .call    3035            ;"$8  8="
002700:  254040000001  portal   1               ;"5@@  !"
002701:  550040004723  hrrz     1, 4723         ;"M @ G3"
002702:  302040000001  caie     1, 1            ;"80@  !"
002703:  040000007241  .iot     0, 7241         ;"$   ZA"
002704:  264000004713  jsr      4713            ;"6@  G+"
002705:  042000007246                           ;"$0  ZF"
002706:  201040000400  movei    1, 400          ;"0(@ $ "
002707:  201640600010  movei    15, 600010      ;"0.@P ("
002710:  200100007207  move     2, 7207         ;"0!  Z'"
002711:  136640000002  idpb     15, 2           ;"+V@  ""
002712:  367040003045  sojg     1, 3045         ;">X@ 8E"
002713:  402000005064  setzm    5064            ;"@0  HT"
002714:  201040000004  movei    1, 4            ;"0(@  $"
002715:  201640200000  movei    15, 200000      ;"0.@0  "
002716:  200100007207  move     2, 7207         ;"0!  Z'"
002717:  136640000002  idpb     15, 2           ;"+V@  ""
002720:  350000000015  aos      0, 15           ;"=    -"
002721:  367040003053  sojg     1, 3053         ;">X@ 8K"
002722:  200040007251  move     1, 7251         ;"0 @ ZI"
002723:  202040005071  movem    1, 5071         ;"00@ HY"
002724:  102100005067  xctr     2, 5067         ;"(1  HW"
002725:  053255545656                           ;"%:MLNN" "\njmKW"
002726:  777742003061  conso    774, 3061(2)    ;"__B 8Q"
002727:  200000000100  move     0, 100          ;"0   ! "
002730:  043000003075  .call    3075            ;"$8  8]"
002731:  254040003064  portal   3064            ;"5@@ 8T"
002732:  200000000100  move     0, 100          ;"0   ! "
002733:  200540004164  move     13, 4164        ;"0%@ AT"
002734:  200600004165  move     14, 4165        ;"0&  AU"
002735:  201640000144  movei    15, 144         ;"0.@ !D"
002736:  160540000014  fmp      13, 14          ;".%@  ,"
002737:  200013000000  move     0, (13)         ;"0 +   "
002740:  367640003070  sojg     15, 3070        ;">^@ 8X"
002741:  202000000077  movem    0, 77           ;"00   _"
002742:  040020002771  .iot     0, @2771        ;"$ 0 7Y"
002743:  554040004726  hlrz     1, 4726         ;"M@@ G6"
002744:  602040000002  trne     1, 2            ;"P0@  ""
002745:  040000007252  .iot     0, 7252         ;"$   ZJ"
002746:  264000004713  jsr      4713            ;"6@  G+"
002747:  200040007261  move     1, 7261         ;"0 @ ZQ"
002750:  202040005071  movem    1, 5071         ;"00@ HY"
002751:  102100005067  xctr     2, 5067         ;"(1  HW"
002752:  202000020077  movem    0, 20077        ;"00 " _"
002753:  200000020077  move     0, 20077        ;"0  " _"
002754:  043000003114  .call    3114            ;"$8  9,"
002755:  254040003110  portal   3110            ;"5@@ 9("
002756:  200000020077  move     0, 20077        ;"0  " _"
002757:  202000020077  movem    0, 20077        ;"00 " _"
002760:  255000000000  nop                      ;"5H    " "+ \0\0\0"
002761:  040000007262  .iot     0, 7262         ;"$   ZR"
002762:  550040004724  hrrz     1, 4724         ;"M @ G4"
002763:  200100004725  move     2, 4725         ;"0!  G5"
002764:  302040003111  caie     1, 3111         ;"80@ 9)"
002765:  433652375721  xorb     15, 375721(12)  ;"C>J?O1"
002766:  777762003117  conso    774, @3117(2)   ;"__R 9/"
002767:  040000007266  .iot     0, 7266         ;"$   ZV"
002770:  554040004726  hlrz     1, 4726         ;"M@@ G6"
002771:  200100000001  move     2, 1            ;"0!   !"
002772:  620040000005  trz      1, 5            ;"R @  %"
002773:  302040000002  caie     1, 2            ;"80@  ""
002774:  040000007276  .iot     0, 7276         ;"$   Z^"
002775:  264000004713  jsr      4713            ;"6@  G+"
002776:  043000003141  .call    3141            ;"$8  9A"
002777:  200040007304  move     1, 7304         ;"0 @ [$"
003000:  202040005071  movem    1, 5071         ;"00@ HY"
003001:  102100005067  xctr     2, 5067         ;"(1  HW"
003002:  200040007305  move     1, 7305         ;"0 @ [%"
003003:  251040000005  blt      1, 5            ;"5(@  %"
003004:  254040000002  portal   2               ;"5@@  ""
003005:  622750071760  trze     17, 71760(10)   ;"R7H'/P" "d^@sx"
003006:  777774003135  conso    774, @3135(14)  ;"__\ 9="
003007:  200000000004  move     0, 4            ;"0    $"
003010:  202000000004  movem    0, 4            ;"00   $"
003011:  255000000000  nop                      ;"5H    " "+ \0\0\0"
003012:  040020003113  .iot     0, @3113        ;"$ 0 9+"
003013:  601720066126  tln      16, @66126      ;"P/0&Q6"
003014:  777742003141  conso    774, 3141(2)    ;"__B 9A"
003015:  550040004724  hrrz     1, 4724         ;"M @ G4"
003016:  200100004725  move     2, 4725         ;"0!  G5"
003017:  302040000004  caie     1, 4            ;"80@  $"
003020:  040000007306  .iot     0, 7306         ;"$   [&"
003021:  264000004713  jsr      4713            ;"6@  G+"
003022:  200040007315  move     1, 7315         ;"0 @ [-"
003023:  202040005071  movem    1, 5071         ;"00@ HY"
003024:  102100005067  xctr     2, 5067         ;"(1  HW"
003025:  043000003156  .call    3156            ;"$8  9N"
003026:  103100007316  xctri    2, 7316         ;"(9  [."
003027:  103040007317  xctri    1, 7317         ;"(8@ [/"
003030:  103040007316  xctri    1, 7316         ;"(8@ [."
003031:  040020003113  .iot     0, @3113        ;"$ 0 9+"
003032:  550040004724  hrrz     1, 4724         ;"M @ G4"
003033:  200100004725  move     2, 4725         ;"0!  G5"
003034:  302040003154  caie     1, 3154         ;"80@ 9L"
003035:  040020003144  .iot     0, @3144        ;"$ 0 9D"
003036:  264000004713  jsr      4713            ;"6@  G+"
003037:  201040000100  movei    1, 100          ;"0(@ ! "
003040:  202040003467  movem    1, 3467         ;"00@ <W"
003041:  260740004156  pushj    17, 4156        ;"6'@ AN"
003042:  405040777777  andi     1, 777777       ;"@H@___"
003043:  305040003215  caige    1, 3215         ;"8H@ :-"
003044:  305040003204  caige    1, 3204         ;"8H@ :$"
003045:  307040000002  caig     1, 2            ;"8X@  ""
003046:  254000003165  jrst     3165            ;"5@  9U"
003047:  202040005065  movem    1, 5065         ;"00@ HU"
003050:  505040000007  hrli     1, 7            ;"HH@  '"
003051:  202040005071  movem    1, 5071         ;"00@ HY"
003052:  102100005067  xctr     2, 5067         ;"(1  HW"
003053:  615102401005  tsna     2, 401005(2)    ;"QI"@(%"
003054:  777742003177  conso    774, 3177(2)    ;"__B 9_"
003055:  200100000001  move     2, 1            ;"0!   !"
003056:  404100005057  and      2, 5057         ;"@A  HO"
003057:  200002000000  move     0, (2)          ;"0 "   "
003060:  043000003220  .call    3220            ;"$8  :0"
003061:  254040003204  portal   3204            ;"5@@ :$"
003062:  201100000001  movei    2, 1            ;"0)   !"
003063:  430040000002  xor      1, 2            ;"C @  ""
003064:  200001000000  move     0, (1)          ;"0 !   "
003065:  430040000002  xor      1, 2            ;"C @  ""
003066:  242100000001  lsh      2, 1            ;"41   !"
003067:  607100000001  tlnn     2, 1            ;"PY   !"
003070:  254000003205  jrst     3205            ;"5@  :%"
003071:  200001000000  move     0, (1)          ;"0 !   "
003072:  040020003113  .iot     0, @3113        ;"$ 0 9+"
003073:  550200005065  hrrz     4, 5065         ;"M"  HU"
003074:  040000007320  .iot     0, 7320         ;"$   [0"
003075:  254000003236  jrst     3236            ;"5@  :>"
003076:  554140004726  hlrz     3, 4726         ;"MA@ G6"
003077:  620140000005  trz      3, 5            ;"R!@  %"
003100:  306140000002  cain     3, 2            ;"8Q@  ""
003101:  254000003230  jrst     3230            ;"5@  :8"
003102:  040000007326  .iot     0, 7326         ;"$   [6"
003103:  510140004726  hllz     3, 4726         ;"I!@ G6"
003104:  260740004777  pushj    17, 4777        ;"6'@ G_"
003105:  260740004773  pushj    17, 4773        ;"6'@ G["
003106:  550140004724  hrrz     3, 4724         ;"M!@ G4"
003107:  306140003206  cain     3, 3206         ;"8Q@ :&"
003110:  254000003215  jrst     3215            ;"5@  :-"
003111:  200100004725  move     2, 4725         ;"0!  G5"
003112:  302140003213  caie     3, 3213         ;"81@ :+"
003113:  445764524476  eqvi     17, @524476(4)  ;"DOTJD^"
003114:  777742003235  conso    774, 3235(2)    ;"__B :="
003115:  040020003144  .iot     0, @3144        ;"$ 0 9D"
003116:  264000004713  jsr      4713            ;"6@  G+"
003117:  373000003467  sosle    0, 3467         ;"?8  <W"
003120:  254000003165  jrst     3165            ;"5@  9U"
003121:  200040007333  move     1, 7333         ;"0 @ [;"
003122:  202040005071  movem    1, 5071         ;"00@ HY"
003123:  102100005067  xctr     2, 5067         ;"(1  HW"
003124:  201100000001  movei    2, 1            ;"0)   !"
003125:  043000003261  .call    3261            ;"$8  :Q"
003126:  430040000002  xor      1, 2            ;"C @  ""
003127:  200001000000  move     0, (1)          ;"0 !   "
003130:  430040000002  xor      1, 2            ;"C @  ""
003131:  242100000001  lsh      2, 1            ;"41   !"
003132:  315100005057  camge    2, 5057         ;"9I  HO"
003133:  603100000001  tlne     2, 1            ;"P9   !"
003134:  334000000000  skipa    0, 0            ;";@    " "7\0\0\0\0"
003135:  254000003246  jrst     3246            ;"5@  :F"
003136:  103040006071  xctri    1, 6071         ;"(8@ PY"
003137:  200001000000  move     0, (1)          ;"0 !   "
003140:  040020003113  .iot     0, @3113        ;"$ 0 9+"
003141:  550040004724  hrrz     1, 4724         ;"M @ G4"
003142:  200100004725  move     2, 4725         ;"0!  G5"
003143:  302040003257  caie     1, 3257         ;"80@ :O"
003144:  040020003144  .iot     0, @3144        ;"$ 0 9D"
003145:  264000004713  jsr      4713            ;"6@  G+"
003146:  402000005071  setzm    5071            ;"@0  HY"
003147:  205040000005  movsi    1, 5            ;"0H@  %"
003150:  202040005072  movem    1, 5072         ;"00@ HZ"
003151:  102100005067  xctr     2, 5067         ;"(1  HW"
003152:  700200040001  cono     apr, 40001      ;"X" $ !"
003153:  704446512316  umove    11, 512316(6)   ;"XDFI3."
003154:  777742003273  conso    774, 3273(2)    ;"__B :["
003155:  205040000001  movsi    1, 1            ;"0H@  !"
003156:  436040005072  orm      1, 5072         ;"CP@ HZ"
003157:  102100005067  xctr     2, 5067         ;"(1  HW"
003160:  254400003277  jrst     10, 3277        ;"5D  :_"
003161:  042000007334                           ;"$0  [<"
003162:  700600001100  cono     pi, 1100        ;"X&  ) "
003163:  200040007341  move     1, 7341         ;"0 @ [A"
003164:  202040000050  movem    1, 50           ;"00@  H"
003165:  700600006210  cono     pi, 6210        ;"X&  R("
003166:  254200003304  halt     3304            ;"5B  ;$"
003167:  000000000000                           ;"      "
003170:  201040003313  movei    1, 3313         ;"0(@ ;+"
003171:  542040000050  hrrm     1, 50           ;"L0@  H"
003172:  710600000014  iordi    14, 14          ;"Y&   ,"
003173:  254520007342  jen      @7342           ;"5E0 [B"
003174:  254200003312  halt     3312            ;"5B  ;*"
003175:  000000000000                           ;"      "
003176:  265100003315  jsp      2, 3315         ;"6I  ;-"
003177:  200040003313  move     1, 3313         ;"0 @ ;+"
003200:  607040000400  tlnn     1, 400          ;"PX@ $ "
003201:  040000007343  .iot     0, 7343         ;"$   [C"
003202:  603100000400  tlne     2, 400          ;"P9  $ "
003203:  040000007354  .iot     0, 7354         ;"$   [L"
003204:  102040005036  xctr     1, 5036         ;"(0@ H>"
003205:  510140005041  hllz     3, 5041         ;"I!@ HA"
003206:  603140002000  tlne     3, 2000         ;"P9@ 0 "
003207:  040000007364  .iot     0, 7364         ;"$   [T"
003210:  700200020001  cono     apr, 20001      ;"X" " !"
003211:  710600000000  iordi    14, 0           ;"Y&    "
003212:  700600001010  cono     pi, 1010        ;"X&  (("
003213:  015701216526                           ;"!O!1U6"
003214:  777742003331  conso    774, 3331(2)    ;"__B ;9"
003215:  201040777772  movei    1, 777772       ;"0(@__Z"
003216:  137040007400  dpb      1, 7400         ;"+X@ \ "
003217:  102100005067  xctr     2, 5067         ;"(1  HW"
003220:  201040003013  movei    1, 3013         ;"0(@ 8+"
003221:  542040000041  hrrm     1, 41           ;"L0@  A"
003222:  201040003344  movei    1, 3344         ;"0(@ ;D"
003223:  202040003467  movem    1, 3467         ;"00@ <W"
003224:  201040003400  movei    1, 3400         ;"0(@ < "
003225:  202040005060  movem    1, 5060         ;"00@ HP"
003226:  700600002300  cono     pi, 2300        ;"X&  3 "
003227:  254520007401  jen      @7401           ;"5E0 \!"
003230:  201040000040  movei    1, 40           ;"0(@  @"
003231:  200000000000  move     0, 0            ;"0     " " \0\0\0\0"
003232:  202000000000  movem    0, 0            ;"00    " " @\0\0\0"
003233:  047000000000  .access  0, 0            ;"$X    " "\t`\0\0\0"
003234:  201000000000  movei    0, 0            ;"0(    " "  \0\0\0"
003235:  251000000016  blt      0, 16           ;"5(   ."
003236:  201700000010  movei    16, 10          ;"0/   ("
003237:  260700003354  pushj    16, 3354        ;"6'  ;L"
003240:  254000003355  jrst     3355            ;"5@  ;M"
003241:  201440003357  movei    11, 3357        ;"0,@ ;O"
003242:  263700000000  popj     16,             ;"6?    " ",|\0\0\0"
003243:  367040003345  sojg     1, 3345         ;">X@ ;E"
003244:  255000000000  nop                      ;"5H    " "+ \0\0\0"
003245:  700600001100  cono     pi, 1100        ;"X&  ) "
003246:  402000005060  setzm    5060            ;"@0  HP"
003247:  201040004174  movei    1, 4174         ;"0(@ A\"
003250:  542040000041  hrrm     1, 41           ;"L0@  A"
003251:  040000007402  .iot     0, 7402         ;"$   \""
003252:  205040000001  movsi    1, 1            ;"0H@  !"
003253:  431367620041  xori     7, @620041(7)   ;"C+WR A"
003254:  777742003367  conso    774, 3367(2)    ;"__B ;W"
003255:  137040007400  dpb      1, 7400         ;"+X@ \ "
003256:  102100005067  xctr     2, 5067         ;"(1  HW"
003257:  264000004713  jsr      4713            ;"6@  G+"
003260:  201040004174  movei    1, 4174         ;"0(@ A\"
003261:  542040000041  hrrm     1, 41           ;"L0@  A"
003262:  200440007770  move     11, 7770        ;"0$@ _X"
003263:  365440002343  sojge    11, 2343        ;">L@ 3C"
003264:  350000000077  aos      0, 77           ;"=    _"
003265:  254000000130  jrst     130             ;"5@  !8"
003266:  201040004174  movei    1, 4174         ;"0(@ A\"
003267:  542040000041  hrrm     1, 41           ;"L0@  A"
003270:  554040004726  hlrz     1, 4726         ;"M@@ G6"
003271:  606040001000  trnn     1, 1000         ;"PP@ ( "
003272:  254000003411  jrst     3411            ;"5@  <)"
003273:  040000007410  .iot     0, 7410         ;"$   \("
003274:  510140004726  hllz     3, 4726         ;"I!@ G6"
003275:  260740004777  pushj    17, 4777        ;"6'@ G_"
003276:  260740004773  pushj    17, 4773        ;"6'@ G["
003277:  606040002000  trnn     1, 2000         ;"PP@ 0 "
003300:  254000003437  jrst     3437            ;"5@  <?"
003301:  554140004616  hlrz     3, 4616         ;"MA@ F."
003302:  602140000400  trne     3, 400          ;"P1@ $ "
003303:  040000007415  .iot     0, 7415         ;"$   \-"
003304:  550040004616  hrrz     1, 4616         ;"M @ F."
003305:  306040003361  cain     1, 3361         ;"8P@ ;Q"
003306:  254000003366  jrst     3366            ;"5@  ;V"
003307:  200100003467  move     2, 3467         ;"0!  <W"
003310:  350000000002  aos      0, 2            ;"=    ""
003311:  306040003014  cain     1, 3014         ;"8P@ 8,"
003312:  254000003451  jrst     3451            ;"5@  <I"
003313:  025156257776                           ;""IN5_^"
003314:  777742003425  conso    774, 3425(2)    ;"__B <5"
003315:  312040000002  came     1, 2            ;"90@  ""
003316:  306100003360  cain     2, 3360         ;"8Q  ;P"
003317:  254000003431  jrst     3431            ;"5@  <9"
003320:  040000007424  .iot     0, 7424         ;"$   \4"
003321:  552040003467  hrrzm    1, 3467         ;"M0@ <W"
003322:  205040000400  movsi    1, 400          ;"0H@ $ "
003323:  436040004616  orm      1, 4616         ;"CP@ F."
003324:  205040002000  movsi    1, 2000         ;"0H@ 0 "
003325:  412040004726  andcam   1, 4726         ;"A0@ G6"
003326:  102100004723  xctr     2, 4723         ;"(1  G3"
003327:  201140003013  movei    3, 3013         ;"0)@ 8+"
003330:  542140000041  hrrm     3, 41           ;"L1@  A"
003331:  554040004726  hlrz     1, 4726         ;"M@@ G6"
003332:  606040000001  trnn     1, 1            ;"PP@  !"
003333:  254000004706  jrst     4706            ;"5@  G&"
003334:  700200040001  cono     apr, 40001      ;"X" $ !"
003335:  201040777772  movei    1, 777772       ;"0(@__Z"
003336:  137040007431  dpb      1, 7431         ;"+X@ \9"
003337:  102100004723  xctr     2, 4723         ;"(1  G3"
003340:  254000004706  jrst     4706            ;"5@  G&"
003341:  550040003013  hrrz     1, 3013         ;"M @ 8+"
003342:  312040000002  came     1, 2            ;"90@  ""
003343:  040000007432  .iot     0, 7432         ;"$   \:"
003344:  552040003467  hrrzm    1, 3467         ;"M0@ <W"
003345:  554140003013  hlrz     3, 3013         ;"MA@ 8+"
003346:  602140000400  trne     3, 400          ;"P1@ $ "
003347:  040000007442  .iot     0, 7442         ;"$   \B"
003350:  205140000400  movsi    3, 400          ;"0I@ $ "
003351:  436140003013  orm      3, 3013         ;"CQ@ 8+"
003352:  254000003434  jrst     3434            ;"5@  <<"
003353:  216572644353  movmm    13, @644353(12) ;"1UZTCK"
003354:  777742003463  conso    774, 3463(2)    ;"__B <S"
003355:  000000007452                           ;"    \J"
003356:  000000007465                           ;"    \U"
003357:  000000000000                           ;"      "
003360:  000000000000                           ;"      "
003361:  000000000000                           ;"      "
003362:  312000020100  came     0, 20100        ;"90 "! "
003363:  207000000016  movss    0, 16           ;"0X   ."
003364:  200056000000  move     1, (16)         ;"0 N   "
003365:  207000000016  movss    0, 16           ;"0X   ."
003366:  200116020000  move     2, 20000(16)    ;"0!."  "
003367:  554140000016  hlrz     3, 16           ;"MA@  ."
003370:  550200000016  hrrz     4, 16           ;"M"   ."
003371:  201244020000  movei    5, 20000(4)     ;"0*D"  " " *  \0"
003372:  040000007500  .iot     0, 7500         ;"$   ] "
003373:  254000001522  jrst     1522            ;"5@  -2"
003374:  201156000100  movei    3, 100(16)      ;"0)N ! "
003375:  201216000200  movei    4, 200(16)      ;"0*. " "
003376:  040000007512  .iot     0, 7512         ;"$   ]*"
003377:  254000001546  jrst     1546            ;"5@  -F"
003400:  251040400177  blt      1, 400177       ;"5(@@!_"
003401:  334000000000  skipa    0, 0            ;";@    " "7\0\0\0\0"
003402:  040000007522  .iot     0, 7522         ;"$   ]2"
003403:  254000001571  jrst     1571            ;"5@  -Y"
003404:  777777777777  conso    774, @777777(17);"______"
003405:  000000000003                           ;"     #"
003406:  000000000004                           ;"     $"
003407:  000000000004                           ;"     $"
003410:  777777777777  conso    774, @777777(17);"______"
003411:  777777777777  conso    774, @777777(17);"______"
003412:  000000000002                           ;"     ""
003413:  746252004506  coni     460, 4506(12)   ;"\RJ E&" "yJP\t#"
003414:  777742003521  conso    774, 3521(2)    ;"__B =1"
003415:  000000000100                           ;"    ! "
003416:  000000000004                           ;"     $"
003417:  777777777777  conso    774, @777777(17);"______"
003420:  000000007530                           ;"    ]8"
003421:  000000007536                           ;"    ]>"
003422:  000000007544                           ;"    ]D"
003423:  201156020000  movei    3, 20000(16)    ;"0)N"  " " &p \0"
003424:  201216400000  movei    4, 400000(16)   ;"0*.@  " " (t\0\0"
003425:  040000007553  .iot     0, 7553         ;"$   ]K"
003426:  254000001606  jrst     1606            ;"5@  .&"
003427:  040000007560  .iot     0, 7560         ;"$   ]P"
003430:  102040005036  xctr     1, 5036         ;"(0@ H>"
003431:  201040003537  movei    1, 3537         ;"0(@ =?"
003432:  202040005037  movem    1, 5037         ;"00@ H?"
003433:  102300005036  xctr     6, 5036         ;"(3  H>"
003434:  254000001454  jrst     1454            ;"5@  ,L"
003435:  000000000000                           ;"      "
003436:  402000005067  setzm    5067            ;"@0  HW"
003437:  200040007567  move     1, 7567         ;"0 @ ]W"
003440:  251040005076  blt      1, 5076         ;"5(@ H^"
003441:  402000000336  setzm    336             ;"@0  #>"
003442:  200040007570  move     1, 7570         ;"0 @ ]X"
003443:  251040000345  blt      1, 345          ;"5(@ #E"
003444:  205040000001  movsi    1, 1            ;"0H@  !"
003445:  202040005072  movem    1, 5072         ;"00@ HZ"
003446:  102100005067  xctr     2, 5067         ;"(1  HW"
003447:  700200675551  cono     apr, 675551     ;"X" WMI"
003450:  402000007756  setzm    7756            ;"@0  _N"
003451:  201740005417  movei    17, 5417        ;"0/@ L/"
003452:  402000003465  setzm    3465            ;"@0  <U"
003453:  164047554647  fmpr     1, 554647(7)    ;".@GMFG"
003454:  777742003557  conso    774, 3557(2)    ;"__B =O"
003455:  700600012300  cono     pi, 12300       ;"X& !3 "
003456:  402000005060  setzm    5060            ;"@0  HP"
003457:  201040004174  movei    1, 4174         ;"0(@ A\"
003460:  542040000041  hrrm     1, 41           ;"L0@  A"
003461:  402000005067  setzm    5067            ;"@0  HW"
003462:  200040007567  move     1, 7567         ;"0 @ ]W"
003463:  251040005076  blt      1, 5076         ;"5(@ H^"
003464:  205040000001  movsi    1, 1            ;"0H@  !"
003465:  202040005072  movem    1, 5072         ;"00@ HZ"
003466:  102100005067  xctr     2, 5067         ;"(1  HW"
003467:  700040000003  datai    apr, 3          ;"X @  #"
003470:  242140777775  lsh      3, 777775       ;"41@__]"
003471:  405140000077  andi     3, 77           ;"@I@  _"
003472:  322160003541  jumpe    3, @3541        ;":1P =A"
003473:  201040000100  movei    1, 100          ;"0(@ ! "
003474:  201200000000  movei    4, 0            ;"0*    " " (\0\0\0"
003475:  200101000000  move     2, (1)          ;"0!!   "
003476:  301040003541  cail     1, 3541         ;"8(@ =A"
003477:  254000003611  jrst     3611            ;"5@  >)"
003500:  312100007571  came     2, 7571         ;"91  ]Y"
003501:  344040003577  aoja     1, 3577         ;"<@@ =_"
003502:  200240000001  move     5, 1            ;"0"@  !"
003503:  350000000004  aos      0, 4            ;"=    $"
003504:  316140000004  camn     3, 4            ;"9Q@  $"
003505:  254001000001  jrst     1(1)            ;"5@!  !"
003506:  344040003577  aoja     1, 3577         ;"<@@ =_"
003507:  336000000004  skipn    0, 4            ;";P   $"
003510:  254200003612  halt     3612            ;"5B  >*"
003511:  254005000001  jrst     1(5)            ;"5@%  !"
003512:  044000007572  .uset    0, 7572         ;"$@  ]Z"
003513:  464172625103  orcm     3, @625103(12)  ;"FAZRI#"
003514:  777742003615  conso    774, 3615(2)    ;"__B >-"
003515:  201300000000  movei    6, 0            ;"0+    " " ,\0\0\0"
003516:  260740004451  pushj    17, 4451        ;"6'@ DI"
003517:  306040000015  cain     1, 15           ;"8P@  -"
003520:  322300000130  jumpe    6, 130          ;":3  !8"
003521:  306040000015  cain     1, 15           ;"8P@  -"
003522:  254000000123  jrst     123             ;"5@  !3"
003523:  307040000067  caig     1, 67           ;"8X@  W"
003524:  305040000060  caige    1, 60           ;"8H@  P"
003525:  254000003631  jrst     3631            ;"5@  >9"
003526:  221300000010  imuli    6, 10           ;"2+   ("
003527:  271301777720  addi     6, 777720(1)    ;"7+!__0"
003530:  254000003616  jrst     3616            ;"5@  >."
003531:  044000007577  .uset    0, 7577         ;"$@  ]_"
003532:  254000003615  jrst     3615            ;"5@  >-"
003533:  331240005064  skipl    5, 5064         ;";*@ HT"
003534:  254000003637  jrst     3637            ;"5@  >?"
003535:  201600000000  movei    14, 0           ;"0.    " " 8\0\0\0"
003536:  260740003642  pushj    17, 3642        ;"6'@ >B"
003537:  202100005064  movem    2, 5064         ;"01  HT"
003540:  200240000002  move     5, 2            ;"0"@  ""
003541:  200600000015  move     14, 15          ;"0&   -"
003542:  550540000005  hrrz     13, 5           ;"M%@  %"
003543:  242540777765  lsh      13, 777765      ;"45@__U"
003544:  505540442200  hrli     13, 442200      ;"HM@D2 "
003545:  602240002000  trne     5, 2000         ;"P2@ 0 "
003546:  505540222200  hrli     13, 222200      ;"HM@22 "
003547:  271540005120  addi     13, 5120        ;"7-@ I0"
003550:  136600000013  idpb     14, 13          ;"+V   +"
003551:  253240003650  aobjn    5, 3650         ;"5:@ >H"
003552:  263740000000  popj     17,             ;"6?@   "
003553:  537137650241  hrles    2, @650241(17)  ;"KY?U"A"
003554:  777742003653  conso    774, 3653(2)    ;"__B >K"
003555:  402000003740  setzm    3740            ;"@0  ?@"
003556:  200540007600  move     13, 7600        ;"0%@ ^ "
003557:  251540004137  blt      13, 4137        ;"5-@ A?"
003560:  201540600000  movei    13, 600000      ;"0-@P  "
003561:  201440000020  movei    11, 20          ;"0,@  0"
003562:  200600007601  move     14, 7601        ;"0&  ^!"
003563:  136540000014  idpb     13, 14          ;"+U@  ,"
003564:  350000000013  aos      0, 13           ;"=    +"
003565:  367440003661  sojg     11, 3661        ;">\@ >Q"
003566:  242040777766  lsh      1, 777766       ;"40@__V"
003567:  554140000001  hlrz     3, 1            ;"MA@  !"
003570:  246140777777  lshc     3, 777777       ;"4Q@___"
003571:  505140222200  hrli     3, 222200       ;"HI@22 "
003572:  331000000004  skipl    0, 4            ;";(   $"
003573:  505140442200  hrli     3, 442200       ;"HI@D2 "
003574:  271140003740  addi     3, 3740         ;"7)@ ?@"
003575:  660040600000  tro      1, 600000       ;"V @P  "
003576:  136040000003  idpb     1, 3            ;"+P@  #"
003577:  350000000001  aos      0, 1            ;"=    !"
003600:  367100003674  sojg     2, 3674         ;">Y  >\"
003601:  102100003710  xctr     2, 3710         ;"(1  ?("
003602:  263740000000  popj     17,             ;"6?@   "
003603:  312040020020  came     1, 20020        ;"90@" 0"
003604:  254000003705  jrst     3705            ;"5@  ?%"
003605:  041000007602  .open    0, 7602         ;"$(  ^""
003606:  254000001227  jrst     1227            ;"5@  *7"
003607:  040000007607  .iot     0, 7607         ;"$   ^'"
003610:  476000005117  setom    5117            ;"GP  I/"
003611:  254000001227  jrst     1227            ;"5@  *7"
003612:  000000000000                           ;"      "
003613:  263330671507  popj     6, @671507(10)  ;"6;8W-'"
003614:  777751003711  conso    774, 3711(11)   ;"__I ?)"
003615:  000000000000                           ;"      "
003616:  000000000000                           ;"      "
003617:  000005000000                           ;"  %   "
003620:  000376003740                           ;" #^ ?@"
003621:  000376004040                           ;" #^ @@"
003622:  000376004040                           ;" #^ @@"
003623:  000000003720                           ;"    ?0"
003624:  000000000001                           ;"     !"
003625:  000000000002                           ;"     ""
003626:  000000000003                           ;"     #"
003627:  000000000004                           ;"     $"
003630:  000000000005                           ;"     %"
003631:  000000000006                           ;"     &"
003632:  000000000007                           ;"     '"
003633:  000000000010                           ;"     ("
003634:  000000000011                           ;"     )"
003635:  000000000012                           ;"     *"
003636:  000000000013                           ;"     +"
003637:  000000000014                           ;"     ,"
003640:  000000000015                           ;"     -"
003641:  000000000016                           ;"     ."
003642:  000000000017                           ;"     /"
003643:  000000000020                           ;"     0"
003644:  213443400233  movns    11, 400233(3)   ;"1<C@";"
003645:  777742004140  conso    774, 4140(2)    ;"__B A@"
003646:  700600012300  cono     pi, 12300       ;"X& !3 "
003647:  700200635551  cono     apr, 635551     ;"X" SMI"
003650:  201740005420  movei    17, 5420        ;"0/@ L0"
003651:  102100005107  xctr     2, 5107         ;"(1  I'"
003652:  103140004150  xctri    3, 4150         ;"(9@ AH"
003653:  332000007755  skipe    0, 7755         ;";0  _M"
003654:  254020007755  jrst     @7755           ;"5@0 _M"
003655:  254200004140  halt     4140            ;"5B  A@"
003656:  255000000000  nop                      ;"5H    " "+ \0\0\0"
003657:  201740005420  movei    17, 5420        ;"0/@ L0"
003660:  200040007613  move     1, 7613         ;"0 @ ^+"
003661:  201100000004  movei    2, 4            ;"0)   $"
003662:  260740003653  pushj    17, 3653        ;"6'@ >K"
003663:  254120007614  jrstf    @7614           ;"5A0 ^,"
003664:  200540004164  move     13, 4164        ;"0%@ AT"
003665:  166540004165  fmprm    13, 4165        ;".U@ AU"
003666:  200040004165  move     1, 4165         ;"0 @ AU"
003667:  167540004165  fmprb    13, 4165        ;".]@ AU"
003670:  504040000013  hrl      1, 13           ;"H@@  +"
003671:  263740000000  popj     17,             ;"6?@   "
003672:  465757424162  orcmi    17, 424162(17)  ;"FOOBAR" "M>|(9"
003673:  011231000213                           ;"!*9 "+"
003674:  201440000100  movei    11, 100         ;"0,@ ! "
003675:  700040000001  datai    apr, 1          ;"X @  !"
003676:  405040000007  andi     1, 7            ;"@H@  '"
003677:  213000000001  movns    0, 1            ;"18   !"
003700:  242441000007  lsh      11, 7(1)        ;"44A  '"
003701:  263740000000  popj     17,             ;"6?@   "
003702:  000000000000                           ;"      "
003703:  700640007771  coni     pi, 7771        ;"X&@ _Y"
003704:  320077217622  jump     1, @217622(17)  ;": _1^2"
003705:  777742004176  conso    774, 4176(2)    ;"__B A^"
003706:  700600001100  cono     pi, 1100        ;"X&  ) "
003707:  202740004531  movem    17, 4531        ;"07@ E9"
003710:  135740007615  ldb      17, 7615        ;"+O@ ^-"
003711:  306740000042  cain     17, 42          ;"8W@  B"
003712:  254000004304  jrst     4304            ;"5@  C$"
003713:  306740000043  cain     17, 43          ;"8W@  C"
003714:  254000004316  jrst     4316            ;"5@  C."
003715:  201740004512  movei    17, 4512        ;"0/@ E*"
003716:  251740004530  blt      17, 4530        ;"5/@ E8"
003717:  102040004264  xctr     1, 4264         ;"(0@ BT"
003720:  102040004274  xctr     1, 4274         ;"(0@ B\"
003721:  205740000005  movsi    17, 5           ;"0O@  %"
003722:  412740004277  andcam   17, 4277        ;"A7@ B_"
003723:  102000004274  xctr     0, 4274         ;"(0  B\"
003724:  201740004531  movei    17, 4531        ;"0/@ E9"
003725:  550600000040  hrrz     14, 40          ;"M&   @"
003726:  505600440700  hrli     14, 440700      ;"HN D' "
003727:  135040007615  ldb      1, 7615         ;"+H@ ^-"
003730:  306040000044  cain     1, 44           ;"8P@  D"
003731:  254000004475  jrst     4475            ;"5@  D]"
003732:  332600003465  skipe    14, 3465        ;";6  <U"
003733:  260740004321  pushj    17, 4321        ;"6'@ C1"
003734:  402000003465  setzm    3465            ;"@0  <U"
003735:  550040004174  hrrz     1, 4174         ;"M @ A\"
003736:  370000000001  sos      0, 1            ;"?    !"
003737:  260740004572  pushj    17, 4572        ;"6'@ EZ"
003740:  254000004241  jrst     4241            ;"5@  BA"
003741:  261740000001  push     17, 1           ;"6/@  !"
003742:  200540000002  move     13, 2           ;"0%@  ""
003743:  260740004375  pushj    17, 4375        ;"6'@ C]"
003744:  574505166557  hlre     12, 166557(5)   ;"OE%.UO"
003745:  777750004234  conso    774, 4234(10)   ;"__H B<"
003746:  201040000053  movei    1, 53           ;"0(@  K"
003747:  332017000000  skipe    0, (17)         ;";0/   " "6@x\0\0"
003750:  260740004442  pushj    17, 4442        ;"6'@ DB"
003751:  262740000001  pop      17, 1           ;"67@  !"
003752:  332000000001  skipe    0, 1            ;";0   !"
003753:  260740004415  pushj    17, 4415        ;"6'@ D-"
003754:  201040000057  movei    1, 57           ;"0(@  O"
003755:  260740004442  pushj    17, 4442        ;"6'@ DB"
003756:  260740004773  pushj    17, 4773        ;"6'@ G["
003757:  550600000040  hrrz     14, 40          ;"M&   @"
003760:  505600440700  hrli     14, 440700      ;"HN D' "
003761:  135540007615  ldb      13, 7615        ;"+M@ ^-"
003762:  306540000040  cain     13, 40          ;"8U@  @"
003763:  254000004475  jrst     4475            ;"5@  D]"
003764:  306540000041  cain     13, 41          ;"8U@  A"
003765:  254000004456  jrst     4456            ;"5@  DN"
003766:  200600007622  move     14, 7622        ;"0&  ^2"
003767:  260740004321  pushj    17, 4321        ;"6'@ C1"
003770:  200640007623  move     15, 7623        ;"0&@ ^3"
003771:  260740004433  pushj    17, 4433        ;"6'@ D;"
003772:  260740004773  pushj    17, 4773        ;"6'@ G["
003773:  332000007755  skipe    0, 7755         ;";0  _M"
003774:  254020007755  jrst     @7755           ;"5@0 _M"
003775:  254200000130  halt     130             ;"5B  !8"
003776:  743113160472  blko     430, 160472(13) ;"\9+.$Z"
003777:  777742004304  conso    774, 4304(2)    ;"__B C$"
004000:  550740000040  hrrz     17, 40          ;"M'@  @"
004001:  505740440700  hrli     17, 440700      ;"HO@D' "
004002:  202740003465  movem    17, 3465        ;"07@ <U"
004003:  550740004174  hrrz     17, 4174        ;"M'@ A\"
004004:  202740003466  movem    17, 3466        ;"07@ <V"
004005:  200740007771  move     17, 7771        ;"0'@ _Y"
004006:  405740000377  andi     17, 377         ;"@O@ #_"
004007:  700617002000  cono     pi, 2000(17)    ;"X&/ 0 "
004010:  200740004531  move     17, 4531        ;"0'@ E9"
004011:  254120004174  jrstf    @4174           ;"5A0 A\"
004012:  550740000040  hrrz     17, 40          ;"M'@  @"
004013:  202740005060  movem    17, 5060        ;"07@ HP"
004014:  254000004311  jrst     4311            ;"5@  C)"
004015:  134040000014  ildb     1, 14           ;"+@@  ,"
004016:  322040004450  jumpe    1, 4450         ;":0@ DH"
004017:  302040000043  caie     1, 43           ;"80@  C"
004020:  306040000052  cain     1, 52           ;"8P@  J"
004021:  254000004334  jrst     4334            ;"5@  C<"
004022:  306040000137  cain     1, 137          ;"8P@ !?"
004023:  254000004426  jrst     4426            ;"5@  D6"
004024:  306040000046  cain     1, 46           ;"8P@  F"
004025:  254000004334  jrst     4334            ;"5@  C<"
004026:  260740004442  pushj    17, 4442        ;"6'@ DB"
004027:  254000004321  jrst     4321            ;"5@  C1"
004030:  200640000001  move     15, 1           ;"0&@  !"
004031:  201540000000  movei    13, 0           ;"0-@   " " 6\0\0\0"
004032:  134040000014  ildb     1, 14           ;"+@@  ,"
004033:  301040000060  cail     1, 60           ;"8(@  P"
004034:  303040000071  caile    1, 71           ;"88@  Y"
004035:  254000004345  jrst     4345            ;"5@  CE"
004036:  067715647334                           ;"&_-T[<" "\r|nNn"
004037:  777742004342  conso    774, 4342(2)    ;"__B CB"
004040:  242540000003  lsh      13, 3           ;"45@  #"
004041:  271541777720  addi     13, 777720(1)   ;"7-A__0"
004042:  254000004336  jrst     4336            ;"5@  C>"
004043:  261740000001  push     17, 1           ;"6/@  !"
004044:  305540000020  caige    13, 20          ;"8M@  0"
004045:  334553004512  skipa    13, 4512(13)    ;";EK E*"
004046:  200553000000  move     13, (13)        ;"0%K   "
004047:  306640000043  cain     15, 43          ;"8V@  C"
004050:  254000004361  jrst     4361            ;"5@  CQ"
004051:  306640000046  cain     15, 46          ;"8V@  F"
004052:  254000004371  jrst     4371            ;"5@  CY"
004053:  200640007624  move     15, 7624        ;"0&@ ^4"
004054:  260740004433  pushj    17, 4433        ;"6'@ D;"
004055:  262740000001  pop      17, 1           ;"67@  !"
004056:  254000004322  jrst     4322            ;"5@  C2"
004057:  550040000013  hrrz     1, 13           ;"M @  +"
004060:  200640000014  move     15, 14          ;"0&@  ,"
004061:  134640000015  ildb     15, 15          ;"+F@  -"
004062:  201100000010  movei    2, 10           ;"0)   ("
004063:  306640000056  cain     15, 56          ;"8V@  N"
004064:  201100000012  movei    2, 12           ;"0)   *"
004065:  260740004416  pushj    17, 4416        ;"6'@ D."
004066:  254000004357  jrst     4357            ;"5@  CO"
004067:  261740000014  push     17, 14          ;"6/@  ,"
004070:  260740004375  pushj    17, 4375        ;"6'@ C]"
004071:  262740000014  pop      17, 14          ;"67@  ,"
004072:  254000004357  jrst     4357            ;"5@  CO"
004073:  621540740000  tlz      13, 740000      ;"R-@\  "
004074:  230540007625  idiv     13, 7625        ;"3%@ ^5"
004075:  260740004404  pushj    17, 4404        ;"6'@ D$"
004076:  307501117772  caig     12, 117772(1)   ;"8]!)_Z"
004077:  777742004400  conso    774, 4400(2)    ;"__B D "
004100:  200540000014  move     13, 14          ;"0%@  ,"
004101:  221540000050  imuli    13, 50          ;"2-@  H"
004102:  326540004376  jumpn    13, 4376        ;":U@ C^"
004103:  263740000000  popj     17,             ;"6?@   "
004104:  271540000057  addi     13, 57          ;"7-@  O"
004105:  303540000071  caile    13, 71          ;"8=@  Y"
004106:  271540000007  addi     13, 7           ;"7-@  '"
004107:  303540000132  caile    13, 132         ;"8=@ !:"
004110:  275540000070  subi     13, 70          ;"7M@  X"
004111:  306540000043  cain     13, 43          ;"8U@  C"
004112:  201540000056  movei    13, 56          ;"0-@  N"
004113:  200040000013  move     1, 13           ;"0 @  +"
004114:  254000004442  jrst     4442            ;"5@  DB"
004115:  201100000010  movei    2, 10           ;"0)   ("
004116:  542100004417  hrrm     2, 4417         ;"L1  D/"
004117:  231040000010  idivi    1, 10           ;"3(@  ("
004120:  506117000000  hrlm     2, (17)         ;"HQ/   " "QDx\0\0"
004121:  332000000001  skipe    0, 1            ;";0   !"
004122:  260740004417  pushj    17, 4417        ;"6'@ D/"
004123:  554057000000  hlrz     1, (17)         ;"M@O   "
004124:  271040000060  addi     1, 60           ;"7(@  P"
004125:  254000004442  jrst     4442            ;"5@  DB"
004126:  201040000015  movei    1, 15           ;"0(@  -"
004127:  260740004442  pushj    17, 4442        ;"6'@ DB"
004130:  201040000012  movei    1, 12           ;"0(@  *"
004131:  260740004442  pushj    17, 4442        ;"6'@ DB"
004132:  254000004321  jrst     4321            ;"5@  C1"
004133:  134040000015  ildb     1, 15           ;"+@@  -"
004134:  271040000060  addi     1, 60           ;"7(@  P"
004135:  260740004442  pushj    17, 4442        ;"6'@ DB"
004136:  564151042164  hlro     3, 42164(11)    ;"NAI$1T"
004137:  777742004436  conso    774, 4436(2)    ;"__B D>"
004140:  603640770000  tlne     15, 770000      ;"P>@_  "
004141:  254000004433  jrst     4433            ;"5@  D;"
004142:  263740000000  popj     17,             ;"6?@   "
004143:  201040000040  movei    1, 40           ;"0(@  @"
004144:  700040000000  datai    apr, 0          ;"X @   "
004145:  603000200000  tlne     0, 200000       ;"P8 0  "
004146:  263740000000  popj     17,             ;"6?@   "
004147:  712300000020  iord     6, 20           ;"Y3   0"
004150:  254000004445  jrst     4445            ;"5@  DE"
004151:  712140000001  iord     3, 1            ;"Y1@  !"
004152:  263740000000  popj     17,             ;"6?@   "
004153:  712340000040  iord     7, 40           ;"Y3@  @"
004154:  254000004451  jrst     4451            ;"5@  DI"
004155:  712040000001  iord     1, 1            ;"Y0@  !"
004156:  405040000177  andi     1, 177          ;"@H@ !_"
004157:  254000004445  jrst     4445            ;"5@  DE"
004160:  260740004773  pushj    17, 4773        ;"6'@ G["
004161:  261740000014  push     17, 14          ;"6/@  ,"
004162:  550600004174  hrrz     14, 4174        ;"M&  A\"
004163:  135540007626  ldb      13, 7626        ;"+M@ ^6"
004164:  305540000003  caige    13, 3           ;"8M@  #"
004165:  367600004461  sojg     14, 4461        ;">^  DQ"
004166:  135540007627  ldb      13, 7627        ;"+M@ ^7"
004167:  200713004512  move     16, 4512(13)    ;"0'+ E*"
004170:  202700004510  movem    16, 4510        ;"07  E("
004171:  200734777776  move     16, @777776(14) ;"0'<__^"
004172:  202700004511  movem    16, 4511        ;"07  E)"
004173:  200600007635  move     14, 7635        ;"0&  ^="
004174:  260740004321  pushj    17, 4321        ;"6'@ C1"
004175:  262740000014  pop      17, 14          ;"67@  ,"
004176:  760217156711  cono     600, 156711(17) ;"^"/-W)"
004177:  777762004474  conso    774, @4474(2)   ;"__R D\"
004200:  476000005117  setom    5117            ;"GP  I/"
004201:  260740004321  pushj    17, 4321        ;"6'@ C1"
004202:  102000004264  xctr     0, 4264         ;"(0  BT"
004203:  200040004174  move     1, 4174         ;"0 @ A\"
004204:  603040010000  tlne     1, 10000        ;"P8@!  "
004205:  254000004261  jrst     4261            ;"5@  BQ"
004206:  200040007771  move     1, 7771         ;"0 @ _Y"
004207:  405040000377  andi     1, 377          ;"@H@ #_"
004210:  700601002000  cono     pi, 2000(1)     ;"X&! 0 "
004211:  205740004512  movsi    17, 4512        ;"0O@ E*"
004212:  251740000017  blt      17, 17          ;"5/@  /"
004213:  254120004174  jrstf    @4174           ;"5A0 A\"
004214:  000000000000                           ;"      "
004215:  000000000000                           ;"      "
004216:  543617757220  hrrs     14, 757220(17)  ;"L>/]Z0"
004217:  777742004572  conso    774, 4572(2)    ;"__B EZ"
004220:  201140000000  movei    3, 0            ;"0)@   " " &\0\0\0"
004221:  336240007755  skipn    5, 7755         ;";R@ _M"
004222:  263740000000  popj     17,             ;"6?@   "
004223:  336245777776  skipn    5, 777776(5)    ;";RE__^"
004224:  263740000000  popj     17,             ;"6?@   "
004225:  201100000000  movei    2, 0            ;"0)    " " $\0\0\0"
004226:  200205000001  move     4, 1(5)         ;"0"%  !"
004227:  317200000001  camg     4, 1            ;"9Z   !"
004230:  317200000002  camg     4, 2            ;"9Z   ""
004231:  254000004610  jrst     4610            ;"5@  F("
004232:  335005000000  skipge   0, (5)          ;";H%   " "7 (\0\0"
004233:  254000004610  jrst     4610            ;"5@  F("
004234:  200105000001  move     2, 1(5)         ;"0!%  !"
004235:  200145000000  move     3, (5)          ;"0!E   "
004236:  270240007636  add      5, 7636         ;"7"@ ^>"
004237:  253240004600  aobjn    5, 4600         ;"5:@ F "
004240:  274040000002  sub      1, 2            ;"7@@  ""
004241:  200100000003  move     2, 3            ;"0!   #"
004242:  350017000000  aos      0, (17)         ;"= /   "
004243:  263740000000  popj     17,             ;"6?@   "
004244:  000000000000                           ;"      "
004245:  202740004762  movem    17, 4762        ;"07@ GR"
004246:  201740004743  movei    17, 4743        ;"0/@ GC"
004247:  251740004761  blt      17, 4761        ;"5/@ GQ"
004250:  201740004762  movei    17, 4762        ;"0/@ GR"
004251:  102040004723  xctr     1, 4723         ;"(0@ G3"
004252:  261740000040  push     17, 40          ;"6/@  @"
004253:  261740004174  push     17, 4174        ;"6/@ A\"
004254:  700340060000  conso    apr, 60000      ;"X#@&  "
004255:  254000004632  jrst     4632            ;"5@  F:"
004256:  212542337576  movnm    13, 337576(2)   ;"15B;]^"
004257:  777742004630  conso    774, 4630(2)    ;"__B F8"
004260:  332000005060  skipe    0, 5060         ;";0  HP"
004261:  254020005060  jrst     @5060           ;"5@0 HP"
004262:  260740004773  pushj    17, 4773        ;"6'@ G["
004263:  332600003465  skipe    14, 3465        ;";6  <U"
004264:  260740004321  pushj    17, 4321        ;"6'@ C1"
004265:  402000003465  setzm    3465            ;"@0  <U"
004266:  700300020000  consz    apr, 20000      ;"X# "  "
004267:  044000007637  .uset    0, 7637         ;"$@  ^?"
004270:  700300010000  consz    apr, 10000      ;"X# !  "
004271:  044000007646  .uset    0, 7646         ;"$@  ^F"
004272:  700300040000  consz    apr, 40000      ;"X# $  "
004273:  044000007652  .uset    0, 7652         ;"$@  ^J"
004274:  200040004616  move     1, 4616         ;"0 @ F."
004275:  603040010000  tlne     1, 10000        ;"P8@!  "
004276:  254000004653  jrst     4653            ;"5@  FK"
004277:  553000000001  hrrzs    0, 1            ;"M8   !"
004300:  260740004572  pushj    17, 4572        ;"6'@ EZ"
004301:  254000004653  jrst     4653            ;"5@  FK"
004302:  044000007660  .uset    0, 7660         ;"$@  ^P"
004303:  550040004616  hrrz     1, 4616         ;"M @ F."
004304:  550100004724  hrrz     2, 4724         ;"M!  G4"
004305:  044000007663  .uset    0, 7663         ;"$@  ^S"
004306:  200040004724  move     1, 4724         ;"0 @ G4"
004307:  350000000001  aos      0, 1            ;"=    !"
004310:  552040004616  hrrzm    1, 4616         ;"M0@ F."
004311:  135040007671  ldb      1, 7671         ;"+H@ ^Y"
004312:  137040007672  dpb      1, 7672         ;"+X@ ^Z"
004313:  510140004726  hllz     3, 4726         ;"I!@ G6"
004314:  260740004777  pushj    17, 4777        ;"6'@ G_"
004315:  621140000004  tlz      3, 4            ;"R)@  $"
004316:  145733441675                           ;",O;D.]"
004317:  777743004666  conso    774, 4666(3)    ;"__C FV"
004320:  700300020000  consz    apr, 20000      ;"X# "  "
004321:  412140004726  andcam   3, 4726         ;"A1@ G6"
004322:  700300200000  consz    apr, 200000     ;"X# 0  "
004323:  044000007673  .uset    0, 7673         ;"$@  ^["
004324:  700700200000  consz    pi, 200000      ;"X' 0  "
004325:  044000007675  .uset    0, 7675         ;"$@  ^]"
004326:  700200470001  cono     apr, 470001     ;"X" G !"
004327:  700600200000  cono     pi, 200000      ;"X& 0  "
004330:  260740004773  pushj    17, 4773        ;"6'@ G["
004331:  044000007700  .uset    0, 7700         ;"$@  _ "
004332:  260740004451  pushj    17, 4451        ;"6'@ DI"
004333:  302040000131  caie     1, 131          ;"80@ !9"
004334:  254000004261  jrst     4261            ;"5@  BQ"
004335:  262740004174  pop      17, 4174        ;"67@ A\"
004336:  262740000040  pop      17, 40          ;"67@  @"
004337:  102000004723  xctr     0, 4723         ;"(0  G3"
004340:  700200470001  cono     apr, 470001     ;"X" G !"
004341:  700600200000  cono     pi, 200000      ;"X& 0  "
004342:  205740004743  movsi    17, 4743        ;"0O@ GC"
004343:  251740000017  blt      17, 17          ;"5/@  /"
004344:  254520004616  jen      @4616           ;"5E0 F."
004345:  000000000000                           ;"      "
004346:  402000005060  setzm    5060            ;"@0  HP"
004347:  262740004174  pop      17, 4174        ;"67@ A\"
004350:  262740000040  pop      17, 40          ;"67@  @"
004351:  700200060001  cono     apr, 60001      ;"X" & !"
004352:  205740004743  movsi    17, 4743        ;"0O@ GC"
004353:  251740000017  blt      17, 17          ;"5/@  /"
004354:  254520004713  jen      @4713           ;"5E0 G+"
004355:  673104265160  tsoe     2, 265160(4)    ;"W9$6IP" "nd\"j8"
004356:  777745004773  conso    774, 4773(5)    ;"__E G["
004357:  201040000015  movei    1, 15           ;"0(@  -"
004360:  260740004442  pushj    17, 4442        ;"6'@ DB"
004361:  201040000012  movei    1, 12           ;"0(@  *"
004362:  254000004442  jrst     4442            ;"5@  DB"
004363:  603140000002  tlne     3, 2            ;"P9@  ""
004364:  044000007703  .uset    0, 7703         ;"$@  _#"
004365:  603140000010  tlne     3, 10           ;"P9@  ("
004366:  044000007704  .uset    0, 7704         ;"$@  _$"
004367:  603140000020  tlne     3, 20           ;"P9@  0"
004370:  044000007707  .uset    0, 7707         ;"$@  _'"
004371:  603140000040  tlne     3, 40           ;"P9@  @"
004372:  044000007711  .uset    0, 7711         ;"$@  _)"
004373:  603140000100  tlne     3, 100          ;"P9@ ! "
004374:  044000007713  .uset    0, 7713         ;"$@  _+"
004375:  603140000200  tlne     3, 200          ;"P9@ " "
004376:  044000007716  .uset    0, 7716         ;"$@  _."
004377:  603140000400  tlne     3, 400          ;"P9@ $ "
004400:  044000007717  .uset    0, 7717         ;"$@  _/"
004401:  603140002000  tlne     3, 2000         ;"P9@ 0 "
004402:  044000007722  .uset    0, 7722         ;"$@  _2"
004403:  603140000772  tlne     3, 772          ;"P9@ 'Z"
004404:  263740000000  popj     17,             ;"6?@   "
004405:  607140001000  tlnn     3, 1000         ;"PY@ ( "
004406:  044000007725  .uset    0, 7725         ;"$@  _5"
004407:  603140001000  tlne     3, 1000         ;"P9@ ( "
004410:  044000007727  .uset    0, 7727         ;"$@  _7"
004411:  263740000000  popj     17,             ;"6?@   "
004412:  010013730320                           ;"! +[#0"
004413:  777742005046  conso    774, 5046(2)    ;"__B HF"
004414:  017777777777                           ;"!_____"
004415:  017777777777                           ;"!_____"
004416:  000007777777                           ;"  '___"
004417:  001777777777                           ;" /____"
004420:  000377777777                           ;" #____"
004421:  000377777777                           ;" #____"
004422:  000377777777                           ;" #____"
004423:  003777777777                           ;" ?____"
004424:  000000000000                           ;"      "
004425:  000000000000                           ;"      "
004426:  000000000000                           ;"      "
004427:  000000000000                           ;"      "
004430:  000000000000                           ;"      "
004431:  000000000000                           ;"      "
004432:  000000000000                           ;"      "
004433:  000000000000                           ;"      "
004434:  000000000000                           ;"      "
004435:  000000000000                           ;"      "
004436:  000000000000                           ;"      "
004437:  000000000000                           ;"      "
004440:  000005000000                           ;"  %   "
004441:  000000000000                           ;"      "
004442:  000000000000                           ;"      "
004443:  000000000000                           ;"      "
004444:  000000003720                           ;"    ?0"
004445:  000000000000                           ;"      "
004446:  000000000000                           ;"      "
004447:  000000000000                           ;"      "
004450:  000001000000                           ;"  !   "
004451:  000000000000                           ;"      "
004452:  461163105050  setcmi   3, @105050(3)   ;"F)S(HH"
004453:  777764005104  conso    774, @5104(4)   ;"__T I$"
004454:  000000000000                           ;"      "
004455:  000000000000                           ;"      "
004456:  000000000000                           ;"      "
004457:  000000000000                           ;"      "
004460:  000000000000                           ;"      "
004461:  000000000000                           ;"      "
004462:  000001000000                           ;"  !   "
004463:  000002006331                           ;"  " S9"
004464:  000000000000                           ;"      "
004465:  000000000000                           ;"      "
004466:  000000003720                           ;"    ?0"
004467:  000000000000                           ;"      "
004470:  640151226457  trc      3, 226457(11)   ;"T!I2TO"
004471:  777742005520  conso    774, 5520(2)    ;"__B M0"
004472:  264000004174  jsr      4174            ;"6@  A\"
004473:  462370142212  setcmm   7, @142212(10)  ;"F3X,2*" "LOADE"
004474:  421005231500  andcmi   0, 231500(5)    ;"B(%3- " "D *3 "
004475:  516511751212  hrlzm    12, 751212(11)  ;"IU)]**" "STORE"
004476:  421005232100  andcmi   0, 232100(5)    ;"B(%31 " "D *4 "
004477:  426452220124  setam    11, 220124(12)  ;"BTJ2!4" "ERR *"
004500:  305004053610  caige    0, 53610(4)     ;"8H$%>(" "1  WD"
004501:  201066520032  movei    1, @520032(6)   ;"0(VJ :" " #5 \r"
004502:  050000000000                           ;"%     " "\n\0\0\0\0"
004503:  416371652222  setmm    7, @652222(11)  ;"ASYU22" "CONTI"
004504:  472530537500  orcbm    12, @537500(10) ;"G58K] " "NUE? "
004505:  000000000000                           ;"      "
004506:  522132352222  hllom    2, @352222(12)  ;"J1:=22" "TESTI"
004507:  472164040610  orcbm    3, @40610(4)    ;"G1T$&(" "NG AD"
004510:  422450551646  andcmm   11, 551646(10)  ;"B4HM.F" "DRESS"
004511:  202110152202  movem    2, 152202(10)   ;"01(-2"" " DATA"
004512:  502032444276  hllm     0, @444276(12)  ;"H0:DB^" "PATH_"
004513:  000000000000                           ;"      "
004514:  000376000350                           ;" #^ #H"
004515:  200010200010  move     0, 200010(10)   ;"0 (0 ("
004516:  000350000351                           ;" #H #I"
004517:  776000400000  blki     760, 400000     ;"_P @  "
004520:  536451747216  hrlem    11, 747216(11)  ;"KTI\Z." "WRONG"
004521:  202110152202  movem    2, 152202(10)   ;"01(-2"" " DATA"
004522:  202450543212  movem    11, 543212(10)  ;"04HL:*" " REFE"
004523:  512131641622  hllzm    2, @641622(11)  ;"I19T.2" "RENCI"
004524:  472164032140  orcbm    3, @32140(4)    ;"G1T#1@" "NG 40"
004525:  301406030130  cail     10, 30130(6)    ;"8,&#!8" "0000,"
004526:  202065042644  movem    1, @42644(5)    ;"00U$6D" " C(ER"
004527:  511227525142  hllzi    4, @525142(7)   ;"I*7JIB" "R)=*1"
004530:  502623036300  hllm     14, @36300(3)   ;"H63#S "
004531:  777742005556  conso    774, 5556(2)    ;"__B MN"
004532:  202765441520  movem    17, @441520(5)  ;"07UD-0" " _,C("
004533:  321406030140  jumpl    10, 30140(6)    ;":,&#!@" "40000"
004534:  301227525152  cail     4, @525152(7)   ;"8*7JIJ" "0)=*5"
004535:  325506520276  jumpge   12, 520276(6)   ;":M&J"^" "545 _"
004536:  000000000000                           ;"      "
004537:  777777401777  conso    774, @401777(17);"___@/_"
004540:  536451747216  hrlem    11, 747216(11)  ;"KTI\Z." "WRONG"
004541:  202110152202  movem    2, 152202(10)   ;"01(-2"" " DATA"
004542:  202450543212  movem    11, 543212(10)  ;"04HL:*" " REFE"
004543:  512131641622  hllzm    2, @641622(11)  ;"I19T.2" "RENCI"
004544:  472164032140  orcbm    3, @32140(4)    ;"G1T#1@" "NG 40"
004545:  305566733530  caige    13, @733530(6)  ;"8MV[=8" "1777,"
004546:  202065042644  movem    1, @42644(5)    ;"00U$6D" " C(ER"
004547:  511227525142  hllzi    4, @525142(7)   ;"I*7JIB" "R)=*1"
004550:  202765441520  movem    17, @441520(5)  ;"07UD-0" " _,C("
004551:  321406133556  jumpl    10, 133556(6)   ;":,&+=N" "40177"
004552:  335227525152  skipge   4, @525152(7)   ;";J7JIJ" "7)=*5"
004553:  325546320276  jumpge   13, 320276(6)   ;":MF:"^" "563 _"
004554:  000000000000                           ;"      "
004555:  432232251650  xorm     4, @251650(12)  ;"C2:5.H" "FIRST"
004556:  202410143612  movem    10, 143612(10)  ;"04(,>*" " PAGE"
004557:  421012242614  andcmi   0, 242614(12)   ;"B(*46," "D REF"
004560:  426450547206  setam    11, 547206(10)  ;"BTHLZ&" "ERENC"
004561:  425010640652  setai    0, 640652(10)   ;"BH(T&J" "E FAU"
004562:  462510542276  setcmm   12, 542276(10)  ;"F5(L2^" "LTED_"
004563:  412232451572  andcam   4, @451572(12)  ;"A2:E-Z" "BITS="
004564:  000000000000                           ;"      "
004565:  502064051626  hllm     1, @51626(4)    ;"H0T%.6" "PC SK"
004566:  446412042610  eqvm     10, 42610(12)   ;"DT*$6(" "IPPED"
004567:  201066620250  movei    1, @620250(6)   ;"0(VR"H" " #6 T"
004570:  130267720546                           ;"+"WZ%F"
004571:  777742005614  conso    774, 5614(2)    ;"__B N,"
004572:  446330551500  eqvm     6, @551500(10)  ;"DS8M- " "IMES "
004573:  000000000000                           ;"      "
004574:  416371652222  setmm    7, @652222(11)  ;"ASYU22" "CONTI"
004575:  472530537500  orcbm    12, @537500(10) ;"G58K] " "NUE? "
004576:  000000000000                           ;"      "
004577:  522132352100  hllom    2, @352100(12)  ;"J1:=1 " "TEST "
004600:  406472347606  andm     11, @347606(12) ;"@TZ<^&" "ASSOC"
004601:  446032444654  eqvm     0, @444654(12)  ;"DP:DFL" "IATIV"
004602:  425012040644  setai    0, 40644(12)    ;"BH*$&D" "E PAR"
004603:  521011743100  hlloi    0, 743100(11)   ;"J()\9 " "T OF "
004604:  405011542632  andi     0, 542632(11)   ;"@H)L6:" "A MEM"
004605:  476453157400  setom    11, 157400(13)  ;"GTK-\ " "ORY_\0"
004606:  400000000200  setz     0, 200          ;"@   " "
004607:  525252525252  hrloi    5, 525252(12)   ;"JJJJJJ" "U*U*U"
004610:  200042000020  move     1, 20(2)        ;"0 B  0"
004611:  250400000552  exch     10, 552         ;"5$  %J"
004612:  512130642644  hllzm    2, @642644(10)  ;"I18T6D" "REFER"
004613:  426350342500  setam    7, 342500(10)   ;"BSH<5 " "ENCE "
004614:  522364000000  hllom    7, @(4)         ;"J3T   " "TO \0\0"
004615:  526470551100  hrlom    11, @551100(10) ;"JTXM) " "USER "
004616:  502030742500  hllm     0, @742500(10)  ;"H08\5 " "PAGE "
004617:  472364021544  orcbm    7, @21544(4)    ;"G3T"-D" "NO #2"
004620:  202760000000  movem    17, @0          ;"07P   " " _\0\0\0"
004621:  426610541500  setam    14, 541500(10)  ;"BV(L- " "EXEC "
004622:  502030742500  hllm     0, @742500(10)  ;"H08\5 " "PAGE "
004623:  472364021544  orcbm    7, @21544(4)    ;"G3T"-D" "NO #2"
004624:  202760000000  movem    17, @0          ;"07P   " " _\0\0\0"
004625:  432231446212  xorm     4, @446212(11)  ;"C29DR*" "FILLE"
004626:  421010151646  andcmi   0, 151646(10)   ;"B((-.F" "D ASS"
004627:  476064051222  setom    1, @51222(4)    ;"GPT%*2" "OC RI"
004630:  640413525567  trc      10, 525567(13)  ;"T$+JMW"
004631:  777742005652  conso    774, 5652(2)    ;"__B NJ"
004632:  472164041252  orcbm    3, @41252(4)    ;"G1T$*J" "NG BU"
004633:  432150551100  xorm     3, 551100(10)   ;"C1HM) " "FFER "
004634:  502352451100  hllm     7, 451100(12)   ;"H3JE) " "PNTR "
004635:  522364021550  hllom    7, @21550(4)    ;"J3T"-H" "TO #4"
004636:  202231651650  movem    4, @651650(11)  ;"029U.H" " INST"
004637:  426030420236  setam    0, @420236(10)  ;"BP8B">" "EAD O"
004640:  431004331500  xori     0, 331500(4)    ;"C($;- " "F #3 "
004641:  574000000000  hlre     0, 0            ;"O@    " "_\0\0\0\0"
004642:  406472347606  andm     11, @347606(12) ;"@TZ<^&" "ASSOC"
004643:  202450543500  movem    11, 543500(10)  ;"04HL= " " REG "
004644:  201004020100  movei    0, 20100(4)     ;"0($"! " "     "
004645:  202231652212  movem    4, @652212(11)  ;"029U2*" " INTE"
004646:  472110542100  orcbm    2, 542100(10)   ;"G1(L1 " "NDED "
004647:  416371652212  setmm    7, @652212(11)  ;"ASYU2*" "CONTE"
004650:  472512357400  orcbm    12, 357400(12)  ;"G5*=\ " "NTS_\0"
004651:  215424020100  movmi    10, @20100(4)   ;"1L4"! " "#1   "
004652:  201004020000  movei    0, 20000(4)     ;"0($"  " "    \0"
004653:  426610541500  setam    14, 541500(10)  ;"BV(L- " "EXEC "
004654:  502030742500  hllm     0, @742500(10)  ;"H08\5 " "PAGE "
004655:  215444057400  movmi    11, 57400(4)    ;"1LD%\ " "#2 _\0"
004656:  526470551100  hrlom    11, @551100(10) ;"JTXM) " "USER "
004657:  502030742500  hllm     0, @742500(10)  ;"H08\5 " "PAGE "
004660:  215444057400  movmi    11, 57400(4)    ;"1LD%\ " "#2 _\0"
004661:  416371652222  setmm    7, @652222(11)  ;"ASYU22" "CONTI"
004662:  472530537500  orcbm    12, @537500(10) ;"G58K] " "NUE? "
004663:  000000000000                           ;"      "
004664:  200203000020  move     4, 20(3)        ;"0"#  0"
004665:  231200005076  idivi    4, 5076         ;"3*  H^"
004666:  105105105105                           ;"(I%(I%"
004667:  215663466232  movmi    15, @466232(3)  ;"1NSFR:"
004670:  652474572041  tdce     11, @572041(14) ;"U4\O0A"
004671:  777742005710  conso    774, 5710(2)    ;"__B O("
004672:  000376005220                           ;" #^ J0"
004673:  256000000004  xct      4               ;"5P   $"
004674:  005120005121                           ;" I0 I1"
004675:  200042000000  move     1, (2)          ;"0 B   "
004676:  512130642644  hllzm    2, @642644(10)  ;"I18T6D" "REFER"
004677:  426350342500  setam    7, 342500(10)   ;"BSH<5 " "ENCE "
004700:  522364000000  hllom    7, @(4)         ;"J3T   " "TO \0\0"
004701:  526470551100  hrlom    11, @551100(10) ;"JTXM) " "USER "
004702:  000000000000                           ;"      "
004703:  426610541500  setam    14, 541500(10)  ;"BV(L- " "EXEC "
004704:  000000000000                           ;"      "
004705:  201066220250  movei    1, @220250(6)   ;"0(V2"H" " #2 T"
004706:  442451752616  andcbm   11, 752616(11)  ;"D4I]6." "HROUG"
004707:  441010151646  andcbi   0, 151646(10)   ;"D((-.F" "H ASS"
004710:  476064051212  setom    1, @51212(4)    ;"GPT%**" "OC RE"
004711:  436232352212  orm      4, @352212(12)  ;"CR:=2*" "GISTE"
004712:  511011647500  hllzi    0, 647500(11)   ;"I()T] " "R NO "
004713:  215566733154  movmi    13, @733154(6)  ;"1MV[9L" "#7766"
004714:  202150144630  movem    3, 144630(10)   ;"01H,F8" " FAIL"
004715:  426113700000  setam    2, 700000(13)   ;"BQ+X  " "ED_\0\0"
004716:  426452247644  setam    11, 247644(12)  ;"BTJ4^D" "ERROR"
004717:  365246120130  sojge    5, 120130(6)    ;">JF*!8" "=*1 ,"
004720:  202071751244  movem    1, @751244(11)  ;"00Y]*D" " CORR"
004721:  426072436524  setam    1, @436524(12)  ;"BPZCU4" "ECT=*"
004722:  311406031140  caml     10, 31140(6)    ;"9,&#)@" "20020"
004723:  202760000000  movem    17, @0          ;"07P   " " _\0\0\0"
004724:  406472347606  andm     11, @347606(12) ;"@TZ<^&" "ASSOC"
004725:  202450543622  movem    11, 543622(10)  ;"04HL>2" " REGI"
004726:  516510551100  hrlzm    12, 551100(10)  ;"IU(M) " "STER "
004727:  472364021556  orcbm    7, @21556(4)    ;"G3T"-N" "NO #7"
004730:  422512646314  andcmm   12, 646314(12)  ;"B5*TS," "DTVLf"
004731:  777742005746  conso    774, 5746(2)    ;"__B OF"
004732:  335546620214  skipge   13, 620214(6)   ;";MFR"," "766 F"
004733:  406231442610  andm     4, @442610(11)  ;"@R9D6(" "AILED"
004734:  202511720226  movem    12, 720226(11)  ;"05)Z"6" " TO K"
004735:  426132020236  setam    2, @20236(12)   ;"BQ:"">" "EEP O"
004736:  462104040646  setcmm   2, 40646(4)     ;"F1$$&F" "LD AS"
004737:  516370344602  hrlzm    7, @344602(10)  ;"ISX<F"" "SOCIA"
004740:  522231747100  hllom    4, @747100(11)  ;"J29\Y " "TION "
004741:  476344051212  setom    7, 51212(4)     ;"GSD%**" "ON RE"
004742:  432132242634  xorm     2, @242634(12)  ;"C1:46<" "FEREN"
004743:  416124052236  setmm    2, @52236(4)    ;"AQ4%2>" "CE TO"
004744:  200000000000  move     0, 0            ;"0     " " \0\0\0\0"
004745:  526470551100  hrlom    11, @551100(10) ;"JTXM) " "USER "
004746:  000000000000                           ;"      "
004747:  426610541500  setam    14, 541500(10)  ;"BV(L- " "EXEC "
004750:  000000000000                           ;"      "
004751:  415210551244                           ;"AJ(M*D" "C(ERR"
004752:  245725230500  rotc     16, @230500(5)  ;"4O53% " ")=*1 "
004753:  574000000000  hlre     0, 0            ;"O@    " "_\0\0\0\0"
004754:  415211746210                           ;"AJ)\R(" "C(OLD"
004755:  202330150122  movem    6, @150122(10)  ;"038-!2" " MAP)"
004756:  365246230140  sojge    5, 230140(6)    ;">JF3!@" "=*200"
004757:  311404057400  caml     10, 57400(4)    ;"9,$%\ " "20 _\0"
004760:  415211642656                           ;"AJ)T6N" "C(NEW"
004761:  202330150122  movem    6, @150122(10)  ;"038-!2" " MAP)"
004762:  365246231140  sojge    5, 231140(6)    ;">JF3)@" "=*220"
004763:  311404057400  caml     10, 57400(4)    ;"9,$%\ " "20 _\0"
004764:  406472347606  andm     11, @347606(12) ;"@TZ<^&" "ASSOC"
004765:  202450543622  movem    11, 543622(10)  ;"04HL>2" " REGI"
004766:  516510551100  hrlzm    12, 551100(10)  ;"IU(M) " "STER "
004767:  472364021556  orcbm    7, @21556(4)    ;"G3T"-N" "NO #7"
004770:  357444054411  aosg     11, 54411(4)    ;"=\D%D)"
004771:  777742006004  conso    774, 6004(2)    ;"__B P$"
004772:  335546620214  skipge   13, 620214(6)   ;";MFR"," "766 F"
004773:  406231442610  andm     4, @442610(11)  ;"@R9D6(" "AILED"
004774:  202511720244  movem    12, 720244(11)  ;"05)Z"D" " TO R"
004775:  426151146230  setam    3, 146230(11)   ;"BQI,R8" "EFILL"
004776:  574000000000  hlre     0, 0            ;"O@    " "_\0\0\0\0"
004777:  415210551244                           ;"AJ(M*D" "C(ERR"
005000:  245725230500  rotc     16, @230500(5)  ;"4O53% " ")=*1 "
005001:  574000000000  hlre     0, 0            ;"O@    " "_\0\0\0\0"
005002:  415211746210                           ;"AJ)\R(" "C(OLD"
005003:  202030442244  movem    0, @442244(10)  ;"008D2D" " ADDR"
005004:  426472336506  setam    11, @336506(12) ;"BTZ;U&" "ESS=#"
005005:  331005136524  skipl    0, 136524(5)    ;";(%+U4" "6 )=*"
005006:  311406031140  caml     10, 31140(6)    ;"9,&#)@" "20020"
005007:  202760000000  movem    17, @0          ;"07P   " " _\0\0\0"
005010:  415211642656                           ;"AJ)T6N" "C(NEW"
005011:  202030442244  movem    0, @442244(10)  ;"008D2D" " ADDR"
005012:  426472336506  setam    11, @336506(12) ;"BTZ;U&" "ESS=#"
005013:  311005136524  caml     0, 136524(5)    ;"9(%+U4" "2 )=*"
005014:  311446031140  caml     11, 31140(6)    ;"9,F#)@" "22020"
005015:  202760000000  movem    17, @0          ;"07P   " " _\0\0\0"
005016:  406472347606  andm     11, @347606(12) ;"@TZ<^&" "ASSOC"
005017:  202450543622  movem    11, 543622(10)  ;"04HL>2" " REGI"
005020:  516510551100  hrlzm    12, 551100(10)  ;"IU(M) " "STER "
005021:  472364021556  orcbm    7, @21556(4)    ;"G3T"-N" "NO #7"
005022:  335546620214  skipge   13, 620214(6)   ;";MFR"," "766 F"
005023:  406231442610  andm     4, @442610(11)  ;"@R9D6(" "AILED"
005024:  202511720244  movem    12, 720244(11)  ;"05)Z"D" " TO R"
005025:  426151146230  setam    3, 146230(11)   ;"BQI,R8" "EFILL"
005026:  202773500000  movem    17, @500000(13) ;"07[H  " " _]\0\0"
005027:  415210551244                           ;"AJ(M*D" "C(ERR"
005030:  713721444430  iowr     16, @444430(1)  ;"Y?1DD8" "r}\fI\f"
005031:  777742006042  conso    774, 6042(2)    ;"__B PB"
005032:  245725230500  rotc     16, @230500(5)  ;"4O53% " ")=*1 "
005033:  574000000000  hlre     0, 0            ;"O@    " "_\0\0\0\0"
005034:  415211746210                           ;"AJ)\R(" "C(OLD"
005035:  202030442244  movem    0, @442244(10)  ;"008D2D" " ADDR"
005036:  426472336506  setam    11, @336506(12) ;"BTZ;U&" "ESS=#"
005037:  331005136524  skipl    0, 136524(5)    ;";(%+U4" "6 )=*"
005040:  311446031140  caml     11, 31140(6)    ;"9,F#)@" "22020"
005041:  202760000000  movem    17, @0          ;"07P   " " _\0\0\0"
005042:  415211642656                           ;"AJ)T6N" "C(NEW"
005043:  202030442244  movem    0, @442244(10)  ;"008D2D" " ADDR"
005044:  426472336506  setam    11, @336506(12) ;"BTZ;U&" "ESS=#"
005045:  311005136524  caml     0, 136524(5)    ;"9(%+U4" "2 )=*"
005046:  311406031140  caml     10, 31140(6)    ;"9,&#)@" "20020"
005047:  202760000000  movem    17, @0          ;"07P   " " _\0\0\0"
005050:  000376005120                           ;" #^ I0"
005051:  103040000004  xctri    1, 4            ;"(8@  $"
005052:  522132352222  hllom    2, @352222(12)  ;"J1:=22" "TESTI"
005053:  472164041636  orcbm    3, @41636(4)    ;"G1T$.>" "NG CO"
005054:  472510547250  orcbm    12, 547250(10)  ;"G5(LZH" "NTENT"
005055:  515011743100  hrlzi    0, 743100(11)   ;"IH)\9 " "S OF "
005056:  405011542632  andi     0, 542632(11)   ;"@H)L6:" "A MEM"
005057:  476453157400  setom    11, 157400(13)  ;"GTK-\ " "ORY_\0"
005060:  000020005120                           ;"  0 I0"
005061:  200001000000  move     0, (1)          ;"0 !   "
005062:  121000000001                           ;"*(   !"
005063:  542072451100  hrrm     1, @451100(12)  ;"L0ZE) " "XCTR "
005064:  422230447250  andcmm   4, @447250(10)  ;"B28DZH" "DIDNT"
005065:  202150152630  movem    3, 152630(10)   ;"01H-68" " FAUL"
005066:  521310151100  hlloi    6, 151100(10)   ;"J+(-) " "T,AR "
005067:  472364021546  orcbm    7, @21546(4)    ;"G3T"-F" "NO #3"
005070:  065611626325                           ;"&N)RS5"
005071:  777742006100  conso    774, 6100(2)    ;"__B Q "
005072:  261010142244  push     0, 142244(10)   ;"6((,2D" ", ADR"
005073:  201724330530  movei    16, @330530(4)  ;"0/4;%8" " =#1,"
005074:  202410143612  movem    10, 143612(10)  ;"04(,>*" " PAGE"
005075:  202571751210  movem    13, @751210(11) ;"05Y]*(" " WORD"
005076:  365066220276  sojge    1, @220276(6)   ;">HV2"^" "=#2 _"
005077:  000000000000                           ;"      "
005100:  536451747216  hrlem    11, 747216(11)  ;"KTI\Z." "WRONG"
005101:  202150152630  movem    3, 152630(10)   ;"01H-68" " FAUL"
005102:  521304051620  hlloi    6, 51620(4)     ;"J+$%.0" "T, SH"
005103:  476531442100  setom    12, @442100(11) ;"GU9D1 " "OULD "
005104:  412124047236  andcam   2, @47236(4)    ;"A14$Z>" "BE NO"
005105:  202030341612  movem    0, @341612(10)  ;"008<.*" " ACCE"
005106:  516465420222  hrlzm    11, @420222(5)  ;"ITUB"2" "SS, I"
005107:  515000000000  hrlzi    0, 0            ;"IH    " "S \0\0\0"
005110:  426612451202  setam    14, 451202(12)  ;"BV*E*"" "EXTRA"
005111:  202150152630  movem    3, 152630(10)   ;"01H-68" " FAUL"
005112:  521304051620  hlloi    6, 51620(4)     ;"J+$%.0" "T, SH"
005113:  476531442100  setom    12, @442100(11) ;"GU9D1 " "OULD "
005114:  412124047634  andcam   2, @47634(4)    ;"A14$^<" "BE ON"
005115:  462624047202  setcmm   14, @47202(4)   ;"F64$Z"" "LY NA"
005116:  416065420222  setmm    1, @420222(5)   ;"APUB"2" "CC, I"
005117:  515000000000  hrlzi    0, 0            ;"IH    " "S \0\0\0"
005120:  536451747216  hrlem    11, 747216(11)  ;"KTI\Z." "WRONG"
005121:  202071747250  movem    1, @747250(11)  ;"00Y\ZH" " CONT"
005122:  426352451500  setam    7, 451500(12)   ;"BSJE- " "ENTS "
005123:  476144040644  setom    3, 40644(4)     ;"GQD$&D" "OF AR"
005124:  201066326100  movei    1, @326100(6)   ;"0(V:Q " " #3, "
005125:  476532450252  setom    12, @450252(12) ;"GU:E"J" "OUTPU"
005126:  521007521544  hlloi    0, 521544(7)    ;"J('J-D" "T =#2"
005127:  261012344236  push     0, 344236(12)   ;"6(*<B>" ", SHO"
005130:  651475641565  tsc      11, @641565(15) ;"U,]T-U"
005131:  777742006136  conso    774, 6136(2)    ;"__B Q>"
005132:  526310420204  hrlom    6, 420204(10)   ;"JS(B"$" "ULD B"
005133:  425004330552  setai    0, 330552(4)    ;"BH$;%J" "E #15"
005134:  202760000000  movem    17, @0          ;"07P   " " _\0\0\0"
005135:  416371652222  setmm    7, @652222(11)  ;"ASYU22" "CONTI"
005136:  472530537500  orcbm    12, @537500(10) ;"G58K] " "NUE? "
005137:  000000000000                           ;"      "
005140:  200002000000  move     0, (2)          ;"0 "   "
005141:  320500005043  jump     12, 5043        ;":%  HC"
005142:  320500005042  jump     12, 5042        ;":%  HB"
005143:  522132352222  hllom    2, @352222(12)  ;"J1:=22" "TESTI"
005144:  472164041636  orcbm    3, @41636(4)    ;"G1T$.>" "NG CO"
005145:  472510547250  orcbm    12, 547250(10)  ;"G5(LZH" "NTENT"
005146:  515011743100  hrlzi    0, 743100(11)   ;"IH)\9 " "S OF "
005147:  411011542632  andcai   0, 542632(11)   ;"A()L6:" "B MEM"
005150:  476453157400  setom    11, 157400(13)  ;"GTK-\ " "ORY_\0"
005151:  522132352222  hllom    2, @352222(12)  ;"J1:=22" "TESTI"
005152:  472164041636  orcbm    3, @41636(4)    ;"G1T$.>" "NG CO"
005153:  472510547250  orcbm    12, 547250(10)  ;"G5(LZH" "NTENT"
005154:  515011743100  hrlzi    0, 743100(11)   ;"IH)\9 " "S OF "
005155:  415011542632                           ;"AH)L6:" "C MEM"
005156:  476453157400  setom    11, 157400(13)  ;"GTK-\ " "ORY_\0"
005157:  522132352222  hllom    2, @352222(12)  ;"J1:=22" "TESTI"
005160:  472164054206  orcbm    3, @54206(4)    ;"G1T%B&" "NG XC"
005161:  522444043212  hllom    11, 43212(4)    ;"J4D$:*" "TR FE"
005162:  522071044634  hllom    1, @44634(11)   ;"J0Y$F<" "TCHIN"
005163:  435012551612  ori      0, 551612(12)   ;"CH*M.*" "G USE"
005164:  511010141516  hllzi    0, 141516(10)   ;"I((,-." "R AC'"
005165:  515010651236  hrlzi    0, 651236(10)   ;"IH(U*>" "S FRO"
005166:  465010141500  orcmi    0, 141500(10)   ;"FH(,- " "M AC "
005167:  502371147250  hllm     7, @147250(11)  ;"H3Y,ZH" "POINT"
005170:  301302444302  cail     6, 444302(2)    ;"8+"DC""
005171:  777742006174  conso    774, 6174(2)    ;"__B Q\"
005172:  426453700000  setam    11, 700000(13)  ;"BTKX  " "ER_\0\0"
005173:  000002005120                           ;"  " I0"
005174:  002300005076                           ;" 3  H^"
005175:  200142000000  move     3, (2)          ;"0!B   "
005176:  542072451100  hrrm     1, @451100(12)  ;"L0ZE) " "XCTR "
005177:  416311741204  setmm    6, 741204(11)   ;"AS)\*$" "CLOBB"
005200:  426450542100  setam    11, 542100(10)  ;"BTHL1 " "ERED "
005201:  415210141522                           ;"AJ(,-2" "C(AC)"
005202:  261010141572  push     0, 141572(10)   ;"6((,-Z" ", AC="
005203:  251424000000  blt      10, @(4)        ;"5,4   " "*1 \0\0"
005204:  542072451100  hrrm     1, @451100(12)  ;"L0ZE) " "XCTR "
005205:  422230447116  andcmm   4, @447116(10)  ;"B28DY." "DIDN'"
005206:  521012242614  hlloi    0, 242614(12)   ;"J(*46," "T REF"
005207:  426450547206  setam    11, 547206(10)  ;"BTHLZ&" "ERENC"
005210:  425012444244  setai    0, 444244(12)   ;"BH*DBD" "E THR"
005211:  476530744100  setom    12, @744100(10) ;"GU8\A " "OUGH "
005212:  406064050236  andm     1, @50236(4)    ;"@PT%">" "AC PO"
005213:  446352442644  eqvm     7, 442644(12)   ;"DSJD6D" "INTER"
005214:  202071751244  movem    1, @751244(11)  ;"00Y]*D" " CORR"
005215:  426072446262  setam    1, @446262(12)  ;"BPZDRR" "ECTLY"
005216:  202030451172  movem    0, @451172(10)  ;"008E)Z" " ADR="
005217:  201066220000  movei    1, @220000(6)   ;"0(V2  " " #2 \0"
005220:  542072451100  hrrm     1, @451100(12)  ;"L0ZE) " "XCTR "
005221:  415210646522                           ;"AJ(TU2" "C(FM)"
005222:  365750324206  sojge    17, 324206(10)  ;">OH:B&" "=>C(C"
005223:  476450524676  setom    11, 524676(10)  ;"GTHJF^" "ORE)_"
005224:  000000000000                           ;"      "
005225:  000400003470                           ;" $  <X"
005226:  270400003470  add      10, 3470        ;"7$  <X"
005227:  251700000000  blt      16, 0           ;"5/    " "*<\0\0\0"
005230:  503525527647  hlls     12, @527647(5)  ;"H=5J^G"
005231:  777742006232  conso    774, 6232(2)    ;"__B R:"
005232:  542072451100  hrrm     1, @451100(12)  ;"L0ZE) " "XCTR "
005233:  415210347644                           ;"AJ(<^D" "C(COR"
005234:  425227537206  setai    4, @537206(7)   ;"BJ7KZ&" "E)=>C"
005235:  242151524676  lsh      3, 524676(11)   ;"41IJF^" "(FM)_"
005236:  000000000000                           ;"      "
005237:  542072451100  hrrm     1, @451100(12)  ;"L0ZE) " "XCTR "
005240:  415210347644                           ;"AJ(<^D" "C(COR"
005241:  425227537206  setai    4, @537206(7)   ;"BJ7KZ&" "E)=>C"
005242:  242071751212  lsh      1, @751212(11)  ;"40Y]**" "(CORE"
005243:  246760000000  lshc     17, @0          ;"4WP   " ")_\0\0\0"
005244:  251640000000  blt      15, 0           ;"5.@   " "*:\0\0\0"
005245:  600011000000  trn      0, (11)         ;"P )   "
005246:  000002006245                           ;"  " RE"
005247:  020100400100                           ;""! @! "
005250:  251040400177  blt      1, 400177       ;"5(@@!_"
005251:  542072451100  hrrm     1, @451100(12)  ;"L0ZE) " "XCTR "
005252:  446350444644  eqvm     7, 444644(10)   ;"DSHDFD" "INDIR"
005253:  426072420222  setam    1, @420222(12)  ;"BPZB"2" "ECT I"
005254:  472110554212  orcbm    2, 554212(10)   ;"G1(MB*" "NDEXE"
005255:  421011547654  andcmi   0, 547654(11)   ;"B()L^L" "D MOV"
005256:  426760000000  setam    17, @0          ;"BWP   " "E_\0\0\0"
005257:  003512003720                           ;" =* ?0"
005260:  200721000000  move     16, @(1)        ;"0'1   "
005261:  415210324206                           ;"AJ(:B&" "C(C(C"
005262:  241425136506  rot      10, @136506(5)  ;"4,5+U&" "(1)=#"
005263:  305005136506  caige    0, 136506(5)    ;"8H%+U&" "1 )=#"
005264:  311005136524  caml     0, 136524(5)    ;"9(%+U4" "2 )=*"
005265:  305524036574  caige    12, @36574(4)   ;"8M4#U\" "15 =>"
005266:  202065030554  movem    1, @30554(5)    ;"00U#%L" " C(16"
005267:  245725230554  rotc     16, @230554(5)  ;"4O53%L" ")=*16"
005270:  462620743417  setcmm   14, @743417     ;"F60\</"
005271:  777742006270  conso    774, 6270(2)    ;"__B RX"
005272:  000000000000                           ;"      "
005273:  542072451100  hrrm     1, @451100(12)  ;"L0ZE) " "XCTR "
005274:  476144051212  setom    3, 51212(4)     ;"GQD%**" "OF RE"
005275:  406105750202  andm     2, 750202(5)    ;"@Q%]""" "AD/PA"
005276:  526470527656  hrlom    11, @527656(10) ;"JTXJ^N" "USE/W"
005277:  512232442676  hllzm    4, @442676(12)  ;"I2:D6^" "RITE_"
005300:  000000000000                           ;"      "
005301:  273040000037  addb     1, 37           ;"78@  ?"
005302:  415210141522                           ;"AJ(,-2" "C(AC)"
005303:  365246120130  sojge    5, 120130(6)    ;">JF*!8" "=*1 ,"
005304:  415212551612                           ;"AJ*M.*" "C(USE"
005305:  511006333522  hllzi    0, 333522(6)    ;"I(&;=2" "R 37)"
005306:  365246332154  sojge    5, 332154(6)    ;">JF;1L" "=*346"
005307:  335013700000  skipge   0, 700000(13)   ;";H+X  " "7 _\0\0"
005310:  542072451100  hrrm     1, @451100(12)  ;"L0ZE) " "XCTR "
005311:  476144046210  setom    3, 46210(4)     ;"GQD$R(" "OF LD"
005312:  412760000000  andcam   17, @0          ;"A7P   " "B_\0\0\0"
005313:  112200000100                           ;")2  ! "
005314:  112200000001                           ;")2   !"
005315:  135040000037  ldb      1, 37           ;"+H@  ?"
005316:  462110220266  setcmm   2, 220266(10)   ;"F1(2"V" "LDB ["
005317:  305426231140  caige    10, @231140(6)  ;"8L63)@" "11220"
005320:  301305430540  cail     6, 430540(5)    ;"8+%C%@" "0,,10"
005321:  302724041520  caie     16, @41520(4)   ;"874$-0" "0] C("
005322:  305406024572  caige    10, 24572(6)    ;"8L&"EZ" "100)="
005323:  251446030540  blt      11, 30540(6)    ;"5,F#%@" "*2010"
005324:  301010324202  cail     0, 324202(10)   ;"8((:B"" "0 C(A"
005325:  415227525142                           ;"AJ7JIB" "C)=*1"
005326:  202760000000  movem    17, @0          ;"07P   " " _\0\0\0"
005327:  526470551100  hrlom    11, @551100(10) ;"JTXM) " "USER "
005330:  633140511206  tsze     3, 511206       ;"S9@I*&"
005331:  777742006326  conso    774, 6326(2)    ;"__B S6"
005332:  365750554212  sojge    17, 554212(10)  ;">OHMB*" "=>EXE"
005333:  415006430140                           ;"AH&C!@" "C 400"
005334:  301406057400  cail     10, 57400(6)    ;"8,&%\ " "000_\0"
005335:  600010000000  trn      0, (10)         ;"P (   "
005336:  000002006331                           ;"  " S9"
005337:  777700000100  consz    774, 100        ;"__  ! "
005340:  000100400100                           ;" ! @! "
005341:  415212551612                           ;"AJ*M.*" "C(USE"
005342:  511004330500  hllzi    0, 330500(4)    ;"I($;% " "R #1 "
005343:  245725231100  rotc     16, @231100(5)  ;"4O53) " ")=*2 "
005344:  365750324212  sojge    17, 324212(10)  ;">OH:B*" "=>C(E"
005345:  542130320106  hrrm     2, @320106(10)  ;"L18:!&" "XEC #"
005346:  321005136524  jumpl    0, 136524(5)    ;":(%+U4" "4 )=*"
005347:  315013700000  camge    0, 700000(13)   ;"9H+X  " "3 _\0\0"
005350:  777700000200  consz    774, 200        ;"__  " "
005351:  400200000200  setz     4, 200          ;"@"  " "
005352:  251040000277  blt      1, 277          ;"5(@ "_"
005353:  415210554212                           ;"AJ(MB*" "C(EXE"
005354:  415004332100                           ;"AH$;1 " "C #4 "
005355:  245725231100  rotc     16, @231100(5)  ;"4O53) " ")=*2 "
005356:  365744041520  sojge    17, 41520(4)    ;">OD$-0" "=> C("
005357:  526470551100  hrlom    11, @551100(10) ;"JTXM) " "USER "
005360:  215424024572  movmi    10, @24572(4)   ;"1L4"EZ" "#1 )="
005361:  251464057400  blt      11, @57400(4)   ;"5,T%\ " "*3 _\0"
005362:  200101000105  move     2, 105(1)       ;"0!! !%"
005363:  412071342662  andcam   1, @342662(11)  ;"A0Y<6R" "BCKEY"
005364:  261010142244  push     0, 142244(10)   ;"6((,2D" ", ADR"
005365:  365066120000  sojge    1, @120000(6)   ;">HV*  " "=#1 \0"
005366:  250400005040  exch     10, 5040        ;"5$  H@"
005367:  462411551222  setcmm   10, 551222(11)  ;"F4)M*2" "LPMRI"
005370:  560163342435  hrro     3, @342435(3)   ;"N!S<4="
005371:  777742006364  conso    774, 6364(2)    ;"__B ST"
005372:  202510551650  movem    12, 551650(10)  ;"05(M.H" " TEST"
005373:  202151751100  movem    3, 751100(11)   ;"01I]) " " FOR "
005374:  446352442644  eqvm     7, 442644(12)   ;"DSJD6D" "INTER"
005375:  512532052276  hllzm    12, @52276(12)  ;"I5:%2^" "RUPT_"
005376:  000000000000                           ;"      "
005377:  005026005027                           ;" H6 H7"
005400:  446352442644  eqvm     7, 442644(12)   ;"DSJD6D" "INTER"
005401:  512532052100  hllzm    12, @52100(12)  ;"I5:%1 " "RUPT "
005402:  422230447250  andcmm   4, @447250(10)  ;"B28DZH" "DIDNT"
005403:  202370341652  movem    7, @341652(10)  ;"03X<.J" " OCCU"
005404:  510000000000  hllz     0, 0            ;"I     " "R\0\0\0\0"
005405:  462411551222  setcmm   10, 551222(11)  ;"F4)M*2" "LPMRI"
005406:  202570420106  movem    13, @420106(10) ;"05XB!&" " WD #"
005407:  305007530130  caige    0, 530130(7)    ;"8H'K!8" "1 =0,"
005410:  516511751212  hrlzm    12, 751212(11)  ;"IU)]**" "STORE"
005411:  421010151500  andcmi   0, 151500(10)   ;"B((-- " "D AS "
005412:  251464057400  blt      11, @57400(4)   ;"5,T%\ " "*3 _\0"
005413:  472030341500  orcbm    0, @341500(10)  ;"G08<- " "NACC "
005414:  432032546250  xorm     0, @546250(12)  ;"C0:LRH" "FAULT"
005415:  202512352276  movem    12, 352276(12)  ;"05*=2^" " TST_"
005416:  000000000000                           ;"      "
005417:  310001000000  cam      0, (1)          ;"9 !   "
005420:  446352442644  eqvm     7, 442644(12)   ;"DSJD6D" "INTER"
005421:  512532052100  hllzm    12, @52100(12)  ;"I5:%1 " "RUPT "
005422:  422230447250  andcmm   4, @447250(10)  ;"B28DZH" "DIDNT"
005423:  202370341652  movem    7, @341652(10)  ;"03X<.J" " OCCU"
005424:  510000000000  hllz     0, 0            ;"I     " "R\0\0\0\0"
005425:  250400004725  exch     10, 4725        ;"5$  G5"
005426:  536451747216  hrlem    11, 747216(11)  ;"KTI\Z." "WRONG"
005427:  202150152630  movem    3, 152630(10)   ;"01H-68" " FAUL"
005430:  222317555333  imulm    6, 555333(17)   ;"23/MK;"
005431:  777742006422  conso    774, 6422(2)    ;"__B T2"
005432:  521304040610  hlloi    6, 40610(4)     ;"J+$$&(" "T, AD"
005433:  511724330500  hllzi    16, @330500(4)  ;"I/4;% " "R=#1 "
005434:  262472440650  pop      11, @440650(12) ;"64ZD&H" ",STAT"
005435:  526467521550  hrlom    11, @521550(7)  ;"JTWJ-H" "US=#4"
005436:  201304051204  movei    6, 51204(4)     ;"0+$%*$" " , RB"
005437:  415724331500                           ;"AO4;- " "C=#3 "
005440:  574000000000  hlre     0, 0            ;"O@    " "_\0\0\0\0"
005441:  221100004723  imuli    2, 4723         ;"2)  G3"
005442:  536451747216  hrlem    11, 747216(11)  ;"KTI\Z." "WRONG"
005443:  202150152630  movem    3, 152630(10)   ;"01H-68" " FAUL"
005444:  521012040616  hlloi    0, 40616(12)    ;"J(*$&." "T PAG"
005445:  425011647534  setai    0, 647534(11)   ;"BH)T]<" "E NO."
005446:  261010142244  push     0, 142244(10)   ;"6((,2D" ", ADR"
005447:  365066120130  sojge    1, @120130(6)   ;">HV*!8" "=#1 ,"
005450:  502030742500  hllm     0, @742500(10)  ;"H08\5 " "PAGE "
005451:  472365620172  orcbm    7, @620172(5)   ;"G3UR!Z" "NO. ="
005452:  215524057400  movmi    12, @57400(4)   ;"1M4%\ " "#5 _\0"
005453:  422052246100  andcmm   1, 246100(12)   ;"B0J4Q " "DBRL "
005454:  432032546250  xorm     0, @546250(12)  ;"C0:LRH" "FAULT"
005455:  202510551650  movem    12, 551650(10)  ;"05(M.H" " TEST"
005456:  574000000000  hlre     0, 0            ;"O@    " "_\0\0\0\0"
005457:  310000777777  cam      0, 777777       ;"9  ___"
005460:  446352442644  eqvm     7, 442644(12)   ;"DSJD6D" "INTER"
005461:  512532052100  hllzm    12, @52100(12)  ;"I5:%1 " "RUPT "
005462:  422230447250  andcmm   4, @447250(10)  ;"B28DZH" "DIDNT"
005463:  202370341652  movem    7, @341652(10)  ;"03X<.J" " OCCU"
005464:  510000000000  hllz     0, 0            ;"I     " "R\0\0\0\0"
005465:  536451747216  hrlem    11, 747216(11)  ;"KTI\Z." "WRONG"
005466:  202150152630  movem    3, 152630(10)   ;"01H-68" " FAUL"
005467:  521304051650  hlloi    6, 51650(4)     ;"J+$%.H" "T, ST"
005470:  354073713633  aosa     1, @713633(13)  ;"=@[Y>;"
005471:  777742006460  conso    774, 6460(2)    ;"__B TP"
005472:  406512551572  andm     12, 551572(12)  ;"@U*M-Z" "ATUS="
005473:  215504057400  movmi    12, 57400(4)    ;"1M$%\ " "#4 _\0"
005474:  536451747216  hrlem    11, 747216(11)  ;"KTI\Z." "WRONG"
005475:  202150152630  movem    3, 152630(10)   ;"01H-68" " FAUL"
005476:  521012040616  hlloi    0, 40616(12)    ;"J(*$&." "T PAG"
005477:  425011647534  setai    0, 647534(11)   ;"BH)T]<" "E NO."
005500:  202030451172  movem    0, @451172(10)  ;"008E)Z" " ADR="
005501:  335566733556  skipge   13, @733556(6)  ;";MV[=N" "77777"
005502:  335012040616  skipge   0, 40616(12)    ;";H*$&." "7 PAG"
005503:  425011647534  setai    0, 647534(11)   ;"BH)T]<" "E NO."
005504:  365066520276  sojge    1, @520276(6)   ;">HVJ"^" "=#5 _"
005505:  000000000000                           ;"      "
005506:  512130142100  hllzm    2, @142100(10)  ;"I18,1 " "READ "
005507:  476351454500  setom    7, 454500(11)   ;"GSIEE " "ONLY "
005510:  432032546250  xorm     0, @546250(12)  ;"C0:LRH" "FAULT"
005511:  202510551650  movem    12, 551650(10)  ;"05(M.H" " TEST"
005512:  574000000000  hlre     0, 0            ;"O@    " "_\0\0\0\0"
005513:  202000000020  movem    0, 20           ;"00   0"
005514:  446352442644  eqvm     7, 442644(12)   ;"DSJD6D" "INTER"
005515:  512532052100  hllzm    12, @52100(12)  ;"I5:%1 " "RUPT "
005516:  422230447250  andcmm   4, @447250(10)  ;"B28DZH" "DIDNT"
005517:  202370341652  movem    7, @341652(10)  ;"03X<.J" " OCCU"
005520:  510000000000  hllz     0, 0            ;"I     " "R\0\0\0\0"
005521:  512130142100  hllzm    2, @142100(10)  ;"I18,1 " "READ "
005522:  536451152212  hrlem    11, 152212(11)  ;"KTI-2*" "WRITE"
005523:  202151151246  movem    3, 151246(11)   ;"01I-*F" " FIRS"
005524:  521010640652  hlloi    0, 640652(10)   ;"J((T&J" "T FAU"
005525:  462504052212  setcmm   12, 52212(4)    ;"F5$%2*" "LT TE"
005526:  516513700000  hrlzm    12, 700000(13)  ;"IU+X  " "ST_\0\0"
005527:  446352442644  eqvm     7, 442644(12)   ;"DSJD6D" "INTER"
005530:  012160512120                           ;"!1PI10"
005531:  777742006516  conso    774, 6516(2)    ;"__B U."
005532:  512532052100  hllzm    12, @52100(12)  ;"I5:%1 " "RUPT "
005533:  422230447250  andcmm   4, @447250(10)  ;"B28DZH" "DIDNT"
005534:  202370341652  movem    7, @341652(10)  ;"03X<.J" " OCCU"
005535:  510000000000  hllz     0, 0            ;"I     " "R\0\0\0\0"
005536:  502030742500  hllm     0, @742500(10)  ;"H08\5 " "PAGE "
005537:  446311520250  eqvm     6, 520250(11)   ;"DS)J"H" "ILM T"
005540:  426472457400  setam    11, @457400(12) ;"BTZE\ " "EST_\0"
005541:  310000400000  cam      0, 400000       ;"9  @  "
005542:  446352442644  eqvm     7, 442644(12)   ;"DSJD6D" "INTER"
005543:  512532052100  hllzm    12, @52100(12)  ;"I5:%1 " "RUPT "
005544:  422230447250  andcmm   4, @447250(10)  ;"B28DZH" "DIDNT"
005545:  202370341652  movem    7, @341652(10)  ;"03X<.J" " OCCU"
005546:  510000000000  hllz     0, 0            ;"I     " "R\0\0\0\0"
005547:  502030742500  hllm     0, @742500(10)  ;"H08\5 " "PAGE "
005550:  522030246212  hllom    0, @246212(10)  ;"J084R*" "TABLE"
005551:  202231446500  movem    4, @446500(11)  ;"029DU " " ILM "
005552:  422230447250  andcmm   4, @447250(10)  ;"B28DZH" "DIDNT"
005553:  202470552100  movem    11, @552100(10) ;"04XM1 " " SET "
005554:  502451741612  hllm     11, 741612(11)  ;"H4I\.*" "PROCE"
005555:  516471751100  hrlzm    11, @751100(11) ;"ITY]) " "SSOR "
005556:  472611520214  orcbm    14, 520214(11)  ;"G6)J"," "NXM F"
005557:  462030757400  setcmm   @757400(10)     ;"F08]\ " "LAG_\0"
005560:  446352442644  eqvm     7, 442644(12)   ;"DSJD6D" "INTER"
005561:  512532052100  hllzm    12, @52100(12)  ;"I5:%1 " "RUPT "
005562:  422230447250  andcmm   4, @447250(10)  ;"B28DZH" "DIDNT"
005563:  202370341652  movem    7, @341652(10)  ;"03X<.J" " OCCU"
005564:  510000000000  hllz     0, 0            ;"I     " "R\0\0\0\0"
005565:  502532242500  hllm     12, @242500(12) ;"H5:45 " "PURE "
005566:  416370442500  setmm    7, @442500(10)  ;"ASXD5 " "CODE "
005567:  522132352276  hllom    2, @352276(12)  ;"J1:=2^" "TEST_"
005570:  607707626625  tlnn     16, 626625(7)   ;"P_'RV5"
005571:  777742006554  conso    774, 6554(2)    ;"__B UL"
005572:  000000000000                           ;"      "
005573:  002000002235                           ;" 0  2="
005574:  502532242500  hllm     12, @242500(12) ;"H5:45 " "PURE "
005575:  412232420210  andcam   4, @420210(12)  ;"A2:B"(" "BIT D"
005576:  446111623650  eqvm     2, 623650(11)   ;"DQ)R>H" "IDN'T"
005577:  202470552100  movem    11, @552100(10) ;"04XM1 " " SET "
005600:  446344050206  eqvm     7, 50206(4)     ;"DSD%"&" "IN PC"
005601:  201725230500  movei    16, @230500(5)  ;"0/53% " " =*1 "
005602:  574000000000  hlre     0, 0            ;"O@    " "_\0\0\0\0"
005603:  264000002244  jsr      2244            ;"6@  2D"
005604:  502532242500  hllm     12, @242500(12) ;"H5:45 " "PURE "
005605:  412232420256  andcam   4, @420256(12)  ;"A2:B"N" "BIT W"
005606:  406471623650  andm     11, @623650(11) ;"@TYR>H" "ASN'T"
005607:  202472447644  movem    11, @447644(12) ;"04ZD^D" " STOR"
005610:  426104041262  setam    2, 41262(4)     ;"BQ$$*R" "ED BY"
005611:  202231652212  movem    4, @652212(11)  ;"029U2*" " INTE"
005612:  512452550250  hllzm    11, 550250(12)  ;"I4JM"H" "RRUPT"
005613:  261012041572  push     0, 41572(12)    ;"6(*$-Z" ", PC="
005614:  251424057400  blt      10, @57400(4)   ;"5,4%\ " "*1 _\0"
005615:  502532242500  hllm     12, @242500(12) ;"H5:45 " "PURE "
005616:  412232420210  andcam   4, @420210(12)  ;"A2:B"(" "BIT D"
005617:  446111623650  eqvm     2, 623650(11)   ;"DQ)R>H" "IDN'T"
005620:  202071442602  movem    1, @442602(11)  ;"00YD6"" " CLEA"
005621:  511011147100  hllzi    0, 147100(11)   ;"I(),Y " "R IN "
005622:  502064036524  hllm     1, @36524(4)    ;"H0T#U4" "PC =*"
005623:  305013700000  caige    0, 700000(13)   ;"8H+X  " "1 _\0\0"
005624:  200010000000  move     0, (10)         ;"0 (   "
005625:  000002006606                           ;"  " V&"
005626:  365040000100  sojge    1, 100          ;">H@ ! "
005627:  200000400000  move     0, 400000       ;"0  @  "
005630:  750343147562  conso    500, 147562(3)  ;"]#C,]R"
005631:  777742006612  conso    774, 6612(2)    ;"__B V*"
005632:  432032546250  xorm     0, @546250(12)  ;"C0:LRH" "FAULT"
005633:  202152247632  movem    3, 247632(12)   ;"01J4^:" " FROM"
005634:  202532342644  movem    12, @342644(12) ;"05:<6D" " USER"
005635:  202331742212  movem    6, @742212(11)  ;"039\2*" " MODE"
005636:  202150144630  movem    3, 144630(10)   ;"01H,F8" " FAIL"
005637:  426113700000  setam    2, 700000(13)   ;"BQ+X  " "ED_\0\0"
005640:  040000006612  .iot     0, 6612         ;"$   V*"
005641:  012000000100                           ;"!0  ! "
005642:  536451747216  hrlem    11, 747216(11)  ;"KTI\Z." "WRONG"
005643:  202231651650  movem    4, @651650(11)  ;"029U.H" " INST"
005644:  512530352222  hllzm    12, @352222(10) ;"I58=22" "RUCTI"
005645:  476344043202  setom    7, 43202(4)     ;"GSD$:"" "ON FA"
005646:  526312442610  hrlom    6, 442610(12)   ;"JS*D6(" "ULTED"
005647:  261011750206  push     0, 750206(11)   ;"6()]"&" ", OPC"
005650:  365066220276  sojge    1, @220276(6)   ;">HV2"^" "=#2 _"
005651:  000000000000                           ;"      "
005652:  400010000000  setz     0, (10)         ;"@ (   "
005653:  000002006632                           ;"  " V:"
005654:  522132352222  hllom    2, @352222(12)  ;"J1:=22" "TESTI"
005655:  472164047640  orcbm    3, @47640(4)    ;"G1T$^@" "NG OP"
005656:  415013700000                           ;"AH+X  " "C _\0\0"
005657:  476410320222  setom    10, 320222(10)  ;"GT(:"2" "OPC I"
005660:  472071751244  orcbm    1, @751244(11)  ;"G0Y]*D" "NCORR"
005661:  426072426100  setam    1, @426100(12)  ;"BPZBQ " "ECT, "
005662:  476410336506  setom    10, 336506(10)  ;"GT(;U&" "OPC=#"
005663:  311304051620  caml     6, 51620(4)     ;"9+$%.0" "2, SH"
005664:  476531442100  setom    12, @442100(11) ;"GU9D1 " "OULD "
005665:  412124021542  andcam   2, @21542(4)    ;"A14"-B" "BE #1"
005666:  202760000000  movem    17, @0          ;"07P   " " _\0\0\0"
005667:  522132352222  hllom    2, @352222(12)  ;"J1:=22" "TESTI"
005670:  457777255535  orcab    17, @255535(17) ;"E__5M="
005671:  777742006650  conso    774, 6650(2)    ;"__B VH"
005672:  472164047640  orcbm    3, @47640(4)    ;"G1T$^@" "NG OP"
005673:  415010646202                           ;"AH(TR"" "C FLA"
005674:  436464057400  orm      11, @57400(4)   ;"CTT%\ " "GS _\0"
005675:  502064046212  hllm     1, @46212(4)    ;"H0T$R*" "PC LE"
005676:  432504044202  xorm     12, 44202(4)    ;"C5$$B"" "FT HA"
005677:  462144036506  setcmm   3, 36506(4)     ;"F1D#U&" "LF =#"
005700:  311304051620  caml     6, 51620(4)     ;"9+$%.0" "2, SH"
005701:  476531442100  setom    12, @442100(11) ;"GU9D1 " "OULD "
005702:  412124021546  andcam   2, @21546(4)    ;"A14"-F" "BE #3"
005703:  202760000000  movem    17, @0          ;"07P   " " _\0\0\0"
005704:  522132352222  hllom    2, @352222(12)  ;"J1:=22" "TESTI"
005705:  472164041222  orcbm    3, @41222(4)    ;"G1T$*2" "NG BI"
005706:  515010646202  hrlzi    0, 646202(10)   ;"IH(TR"" "S FLA"
005707:  435013700000  ori      0, 700000(13)   ;"CH+X  " "G _\0\0"
005710:  136000000110  idpb     0, 110          ;"+P  !("
005711:  446112041100  eqvm     2, 41100(12)    ;"DQ*$) " "IDPB "
005712:  535370254650  hrlei    7, @254650(10)  ;"KKX5FH" "W/BYT"
005713:  425012047250  setai    0, 47250(12)    ;"BH*$ZH" "E PNT"
005714:  511011146230  hllzi    0, 146230(11)   ;"I(),R8" "R ILL"
005715:  426170146100  setam    3, @146100(10)  ;"BQX,Q " "EGAL "
005716:  536451747216  hrlem    11, 747216(11)  ;"KTI\Z." "WRONG"
005717:  202410326172  movem    10, 326172(10)  ;"04(:QZ" " PC,="
005720:  215424057400  movmi    10, @57400(4)   ;"1L4%\ " "#1 _\0"
005721:  412232320214  andcam   4, @320214(12)  ;"A2::"," "BIS F"
005722:  462030720234  setcmm   @720234(10)     ;"F08Z"<" "LAG N"
005723:  476504051612  setom    12, 51612(4)    ;"GU$%.*" "OT SE"
005724:  521011147100  hlloi    0, 147100(11)   ;"J(),Y " "T IN "
005725:  476410320276  setom    10, 320276(10)  ;"GT(:"^" "OPC _"
005726:  000000000000                           ;"      "
005727:  136000400000  idpb     0, 400000       ;"+P @  "
005730:  672666320130  tdoe     15, @320130(6)  ;"W6V:!8" "n[3 ,"
005731:  777742006706  conso    774, 6706(2)    ;"__B W&"
005732:  446112041100  eqvm     2, 41100(12)    ;"DQ*$) " "IDPB "
005733:  535371146230  hrlei    7, @146230(11)  ;"KKY,R8" "W/ILL"
005734:  202030451100  movem    0, @451100(10)  ;"008E) " " ADR "
005735:  536451747216  hrlem    11, 747216(11)  ;"KTI\Z." "WRONG"
005736:  202410320172  movem    10, 320172(10)  ;"04(:!Z" " PC ="
005737:  215424057400  movmi    10, @57400(4)   ;"1L4%\ " "#1 _\0"
005740:  412232320214  andcam   4, @320214(12)  ;"A2::"," "BIS F"
005741:  462030720246  setcmm   @720246(10)     ;"F08Z"F" "LAG S"
005742:  426504044634  setam    12, 44634(4)    ;"BU$$F<" "ET IN"
005743:  202372041500  movem    7, @41500(12)   ;"03Z$- " " OPC "
005744:  412130647644  andcam   2, @647644(10)  ;"A18T^D" "BEFOR"
005745:  425011141240  setai    0, 141240(11)   ;"BH),*@" "E IBP"
005746:  202760000000  movem    17, @0          ;"07P   " " _\0\0\0"
005747:  522132352222  hllom    2, @352222(12)  ;"J1:=22" "TESTI"
005750:  472164050252  orcbm    3, @50252(4)    ;"G1T%"J" "NG PU"
005751:  516204044634  hrlzm    4, 44634(4)     ;"IR$$F<" "SH IN"
005752:  516512252606  hrlzm    12, 252606(12)  ;"IU*56&" "STRUC"
005753:  522231747246  hllom    4, @747246(11)  ;"J29\ZF" "TIONS"
005754:  202760000000  movem    17, @0          ;"07P   " " _\0\0\0"
005755:  261700000000  push     16, 0           ;"6/    " ",<\0\0\0"
005756:  502532344100  hllm     12, @344100(12) ;"H5:<A " "PUSH "
005757:  442030420256  andcbm   0, @420256(10)  ;"D08B"N" "HAD W"
005760:  512371643500  hllzm    7, @643500(11)  ;"I3YT= " "RONG "
005761:  476410320172  setom    10, 320172(10)  ;"GT(:!Z" "OPC ="
005762:  215424057400  movmi    10, @57400(4)   ;"1L4%\ " "#1 _\0"
005763:  502532344100  hllm     12, @344100(12) ;"H5:<A " "PUSH "
005764:  416311741204  setmm    6, 741204(11)   ;"AS)\*$" "CLOBB"
005765:  426450542100  setam    11, 542100(10)  ;"BTHL1 " "ERED "
005766:  406064036506  andm     1, @36506(4)    ;"@PT#U&" "AC =#"
005767:  305544051620  caige    13, 51620(4)    ;"8MD%.0" "16 SH"
005770:  621541575202  tlz      13, 575202(1)   ;"R-AOJ"" "d6\rzA"
005771:  777742006744  conso    774, 6744(2)    ;"__B WD"
005772:  476531442100  setom    12, @442100(11) ;"GU9D1 " "OULD "
005773:  412124030556  andcam   2, @30556(4)    ;"A14#%N" "BE 17"
005774:  335573700000  skipge   13, @700000(13) ;";M[X  " "77_\0\0"
005775:  262700400000  pop      16, 400000      ;"67 @  "
005776:  777777000200  conso    774, @200(17)   ;"___ " "
005777:  502372020256  hllm     7, @20256(12)   ;"H3Z""N" "POP W"
006000:  446511020256  eqvm     12, 20256(11)   ;"DU)""N" "ITH W"
006001:  512371643500  hllzm    7, @643500(11)  ;"I3YT= " "RONG "
006002:  476410320172  setom    10, 320172(10)  ;"GT(:!Z" "OPC ="
006003:  215424057400  movmi    10, @57400(4)   ;"1L4%\ " "#1 _\0"
006004:  502372020206  hllm     7, @20206(12)   ;"H3Z""&" "POP C"
006005:  462370241212  setcmm   7, @241212(10)  ;"F3X4**" "LOBBE"
006006:  512130420202  hllzm    2, @420202(10)  ;"I18B""" "RED A"
006007:  415007521542                           ;"AH'J-B" "C =#1"
006010:  331304051620  skipl    6, 51620(4)     ;";+$%.0" "6, SH"
006011:  476531442100  setom    12, @442100(11) ;"GU9D1 " "OULD "
006012:  412124026542  andcam   2, @26542(4)    ;"A14"UB" "BE -1"
006013:  261306230140  push     6, 230140(6)    ;"6+&3!@" ",,200"
006014:  202760000000  movem    17, @0          ;"07P   " " _\0\0\0"
006015:  260700000400  pushj    16, 400         ;"6'  $ "
006016:  502532344224  hllm     12, @344224(12) ;"H5:<B4" "PUSHJ"
006017:  202565753644  movem    13, @753644(5)  ;"05U]>D" " W/WR"
006020:  476350720236  setom    7, 720236(10)   ;"GSHZ">" "ONG O"
006021:  502064036506  hllm     1, @36506(4)    ;"H0T#U&" "PC =#"
006022:  305013700000  caige    0, 700000(13)   ;"8H+X  " "1 _\0\0"
006023:  502532344224  hllm     12, @344224(12) ;"H5:<B4" "PUSHJ"
006024:  202071447604  movem    1, @447604(11)  ;"00YD^$" " CLOB"
006025:  412132220240  andcam   2, @220240(12)  ;"A1:2"@" "BER P"
006026:  415724330554                           ;"AO4;%L" "C=#16"
006027:  261012344236  push     0, 344236(12)   ;"6(*<B>" ", SHO"
006030:  157156023424  fsbrb    3, 23424(16)    ;"-YN"<4" "\033fp'\n"
006031:  777742007002  conso    774, 7002(2)    ;"__B X""
006032:  526310420204  hrlom    6, 420204(10)   ;"JS(B"$" "ULD B"
006033:  425006133556  setai    0, 133556(6)    ;"BH&+=N" "E 177"
006034:  335013700000  skipge   0, 700000(13)   ;";H+X  " "7 _\0\0"
006035:  522132352222  hllom    2, @352222(12)  ;"J1:=22" "TESTI"
006036:  472164041230  orcbm    3, @41230(4)    ;"G1T$*8" "NG BL"
006037:  521013700000  hlloi    0, 700000(13)   ;"J(+X  " "T _\0\0"
006040:  251700000377  blt      16, 377         ;"5/  #_"
006041:  001700000200                           ;" /  " "
006042:  536451747216  hrlem    11, 747216(11)  ;"KTI\Z." "WRONG"
006043:  202410336506  movem    10, 336506(10)  ;"04(;U&" " PC=#"
006044:  305012344236  caige    0, 344236(12)   ;"8H*<B>" "1 SHO"
006045:  526310420204  hrlom    6, 420204(10)   ;"JS(B"$" "ULD B"
006046:  425006130140  setai    0, 130140(6)    ;"BH&+!@" "E 100"
006047:  574000000000  hlre     0, 0            ;"O@    " "_\0\0\0\0"
006050:  002000000300                           ;" 0  # "
006051:  412312420202  andcam   6, 420202(12)   ;"A3*B""" "BLT A"
006052:  415012352236                           ;"AH*=2>" "C STO"
006053:  512130420222  hllzm    2, @420222(10)  ;"I18B"2" "RED I"
006054:  472071751244  orcbm    1, @751244(11)  ;"G0Y]*D" "NCORR"
006055:  426072420172  setam    1, @420172(12)  ;"BPZB!Z" "ECT ="
006056:  215426626100  movmi    10, @626100(6)  ;"1L6RQ " "#16, "
006057:  516211752630  hrlzm    4, 752630(11)   ;"IR)]68" "SHOUL"
006060:  421010242500  andcmi   0, 242500(10)   ;"B((45 " "D BE "
006061:  311406030130  caml     10, 30130(6)    ;"9,&#!8" "2000,"
006062:  261466030100  push     11, @30100(6)   ;"6,V#! " ",300 "
006063:  574000000000  hlre     0, 0            ;"O@    " "_\0\0\0\0"
006064:  251700002077  blt      16, 2077        ;"5/  0_"
006065:  000200001700                           ;" "  / "
006066:  000300002000                           ;" #  0 "
006067:  412312420202  andcam   6, 420202(12)   ;"A3*B""" "BLT A"
006070:  146364260020  fadrm    7, @260020(4)   ;",ST6 0"
006071:  777742007040  conso    774, 7040(2)    ;"__B X@"
006072:  415012352236                           ;"AH*=2>" "C STO"
006073:  512130420222  hllzm    2, @420222(10)  ;"I18B"2" "RED I"
006074:  472071751244  orcbm    1, @751244(11)  ;"G0Y]*D" "NCORR"
006075:  426072420172  setam    1, @420172(12)  ;"BPZB!Z" "ECT ="
006076:  215426626100  movmi    10, @626100(6)  ;"1L6RQ " "#16, "
006077:  516211752630  hrlzm    4, 752630(11)   ;"IR)]68" "SHOUL"
006100:  421010242500  andcmi   0, 242500(10)   ;"B((45 " "D BE "
006101:  315406026130  camge    10, 26130(6)    ;"9L&"Q8" "300,,"
006102:  311406030100  caml     10, 30100(6)    ;"9,&#! " "2000 "
006103:  574000000000  hlre     0, 0            ;"O@    " "_\0\0\0\0"
006104:  522132352222  hllom    2, @352222(12)  ;"J1:=22" "TESTI"
006105:  472164050222  orcbm    3, @50222(4)    ;"G1T%"2" "NG PI"
006106:  202512240640  movem    12, 240640(12)  ;"05*4&@" " TRAP"
006107:  202760000000  movem    17, @0          ;"07P   " " _\0\0\0"
006110:  202000400000  movem    0, 400000       ;"00 @  "
006111:  432032546250  xorm     0, @546250(12)  ;"C0:LRH" "FAULT"
006112:  426104044634  setam    2, 44634(4)     ;"BQ$$F<" "ED IN"
006113:  515010444610  hrlzi    0, 444610(10)   ;"IH(DF(" "S DID"
006114:  472504051626  orcbm    12, 51626(4)    ;"G5$%.6" "NT SK"
006115:  446404057400  eqvm     10, 57400(4)    ;"DT$%\ " "IP _\0"
006116:  040000007057  .iot     0, 7057         ;"$   XO"
006117:  700600006220  cono     pi, 6220        ;"X&  R0"
006120:  222200005220  imulm    4, 5220         ;"22  J0"
006121:  264000002570  jsr      2570            ;"6@  5X"
006122:  014000001775                           ;"!@  /]"
006123:  502224042222  hllm     4, @42222(4)    ;"H24$22" "PI DI"
006124:  422352420250  andcmm   7, 420250(12)   ;"B3JB"H" "DNT T"
006125:  512032020204  hllzm    0, @20204(12)   ;"I0:""$" "RAP B"
006126:  426151751212  setam    3, 751212(11)   ;"BQI]**" "EFORE"
006127:  202350554250  movem    7, 554250(10)   ;"03HMBH" " NEXT"
006130:  020227446175                           ;"""7DQ]"
006131:  777742007076  conso    774, 7076(2)    ;"__B X^"
006132:  202231651650  movem    4, @651650(11)  ;"029U.H" " INST"
006133:  512530352222  hllzm    12, @352222(10) ;"I58=22" "RUCTI"
006134:  476344057400  setom    7, 57400(4)     ;"GSD%\ " "ON _\0"
006135:  014000001777                           ;"!@  /_"
006136:  446352442644  eqvm     7, 442644(12)   ;"DSJD6D" "INTER"
006137:  512532052100  hllzm    12, @52100(12)  ;"I5:%1 " "RUPT "
006140:  432451746500  xorm     11, 746500(11)  ;"C4I\U " "FROM "
006141:  215425420246  movmi    10, @420246(5)  ;"1L5B"F" "#1, S"
006142:  442372546210  andcbm   7, @546210(12)  ;"D3ZLR(" "HOULD"
006143:  202050520144  movem    1, 520144(10)   ;"00HJ!D" " BE 2"
006144:  301406057400  cail     10, 57400(6)    ;"8,&%\ " "000_\0"
006145:  446352442644  eqvm     7, 442644(12)   ;"DSJD6D" "INTER"
006146:  512532052212  hllzm    12, @52212(12)  ;"I5:%2*" "RUPTE"
006147:  421010651236  andcmi   0, 651236(10)   ;"B((U*>" "D FRO"
006150:  465004330530  orcmi    0, 330530(4)    ;"FH$;%8" "M #1,"
006151:  202471047652  movem    11, @47652(11)  ;"04Y$^J" " SHOU"
006152:  462104041212  setcmm   2, 41212(4)     ;"F1$$**" "LD BE"
006153:  201446030144  movei    11, 30144(6)    ;"0,F#!D" " 2002"
006154:  574000000000  hlre     0, 0            ;"O@    " "_\0\0\0\0"
006155:  466131520240  orcmm    2, @520240(11)  ;"FQ9J"@" "MEM P"
006156:  512372420214  hllzm    7, @420214(12)  ;"I3ZB"," "ROT F"
006157:  462030720210  setcmm   @720210(10)     ;"F08Z"(" "LAG D"
006160:  446111652100  eqvm     2, 652100(11)   ;"DQ)U1 " "IDNT "
006161:  436132420246  orm      2, @420246(12)  ;"CQ:B"F" "GET S"
006162:  426504057400  setam    12, 57400(4)    ;"BU$%\ " "ET _\0"
006163:  446352442644  eqvm     7, 442644(12)   ;"DSJD6D" "INTER"
006164:  512532052100  hllzm    12, @52100(12)  ;"I5:%1 " "RUPT "
006165:  422230447250  andcmm   4, @447250(10)  ;"B28DZH" "DIDNT"
006166:  202370341652  movem    7, @341652(10)  ;"03X<.J" " OCCU"
006167:  510000000000  hllz     0, 0            ;"I     " "R\0\0\0\0"
006170:  444672773066  eqv      15, @773066(12) ;"DFZ_8V" "I\033Wv\033"
006171:  777742007134  conso    774, 7134(2)    ;"__B Y<"
006172:  432032546250  xorm     0, @546250(12)  ;"C0:LRH" "FAULT"
006173:  202410143612  movem    10, 143612(10)  ;"04(,>*" " PAGE"
006174:  202351720172  movem    7, 720172(11)   ;"03IZ!Z" " NO ="
006175:  215425420246  movmi    10, @420246(5)  ;"1L5B"F" "#1, S"
006176:  442372546210  andcbm   7, @546210(12)  ;"D3ZLR(" "HOULD"
006177:  202050520144  movem    1, 520144(10)   ;"00HJ!D" " BE 2"
006200:  301404057400  cail     10, 57400(4)    ;"8,$%\ " "00 _\0"
006201:  446352442644  eqvm     7, 442644(12)   ;"DSJD6D" "INTER"
006202:  512532052100  hllzm    12, @52100(12)  ;"I5:%1 " "RUPT "
006203:  422230447250  andcmm   4, @447250(10)  ;"B28DZH" "DIDNT"
006204:  202370341652  movem    7, @341652(10)  ;"03X<.J" " OCCU"
006205:  510000000000  hllz     0, 0            ;"I     " "R\0\0\0\0"
006206:  432032546250  xorm     0, @546250(12)  ;"C0:LRH" "FAULT"
006207:  202410143612  movem    10, 143612(10)  ;"04(,>*" " PAGE"
006210:  202351727100  movem    7, 727100(11)   ;"03IZY " " NO. "
006211:  365066126100  sojge    1, @126100(6)   ;">HV*Q " "=#1, "
006212:  516211752630  hrlzm    4, 752630(11)   ;"IR)]68" "SHOUL"
006213:  421010242500  andcmi   0, 242500(10)   ;"B((45 " "D BE "
006214:  315566720276  camge    13, @720276(6)  ;"9MVZ"^" "377 _"
006215:  000000000000                           ;"      "
006216:  522132352222  hllom    2, @352222(12)  ;"J1:=22" "TESTI"
006217:  472164040616  orcbm    3, @40616(4)    ;"G1T$&." "NG AG"
006220:  425012242616  setai    0, 242616(12)   ;"BH*46." "E REG"
006221:  446472442644  eqvm     11, @442644(12) ;"DTZD6D" "ISTER"
006222:  202760000000  movem    17, @0          ;"07P   " " _\0\0\0"
006223:  340300005067  aoj      6, 5067         ;"<#  HW"
006224:  200000000100  move     0, 100          ;"0   ! "
006225:  600010600010  trn      0, 600010(10)   ;"P (P ("
006226:  340300000002  aoj      6, 2            ;"<#   ""
006227:  406170520246  andm     3, @520246(10)  ;"@QXJ"F" "AGE S"
006230:  431461144320  xori     11, @144320(1)  ;"C,Q,C0" "F3\tHh"
006231:  777742007172  conso    774, 7172(2)    ;"__B YZ"
006232:  522372242610  hllom    7, @242610(12)  ;"J3Z46(" "TORED"
006233:  202231641636  movem    4, @641636(11)  ;"029T.>" " INCO"
006234:  512450541650  hllzm    11, 541650(10)  ;"I4HL.H" "RRECT"
006235:  201725230530  movei    16, @230530(5)  ;"0/53%8" " =*1,"
006236:  516211752630  hrlzm    4, 752630(11)   ;"IR)]68" "SHOUL"
006237:  421010242500  andcmi   0, 242500(10)   ;"B((45 " "D BE "
006240:  251444057400  blt      11, 57400(4)    ;"5,D%\ " "*2 _\0"
006241:  340300005120  aoj      6, 5120         ;"<#  I0"
006242:  200000002100  move     0, 2100         ;"0   1 "
006243:  120300000002                           ;"*#   ""
006244:  522132352222  hllom    2, @352222(12)  ;"J1:=22" "TESTI"
006245:  472164045240  orcbm    3, @45240(4)    ;"G1T$J@" "NG JP"
006246:  415013700000                           ;"AH+X  " "C _\0\0"
006247:  442200005120  andcbm   4, 5120         ;"D2  I0"
006250:  005122005123                           ;" I2 I3"
006251:  466412620210  orcmm    10, 620210(12)  ;"FT*R"(" "MPV D"
006252:  446111652100  eqvm     2, 652100(11)   ;"DQ)U1 " "IDNT "
006253:  432032546250  xorm     0, @546250(12)  ;"C0:LRH" "FAULT"
006254:  202760000000  movem    17, @0          ;"07P   " " _\0\0\0"
006255:  452410320206  setcam   10, 320206(10)  ;"E4(:"&" "JPC C"
006256:  442031643612  andcbm   0, @643612(11)  ;"D09T>*" "HANGE"
006257:  421304053602  andcmi   6, 53602(4)     ;"B+$%>"" "D, WA"
006260:  515005530500  hrlzi    0, 530500(5)    ;"IH%K% " "S -1 "
006261:  472372720106  orcbm    7, @720106(12)  ;"G3ZZ!&" "NOW #"
006262:  305013700000  caige    0, 700000(13)   ;"8H+X  " "1 _\0\0"
006263:  452410320256  setcam   10, 320256(10)  ;"E4(:"N" "JPC W"
006264:  512371643530  hllzm    7, @643530(11)  ;"I3YT=8" "RONG,"
006265:  202471047652  movem    11, @47652(11)  ;"04Y$^J" " SHOU"
006266:  462104041212  setcmm   2, 41212(4)     ;"F1$$**" "LD BE"
006267:  201466030140  movei    11, @30140(6)   ;"0,V#!@" " 3000"
006270:  013567652462                           ;"!=WU4R"
006271:  777742007230  conso    774, 7230(2)    ;"__B Z8"
006272:  261011151500  push     0, 151500(11)   ;"6()-- " ", IS "
006273:  215424057400  movmi    10, @57400(4)   ;"1L4%\ " "#1 _\0"
006274:  452410320246  setcam   10, 320246(10)  ;"E4(:"F" "JPC S"
006275:  442372546210  andcbm   7, @546210(12)  ;"D3ZLR(" "HOULD"
006276:  202050520146  movem    1, 520146(10)   ;"00HJ!F" " BE 3"
006277:  301426526100  cail     10, @526100(6)  ;"8,6JQ " "015, "
006300:  446464021542  eqvm     11, @21542(4)   ;"DTT"-B" "IS #1"
006301:  202760000000  movem    17, @0          ;"07P   " " _\0\0\0"
006302:  254000000002  jrst     2               ;"5@   ""
006303:  452410320246  setcam   10, 320246(10)  ;"E4(:"F" "JPC S"
006304:  442372546210  andcbm   7, @546210(12)  ;"D3ZLR(" "HOULD"
006305:  202050520142  movem    1, 520142(10)   ;"00HJ!B" " BE 1"
006306:  261011151500  push     0, 151500(11)   ;"6()-- " ", IS "
006307:  215424057400  movmi    10, @57400(4)   ;"1L4%\ " "#1 _\0"
006310:  522132352222  hllom    2, @352222(12)  ;"J1:=22" "TESTI"
006311:  472164046602  orcbm    3, @46602(4)    ;"G1T$V"" "NG MA"
006312:  511013700000  hllzi    0, 700000(13)   ;"I(+X  " "R _\0\0"
006313:  000004000100                           ;"  $ ! "
006314:  466032220222  orcmm    0, @220222(12)  ;"FP:2"2" "MAR I"
006315:  472504041520  orcbm    12, 41520(4)    ;"G5$$-0" "NT C("
006316:  466032224572  orcmm    0, @224572(12)  ;"FP:2EZ" "MAR)="
006317:  251506731152  blt      12, 731152(6)   ;"5-&[)J" "*4725"
006320:  201330142244  movei    6, @142244(10)  ;"0+8,2D" " -ADR"
006321:  201724330546  movei    16, @330546(4)  ;"0/4;%F" " =#13"
006322:  202760000000  movem    17, @0          ;"07P   " " _\0\0\0"
006323:  000006020077                           ;"  &" _"
006324:  466032220210  orcmm    0, @220210(12)  ;"FP:2"(" "MAR D"
006325:  446111652100  eqvm     2, 652100(11)   ;"DQ)U1 " "IDNT "
006326:  446352442644  eqvm     7, 442644(12)   ;"DSJD6D" "INTER"
006327:  512532052000  hllzm    12, @52000(12)  ;"I5:%0 " "RUPT\0"
006330:  503167140236  hlls     3, @140236(7)   ;"H9W,">" "Pg9@O"
006331:  777742007266  conso    774, 7266(2)    ;"__B ZV"
006332:  466032220222  orcmm    0, @220222(12)  ;"FP:2"2" "MAR I"
006333:  472504040650  orcbm    12, 40650(4)    ;"G5$$&H" "NT AT"
006334:  202572247634  movem    13, @247634(12) ;"05Z4^<" " WRON"
006335:  435012444632  ori      0, 444632(12)   ;"CH*DF:" "G TIM"
006336:  425304047640  setai    6, 47640(4)     ;"BK$$^@" "E, OP"
006337:  415724330500                           ;"AO4;% " "C=#1 "
006340:  466032236524  orcmm    0, @236524(12)  ;"FP:3U4" "MAR=*"
006341:  311013700000  caml     0, 700000(13)   ;"9(+X  " "2 _\0\0"
006342:  536451747216  hrlem    11, 747216(11)  ;"KTI\Z." "WRONG"
006343:  202150152630  movem    3, 152630(10)   ;"01H-68" " FAUL"
006344:  521304051650  hlloi    6, 51650(4)     ;"J+$%.H" "T, ST"
006345:  406512551500  andm     12, 551500(12)  ;"@U*M- " "ATUS "
006346:  365066220276  sojge    1, @220276(6)   ;">HV2"^" "=#2 _"
006347:  000000000000                           ;"      "
006350:  000005000004                           ;"  %  $"
006351:  003135000002                           ;" 9=  ""
006352:  536451747216  hrlem    11, 747216(11)  ;"KTI\Z." "WRONG"
006353:  202372041500  movem    7, @41500(12)   ;"03Z$- " " OPC "
006354:  432372220232  xorm     7, @220232(12)  ;"C3Z2":" "FOR M"
006355:  406445447640  andm     11, 447640(5)   ;"@TED^@" "AR,OP"
006356:  415724330530                           ;"AO4;%8" "C=#1,"
006357:  202330151172  movem    6, @151172(10)  ;"038-)Z" " MAR="
006360:  215444057400  movmi    11, 57400(4)    ;"1LD%\ " "#2 _\0"
006361:  000007020100                           ;"  '"! "
006362:  200000020100  move     0, 20100        ;"0  "! "
006363:  202000020100  movem    0, 20100        ;"00 "! "
006364:  466032220246  orcmm    0, @220246(12)  ;"FP:2"F" "MAR S"
006365:  426504052236  setam    12, 52236(4)    ;"BU$%2>" "ET TO"
006366:  201066426100  movei    1, @426100(6)   ;"0(VBQ " " #4, "
006367:  446352420236  eqvm     7, 420236(12)   ;"DSJB">" "INT O"
006370:  552604702040  hrrzm    14, 702040(4)   ;"M6$X0@"
006371:  777742007324  conso    774, 7324(2)    ;"__B [4"
006372:  471004330500  orcbi    0, 330500(4)    ;"G($;% " "N #1 "
006373:  574000000000  hlre     0, 0            ;"O@    " "_\0\0\0\0"
006374:  512031642236  hllzm    0, @642236(11)  ;"I09T2>" "RANDO"
006375:  465010640652  orcmi    0, 640652(10)   ;"FH(T&J" "M FAU"
006376:  462505420246  setcmm   12, 420246(5)   ;"F5%B"F" "LT, S"
006377:  522032452646  hllom    0, @452646(12)  ;"J0:E6F" "TATUS"
006400:  364000000000  soja     0, 0            ;">@    " "=\0\0\0\0"
006401:  000003000100                           ;"  # ! "
006402:  522132352222  hllom    2, @352222(12)  ;"J1:=22" "TESTI"
006403:  472164047634  orcbm    3, @47634(4)    ;"G1T$^<" "NG ON"
006404:  425012051236  setai    0, 51236(12)    ;"BH*%*>" "E PRO"
006405:  416130542276  setmm    2, @542276(10)  ;"AQ8L2^" "CEED_"
006406:  000000000000                           ;"      "
006407:  264000003305  jsr      3305            ;"6@  ;%"
006410:  000400003312                           ;" $  ;*"
006411:  476350550244  setom    7, 550244(10)   ;"GSHM"D" "ONEPR"
006412:  476070542610  setom    1, @542610(10)  ;"GPXL6(" "OCEED"
006413:  202351752100  movem    7, 752100(11)   ;"03I]1 " " NOT "
006414:  516511751212  hrlzm    12, 751212(11)  ;"IU)]**" "STORE"
006415:  421010254500  andcmi   0, 254500(10)   ;"B((5E " "D BY "
006416:  446352442644  eqvm     7, 442644(12)   ;"DSJD6D" "INTER"
006417:  512532052130  hllzm    12, @52130(12)  ;"I5:%18" "RUPT,"
006420:  202410336524  movem    10, 336524(10)  ;"04(;U4" " PC=*"
006421:  305013700000  caige    0, 700000(13)   ;"8H+X  " "1 _\0\0"
006422:  476350550244  setom    7, 550244(10)   ;"GSHM"D" "ONEPR"
006423:  476070542610  setom    1, @542610(10)  ;"GPXL6(" "OCEED"
006424:  202351752100  movem    7, 752100(11)   ;"03I]1 " " NOT "
006425:  416310540644  setmm    6, 540644(10)   ;"AS(L&D" "CLEAR"
006426:  426104041262  setam    2, 41262(4)     ;"BQ$$*R" "ED BY"
006427:  202512240640  movem    12, 240640(12)  ;"05*4&@" " TRAP"
006430:  624174043157  trza     3, @43157(14)   ;"RA\$9O"
006431:  777742007362  conso    774, 7362(2)    ;"__B [R"
006432:  261012041572  push     0, 41572(12)    ;"6(*$-Z" ", PC="
006433:  251444057400  blt      11, 57400(4)    ;"5,D%\ " "*2 _\0"
006434:  476350520240  setom    7, 520240(10)   ;"GSHJ"@" "ONE P"
006435:  512370342612  hllzm    7, @342612(10)  ;"I3X<6*" "ROCEE"
006436:  421012451202  andcmi   0, 451202(12)   ;"B(*E*"" "D TRA"
006437:  501010647630                           ;"H((T^8" "P FOL"
006440:  462372742610  setcmm   7, @742610(12)  ;"F3Z\6(" "LOWED"
006441:  202231652212  movem    4, @652212(11)  ;"029U2*" " INTE"
006442:  512532052130  hllzm    12, @52130(12)  ;"I5:%18" "RUPT,"
006443:  202471047652  movem    11, @47652(11)  ;"04Y$^J" " SHOU"
006444:  462104044202  setcmm   2, 44202(4)     ;"F1$$B"" "LD HA"
006445:  532124041212  hllem    2, @41212(4)    ;"K14$**" "VE BE"
006446:  426344041630  setam    7, 41630(4)     ;"BSD$.8" "EN CL"
006447:  426032257400  setam    0, @257400(12)  ;"BP:5\ " "EAR_\0"
006450:  002300005072                           ;" 3  HZ"
006451:  000400003344                           ;" $  ;D"
006452:  472364047634  orcbm    7, @47634(4)    ;"G3T$^<" "NO ON"
006453:  425012051236  setai    0, 51236(12)    ;"BH*%*>" "E PRO"
006454:  416130542100  setmm    2, @542100(10)  ;"AQ8L1 " "CEED "
006455:  446352442644  eqvm     7, 442644(12)   ;"DSJD6D" "INTER"
006456:  512532052276  hllzm    12, @52276(12)  ;"I5:%2^" "RUPT_"
006457:  000000000000                           ;"      "
006460:  512031642236  hllzm    0, @642236(11)  ;"I09T2>" "RANDO"
006461:  465010640652  orcmi    0, 640652(10)   ;"FH(T&J" "M FAU"
006462:  462505420246  setcmm   12, 420246(5)   ;"F5%B"F" "LT, S"
006463:  522032452646  hllom    0, @452646(12)  ;"J0:E6F" "TATUS"
006464:  364000000000  soja     0, 0            ;">@    " "=\0\0\0\0"
006465:  476350520240  setom    7, 520240(10)   ;"GSHJ"@" "ONE P"
006466:  512370342612  hllzm    7, @342612(10)  ;"I3X<6*" "ROCEE"
006467:  421010244650  andcmi   0, 244650(10)   ;"B((4FH" "D BIT"
006470:  052543366014                           ;"%5C>P,"
006471:  777742007420  conso    774, 7420(2)    ;"__B \0"
006472:  202472444630  movem    11, @444630(12) ;"04ZDF8" " STIL"
006473:  461012342650  setcmi   0, 342650(12)   ;"F(*<6H" "L SET"
006474:  202231620240  movem    4, @620240(11)  ;"029R"@" " IN P"
006475:  416760000000  setmm    17, @0          ;"AWP   " "C_\0\0\0"
006476:  502064051620  hllm     1, @51620(4)    ;"H0T%.0" "PC SH"
006477:  476531442100  setom    12, @442100(11) ;"GU9D1 " "OULD "
006500:  412124021544  andcam   2, @21544(4)    ;"A14"-D" "BE #2"
006501:  261011151500  push     0, 151500(11)   ;"6()-- " ", IS "
006502:  215424057400  movmi    10, @57400(4)   ;"1L4%\ " "#1 _\0"
006503:  002300004726                           ;" 3  G6"
006504:  526531720214  hrlom    12, @720214(11) ;"JU9Z"," "UUO F"
006505:  512371520256  hllzm    7, @520256(11)  ;"I3YJ"N" "ROM W"
006506:  512371643500  hllzm    7, @643500(11)  ;"I3YT= " "RONG "
006507:  462370320172  setcmm   7, @320172(10)  ;"F3X:!Z" "LOC ="
006510:  215425420246  movmi    10, @420246(5)  ;"1L5B"F" "#1, S"
006511:  442372546210  andcbm   7, @546210(12)  ;"D3ZLR(" "HOULD"
006512:  202050520106  movem    1, 520106(10)   ;"00HJ!&" " BE #"
006513:  311013700000  caml     0, 700000(13)   ;"9(+X  " "2 _\0\0"
006514:  526531720230  hrlom    12, @720230(11) ;"JU9Z"8" "UUO L"
006515:  426152420236  setam    3, 420236(12)   ;"BQJB">" "EFT O"
006516:  472125550244  orcbm    2, @550244(5)   ;"G15M"D" "NE-PR"
006517:  476070342610  setom    1, @342610(10)  ;"GPX<6(" "OCCED"
006520:  202051152130  movem    1, 152130(11)   ;"00I-18" " BIT,"
006521:  202311020240  movem    6, 20240(11)    ;"03)""@" " LH P"
006522:  415724331500                           ;"AO4;- " "C=#3 "
006523:  574000000000  hlre     0, 0            ;"O@    " "_\0\0\0\0"
006524:  411011342662  andcai   0, 342662(11)   ;"A()<6R" "B KEY"
006525:  202150144630  movem    3, 144630(10)   ;"01H,F8" " FAIL"
006526:  426104052240  setam    2, 52240(4)     ;"BQ$%2@" "ED TP"
006527:  202330152206  movem    6, @152206(10)  ;"038-2&" " MATC"
006530:  007646134403                           ;" ^F+D#"
006531:  777742007456  conso    774, 7456(2)    ;"__B \N"
006532:  440321240610  andcb    6, @240610(1)   ;"D#14&(" "H\r\nAD"
006533:  511724021542  hllzi    16, @21542(4)   ;"I/4"-B" "R= #1"
006534:  201304041100  movei    6, 41100(4)     ;"0+$$) " " , B "
006535:  456133136506  orcam    2, @136506(13)  ;"EQ;+U&" "KEY=#"
006536:  315005420244  camge    0, 420244(5)    ;"9H%B"D" "3 , R"
006537:  412067521544  andcam   1, @521544(7)   ;"A0WJ-D" "BC=#2"
006540:  200000000000  move     0, 0            ;"0     " " \0\0\0\0"
006541:  415011342662                           ;"AH)<6R" "C KEY"
006542:  202150144630  movem    3, 144630(10)   ;"01H,F8" " FAIL"
006543:  426104052240  setam    2, 52240(4)     ;"BQ$%2@" "ED TP"
006544:  202330152206  movem    6, @152206(10)  ;"038-2&" " MATC"
006545:  440321240610  andcb    6, @240610(1)   ;"D#14&(" "H\r\nAD"
006546:  511724021542  hllzi    16, @21542(4)   ;"I/4"-B" "R= #1"
006547:  201304041500  movei    6, 41500(4)     ;"0+$$- " " , C "
006550:  456133136506  orcam    2, @136506(13)  ;"EQ;+U&" "KEY=#"
006551:  315005420244  camge    0, 420244(5)    ;"9H%B"D" "3 , R"
006552:  412067521544  andcam   1, @521544(7)   ;"A0WJ-D" "BC=#2"
006553:  200000000000  move     0, 0            ;"0     " " \0\0\0\0"
006554:  415210141500                           ;"AJ(,- " "C(AC "
006555:  215464024572  movmi    11, @24572(4)   ;"1LT"EZ" "#3 )="
006556:  251424026254  blt      10, @26254(4)   ;"5,4"RL" "*1 ,V"
006557:  446452452602  eqvm     11, 452602(12)  ;"DTJE6"" "IRTUA"
006560:  461010536506  setcmi   0, 536506(10)   ;"F((KU&" "L E=#"
006561:  321304051212  jumpl    6, 51212(4)     ;":+$%**" "4, RE"
006562:  406304042572  andm     6, 42572(4)     ;"@S$$5Z" "AL E="
006563:  215525406424  movmi    12, @406424(5)  ;"1M5@T4" "#5,\r\n"
006564:  415210524572                           ;"AJ(JEZ" "C(E)="
006565:  251440000000  blt      11, 0           ;"5,@   " "*2\0\0\0"
006566:  415210536524                           ;"AJ(KU4" "C(E=*"
006567:  315005136506  camge    0, 136506(5)    ;"9H%+U&" "3 )=#"
006570:  372771507770  sose     17, @507770(11) ;"?7YH_X"
006571:  777742007514  conso    774, 7514(2)    ;"__B ],"
006572:  305012352236  caige    0, 352236(12)   ;"8H*=2>" "1 STO"
006573:  512130420222  hllzm    2, @420222(10)  ;"I18B"2" "RED I"
006574:  471010324212  orcbi    0, 324212(10)   ;"G((:B*" "N C(E"
006575:  365246420122  sojge    5, 420122(6)    ;">JFB!2" "=*4 )"
006576:  365066220276  sojge    1, @220276(6)   ;">HV2"^" "=#2 _"
006577:  000000000000                           ;"      "
006600:  412312420250  andcam   6, 420250(12)   ;"A3*B"H" "BLT T"
006601:  475010554212  setoi    0, 554212(10)   ;"GH(MB*" "O EXE"
006602:  415006430140                           ;"AH&C!@" "C 400"
006603:  301406020246  cail     10, 20246(6)    ;"8,&""F" "000 S"
006604:  456232050212  orcam    4, @50212(12)   ;"ER:%"*" "KIPPE"
006605:  420000000000  andcm    0, 0            ;"B     " "D\0\0\0\0"
006606:  542072451100  hrrm     1, @451100(12)  ;"L0ZE) " "XCTR "
006607:  516271150240  hrlzm    5, @150240(11)  ;"IRY-"@" "SKIPP"
006610:  426104053622  setam    2, 53622(4)     ;"BQ$%>2" "ED WI"
006611:  522211152650  hllom    4, 152650(11)   ;"J2)-6H" "THIUT"
006612:  202150152630  movem    3, 152630(10)   ;"01H-68" " FAUL"
006613:  522760000000  hllom    17, @0          ;"J7P   " "T_\0\0\0"
006614:  412312420206  andcam   6, 420206(12)   ;"A3*B"&" "BLT C"
006615:  242133042606  lsh      2, @42606(13)   ;"41;$6&" "(EXEC"
006616:  245007537100  rotc     0, 537100(7)    ;"4H'KY " ") => "
006617:  415212242630                           ;"AJ*468" "C(REL"
006620:  202133042606  movem    2, @42606(13)   ;"01;$6&" " EXEC"
006621:  246760000000  lshc     17, @0          ;"4WP   " ")_\0\0\0"
006622:  542072451100  hrrm     1, @451100(12)  ;"L0ZE) " "XCTR "
006623:  301310246250  cail     6, 246250(10)   ;"8+(4RH" "0,BLT"
006624:  202065042660  movem    1, @42660(5)    ;"00U$6P" " C(EX"
006625:  426065136574  setam    1, @136574(5)   ;"BPU+U\" "EC)=>"
006626:  202065051212  movem    1, @51212(5)    ;"00U%**" " C(RE"
006627:  461010554212  setcmi   0, 554212(10)   ;"F((MB*" "L EXE"
006630:  535031725720  hrlei    0, @725720(11)  ;"KH9ZO0" "W!O+h"
006631:  777742007552  conso    774, 7552(2)    ;"__B ]J"
006632:  415233700000                           ;"AJ;X  " "C)_\0\0"
006633:  415204331500                           ;"AJ$;- " "C(#3 "
006634:  245725230500  rotc     16, @230500(5)  ;"4O53% " ")=*1 "
006635:  365744041520  sojge    17, 41520(4)    ;">OD$-0" "=> C("
006636:  215504024572  movmi    12, 24572(4)    ;"1M$"EZ" "#4 )="
006637:  251444057400  blt      11, 57400(4)    ;"5,D%\ " "*2 _\0"
006640:  542072451100  hrrm     1, @451100(12)  ;"L0ZE) " "XCTR "
006641:  432032546250  xorm     0, @546250(12)  ;"C0:LRH" "FAULT"
006642:  426104053622  setam    2, 53622(4)     ;"BQ$%>2" "ED WI"
006643:  522211752650  hllom    4, 752650(11)   ;"J2)]6H" "THOUT"
006644:  202231652212  movem    4, @652212(11)  ;"029U2*" " INTE"
006645:  512452550250  hllzm    11, 550250(12)  ;"I4JM"H" "RRUPT"
006646:  200000000000  move     0, 0            ;"0     " " \0\0\0\0"
006647:  005067005070                           ;" HW HX"
006650:  000336000337                           ;" #> #?"
006651:  264000003541  jsr      3541            ;"6@  =A"
006652:  522632042500  hllom    14, @42500(12)  ;"J6:$5 " "TYPE "
006653:  422112420230  andcmm   2, 420230(12)   ;"B1*B"8" "DDT L"
006654:  476070152222  setom    1, @152222(10)  ;"GPX-22" "OCATI"
006655:  476344047644  setom    7, 47644(4)     ;"GSD$^D" "ON OR"
006656:  202072220000  movem    1, @220000(12)  ;"00Z2  " " CR \0"
006657:  375000000000  sosge    0, 0            ;"?H    " "? \0\0\0"
006660:  003740003741                           ;" ?@ ?A"
006661:  442200003740  andcbm   4, 3740         ;"D2  ?@"
006662:  202171752100  movem    3, @752100(11)  ;"01Y]1 " " GOT "
006663:  476310420210  setom    6, 420210(10)   ;"GS(B"(" "OLD D"
006664:  406510120202  andm     12, 120202(10)  ;"@U(*""" "ATA A"
006665:  422444021544  andcmm   11, 21544(4)    ;"B4D"-D" "DR #2"
006666:  200000000000  move     0, 0            ;"0     " " \0\0\0\0"
006667:  202164025142  movem    3, @25142(4)    ;"01T"IB" " G *1"
006670:  737007107233  blki     370, 107233(7)  ;"[X'(Z;"
006671:  777742007610  conso    774, 7610(2)    ;"__B ^("
006672:  202030451100  movem    0, @451100(10)  ;"008E) " " ADR "
006673:  215444006424  movmi    11, 6424(4)     ;"1LD T4" "#2 \r\n"
006674:  000000000000                           ;"      "
006675:  770000030000  blki     700, 30000      ;"_  #  "
006676:  014000774000                           ;"!@ _@ "
006677:  331100000040  skipl    2, 40           ;";)   @"
006700:  446311420252  eqvm     6, 420252(11)   ;"DS)B"J" "ILL U"
006701:  526365420236  hrlom    7, @420236(5)   ;"JSUB">" "UO, O"
006702:  502071742212  hllm     1, @742212(11)  ;"H0Y\2*" "PCODE"
006703:  365000000000  sojge    0, 0            ;">H    " "= \0\0\0"
006704:  440700007616  andcb    16, 7616        ;"D'  ^."
006705:  140300000013  fad      6, 13           ;",#   +"
006706:  440300000013  andcb    6, 13           ;"D#   +"
006707:  000606500000                           ;" &&H  "
006710:  410314777776  andca    6, 777776(14)   ;"A#,__^"
006711:  270414777776  add      10, 777776(14)  ;"7$,__^"
006712:  202030320124  movem    0, @320124(10)  ;"008:!4" " AC *"
006713:  321526130100  jumpl    12, @130100(6)  ;":-6+! " "4510 "
006714:  466131520124  orcmm    2, @520124(11)  ;"FQ9J!4" "MEM *"
006715:  321526130500  jumpl    12, @130500(6)  ;":-6+% " "4511 "
006716:  000000000000                           ;"      "
006717:  440700007630  andcb    16, 7630        ;"D'  ^8"
006720:  000001000001                           ;"  !  !"
006721:  202531642660  movem    12, @642660(11) ;"059T6P" " UNEX"
006722:  502130352212  hllm     2, @352212(10)  ;"H18=2*" "PECTE"
006723:  421011542632  andcmi   0, 542632(11)   ;"B()L6:" "D MEM"
006724:  502451752212  hllm     11, 752212(11)  ;"H4I]2*" "PROTE"
006725:  416504044634  setmm    12, 44634(4)    ;"AU$$F<" "CT IN"
006726:  522132251252  hllom    2, @251252(12)  ;"J1:5*J" "TERRU"
006727:  502504000000  hllm     12, (4)         ;"H5$   " "PT \0\0"
006730:  465170371413  orcmi    3, @371413(10)  ;"FIX?,+"
006731:  777742007646  conso    774, 7646(2)    ;"__B ^F"
006732:  202531642660  movem    12, @642660(11) ;"059T6P" " UNEX"
006733:  502130352212  hllm     2, @352212(10)  ;"H18=2*" "PECTE"
006734:  421011654232  andcmi   0, 654232(11)   ;"B()UB:" "D NXM"
006735:  200000000000  move     0, 0            ;"0     " " \0\0\0\0"
006736:  202531642660  movem    12, @642660(11) ;"059T6P" " UNEX"
006737:  502130352212  hllm     2, @352212(10)  ;"H18=2*" "PECTE"
006740:  421012152602  andcmi   0, 152602(12)   ;"B(*-6"" "D QUA"
006741:  472512546500  orcbm    12, 546500(12)  ;"G5*LU " "NTUM "
006742:  476550551214  setom    13, 551214(10)  ;"GUHM*," "OVERF"
006743:  462372720000  setcmm   7, @720000(12)  ;"F3ZZ  " "LOW \0"
006744:  406504023144  andm     12, 23144(4)    ;"@U$"9D" "AT &2"
006745:  201264330500  movei    5, @330500(4)   ;"0*T;% " " +#1 "
006746:  574000000000  hlre     0, 0            ;"O@    " "_\0\0\0\0"
006747:  446352442644  eqvm     7, 442644(12)   ;"DSJD6D" "INTER"
006750:  512532052100  hllzm    12, @52100(12)  ;"I5:%1 " "RUPT "
006751:  502067520106  hllm     1, @520106(7)   ;"H0WJ!&" "PC= #"
006752:  305304047640  caige    6, 47640(4)     ;"8K$$^@" "1, OP"
006753:  415724021544                           ;"AO4"-D" "C= #2"
006754:  202760000000  movem    17, @0          ;"07P   " " _\0\0\0"
006755:  221500000001  imuli    12, 1           ;"2-   !"
006756:  271500004616  addi     12, 4616        ;"7-  F."
006757:  502111420236  hllm     2, 420236(11)   ;"H1)B">" "PDL O"
006760:  531000000000  hllei    0, 0            ;"K(    " "V \0\0\0"
006761:  502032244650  hllm     0, @244650(12)  ;"H0:4FH" "PARIT"
006762:  545010551244  hlri     0, 551244(10)   ;"LH(M*D" "Y ERR"
006763:  476444000000  setom    11, (4)         ;"GTD   " "OR \0\0"
006764:  576071747250  hlrem    1, @747250(11)  ;"OPY\ZH" "_CONT"
006765:  446352542576  eqvm     7, 542576(12)   ;"DSJL5^" "INUE?"
006766:  200000000000  move     0, 0            ;"0     " " \0\0\0\0"
006767:  466032226000  orcmm    0, @226000(12)  ;"FP:2P " "MAR,\0"
006770:  202350027054  movem    7, 27054(10)    ;"03H"XL"
006771:  777750007704  conso    774, 7704(10)   ;"__H _$"
006772:  472364040606  orcbm    7, @40606(4)    ;"G3T$&&" "NO AC"
006773:  416132351530  setmm    2, @351530(12)  ;"AQ:=-8" "CESS,"
006774:  000000000000                           ;"      "
006775:  502532242530  hllm     12, @242530(12) ;"H5:458" "PURE,"
006776:  000000000000                           ;"      "
006777:  535011147100  hrlei    0, 147100(11)   ;"KH),Y " "W IN "
007000:  512570626000  hllzm    13, @626000(10) ;"I5XRP " "RWF,\0"
007001:  535011147100  hrlei    0, 147100(11)   ;"KH),Y " "W IN "
007002:  512104047634  hllzm    2, 47634(4)     ;"I1$$^<" "RD ON"
007003:  462625400000  setcmm   14, @400000(5)  ;"F65@  " "LY,\0\0"
007004:  422051426000  andcmm   1, 426000(11)   ;"B0IBP " "DBL,\0"
007005:  502164043212  hllm     3, @43212(4)    ;"H1T$:*" "PG FE"
007006:  522071020222  hllom    1, @20222(11)   ;"J0Y""2" "TCH I"
007007:  462325400000  setcmm   6, @400000(5)   ;"F35@  " "LM,\0\0"
007010:  476350520240  setom    7, 520240(10)   ;"GSHJ"@" "ONE P"
007011:  512370342612  hllzm    7, @342612(10)  ;"I3X<6*" "ROCEE"
007012:  421300000000  andcmi   6, 0            ;"B+    " "D,\0\0\0"
007013:  472364043202  orcbm    7, @43202(4)    ;"G3T$:"" "NO FA"
007014:  526312400000  hrlom    6, 400000(12)   ;"JS*@  " "ULT\0\0"
007015:  432032546250  xorm     0, @546250(12)  ;"C0:LRH" "FAULT"
007016:  202052552100  movem    1, 552100(12)   ;"00JM1 " " BUT "
007017:  472364042644  orcbm    7, @42644(4)    ;"G3T$6D" "NO ER"
007020:  512372220204  hllzm    7, @220204(12)  ;"I3Z2"$" "ROR B"
007021:  446512300000  eqvm     12, 300000(12)  ;"DU*8  " "ITS\0\0"
007022:  526603035207  hrlom    14, 35207(3)    ;"JV##J'"
007023:  254000000100  jrst     100             ;"5@  ! "
007024:  776372000000  conso    760, @(12)      ;"_SZ   "
007025:  015315513316                           ;"!K-I;."
007026:  776372000000  conso    760, @(12)      ;"_SZ   "
007027:  525127660000  hrloi    2, @660000(7)   ;"JI7V  " "U%>`\0"
007030:  000000000000                           ;"      "
007031:  510715546050  hllz     16, 546050(15)  ;"I'-LPH"
007032:  000000000001                           ;"     !"
007033:  532362540000  hllem    7, @540000(2)   ;"K3RL  "
007034:  000000000001                           ;"     !"
007035:  110310700000                           ;")#(X  "
007036:  000000000001                           ;"     !"
007037:  111117400000                           ;"))/@  "
007040:  000000000002                           ;"     ""
007041:  514515356400  hrlz     12, 356400(15)  ;"IE-=T "
007042:  000000000002                           ;"     ""
007043:  510517170050  hllz     12, 170050(17)  ;"I%// H"
007044:  000000000002                           ;"     ""
007045:  532443410000  hllem    11, 410000(3)   ;"K4CA  "
007046:  000000000002                           ;"     ""
007047:  532372575000  hllem    7, @575000(12)  ;"K3ZOH " "VOUz\0"
007050:  000000000003                           ;"     #"
007051:  111726100000                           ;")/6(  "
007052:  000000000003                           ;"     #"
007053:  112534600000                           ;")5<P  "
007054:  000000000004                           ;"     $"
007055:  521612570001  hlloi    14, 570001(12)  ;"J.*O !"
007056:  000000000004                           ;"     $"
007057:  514066174000  hrlz     1, @174000(6)   ;"I@V/@ "
007060:  000000000004                           ;"     $"
007061:  524145630000  hrlo     3, 630000(5)    ;"JAES  "
007062:  000000000004                           ;"     $"
007063:  521612564616  hlloi    14, 564616(12)  ;"J.*NF." "T8UiG"
007064:  000000000005                           ;"     %"
007065:  113343300000                           ;");C8  "
007066:  000000000005                           ;"     %"
007067:  532367247000  hllem    7, @247000(7)   ;"K3W4X " "VO:N\0"
007070:  000000000005                           ;"     %"
007071:  532450117000  hllem    11, 117000(10)  ;"K4H)X "
007072:  000000000006                           ;"     &"
007073:  114152000000                           ;")AJ   "
007074:  000000000006                           ;"     &"
007075:  532372670300  hllem    7, @670300(12)  ;"K3ZW# " "VOVp`"
007076:  000000000007                           ;"     '"
007077:  114406200000                           ;")D&0  "
007100:  000000000007                           ;"     '"
007101:  514527110510  hrlz     12, @110510(7)  ;"IE7)%("
007102:  000000000010                           ;"     ("
007103:  121020550000                           ;"*(0M  "
007104:  000000000011                           ;"     )"
007105:  126706600000                           ;"*W&P  "
007106:  000000000012                           ;"     *"
007107:  127540720000                           ;"*]@Z  "
007110:  000000000013                           ;"     +"
007111:  127552530000                           ;"*]JK  "
007112:  000000000014                           ;"     ,"
007113:  127564340000                           ;"*]T<  "
007114:  000000000015                           ;"     -"
007115:  127576150000                           ;"*]^-  "
007116:  000000000016                           ;"     ."
007117:  123654200000                           ;"*>L0  "
007120:  000000000017                           ;"     /"
007121:  514557513530  hrlz     13, 513530(17)  ;"IEOI=8"
007122:  000000000020                           ;"     0"
007123:  514603457000  hrlz     14, 457000(3)   ;"IF#EX "
007124:  000000000040                           ;"     @"
007125:  124036735710                           ;"*@>[O("
007126:  000000000077                           ;"     _"
007127:  514577004100  hrlz     13, @4100(17)   ;"IE_ A "
007130:  000000000100                           ;"    ! "
007131:  134116040000  ildb     2, 40000(16)    ;"+A.$  "
007132:  000000000100                           ;"    ! "
007133:  111346105000                           ;")+F(H "
007134:  000000000100                           ;"    ! "
007135:  524330034000  hrlo     6, @34000(10)   ;"JC8#@ " "U\r@8\0"
007136:  000000000104                           ;"    !$"
007137:  111346211720                           ;")+F1/0"
007140:  000000000110                           ;"    !("
007141:  527364207000  hrlos    7, @207000(4)   ;"J[T0X "
007142:  000000000120                           ;"    !0"
007143:  115354132716                           ;")KL+7."
007144:  000000000123                           ;"    !3"
007145:  122626514060                           ;"*66I@P"
007146:  000000000130                           ;"    !8"
007147:  111346214162                           ;")+F1AR"
007150:  000000000130                           ;"    !8"
007151:  110763170430                           ;")'S/$8"
007152:  000000000135                           ;"    !="
007153:  110763167300                           ;")'S.[ "
007154:  000000000136                           ;"    !>"
007155:  110763170170                           ;")'S/!X"
007156:  000000000140                           ;"    !@"
007157:  110763170360                           ;")'S/#P"
007160:  000000000151                           ;"    !I"
007161:  110763170240                           ;")'S/"@"
007162:  000000000153                           ;"    !K"
007163:  111276325026                           ;")*^:H6"
007164:  000000000164                           ;"    !T"
007165:  514365620600  hrlz     7, @620600(5)   ;"ICUR& "
007166:  000000000200                           ;"    " "
007167:  110763170310                           ;")'S/#("
007170:  000000000202                           ;"    """
007171:  112717521412                           ;")7/J,*"
007172:  000000000235                           ;"    "="
007173:  112717517370                           ;")7/I[X"
007174:  000000000245                           ;"    "E"
007175:  112717517320                           ;")7/I[0"
007176:  000000000253                           ;"    "K"
007177:  112717521413                           ;")7/J,+"
007200:  000000000255                           ;"    "M"
007201:  112717517440                           ;")7/I\@"
007202:  000000000265                           ;"    "U"
007203:  112717520330                           ;")7/J#8"
007204:  000000000273                           ;"    "["
007205:  112717521340                           ;")7/J+@"
007206:  000000000274                           ;"    "\"
007207:  126422000370                           ;"*T2 #X"
007210:  000000000277                           ;"    "_"
007211:  126422000320                           ;"*T2 #0"
007212:  000000000301                           ;"    #!"
007213:  112717521342                           ;")7/J+B"
007214:  000000000304                           ;"    #$"
007215:  112717521345                           ;")7/J+E"
007216:  000000000313                           ;"    #+"
007217:  112717521344                           ;")7/J+D"
007220:  000000000330                           ;"    #8"
007221:  124317405000                           ;"*C/@H "
007222:  000000000336                           ;"    #>"
007223:  112730622200                           ;")78R2 "
007224:  000000000342                           ;"    #B"
007225:  112730625300                           ;")78RK "
007226:  000000000343                           ;"    #C"
007227:  112730630400                           ;")78S$ "
007230:  000000000344                           ;"    #D"
007231:  110516132000                           ;")%.+0 "
007232:  000000000345                           ;"    #E"
007233:  111323532470                           ;")+3K4X"
007234:  000000000346                           ;"    #F"
007235:  121612112000                           ;"*.*)0 "
007236:  000000000350                           ;"    #H"
007237:  514534641700  hrlz     12, @641700(14) ;"IE<T/ "
007240:  000000000400                           ;"    $ "
007241:  523423646340  hllos    10, @646340(3)  ;"J<3TS@"
007242:  000000000400                           ;"    $ "
007243:  522637545265  hllom    14, @545265(17) ;"J6?LJU"
007244:  000000000400                           ;"    $ "
007245:  127137006451                           ;"*Y? TI"
007246:  000000000550                           ;"    %H"
007247:  114451035074                           ;")DI#H\"
007250:  000000000560                           ;"    %P"
007251:  110655222700                           ;")&M27 "
007252:  000000000601                           ;"    &!"
007253:  124033754162                           ;"*@;]AR"
007254:  000000000623                           ;"    &3"
007255:  125520214162                           ;"*M01AR"
007256:  000000000624                           ;"    &4"
007257:  111420405162                           ;"),0@IR"
007260:  000000000630                           ;"    &8"
007261:  114451035162                           ;")DI#IR"
007262:  000000000633                           ;"    &;"
007263:  114451033772                           ;")DI#?Z"
007264:  000000000646                           ;"    &F"
007265:  114451033746                           ;")DI#?F"
007266:  000000000657                           ;"    &O"
007267:  114451033764                           ;")DI#?T"
007270:  000000000674                           ;"    &\"
007271:  114451034650                           ;")DI#FH"
007272:  000000000703                           ;"    '#"
007273:  114451034622                           ;")DI#F2"
007274:  000000000707                           ;"    ''"
007275:  127140400500                           ;"*Y@@% "
007276:  000000000720                           ;"    '0"
007277:  127140400502                           ;"*Y@@%""
007300:  000000000743                           ;"    'C"
007301:  122471671026                           ;"*4YW(6"
007302:  000000000763                           ;"    'S"
007303:  514411101516  hrlz     10, 101516(11)  ;"ID)(-."
007304:  000000001000                           ;"    ( "
007305:  110655244540                           ;")&M4E@"
007306:  000000001012                           ;"    (*"
007307:  110655242520                           ;")&M450"
007310:  000000001013                           ;"    (+"
007311:  110655242640                           ;")&M46@"
007312:  000000001015                           ;"    (-"
007313:  110655242570                           ;")&M45X"
007314:  000000001025                           ;"    (5"
007315:  110761537760                           ;")'QK_P"
007316:  000000001035                           ;"    (="
007317:  110763317020                           ;")'S9X0"
007320:  000000001060                           ;"    (P"
007321:  112263756506                           ;")2S]U&"
007322:  000000001062                           ;"    (R"
007323:  110763165161                           ;")'S.IQ"
007324:  000000001067                           ;"    (W"
007325:  110763164200                           ;")'S.B "
007326:  000000001070                           ;"    (X"
007327:  512262200320  hllzm    5, @200320(2)   ;"I2R0#0"
007330:  000000001100                           ;"    ) "
007331:  110763165070                           ;")'S.HX"
007332:  000000001101                           ;"    )!"
007333:  110763165103                           ;")'S.I#"
007334:  000000001115                           ;"    )-"
007335:  110763165140                           ;")'S.I@"
007336:  000000001126                           ;"    )6"
007337:  110763165210                           ;")'S.J("
007340:  000000001144                           ;"    )D"
007341:  110763165640                           ;")'S.N@"
007342:  000000001161                           ;"    )Q"
007343:  110763165330                           ;")'S.K8"
007344:  000000001166                           ;"    )V"
007345:  110763165343                           ;")'S.KC"
007346:  000000001202                           ;"    *""
007347:  110763165450                           ;")'S.LH"
007350:  000000001213                           ;"    *+"
007351:  110763165760                           ;")'S.OP"
007352:  000000001227                           ;"    *7"
007353:  110763237074                           ;")'S3X\"
007354:  000000001232                           ;"    *:"
007355:  110763165710                           ;")'S.O("
007356:  000000001247                           ;"    *G"
007357:  110763321420                           ;")'S:,0"
007360:  000000001267                           ;"    *W"
007361:  112320107210                           ;")30(Z("
007362:  000000001272                           ;"    *Z"
007363:  112320112170                           ;")30)1X"
007364:  000000001274                           ;"    *\"
007365:  112320113060                           ;")30)8P"
007366:  000000001302                           ;"    +""
007367:  112320107760                           ;")30(_P"
007370:  000000001304                           ;"    +$"
007371:  112320110030                           ;")30) 8"
007372:  000000001316                           ;"    +."
007373:  112320116160                           ;")30)QP"
007374:  000000001326                           ;"    +6"
007375:  112320121260                           ;")30**P"
007376:  000000001334                           ;"    +<"
007377:  112320124360                           ;")30*CP"
007400:  000000001342                           ;"    +B"
007401:  112320107070                           ;")30(XX"
007402:  000000001353                           ;"    +K"
007403:  112320161074                           ;")30.(\"
007404:  000000001363                           ;"    +S"
007405:  112320161044                           ;")30.(D"
007406:  000000001364                           ;"    +T"
007407:  112320161043                           ;")30.(C"
007410:  000000001366                           ;"    +V"
007411:  112320161042                           ;")30.(B"
007412:  000000001374                           ;"    +\"
007413:  111521605160                           ;")-1PIP"
007414:  000000001402                           ;"    ,""
007415:  115212446570                           ;")J*DUX"
007416:  000000001404                           ;"    ,$"
007417:  112320236511                           ;")303U)"
007420:  000000001411                           ;"    ,)"
007421:  112320107140                           ;")30(Y@"
007422:  000000001413                           ;"    ,+"
007423:  112320161456                           ;")30.,N"
007424:  000000001415                           ;"    ,-"
007425:  132363433600  fsc      7, @433600(3)   ;"+3SC> "
007426:  000000001421                           ;"    ,1"
007427:  132363327000  fsc      7, @327000(3)   ;"+3S:X "
007430:  000000001442                           ;"    ,B"
007431:  132363371300  fsc      7, @371300(3)   ;"+3S?+ "
007432:  000000001443                           ;"    ,C"
007433:  132363524000  fsc      7, @524000(3)   ;"+3SJ@ "
007434:  000000001445                           ;"    ,E"
007435:  132363721000  fsc      7, @721000(3)   ;"+3SZ( "
007436:  000000001454                           ;"    ,L"
007437:  132147545543  fsc      3, 545543(7)    ;"+1GLMC"
007440:  000000001456                           ;"    ,N"
007441:  132147545546  fsc      3, 545546(7)    ;"+1GLMF"
007442:  000000001464                           ;"    ,T"
007443:  132147545613  fsc      3, 545613(7)    ;"+1GLN+"
007444:  000000001501                           ;"    -!"
007445:  132147545616  fsc      3, 545616(7)    ;"+1GLN."
007446:  000000001506                           ;"    -&"
007447:  132147545663  fsc      3, 545663(7)    ;"+1GLNS"
007450:  000000001522                           ;"    -2"
007451:  132147545666  fsc      3, 545666(7)    ;"+1GLNV"
007452:  000000001531                           ;"    -9"
007453:  132147545733  fsc      3, 545733(7)    ;"+1GLO;"
007454:  000000001546                           ;"    -F"
007455:  132147545723  fsc      3, 545723(7)    ;"+1GLO3"
007456:  000000001547                           ;"    -G"
007457:  132147545725  fsc      3, 545725(7)    ;"+1GLO5"
007460:  000000001571                           ;"    -Y"
007461:  132147545736  fsc      3, 545736(7)    ;"+1GLO>"
007462:  000000001572                           ;"    -Z"
007463:  132147546003  fsc      3, 546003(7)    ;"+1GLP#"
007464:  000000001606                           ;"    .&"
007465:  132147546043  fsc      3, 546043(7)    ;"+1GLPC"
007466:  000000001636                           ;"    .>"
007467:  132147546126  fsc      3, 546126(7)    ;"+1GLQ6"
007470:  000000001674                           ;"    .\"
007471:  132147546176  fsc      3, 546176(7)    ;"+1GLQ^"
007472:  000000001713                           ;"    /+"
007473:  111325677146                           ;")+5WYF"
007474:  000000001723                           ;"    /3"
007475:  111325641470                           ;")+5T,X"
007476:  000000001730                           ;"    /8"
007477:  111325640600                           ;")+5T& "
007500:  000000001731                           ;"    /9"
007501:  111325624200                           ;")+5RB "
007502:  000000001737                           ;"    /?"
007503:  111325627300                           ;")+5R[ "
007504:  000000001743                           ;"    /C"
007505:  111325635500                           ;")+5SM "
007506:  000000001756                           ;"    /N"
007507:  111325632400                           ;")+5S4 "
007510:  000000001772                           ;"    /Z"
007511:  514544123340  hrlz     13, 123340(4)   ;"IED*;@"
007512:  000000002000                           ;"    0 "
007513:  524341722700  hrlo     7, 722700(1)    ;"JCAZ7 "
007514:  000000002000                           ;"    0 "
007515:  111325643700                           ;")+5T? "
007516:  000000002010                           ;"    0("
007517:  114510135570                           ;")E(+MX"
007520:  000000002016                           ;"    0."
007521:  114510135760                           ;")E(+OP"
007522:  000000002036                           ;"    0>"
007523:  114510141060                           ;")E(,(P"
007524:  000000002061                           ;"    0Q"
007525:  114510141320                           ;")E(,+0"
007526:  000000002116                           ;"    1."
007527:  114510143270                           ;")E(,:X"
007530:  000000002136                           ;"    1>"
007531:  114510146370                           ;")E(,SX"
007532:  000000002157                           ;"    1O"
007533:  114510152170                           ;")E(-1X"
007534:  000000002232                           ;"    2:"
007535:  124341725160                           ;"*CAZIP"
007536:  000000002244                           ;"    2D"
007537:  512262201000  hllzm    5, @201000(2)   ;"I2R0( "
007540:  000000002300                           ;"    3 "
007541:  114510152620                           ;")E(-60"
007542:  000000002301                           ;"    3!"
007543:  123446560570                           ;"*<FN%X"
007544:  000000002343                           ;"    3C"
007545:  123446560070                           ;"*<FN X"
007546:  000000002361                           ;"    3Q"
007547:  123446563170                           ;"*<FN9X"
007550:  000000002377                           ;"    3_"
007551:  111420110570                           ;"),0)%X"
007552:  000000002421                           ;"    41"
007553:  124313671570                           ;"*C+W-X"
007554:  000000002462                           ;"    4R"
007555:  111455535570                           ;"),MKMX"
007556:  000000002524                           ;"    54"
007557:  111455536220                           ;"),MKR0"
007560:  000000002533                           ;"    5;"
007561:  124155105070                           ;"*AM(HX"
007562:  000000002570                           ;"    5X"
007563:  124155111320                           ;"*AM)+0"
007564:  000000002577                           ;"    5_"
007565:  124155110170                           ;"*AM)!X"
007566:  000000002607                           ;"    6'"
007567:  124155113270                           ;"*AM):X"
007570:  000000002632                           ;"    6:"
007571:  110562443220                           ;")%RD:0"
007572:  000000002707                           ;"    7'"
007573:  117605461220                           ;")^%F*0"
007574:  000000002771                           ;"    7Y"
007575:  117605460070                           ;")^%F X"
007576:  000000002772                           ;"    7Z"
007577:  117605460620                           ;")^%F&0"
007600:  000000003000                           ;"    8 "
007601:  117605463170                           ;")^%F9X"
007602:  000000003003                           ;"    8#"
007603:  113106062261                           ;")9&&2Q"
007604:  000000003013                           ;"    8+"
007605:  117605463720                           ;")^%F?0"
007606:  000000003015                           ;"    8-"
007607:  117605466270                           ;")^%FRX"
007610:  000000003023                           ;"    83"
007611:  117605466340                           ;")^%FS@"
007612:  000000003041                           ;"    8A"
007613:  121612513070                           ;"*.*I8X"
007614:  000000003075                           ;"    8]"
007615:  121612513620                           ;"*.*I>0"
007616:  000000003111                           ;"    9)"
007617:  121612514220                           ;"*.*IB0"
007620:  000000003113                           ;"    9+"
007621:  121612516170                           ;"*.*IQX"
007622:  000000003114                           ;"    9,"
007623:  121612613162                           ;"*.*Q9R"
007624:  000000003135                           ;"    9="
007625:  121612521270                           ;"*.*J*X"
007626:  000000003141                           ;"    9A"
007627:  121612522420                           ;"*.*J40"
007630:  000000003144                           ;"    9D"
007631:  121612525120                           ;"*.*JI0"
007632:  000000003154                           ;"    9L"
007633:  121612524370                           ;"*.*JCX"
007634:  000000003156                           ;"    9N"
007635:  121612524440                           ;"*.*JD@"
007636:  000000003165                           ;"    9U"
007637:  121612524560                           ;"*.*JEP"
007640:  000000003204                           ;"    :$"
007641:  121612525260                           ;"*.*JJP"
007642:  000000003205                           ;"    :%"
007643:  121612524510                           ;"*.*JE("
007644:  000000003206                           ;"    :&"
007645:  121612530430                           ;"*.*K$8"
007646:  000000003213                           ;"    :+"
007647:  121612527610                           ;"*.*J^("
007650:  000000003215                           ;"    :-"
007651:  121612527470                           ;"*.*J\X"
007652:  000000003220                           ;"    :0"
007653:  121612527503                           ;"*.*J]#"
007654:  000000003230                           ;"    :8"
007655:  121612527660                           ;"*.*J^P"
007656:  000000003236                           ;"    :>"
007657:  121612527540                           ;"*.*J]@"
007660:  000000003246                           ;"    :F"
007661:  121612530220                           ;"*.*K"0"
007662:  000000003257                           ;"    :O"
007663:  121612532570                           ;"*.*K5X"
007664:  000000003261                           ;"    :Q"
007665:  125144344520                           ;"*ID<E0"
007666:  000000003272                           ;"    :Z"
007667:  123423645612                           ;"*<3TN*"
007670:  000000003305                           ;"    ;%"
007671:  123426412566                           ;"*<6A5V"
007672:  000000003313                           ;"    ;+"
007673:  123426271760                           ;"*<67/P"
007674:  000000003344                           ;"    ;D"
007675:  123426275060                           ;"*<67HP"
007676:  000000003345                           ;"    ;E"
007677:  123426300160                           ;"*<68!P"
007700:  000000003357                           ;"    ;O"
007701:  123426277340                           ;"*<67[@"
007702:  000000003360                           ;"    ;P"
007703:  123426277270                           ;"*<67ZX"
007704:  000000003366                           ;"    ;V"
007705:  123426271070                           ;"*<67(X"
007706:  000000003400                           ;"    < "
007707:  123426271140                           ;"*<67)@"
007710:  000000003411                           ;"    <)"
007711:  123426274240                           ;"*<67B@"
007712:  000000003431                           ;"    <9"
007713:  123426274310                           ;"*<67C("
007714:  000000003434                           ;"    <<"
007715:  123426274170                           ;"*<67AX"
007716:  000000003437                           ;"    <?"
007717:  123426302370                           ;"*<683X"
007720:  000000003451                           ;"    <I"
007721:  111325665160                           ;")+5VIP"
007722:  000000003463                           ;"    <S"
007723:  127066310414                           ;"*XV9$,"
007724:  000000003465                           ;"    <U"
007725:  127066367210                           ;"*XV>Z("
007726:  000000003466                           ;"    <V"
007727:  132147476530  fsc      3, 476530(7)    ;"+1GGU8"
007730:  000000003467                           ;"    <W"
007731:  132147425237  fsc      3, 425237(7)    ;"+1GBJ?"
007732:  000000003470                           ;"    <X"
007733:  132147425330  fsc      3, 425330(7)    ;"+1GBK8"
007734:  000000003471                           ;"    <Y"
007735:  132147430430  fsc      3, 430430(7)    ;"+1GC$8"
007736:  000000003472                           ;"    <Z"
007737:  132147545657  fsc      3, 545657(7)    ;"+1GLNO"
007740:  000000003502                           ;"    =""
007741:  132147545724  fsc      3, 545724(7)    ;"+1GLO4"
007742:  000000003506                           ;"    =&"
007743:  132147443075  fsc      3, 443075(7)    ;"+1GD8]"
007744:  000000003512                           ;"    =*"
007745:  132147441505  fsc      3, 441505(7)    ;"+1GD-%"
007746:  000000003517                           ;"    =/"
007747:  113774153400                           ;")?\-< "
007750:  000000003524                           ;"    =4"
007751:  127066403540                           ;"*XV@=@"
007752:  000000003525                           ;"    =5"
007753:  132147545727  fsc      3, 545727(7)    ;"+1GLO7"
007754:  000000003527                           ;"    =7"
007755:  132363132000  fsc      7, @132000(3)   ;"+3S+0 "
007756:  000000003533                           ;"    =;"
007757:  132363174300  fsc      7, @174300(3)   ;"+3S/C "
007760:  000000003537                           ;"    =?"
007761:  122471761740                           ;"*4Y^/@"
007762:  000000003541                           ;"    =A"
007763:  122762372720                           ;"*7R?70"
007764:  000000003577                           ;"    =_"
007765:  122762372770                           ;"*7R?7X"
007766:  000000003611                           ;"    >)"
007767:  115212412716                           ;")J*A7."
007770:  000000003614                           ;"    >,"
007771:  115212412662                           ;")J*A6R"
007772:  000000003615                           ;"    >-"
007773:  115212412706                           ;")J*A7&"
007774:  000000003616                           ;"    >."
007775:  112754707074                           ;")7LXX\"
007776:  000000003631                           ;"    >9"
007777:  124125474666                           ;"*A5GFV"
010000:  000000003633                           ;"    >;"
010001:  124131342160                           ;"*A9<1P"
010002:  000000003637                           ;"    >?"
010003:  124131416720                           ;"*A9AW0"
010004:  000000003642                           ;"    >B"
010005:  130060652410                           ;"+ PU4("
010006:  000000003653                           ;"    >K"
010007:  130060652030                           ;"+ PU08"
010010:  000000003656                           ;"    >N"
010011:  130060651105                           ;"+ PU)%"
010012:  000000003673                           ;"    >["
010013:  110763165520                           ;")'S.M0"
010014:  000000003701                           ;"    ?!"
010015:  110763165522                           ;")'S.M2"
010016:  000000003705                           ;"    ?%"
010017:  130064373200                           ;"+ T?: "
010020:  000000003710                           ;"    ?("
010021:  127065413500                           ;"*XUA= "
010022:  000000003720                           ;"    ?0"
010023:  130060650200                           ;"+ PU" "
010024:  000000003740                           ;"    ?@"
010025:  516771365044  hrlzm    17, @365044(11) ;"IWY>HD"
010026:  000000004000                           ;"    @ "
010027:  130166137760                           ;"+!V+_P"
010030:  000000004140                           ;"    A@"
010031:  130014752500                           ;"+ ,]5 "
010032:  000000004150                           ;"    AH"
010033:  121626143716                           ;"*.6,?."
010034:  000000004151                           ;"    AI"
010035:  125452673600                           ;"*LJW> "
010036:  000000004156                           ;"    AN"
010037:  125452673720                           ;"*LJW?0"
010040:  000000004164                           ;"    AT"
010041:  125452673770                           ;"*LJW?X"
010042:  000000004165                           ;"    AU"
010043:  121226652160                           ;"**6U1P"
010044:  000000004166                           ;"    AV"
010045:  130202245200                           ;"+""4J "
010046:  000000004174                           ;"    A\"
010047:  122632340130                           ;"*6:<!8"
010050:  000000004241                           ;"    BA"
010051:  115262051262                           ;")JR%*R"
010052:  000000004261                           ;"    BQ"
010053:  130202236422                           ;"+""3T2"
010054:  000000004261                           ;"    BQ"
010055:  130202247030                           ;"+""4X8"
010056:  000000004264                           ;"    BT"
010057:  130202247032                           ;"+""4X:"
010060:  000000004274                           ;"    B\"
010061:  110760504100                           ;")'PHA "
010062:  000000004304                           ;"    C$"
010063:  110736120600                           ;")'>*& "
010064:  000000004311                           ;"    C)"
010065:  110504760215                           ;")%$^"-"
010066:  000000004316                           ;"    C."
010067:  126504045600                           ;"*U$$N "
010070:  000000004321                           ;"    C1"
010071:  126504047740                           ;"*U$$_@"
010072:  000000004322                           ;"    C2"
010073:  126504045720                           ;"*U$$O0"
010074:  000000004334                           ;"    C<"
010075:  126504045770                           ;"*U$$OX"
010076:  000000004336                           ;"    C>"
010077:  126504046040                           ;"*U$$P@"
010100:  000000004345                           ;"    CE"
010101:  126504046160                           ;"*U$$QP"
010102:  000000004357                           ;"    CO"
010103:  126504046110                           ;"*U$$Q("
010104:  000000004361                           ;"    CQ"
010105:  110752647740                           ;")'JT_@"
010106:  000000004371                           ;"    CY"
010107:  125450300650                           ;"*LH8&H"
010110:  000000004375                           ;"    C]"
010111:  110752707520                           ;")'JX]0"
010112:  000000004376                           ;"    C^"
010113:  110752707570                           ;")'JX]X"
010114:  000000004404                           ;"    D$"
010115:  121367450460                           ;"*+WE$P"
010116:  000000004415                           ;"    D-"
010117:  121367450463                           ;"*+WE$S"
010120:  000000004416                           ;"    D."
010121:  121367450462                           ;"*+WE$R"
010122:  000000004417                           ;"    D/"
010123:  126504046644                           ;"*U$$VD"
010124:  000000004426                           ;"    D6"
010125:  123254037200                           ;"*:L#Z "
010126:  000000004433                           ;"    D;"
010127:  127442647500                           ;"*\BT] "
010130:  000000004441                           ;"    DA"
010131:  127442515000                           ;"*\BIH "
010132:  000000004442                           ;"    DB"
010133:  132416725100  fsc      10, 725100(16)  ;"+4.ZI "
010134:  000000004445                           ;"    DE"
010135:  112332227640                           ;")3:2^@"
010136:  000000004450                           ;"    DH"
010137:  127441137000                           ;"*\A+X "
010140:  000000004451                           ;"    DI"
010141:  130202245370                           ;"+""4KX"
010142:  000000004456                           ;"    DN"
010143:  130202245320                           ;"+""4K0"
010144:  000000004475                           ;"    D]"
010145:  130202236420                           ;"+""3T0"
010146:  000000004477                           ;"    D_"
010147:  114544203200                           ;")ED0: "
010150:  000000004510                           ;"    E("
010151:  114544206300                           ;")ED0S "
010152:  000000004511                           ;"    E)"
010153:  127674113500                           ;"*^\)= "
010154:  000000004512                           ;"    E*"
010155:  130116652600                           ;"+!.U6 "
010156:  000000004532                           ;"    E:"
010157:  126633531575                           ;"*V;K-]"
010160:  000000004572                           ;"    EZ"
010161:  126633532162                           ;"*V;K1R"
010162:  000000004600                           ;"    F "
010163:  126633527720                           ;"*V;J_0"
010164:  000000004610                           ;"    F("
010165:  124246670520                           ;"*BFW%0"
010166:  000000004614                           ;"    F,"
010167:  110715543565                           ;")'-L=U"
010170:  000000004616                           ;"    F."
010171:  110715555160                           ;")'-MIP"
010172:  000000004632                           ;"    F:"
010173:  110715631720                           ;")'-S/0"
010174:  000000004633                           ;"    F;"
010175:  110715631770                           ;")'-S/X"
010176:  000000004653                           ;"    FK"
010177:  110715543113                           ;")'-L9+"
010200:  000000004706                           ;"    G&"
010201:  116757531615                           ;")WOK.-"
010202:  000000004713                           ;"    G+"
010203:  110715543420                           ;")'-L<0"
010204:  000000004723                           ;"    G3"
010205:  110715543422                           ;")'-L<2"
010206:  000000004733                           ;"    G;"
010207:  110715542305                           ;")'-L3%"
010210:  000000004743                           ;"    GC"
010211:  110715616306                           ;")'-QS&"
010212:  000000004763                           ;"    GS"
010213:  112356314000                           ;")3N9@ "
010214:  000000004773                           ;"    G["
010215:  127442775616                           ;"*\B_N."
010216:  000000004777                           ;"    G_"
010217:  121220112000                           ;"**0)0 "
010220:  000000005026                           ;"    H6"
010221:  126476412000                           ;"*T^A0 "
010222:  000000005036                           ;"    H>"
010223:  122070557200                           ;"*0XMZ "
010224:  000000005046                           ;"    HF"
010225:  125134500030                           ;"*I<H 8"
010226:  000000005056                           ;"    HN"
010227:  121660517134                           ;"*.PIY<"
010230:  000000005057                           ;"    HO"
010231:  116757554565                           ;")WOMEU"
010232:  000000005060                           ;"    HP"
010233:  127065605400                           ;"*XUPL "
010234:  000000005061                           ;"    HQ"
010235:  127206252500                           ;"*Z&55 "
010236:  000000005062                           ;"    HR"
010237:  121170430600                           ;"*)XC& "
010240:  000000005063                           ;"    HS"
010241:  123452017140                           ;"*<J!Y@"
010242:  000000005064                           ;"    HT"
010243:  132365413060  fsc      7, @413060(5)   ;"+3UA8P"
010244:  000000005065                           ;"    HU"
010245:  111324721031                           ;")+4Z(9"
010246:  000000005066                           ;"    HV"
010247:  124330237200                           ;"*C83Z "
010250:  000000005067                           ;"    HW"
010251:  122723211451                           ;"*731,I"
010252:  000000005077                           ;"    H_"
010253:  130117335000                           ;"+!/;H "
010254:  000000005107                           ;"    I'"
010255:  113773576000                           ;")?[OP "
010256:  000000005117                           ;"    I/"
010257:  124330354462                           ;"*C8=DR"
010260:  000000005120                           ;"    I0"
010261:  124036776000                           ;"*@>_P "
010262:  000000005320                           ;"    K0"
010263:  124037050020                           ;"*@?% 0"
010264:  000000005320                           ;"    K0"
010265:  124072256000                           ;"*@Z5P "
010266:  000000005420                           ;"    L0"
010267:  514544175000  hrlz     13, 175000(4)   ;"IED/H "
010270:  000000005563                           ;"    MS"
010271:  112754734565                           ;")7L[EU"
010272:  000000007755                           ;"    _M"
010273:  113773566436                           ;")?[NT>"
010274:  000000007756                           ;"    _N"
010275:  124226500000                           ;"*B6H  "
010276:  000000007757                           ;"    _O"
010277:  125643700000                           ;"*NCX  "
010300:  000000007760                           ;"    _P"
010301:  111420276000                           ;"),07P "
010302:  000000007761                           ;"    _Q"
010303:  122237000000                           ;"*2?   "
010304:  000000007762                           ;"    _R"
010305:  114451033646                           ;")DI#>F"
010306:  000000007763                           ;"    _S"
010307:  127351340111                           ;"*[I<!)"
010310:  000000007764                           ;"    _T"
010311:  127136663000                           ;"*Y>V8 "
010312:  000000007765                           ;"    _U"
010313:  125520222357                           ;"*M023O"
010314:  000000007766                           ;"    _V"
010315:  122471563506                           ;"*4YN=&"
010316:  000000007767                           ;"    _W"
010317:  121026243000                           ;"*(648 "
010320:  000000007770                           ;"    _X"
010321:  124154745700                           ;"*AL\O "
010322:  000000007771                           ;"    _Y"
010323:  521263735666  hlloi    5, @735666(3)   ;"J*S[NV"
010324:  000000010000                           ;"   !  "
010325:  122471744111                           ;"*4Y\A)"
010326:  000000010000                           ;"   !  "
010327:  127310635000                           ;"*[(SH "
010330:  000000020000                           ;"   "  "
010331:  511420101000  hllzi    10, @101000     ;"I,0(( "
010332:  000000020000                           ;"   "  "
010333:  527140401252  hrlos    3, 401252       ;"JY@@*J"
010334:  000000020020                           ;"   " 0"
010335:  127310643200                           ;"*[(T: "
010336:  000000022000                           ;"   "0 "
010337:  527140401253  hrlos    3, 401253       ;"JY@@*K"
010340:  000000022020                           ;"   "00"
010341:  127310646300                           ;"*[(TS "
010342:  000000024000                           ;"   "@ "
010343:  527140401254  hrlos    3, 401254       ;"JY@@*L"
010344:  000000024020                           ;"   "@0"
010345:  511673475232  hllzi    15, @475232(13) ;"I.[GJ:" "R;\\zM"
010346:  000000120300                           ;"   *# "
010347:  525655510000  hrloi    15, 510000(15)  ;"JNMI  "
010350:  000000200000                           ;"   0  "
010351:  511276061000  hllzi    5, @61000(16)   ;"I*^&( " "R+pb\0"
010352:  000000270400                           ;"   7$ "
010353:  511673475230  hllzi    15, @475230(13) ;"I.[GJ8" "R;\\zL"
010354:  000000340300                           ;"   <# "
010355:  525777530000  hrloi    17, @530000(17) ;"JO_K  " "U?}0\0"
010356:  000000400000                           ;"   @  "
010357:  525773610000  hrloi    17, @610000(13) ;"JO[Q  "
010360:  000000600000                           ;"   P  "
010361:  112754626000                           ;")7LRP "
010362:  000000774000                           ;"   _@ "
010363:  524056201615  hrlo     1, 201615(16)   ;"J@N0.-"
010364:  000000776540                           ;"   _U@"
010365:  516065036365  hrlzm    1, @36365(5)    ;"IPU#SU"
010366:  000003777777                           ;"  #___"
010367:  513773514000  hllzs    17, @514000(13) ;"I?[I@ "
010370:  040000000000  .iot     0, 0            ;"$     "
010371:  513773635200  hllzs    17, @635200(13) ;"I?[SJ "
010372:  041000000000  .open    0, 0            ;"$(    "
010373:  536252104100  hrlem    5, 104100(12)   ;"KRJ(A "
010374:  042000000000                           ;"$0    "
010375:  511543613032  hllzi    13, 613032(3)   ;"I-CQ8:"
010376:  043000000000  .call    0               ;"$8    "
010377:  527442770700  hrlos    11, 770700(2)   ;"J\B_' "
010400:  044000000000  .uset    0, 0            ;"$@    " "\t\0\0\0\0"
010401:  121225213000                           ;"**518 "
010402:  102000000000  xctr     0, 0            ;"(0    "
010403:  126503513000                           ;"*U#I8 "
010404:  102040000000  xctr     1, 0            ;"(0@   "
010405:  121225342400                           ;"**5<4 "
010406:  102100000000  xctr     2, 0            ;"(1    "
010407:  121225343770                           ;"**5<?X"
010410:  102300000000  xctr     6, 0            ;"(3    "
010411:  132147545400  fsc      3, 545400(7)    ;"+1GLL "
010412:  103000000000  xctri    0, 0            ;"(8    "
010413:  121430300000                           ;"*,88  "
010414:  200000000000  move     0, 0            ;"0     " " \0\0\0\0"
010415:  121721730000                           ;"*/1[  "
010416:  201000000000  movei    0, 0            ;"0(    " "  \0\0\0"
010417:  121770770000                           ;"*/X_  "
010420:  202000000000  movem    0, 0            ;"00    " " @\0\0\0"
010421:  511356501516  hllzi    7, 501516(16)   ;"I+NH-."
010422:  221300000003  imuli    6, 3            ;"2+   #"
010423:  511545563264  hllzi    13, 563264(5)   ;"I-EN:T" "R6-fZ"
010424:  250400000002  exch     10, 2           ;"5$   ""
010425:  117204400000                           ;")Z$@  "
010426:  254000000000  jrst     0               ;"5@    " "+\0\0\0\0"
010427:  131741200000                           ;"+/A0  "
010430:  260740000000  pushj    17, 0           ;"6'@   "
010431:  125271400000                           ;"*JY@  "
010432:  263740000000  popj     17,             ;"6?@   "
010433:  135551310152  ldb      13, 310152(11)  ;"+MI9!J"
010434:  254000000100  jrst     100             ;"5@  ! "
010435:  254000000100  jrst     100             ;"5@  ! "
