DEC sharable format

Directory:
Prot  File page  Memory page  Count
300   000000001  000000000    12

Start address: 000316

Disassembly:

000000:  000000000000                           ;"      "
000001:  000000000000                           ;"      "
000002:  000000000000                           ;"      "
000003:  000000000000                           ;"      "
000004:  000000000000                           ;"      "
000005:  000000000000                           ;"      "
000006:  000000000000                           ;"      "
000007:  000000000000                           ;"      "
000010:  000000000000                           ;"      "
000011:  000000000000                           ;"      "
000012:  000000000000                           ;"      "
000013:  000000000000                           ;"      "
000014:  000000000000                           ;"      "
000015:  000000000000                           ;"      "
000016:  000000000000                           ;"      "
000017:  000000000000                           ;"      "
000020:  000000000000                           ;"      "
000021:  000000000000                           ;"      "
000022:  000000000000                           ;"      "
000023:  000000000000                           ;"      "
000024:  000000000000                           ;"      "
000025:  000000000000                           ;"      "
000026:  000000000000                           ;"      "
000027:  000000000000                           ;"      "
000030:  000000000000                           ;"      "
000031:  000000000000                           ;"      "
000032:  000000000000                           ;"      "
000033:  000000000000                           ;"      "
000034:  000000000000                           ;"      "
000035:  000000000000                           ;"      "
000036:  000000000000                           ;"      "
000037:  000000000000                           ;"      "
000040:  000000000000                           ;"      "
000041:  000000000000                           ;"      "
000042:  000000000000                           ;"      "
000043:  000000000000                           ;"      "
000044:  000000000000                           ;"      "
000045:  000000000000                           ;"      "
000046:  000000000000                           ;"      "
000047:  000000000000                           ;"      "
000050:  000000000000                           ;"      "
000051:  000000000000                           ;"      "
000052:  000000000000                           ;"      "
000053:  000000000000                           ;"      "
000054:  000000000000                           ;"      "
000055:  000000000000                           ;"      "
000056:  000000000000                           ;"      "
000057:  000000000000                           ;"      "
000060:  000000000000                           ;"      "
000061:  000000000000                           ;"      "
000062:  000000000000                           ;"      "
000063:  000000000000                           ;"      "
000064:  000000000000                           ;"      "
000065:  000000000000                           ;"      "
000066:  000000000000                           ;"      "
000067:  000000000000                           ;"      "
000070:  000000000000                           ;"      "
000071:  000000000000                           ;"      "
000072:  000000000000                           ;"      "
000073:  000000000000                           ;"      "
000074:  000000000000                           ;"      "
000075:  000000000000                           ;"      "
000076:  000000000000                           ;"      "
000077:  000000000000                           ;"      "
000100:  000000000000                           ;"      "
000101:  000000000000                           ;"      "
000102:  000000000000                           ;"      "
000103:  000000000000                           ;"      "
000104:  000000000000                           ;"      "
000105:  000000000000                           ;"      "
000106:  000000000000                           ;"      "
000107:  000000000000                           ;"      "
000110:  000000000000                           ;"      "
000111:  000000000000                           ;"      "
000112:  000000000000                           ;"      "
000113:  000000000000                           ;"      "
000114:  000000000000                           ;"      "
000115:  000000000000                           ;"      "
000116:  776040007252  datai    760, 7252       ;"_P@ ZJ"
000117:  000000000000                           ;"      "
000120:  000000000316                           ;"    #."
000121:  000000000000                           ;"      "
000122:  000000000000                           ;"      "
000123:  000000000000                           ;"      "
000124:  000000000000                           ;"      "
000125:  000000000000                           ;"      "
000126:  000000000000                           ;"      "
000127:  000000000000                           ;"      "
000130:  000000000000                           ;"      "
000131:  000000000000                           ;"      "
000132:  000000000000                           ;"      "
000133:  000000000000                           ;"      "
000134:  000000000000                           ;"      "
000135:  000000000000                           ;"      "
000136:  000000000000                           ;"      "
000137:  000000000000                           ;"      "
000140:  270740005241  add      17, 5241        ;"7'@ JA"
000141:  206517000000  movsm    12, (17)        ;"0U/   " "!Tx\0\0"
000142:  200517000000  move     12, (17)        ;"0%/   "
000143:  335512000001  skipge   12, 1(12)       ;";M*  !"
000144:  254000000202  jrst     202             ;"5@  """
000145:  541520000012  hrri     12, @12         ;"L-0  *"
000146:  621500000037  tlz      12, 37          ;"R-   ?"
000147:  627500001000  tlzn     12, 1000        ;"R]  ( "
000150:  200512000000  move     12, (12)        ;"0%*   "
000151:  202517777777  movem    12, 777777(17)  ;"05/___"
000152:  200517000000  move     12, (17)        ;"0%/   "
000153:  335512000002  skipge   12, 2(12)       ;";M*  ""
000154:  254000000202  jrst     202             ;"5@  """
000155:  541520000012  hrri     12, @12         ;"L-0  *"
000156:  621500000037  tlz      12, 37          ;"R-   ?"
000157:  627500001000  tlzn     12, 1000        ;"R]  ( "
000160:  200512000000  move     12, (12)        ;"0%*   "
000161:  202517777776  movem    12, 777776(17)  ;"05/__^"
000162:  200517000000  move     12, (17)        ;"0%/   "
000163:  335512000003  skipge   12, 3(12)       ;";M*  #"
000164:  254000000202  jrst     202             ;"5@  """
000165:  541520000012  hrri     12, @12         ;"L-0  *"
000166:  621500000037  tlz      12, 37          ;"R-   ?"
000167:  627500001000  tlzn     12, 1000        ;"R]  ( "
000170:  200512000000  move     12, (12)        ;"0%*   "
000171:  202517777775  movem    12, 777775(17)  ;"05/__]"
000172:  200517000000  move     12, (17)        ;"0%/   "
000173:  335512000004  skipge   12, 4(12)       ;";M*  $"
000174:  254000000202  jrst     202             ;"5@  """
000175:  541520000012  hrri     12, @12         ;"L-0  *"
000176:  621500000037  tlz      12, 37          ;"R-   ?"
000177:  627500001000  tlzn     12, 1000        ;"R]  ( "
000200:  200512000000  move     12, (12)        ;"0%*   "
000201:  202517777774  movem    12, 777774(17)  ;"05/__\"
000202:  250057777777  exch     1, 777777(17)   ;"5 O___"
000203:  250117777776  exch     2, 777776(17)   ;"5!/__^"
000204:  250157777775  exch     3, 777775(17)   ;"5!O__]"
000205:  250217777774  exch     4, 777774(17)   ;"5"/__\"
000206:  262740000012  pop      17, 12          ;"67@  *"
000207:  256012000000  xct      (12)            ;"5P*   " "+@P\0\0"
000210:  254000000214  jrst     214             ;"5@  ","
000211:  304000000000  caia                     ;"8@    " "1\0\0\0\0"
000212:  350017777774  aos      777774(17)      ;"= /__\"
000213:  350017777774  aos      777774(17)      ;"= /__\"
000214:  250057000000  exch     1, (17)         ;"5 O   "
000215:  250117777777  exch     2, 777777(17)   ;"5!/___"
000216:  250157777776  exch     3, 777776(17)   ;"5!O__^"
000217:  250217777775  exch     4, 777775(17)   ;"5"/__]"
000220:  207000000012  movss    0, 12           ;"0X   *"
000221:  335012000000  skipge   (12)            ;";H*   " "7 P\0\0"
000222:  254000000236  jrst     236             ;"5@  ">"
000223:  262772000000  pop      17, @(12)       ;"67Z   " ",_P\0\0"
000224:  335012000001  skipge   1(12)           ;";H*  !"
000225:  254000000237  jrst     237             ;"5@  "?"
000226:  262772000001  pop      17, @1(12)      ;"67Z  !"
000227:  335012000002  skipge   2(12)           ;";H*  ""
000230:  254000000240  jrst     240             ;"5@  "@"
000231:  262772000002  pop      17, @2(12)      ;"67Z  ""
000232:  335012000003  skipge   3(12)           ;";H*  #"
000233:  254000000241  jrst     241             ;"5@  "A"
000234:  262772000003  pop      17, @3(12)      ;"67Z  #"
000235:  263740000000  popj     17,             ;"6?@   "
000236:  274740005242  sub      17, 5242        ;"7G@ JB"
000237:  274740005242  sub      17, 5242        ;"7G@ JB"
000240:  274740005242  sub      17, 5242        ;"7G@ JB"
000241:  274740005242  sub      17, 5242        ;"7G@ JB"
000242:  263740000000  popj     17,             ;"6?@   "
000243:  000000000000                           ;"      "
000244:  000000000000                           ;"      "
000245:  000000000000                           ;"      "
000246:  000000000000                           ;"      "
000247:  000000000000                           ;"      "
000250:  000000000000                           ;"      "
000251:  000000000000                           ;"      "
000252:  000000000000                           ;"      "
000253:  000000000000                           ;"      "
000254:  000000000000                           ;"      "
000255:  000000000000                           ;"      "
000256:  000000000000                           ;"      "
000257:  000000000000                           ;"      "
000260:  000000000000                           ;"      "
000261:  000000000000                           ;"      "
000262:  000000000000                           ;"      "
000263:  000000000000                           ;"      "
000264:  000000000000                           ;"      "
000265:  000000000000                           ;"      "
000266:  000000000000                           ;"      "
000267:  000000000000                           ;"      "
000270:  000000000000                           ;"      "
000271:  000000000000                           ;"      "
000272:  000000000000                           ;"      "
000273:  000000000000                           ;"      "
000274:  000000000000                           ;"      "
000275:  000000000000                           ;"      "
000276:  000000000000                           ;"      "
000277:  000000000000                           ;"      "
000300:  000000000000                           ;"      "
000301:  000000000000                           ;"      "
000302:  000000000000                           ;"      "
000303:  000000000000                           ;"      "
000304:  000000000000                           ;"      "
000305:  000000000000                           ;"      "
000306:  000000000000                           ;"      "
000307:  000000000000                           ;"      "
000310:  000000000000                           ;"      "
000311:  000000000000                           ;"      "
000312:  000000000000                           ;"      "
000313:  000000000000                           ;"      "
000314:  000000000000                           ;"      "
000315:  000000000000                           ;"      "
000316:  200740005243  move     17, 5243        ;"0'@ JC"
000317:  104000000147                           ;"(@  !G"
000320:  260740004101  pushj    17, 4101        ;"6'@ A!"
000321:  201040000100  movei    1, 100          ;"0(@ ! "
000322:  202040000276  movem    1, 276          ;"00@ "^"
000323:  201040000101  movei    1, 101          ;"0(@ !!"
000324:  202040000303  movem    1, 303          ;"00@ ##"
000325:  260740004226  pushj    17, 4226        ;"6'@ B6"
000326:  304000000000  caia                     ;"8@    " "1\0\0\0\0"
000327:  254000000337  jrst     337             ;"5@  #?"
000330:  200000005244  move     0, 5244         ;"0   JD"
000331:  260740004055  pushj    17, 4055        ;"6'@ @M"
000332:  260740005246  pushj    17, 5246        ;"6'@ JF"
000333:  200000005251  move     0, 5251         ;"0   JI"
000334:  260740004064  pushj    17, 4064        ;"6'@ @T"
000335:  254000000336  jrst     336             ;"5@  #>"
000336:  402000007157  setzm    7157            ;"@0  YO"
000337:  200740005243  move     17, 5243        ;"0'@ JC"
000340:  403340006225  setzb    7, 6225         ;"@;@ R5"
000341:  200000005252  move     0, 5252         ;"0   JJ"
000342:  251000007141  blt      0, 7141         ;"5(  YA"
000343:  200040005253  move     1, 5253         ;"0 @ JK"
000344:  202040007135  movem    1, 7135         ;"00@ Y="
000345:  201040000500  movei    1, 500          ;"0(@ % "
000346:  202040007136  movem    1, 7136         ;"00@ Y>"
000347:  200040007154  move     1, 7154         ;"0 @ YL"
000350:  202040006300  movem    1, 6300         ;"00@ S "
000351:  200040007155  move     1, 7155         ;"0 @ YM"
000352:  202040006301  movem    1, 6301         ;"00@ S!"
000353:  200040007156  move     1, 7156         ;"0 @ YN"
000354:  202040006302  movem    1, 6302         ;"00@ S""
000355:  350000006457  aos      6457            ;"=   TO"
000356:  350000006460  aos      6460            ;"=   TP"
000357:  350000006461  aos      6461            ;"=   TQ"
000360:  350000006462  aos      6462            ;"=   TR"
000361:  350000006463  aos      6463            ;"=   TS"
000362:  350000006464  aos      6464            ;"=   TT"
000363:  332000007157  skipe    7157            ;";0  YO"
000364:  476000007150  setom    7150            ;"GP  YH"
000365:  336000007157  skipn    7157            ;";P  YO"
000366:  260740003125  pushj    17, 3125        ;"6'@ 95"
000367:  260740003300  pushj    17, 3300        ;"6'@ ; "
000370:  200440004637  move     11, 4637        ;"0$@ F?"
000371:  336000007143  skipn    7143            ;";P  YC"
000372:  202440000265  movem    11, 265         ;"04@ "U"
000373:  201640000254  movei    15, 254         ;"0.@ "L"
000374:  260740003536  pushj    17, 3536        ;"6'@ =>"
000375:  302440000075  caie     11, 75          ;"84@  ]"
000376:  306440000137  cain     11, 137         ;"8T@ !?"
000377:  304000000000  caia                     ;"8@    " "1\0\0\0\0"
000400:  254000000411  jrst     411             ;"5@  $)"
000401:  200440005254  move     11, 5254        ;"0$@ JL"
000402:  251440000275  blt      11, 275         ;"5,@ "]"
000403:  476000006523  setom    6523            ;"GP  U3"
000404:  402000000254  setzm    254             ;"@0  "L"
000405:  332000007143  skipe    7143            ;";0  YC"
000406:  402000000255  setzm    255             ;"@0  "M"
000407:  260740003536  pushj    17, 3536        ;"6'@ =>"
000410:  254000000411  jrst     411             ;"5@  $)"
000411:  200100007142  move     2, 7142         ;"0!  YB"
000412:  332000007143  skipe    7143            ;";0  YC"
000413:  200100007146  move     2, 7146         ;"0!  YF"
000414:  336000000266  skipn    266             ;";P  "V"
000415:  202100000266  movem    2, 266          ;"01  "V"
000416:  200100004636  move     2, 4636         ;"0!  F>"
000417:  332000007143  skipe    7143            ;";0  YC"
000420:  200100007147  move     2, 7147         ;"0!  YG"
000421:  336000000265  skipn    265             ;";P  "U"
000422:  202100000265  movem    2, 265          ;"01  "U"
000423:  607340000001  tlnn     7, 1            ;"P[@  !"
000424:  254000000444  jrst     444             ;"5@  $D"
000425:  200040004641  move     1, 4641         ;"0 @ FA"
000426:  603340000010  tlne     7, 10           ;"P;@  ("
000427:  200040004642  move     1, 4642         ;"0 @ FB"
000430:  332000000270  skipe    270             ;";0  "X"
000431:  200040000270  move     1, 270          ;"0 @ "X"
000432:  336000000257  skipn    257             ;";P  "O"
000433:  202040000257  movem    1, 257          ;"00@ "O"
000434:  200040000266  move     1, 266          ;"0 @ "V"
000435:  336000000255  skipn    255             ;";P  "M"
000436:  202040000255  movem    1, 255          ;"00@ "M"
000437:  200040000265  move     1, 265          ;"0 @ "U"
000440:  316040004637  camn     1, 4637         ;"9P@ F?"
000441:  200040004636  move     1, 4636         ;"0 @ F>"
000442:  336000000254  skipn    254             ;";P  "L"
000443:  202040000254  movem    1, 254          ;"00@ "L"
000444:  200040007144  move     1, 7144         ;"0 @ YD"
000445:  336000007143  skipn    7143            ;";P  YC"
000446:  200040007142  move     1, 7142         ;"0 @ YB"
000447:  336000000255  skipn    255             ;";P  "M"
000450:  202040000255  movem    1, 255          ;"00@ "M"
000451:  200040007145  move     1, 7145         ;"0 @ YE"
000452:  336000007143  skipn    7143            ;";P  YC"
000453:  200040004636  move     1, 4636         ;"0 @ F>"
000454:  336000000254  skipn    254             ;";P  "L"
000455:  202040000254  movem    1, 254          ;"00@ "L"
000456:  336040000260  skipn    1, 260          ;";P@ "P"
000457:  200040004645  move     1, 4645         ;"0 @ FE"
000460:  337000007210  skipg    7210            ;";X  Z("
000461:  202040000260  movem    1, 260          ;"00@ "P"
000462:  201040000001  movei    1, 1            ;"0(@  !"
000463:  260740003034  pushj    17, 3034        ;"6'@ 8<"
000464:  603340000002  tlne     7, 2            ;"P;@  ""
000465:  254000003344  jrst     3344            ;"5@  ;D"
000466:  603340000001  tlne     7, 1            ;"P;@  !"
000467:  254000003060  jrst     3060            ;"5@  8P"
000470:  260740003536  pushj    17, 3536        ;"6'@ =>"
000471:  201040000002  movei    1, 2            ;"0(@  ""
000472:  260740003034  pushj    17, 3034        ;"6'@ 8<"
000473:  603340000003  tlne     7, 3            ;"P;@  #"
000474:  254000003710  jrst     3710            ;"5@  ?("
000475:  337000007210  skipg    7210            ;";X  Z("
000476:  254000000512  jrst     512             ;"5@  %*"
000477:  260740003536  pushj    17, 3536        ;"6'@ =>"
000500:  607340400000  tlnn     7, 400000       ;"P[@@  "
000501:  254000003734  jrst     3734            ;"5@  ?<"
000502:  476000007211  setom    7211            ;"GP  Z)"
000503:  201040000003  movei    1, 3            ;"0(@  #"
000504:  260740003034  pushj    17, 3034        ;"6'@ 8<"
000505:  603340000003  tlne     7, 3            ;"P;@  #"
000506:  254000003722  jrst     3722            ;"5@  ?2"
000507:  337000007210  skipg    7210            ;";X  Z("
000510:  254000003667  jrst     3667            ;"5@  >W"
000511:  254000000512  jrst     512             ;"5@  %*"
000512:  201640000265  movei    15, 265         ;"0.@ "U"
000513:  200100004641  move     2, 4641         ;"0!  FA"
000514:  603340000010  tlne     7, 10           ;"P;@  ("
000515:  200100004642  move     2, 4642         ;"0!  FB"
000516:  201040000007  movei    1, 7            ;"0(@  '"
000517:  607340400000  tlnn     7, 400000       ;"P[@@  "
000520:  254000000537  jrst     537             ;"5@  %?"
000521:  603340000010  tlne     7, 10           ;"P;@  ("
000522:  254000003753  jrst     3753            ;"5@  ?K"
000523:  201040000004  movei    1, 4            ;"0(@  $"
000524:  261740000303  push     17, 303         ;"6/@ ##"
000525:  262740000305  pop      17, 305         ;"67@ #%"
000526:  200100004644  move     2, 4644         ;"0!  FD"
000527:  603340020000  tlne     7, 20000        ;"P;@"  "
000530:  200100004643  move     2, 4643         ;"0!  FC"
000531:  200500004637  move     12, 4637        ;"0%  F?"
000532:  331000006523  skipl    6523            ;";(  U3"
000533:  312500000265  came     12, 265         ;"95  "U"
000534:  254000000537  jrst     537             ;"5@  %?"
000535:  200500004636  move     12, 4636        ;"0%  F>"
000536:  202500000265  movem    12, 265         ;"05  "U"
000537:  336000000270  skipn    270             ;";P  "X"
000540:  202100000270  movem    2, 270          ;"01  "X"
000541:  200500004637  move     12, 4637        ;"0%  F?"
000542:  316500000265  camn     12, 265         ;"9U  "U"
000543:  254000005255  jrst     5255            ;"5@  JM"
000544:  201640000265  movei    15, 265         ;"0.@ "U"
000545:  505641000000  hrli     15, (1)         ;"HNA   "
000546:  260740004111  pushj    17, 4111        ;"6'@ A)"
000547:  260740003663  pushj    17, 3663        ;"6'@ >S"
000550:  403200000005  setzb    4, 5            ;"@:   %"
000551:  603340400000  tlne     7, 400000       ;"P;@@  "
000552:  476000006504  setom    6504            ;"GP  U$"
000553:  400000000000  setz     0,              ;"@     " "@\0\0\0\0"
000554:  332000007211  skipe    7211            ;";0  Z)"
000555:  254000001221  jrst     1221            ;"5@  *1"
000556:  603340400000  tlne     7, 400000       ;"P;@@  "
000557:  254000000643  jrst     643             ;"5@  &C"
000560:  205040777737  movsi    1, 777737       ;"0H@__?"
000561:  200501006314  move     12, 6314(1)     ;"0%! S,"
000562:  316501006355  camn     12, 6355(1)     ;"9U! SM"
000563:  253040000561  aobjn    1, 561          ;"58@ %Q"
000564:  607340100000  tlnn     7, 100000       ;"P[@(  "
000565:  325040001015  jumpge   1, 1015         ;":H@ (-"
000566:  201040005261  movei    1, 5261         ;"0(@ JQ"
000567:  260740002253  pushj    17, 2253        ;"6'@ 2K"
000570:  200040003031  move     1, 3031         ;"0 @ 89"
000571:  260740002253  pushj    17, 2253        ;"6'@ 2K"
000572:  201040005265  movei    1, 5265         ;"0(@ JU"
000573:  260740002253  pushj    17, 2253        ;"6'@ 2K"
000574:  200040003032  move     1, 3032         ;"0 @ 8:"
000575:  260740002253  pushj    17, 2253        ;"6'@ 2K"
000576:  201040005267  movei    1, 5267         ;"0(@ JW"
000577:  260740002253  pushj    17, 2253        ;"6'@ 2K"
000600:  201040005273  movei    1, 5273         ;"0(@ J["
000601:  603340000010  tlne     7, 10           ;"P;@  ("
000602:  260740002253  pushj    17, 2253        ;"6'@ 2K"
000603:  201040005274  movei    1, 5274         ;"0(@ J\"
000604:  603340000400  tlne     7, 400          ;"P;@ $ "
000605:  260740002253  pushj    17, 2253        ;"6'@ 2K"
000606:  201040005275  movei    1, 5275         ;"0(@ J]"
000607:  603340000200  tlne     7, 200          ;"P;@ " "
000610:  260740002253  pushj    17, 2253        ;"6'@ 2K"
000611:  201040005276  movei    1, 5276         ;"0(@ J^"
000612:  603340000040  tlne     7, 40           ;"P;@  @"
000613:  260740002253  pushj    17, 2253        ;"6'@ 2K"
000614:  201040005277  movei    1, 5277         ;"0(@ J_"
000615:  603340040000  tlne     7, 40000        ;"P;@$  "
000616:  260740002253  pushj    17, 2253        ;"6'@ 2K"
000617:  201040005300  movei    1, 5300         ;"0(@ K "
000620:  603340000020  tlne     7, 20           ;"P;@  0"
000621:  260740002253  pushj    17, 2253        ;"6'@ 2K"
000622:  201040005301  movei    1, 5301         ;"0(@ K!"
000623:  603340000100  tlne     7, 100          ;"P;@ ! "
000624:  260740002253  pushj    17, 2253        ;"6'@ 2K"
000625:  201040005302  movei    1, 5302         ;"0(@ K""
000626:  603340010000  tlne     7, 10000        ;"P;@!  "
000627:  260740002253  pushj    17, 2253        ;"6'@ 2K"
000630:  201040005303  movei    1, 5303         ;"0(@ K#"
000631:  603340200000  tlne     7, 200000       ;"P;@0  "
000632:  260740002253  pushj    17, 2253        ;"6'@ 2K"
000633:  201040005304  movei    1, 5304         ;"0(@ K$"
000634:  260740002253  pushj    17, 2253        ;"6'@ 2K"
000635:  200500007153  move     12, 7153        ;"0%  YK"
000636:  350000000012  aos      12              ;"=    *"
000637:  260740002236  pushj    17, 2236        ;"6'@ 2>"
000640:  260740002150  pushj    17, 2150        ;"6'@ 1H"
000641:  260740002150  pushj    17, 2150        ;"6'@ 1H"
000642:  254000000643  jrst     643             ;"5@  &C"
000643:  332204000000  skipe    4, (4)          ;";2$   " "6H \0\0"
000644:  254000000654  jrst     654             ;"5@  &L"
000645:  620340777777  trz      7, 777777       ;"R#@___"
000646:  332000006504  skipe    6504            ;";0  U$"
000647:  260740001640  pushj    17, 1640        ;"6'@ .@"
000650:  402000006303  setzm    6303            ;"@0  S#"
000651:  260740002264  pushj    17, 2264        ;"6'@ 2T"
000652:  254000000742  jrst     742             ;"5@  'B"
000653:  254200000000  halt     0               ;"5B    "
000654:  332245000000  skipe    5, (5)          ;";2E   " "6J(\0\0"
000655:  254000000663  jrst     663             ;"5@  &S"
000656:  402000006304  setzm    6304            ;"@0  S$"
000657:  541340000001  hrri     7, 1            ;"L+@  !"
000660:  260740002264  pushj    17, 2264        ;"6'@ 2T"
000661:  254000000666  jrst     666             ;"5@  &V"
000662:  254200000000  halt     0               ;"5B    "
000663:  260740001742  pushj    17, 1742        ;"6'@ /B"
000664:  254000000643  jrst     643             ;"5@  &C"
000665:  254000000666  jrst     666             ;"5@  &V"
000666:  260740001640  pushj    17, 1640        ;"6'@ .@"
000667:  640340000001  trc      7, 1            ;"T#@  !"
000670:  260740001640  pushj    17, 1640        ;"6'@ .@"
000671:  332000000000  skipe    0               ;";0    " "6@\0\0\0"
000672:  254200000000  halt     0               ;"5B    "
000673:  402000006311  setzm    6311            ;"@0  S)"
000674:  332000000004  skipe    4               ;";0   $"
000675:  350000006311  aos      6311            ;"=   S)"
000676:  402000006312  setzm    6312            ;"@0  S*"
000677:  332000000005  skipe    5               ;";0   %"
000700:  350000006312  aos      6312            ;"=   S*"
000701:  332004000000  skipe    (4)             ;";0$   " "6@ \0\0"
000702:  254000000706  jrst     706             ;"5@  '&"
000703:  541340000000  hrri     7, 0            ;"L+@   " "X.\0\0\0"
000704:  260740002264  pushj    17, 2264        ;"6'@ 2T"
000705:  254000000752  jrst     752             ;"5@  'J"
000706:  200204000000  move     4, (4)          ;"0"$   "
000707:  350000006311  aos      6311            ;"=   S)"
000710:  332005000000  skipe    (5)             ;";0%   " "6@(\0\0"
000711:  254000000715  jrst     715             ;"5@  '-"
000712:  541340000001  hrri     7, 1            ;"L+@  !"
000713:  260740002264  pushj    17, 2264        ;"6'@ 2T"
000714:  254000000727  jrst     727             ;"5@  '7"
000715:  200245000000  move     5, (5)          ;"0"E   " " \n(\0\0"
000716:  350000006312  aos      6312            ;"=   S*"
000717:  336400006311  skipn    10, 6311        ;";T  S)"
000720:  254000000701  jrst     701             ;"5@  '!"
000721:  334200006300  skipa    4, 6300         ;";B  S "
000722:  200200000001  move     4, 1            ;"0"   !"
000723:  260740001742  pushj    17, 1742        ;"6'@ /B"
000724:  260740001043  pushj    17, 1043        ;"6'@ (C"
000725:  332044000000  skipe    1, (4)          ;";0D   " "6B \0\0"
000726:  367400000722  sojg     10, 722         ;">\  '2"
000727:  332000006306  skipe    6306            ;";0  S&"
000730:  254000000701  jrst     701             ;"5@  '!"
000731:  336400006312  skipn    10, 6312        ;";T  S*"
000732:  254000000701  jrst     701             ;"5@  '!"
000733:  334240006301  skipa    5, 6301         ;";B@ S!"
000734:  200240000001  move     5, 1            ;"0"@  !"
000735:  260740001742  pushj    17, 1742        ;"6'@ /B"
000736:  260740001043  pushj    17, 1043        ;"6'@ (C"
000737:  332045000000  skipe    1, (5)          ;";0E   " "6B(\0\0"
000740:  367400000734  sojg     10, 734         ;">\  '<"
000741:  254000000701  jrst     701             ;"5@  '!"
000742:  332245000000  skipe    5, (5)          ;";2E   " "6J(\0\0"
000743:  254000000666  jrst     666             ;"5@  &V"
000744:  402000006304  setzm    6304            ;"@0  S$"
000745:  541340000001  hrri     7, 1            ;"L+@  !"
000746:  260740002264  pushj    17, 2264        ;"6'@ 2T"
000747:  254000000771  jrst     771             ;"5@  'Y"
000750:  254200000000  halt     0               ;"5B    "
000751:  254000000666  jrst     666             ;"5@  &V"
000752:  332005000000  skipe    (5)             ;";0%   " "6@(\0\0"
000753:  254000000757  jrst     757             ;"5@  'O"
000754:  541340000001  hrri     7, 1            ;"L+@  !"
000755:  260740002264  pushj    17, 2264        ;"6'@ 2T"
000756:  254000000761  jrst     761             ;"5@  'Q"
000757:  200245000000  move     5, (5)          ;"0"E   " " \n(\0\0"
000760:  254000000716  jrst     716             ;"5@  '."
000761:  403200000005  setzb    4, 5            ;"@:   %"
000762:  260740001130  pushj    17, 1130        ;"6'@ )8"
000763:  254000000771  jrst     771             ;"5@  'Y"
000764:  260740002076  pushj    17, 2076        ;"6'@ 0^"
000765:  260740001420  pushj    17, 1420        ;"6'@ ,0"
000766:  254000000771  jrst     771             ;"5@  'Y"
000767:  201040005305  movei    1, 5305         ;"0(@ K%"
000770:  260740002253  pushj    17, 2253        ;"6'@ 2K"
000771:  620340777777  trz      7, 777777       ;"R#@___"
000772:  260740001640  pushj    17, 1640        ;"6'@ .@"
000773:  607340000010  tlnn     7, 10           ;"P[@  ("
000774:  254000001023  jrst     1023            ;"5@  (3"
000775:  336000006277  skipn    6277            ;";P  R_"
000776:  254000001015  jrst     1015            ;"5@  (-"
000777:  200640005311  move     15, 5311        ;"0&@ K)"
001000:  260740004123  pushj    17, 4123        ;"6'@ A3"
001001:  254000001023  jrst     1023            ;"5@  (3"
001002:  260740005313  pushj    17, 5313        ;"6'@ K+"
001003:  200100003015  move     2, 3015         ;"0!  8-"
001004:  201440000500  movei    11, 500         ;"0,@ % "
001005:  201500005316  movei    12, 5316        ;"0-  K."
001006:  260740005123  pushj    17, 5123        ;"6'@ I3"
001007:  213000000011  movns    0, 11           ;"18   )"
001010:  271440000500  addi     11, 500         ;"7,@ % "
001011:  322440001023  jumpe    11, 1023        ;":4@ (3"
001012:  200100003015  move     2, 3015         ;"0!  8-"
001013:  260740002152  pushj    17, 2152        ;"6'@ 1J"
001014:  254000001003  jrst     1003            ;"5@  (#"
001015:  261740000001  push     17, 1           ;"6/@  !"
001016:  333040000305  skiple   1, 305          ;";8@ #%"
001017:  104000000022                           ;"(@   2"
001020:  320700001021  jump     16, 1021        ;":'  (1"
001021:  402000000305  setzm    305             ;"@0  #%"
001022:  262740000001  pop      17, 1           ;"67@  !"
001023:  603340400000  tlne     7, 400000       ;"P;@@  "
001024:  260740001550  pushj    17, 1550        ;"6'@ -H"
001025:  201040000007  movei    1, 7            ;"0(@  '"
001026:  603340400000  tlne     7, 400000       ;"P;@@  "
001027:  201040000004  movei    1, 4            ;"0(@  $"
001030:  260740004164  pushj    17, 4164        ;"6'@ AT"
001031:  201500005321  movei    12, 5321        ;"0-  K1"
001032:  336000006277  skipn    6277            ;";P  R_"
001033:  260740004040  pushj    17, 4040        ;"6'@ @@"
001034:  332000006277  skipe    6277            ;";0  R_"
001035:  607340400000  tlnn     7, 400000       ;"P[@@  "
001036:  254000004001  jrst     4001            ;"5@  @!"
001037:  201500005327  movei    12, 5327        ;"0-  K7"
001040:  607340020004  tlnn     7, 20004        ;"P[@" $"
001041:  260740004037  pushj    17, 4037        ;"6'@ @?"
001042:  254000004001  jrst     4001            ;"5@  @!"
001043:  261740000010  push     17, 10          ;"6/@  ("
001044:  202200006517  movem    4, 6517         ;"02  U/"
001045:  202240006520  movem    5, 6520         ;"02@ U0"
001046:  337000007153  skipg    7153            ;";X  YK"
001047:  254000001107  jrst     1107            ;"5@  )'"
001050:  402000006516  setzm    6516            ;"@0  U."
001051:  332004000000  skipe    (4)             ;";0$   " "6@ \0\0"
001052:  254000001056  jrst     1056            ;"5@  (N"
001053:  541340000000  hrri     7, 0            ;"L+@   " "X.\0\0\0"
001054:  260740002264  pushj    17, 2264        ;"6'@ 2T"
001055:  254000001075  jrst     1075            ;"5@  (]"
001056:  200204000000  move     4, (4)          ;"0"$   "
001057:  332005000000  skipe    (5)             ;";0%   " "6@(\0\0"
001060:  254000001064  jrst     1064            ;"5@  (T"
001061:  541340000001  hrri     7, 1            ;"L+@  !"
001062:  260740002264  pushj    17, 2264        ;"6'@ 2T"
001063:  254000001067  jrst     1067            ;"5@  (W"
001064:  200245000000  move     5, (5)          ;"0"E   " " \n(\0\0"
001065:  260740001742  pushj    17, 1742        ;"6'@ /B"
001066:  254000001104  jrst     1104            ;"5@  )$"
001067:  332200006517  skipe    4, 6517         ;";2  U/"
001070:  402000006306  setzm    6306            ;"@0  S&"
001071:  332240006520  skipe    5, 6520         ;";2@ U0"
001072:  402000006307  setzm    6307            ;"@0  S'"
001073:  262740000010  pop      17, 10          ;"67@  ("
001074:  263740000000  popj     17,             ;"6?@   "
001075:  332005000000  skipe    (5)             ;";0%   " "6@(\0\0"
001076:  254000001102  jrst     1102            ;"5@  )""
001077:  541340000001  hrri     7, 1            ;"L+@  !"
001100:  260740002264  pushj    17, 2264        ;"6'@ 2T"
001101:  254000001107  jrst     1107            ;"5@  )'"
001102:  200245000000  move     5, (5)          ;"0"E   " " \n(\0\0"
001103:  254000001067  jrst     1067            ;"5@  (W"
001104:  350040006516  aos      1, 6516         ;"= @ U."
001105:  315040007153  camge    1, 7153         ;"9H@ YK"
001106:  254000001051  jrst     1051            ;"5@  (I"
001107:  332000007211  skipe    7211            ;";0  Z)"
001110:  254000005332  jrst     5332            ;"5@  K:"
001111:  250200006517  exch     4, 6517         ;"5"  U/"
001112:  250240006520  exch     5, 6520         ;"5"@ U0"
001113:  274740005336  sub      17, 5336        ;"7G@ K>"
001114:  260740001130  pushj    17, 1130        ;"6'@ )8"
001115:  254000001123  jrst     1123            ;"5@  )3"
001116:  260740002076  pushj    17, 2076        ;"6'@ 0^"
001117:  260740001420  pushj    17, 1420        ;"6'@ ,0"
001120:  254000001123  jrst     1123            ;"5@  )3"
001121:  200040005343  move     1, 5343         ;"0 @ KC"
001122:  260740002253  pushj    17, 2253        ;"6'@ 2K"
001123:  332200006517  skipe    4, 6517         ;";2  U/"
001124:  402000006306  setzm    6306            ;"@0  S&"
001125:  332240006520  skipe    5, 6520         ;";2@ U0"
001126:  402000006307  setzm    6307            ;"@0  S'"
001127:  254000000643  jrst     643             ;"5@  &C"
001130:  603340000100  tlne     7, 100          ;"P;@ ! "
001131:  603340000400  tlne     7, 400          ;"P;@ $ "
001132:  603340000200  tlne     7, 200          ;"P;@ " "
001133:  304000000000  caia                     ;"8@    " "1\0\0\0\0"
001134:  254000002074  jrst     2074            ;"5@  0\"
001135:  261740000004  push     17, 4           ;"6/@  $"
001136:  261740000005  push     17, 5           ;"6/@  %"
001137:  332200006303  skipe    4, 6303         ;";2  S#"
001140:  200200006300  move     4, 6300         ;"0"  S "
001141:  332240006304  skipe    5, 6304         ;";2@ S$"
001142:  200240006301  move     5, 6301         ;"0"@ S!"
001143:  316217777777  camn     4, 777777(17)   ;"9R/___"
001144:  254000001153  jrst     1153            ;"5@  )K"
001145:  541340000000  hrri     7, 0            ;"L+@   " "X.\0\0\0"
001146:  607340000400  tlnn     7, 400          ;"P[@ $ "
001147:  260740001200  pushj    17, 1200        ;"6'@ * "
001150:  254000001153  jrst     1153            ;"5@  )K"
001151:  200204000000  move     4, (4)          ;"0"$   "
001152:  254000001143  jrst     1143            ;"5@  )C"
001153:  316257000000  camn     5, (17)         ;"9RO   " "3Jx\0\0"
001154:  254000001167  jrst     1167            ;"5@  )W"
001155:  541340000001  hrri     7, 1            ;"L+@  !"
001156:  607340000400  tlnn     7, 400          ;"P[@ $ "
001157:  260740001200  pushj    17, 1200        ;"6'@ * "
001160:  254000001163  jrst     1163            ;"5@  )S"
001161:  200245000000  move     5, (5)          ;"0"E   " " \n(\0\0"
001162:  254000001143  jrst     1143            ;"5@  )C"
001163:  316217777777  camn     4, 777777(17)   ;"9R/___"
001164:  254000001167  jrst     1167            ;"5@  )W"
001165:  260740002024  pushj    17, 2024        ;"6'@ 04"
001166:  254000001175  jrst     1175            ;"5@  )]"
001167:  316217777777  camn     4, 777777(17)   ;"9R/___"
001170:  312257000000  came     5, (17)         ;"92O   " "2Jx\0\0"
001171:  350017777776  aos      777776(17)      ;"= /__^"
001172:  262740000005  pop      17, 5           ;"67@  %"
001173:  262740000004  pop      17, 4           ;"67@  $"
001174:  263740000000  popj     17,             ;"6?@   "
001175:  200204000000  move     4, (4)          ;"0"$   "
001176:  200245000000  move     5, (5)          ;"0"E   " " \n(\0\0"
001177:  254000001143  jrst     1143            ;"5@  )C"
001200:  550047000004  hrrz     1, 4(7)         ;"M G  $"
001201:  200441000001  move     11, 1(1)        ;"0$A  !"
001202:  270040005344  add      1, 5344         ;"7 @ KD"
001203:  134500000001  ildb     12, 1           ;"+E   !"
001204:  363440002074  sojle    11, 2074        ;"><@ 0\"
001205:  302500000015  caie     12, 15          ;"85   -"
001206:  306500000012  cain     12, 12          ;"8U   *"
001207:  254000001203  jrst     1203            ;"5@  *#"
001210:  302500000040  caie     12, 40          ;"85   @"
001211:  306500000011  cain     12, 11          ;"8U   )"
001212:  607340000100  tlnn     7, 100          ;"P[@ ! "
001213:  304000000000  caia                     ;"8@    " "1\0\0\0\0"
001214:  254000001203  jrst     1203            ;"5@  *#"
001215:  603340000200  tlne     7, 200          ;"P;@ " "
001216:  302500000073  caie     12, 73          ;"85   ["
001217:  263740000000  popj     17,             ;"6?@   "
001220:  254000002074  jrst     2074            ;"5@  0\"
001221:  332204000000  skipe    4, (4)          ;";2$   " "6H \0\0"
001222:  254000001232  jrst     1232            ;"5@  *:"
001223:  620340777777  trz      7, 777777       ;"R#@___"
001224:  332000006504  skipe    6504            ;";0  U$"
001225:  260740001640  pushj    17, 1640        ;"6'@ .@"
001226:  402000006303  setzm    6303            ;"@0  S#"
001227:  260740002264  pushj    17, 2264        ;"6'@ 2T"
001230:  304000000000  caia                     ;"8@    " "1\0\0\0\0"
001231:  255000000000  jfcl                     ;"5H    " "+ \0\0\0"
001232:  332245000000  skipe    5, (5)          ;";2E   " "6J(\0\0"
001233:  254000001241  jrst     1241            ;"5@  *A"
001234:  402000006304  setzm    6304            ;"@0  S$"
001235:  541340000001  hrri     7, 1            ;"L+@  !"
001236:  260740002264  pushj    17, 2264        ;"6'@ 2T"
001237:  304000000000  caia                     ;"8@    " "1\0\0\0\0"
001240:  255000000000  jfcl                     ;"5H    " "+ \0\0\0"
001241:  332306000000  skipe    6, (6)          ;";3&   " "6L0\0\0"
001242:  254000001250  jrst     1250            ;"5@  *H"
001243:  402000006305  setzm    6305            ;"@0  S%"
001244:  541340000003  hrri     7, 3            ;"L+@  #"
001245:  260740002264  pushj    17, 2264        ;"6'@ 2T"
001246:  304000000000  caia                     ;"8@    " "1\0\0\0\0"
001247:  255000000000  jfcl                     ;"5H    " "+ \0\0\0"
001250:  200040006306  move     1, 6306         ;"0 @ S&"
001251:  316040006307  camn     1, 6307         ;"9P@ S'"
001252:  312040006310  came     1, 6310         ;"90@ S("
001253:  254000001267  jrst     1267            ;"5@  *W"
001254:  260740001742  pushj    17, 1742        ;"6'@ /B"
001255:  304000000000  caia                     ;"8@    " "1\0\0\0\0"
001256:  254000001267  jrst     1267            ;"5@  *W"
001257:  250240000006  exch     5, 6            ;"5"@  &"
001260:  260740001742  pushj    17, 1742        ;"6'@ /B"
001261:  304000000000  caia                     ;"8@    " "1\0\0\0\0"
001262:  254000005345  jrst     5345            ;"5@  KE"
001263:  250240000006  exch     5, 6            ;"5"@  &"
001264:  332000006306  skipe    6306            ;";0  S&"
001265:  254000000771  jrst     771             ;"5@  'Y"
001266:  254000001221  jrst     1221            ;"5@  *1"
001267:  541340000000  hrri     7, 0            ;"L+@   " "X.\0\0\0"
001270:  260740001640  pushj    17, 1640        ;"6'@ .@"
001271:  541340000001  hrri     7, 1            ;"L+@  !"
001272:  260740001640  pushj    17, 1640        ;"6'@ .@"
001273:  541340000002  hrri     7, 2            ;"L+@  ""
001274:  260740001640  pushj    17, 1640        ;"6'@ .@"
001275:  332000000000  skipe    0               ;";0    " "6@\0\0\0"
001276:  254200000000  halt     0               ;"5B    "
001277:  402000006311  setzm    6311            ;"@0  S)"
001300:  331000006306  skipl    6306            ;";(  S&"
001301:  350000006311  aos      6311            ;"=   S)"
001302:  402000006312  setzm    6312            ;"@0  S*"
001303:  331000006307  skipl    6307            ;";(  S'"
001304:  350000006312  aos      6312            ;"=   S*"
001305:  402000006313  setzm    6313            ;"@0  S+"
001306:  331000006310  skipl    6310            ;";(  S("
001307:  350000006313  aos      6313            ;"=   S+"
001310:  200040007213  move     1, 7213         ;"0 @ Z+"
001311:  202040007212  movem    1, 7212         ;"00@ Z*"
001312:  332004000000  skipe    (4)             ;";0$   " "6@ \0\0"
001313:  254000001317  jrst     1317            ;"5@  +/"
001314:  541340000000  hrri     7, 0            ;"L+@   " "X.\0\0\0"
001315:  260740002264  pushj    17, 2264        ;"6'@ 2T"
001316:  304000000000  caia                     ;"8@    " "1\0\0\0\0"
001317:  200204000000  move     4, (4)          ;"0"$   "
001320:  331000006306  skipl    6306            ;";(  S&"
001321:  350000006311  aos      6311            ;"=   S)"
001322:  332005000000  skipe    (5)             ;";0%   " "6@(\0\0"
001323:  254000001327  jrst     1327            ;"5@  +7"
001324:  541340000001  hrri     7, 1            ;"L+@  !"
001325:  260740002264  pushj    17, 2264        ;"6'@ 2T"
001326:  304000000000  caia                     ;"8@    " "1\0\0\0\0"
001327:  200245000000  move     5, (5)          ;"0"E   " " \n(\0\0"
001330:  331000006307  skipl    6307            ;";(  S'"
001331:  350000006312  aos      6312            ;"=   S*"
001332:  332006000000  skipe    (6)             ;";0&   " "6@0\0\0"
001333:  254000001337  jrst     1337            ;"5@  +?"
001334:  541340000002  hrri     7, 2            ;"L+@  ""
001335:  260740002264  pushj    17, 2264        ;"6'@ 2T"
001336:  304000000000  caia                     ;"8@    " "1\0\0\0\0"
001337:  200306000000  move     6, (6)          ;"0#&   " " \f0\0\0"
001340:  331000006310  skipl    6310            ;";(  S("
001341:  350000006313  aos      6313            ;"=   S+"
001342:  332000006307  skipe    6307            ;";0  S'"
001343:  254000001354  jrst     1354            ;"5@  +L"
001344:  336400006311  skipn    10, 6311        ;";T  S)"
001345:  254000001354  jrst     1354            ;"5@  +L"
001346:  334200006300  skipa    4, 6300         ;";B  S "
001347:  200200000001  move     4, 1            ;"0"   !"
001350:  260740001742  pushj    17, 1742        ;"6'@ /B"
001351:  260740001043  pushj    17, 1043        ;"6'@ (C"
001352:  332044000000  skipe    1, (4)          ;";0D   " "6B \0\0"
001353:  367400001347  sojg     10, 1347        ;">\  +G"
001354:  332000006306  skipe    6306            ;";0  S&"
001355:  254000001366  jrst     1366            ;"5@  +V"
001356:  336400006312  skipn    10, 6312        ;";T  S*"
001357:  254000001366  jrst     1366            ;"5@  +V"
001360:  334240006301  skipa    5, 6301         ;";B@ S!"
001361:  200240000001  move     5, 1            ;"0"@  !"
001362:  260740001742  pushj    17, 1742        ;"6'@ /B"
001363:  260740001043  pushj    17, 1043        ;"6'@ (C"
001364:  332045000000  skipe    1, (5)          ;";0E   " "6B(\0\0"
001365:  367400001361  sojg     10, 1361        ;">\  +Q"
001366:  261740000004  push     17, 4           ;"6/@  $"
001367:  261740000005  push     17, 5           ;"6/@  %"
001370:  200040007213  move     1, 7213         ;"0 @ Z+"
001371:  316040007212  camn     1, 7212         ;"9P@ Z*"
001372:  254000001407  jrst     1407            ;"5@  ,'"
001373:  134240000001  ildb     5, 1            ;"+B@  !"
001374:  261740000001  push     17, 1           ;"6/@  !"
001375:  405240777777  andi     5, 777777       ;"@J@___"
001376:  200400006313  move     10, 6313        ;"0$  S+"
001377:  334200006302  skipa    4, 6302         ;";B  S""
001400:  200200000001  move     4, 1            ;"0"   !"
001401:  260740001742  pushj    17, 1742        ;"6'@ /B"
001402:  260740001417  pushj    17, 1417        ;"6'@ ,/"
001403:  332044000000  skipe    1, (4)          ;";0D   " "6B \0\0"
001404:  367400001400  sojg     10, 1400        ;">\  , "
001405:  262740000001  pop      17, 1           ;"67@  !"
001406:  254000001371  jrst     1371            ;"5@  +Y"
001407:  262740000005  pop      17, 5           ;"67@  %"
001410:  262740000004  pop      17, 4           ;"67@  $"
001411:  332000006306  skipe    6306            ;";0  S&"
001412:  331000006307  skipl    6307            ;";(  S'"
001413:  254000001312  jrst     1312            ;"5@  +*"
001414:  331000006310  skipl    6310            ;";(  S("
001415:  254000001312  jrst     1312            ;"5@  +*"
001416:  254000001417  jrst     1417            ;"5@  ,/"
001417:  263740000000  popj     17,             ;"6?@   "
001420:  607340400000  tlnn     7, 400000       ;"P[@@  "
001421:  254000002074  jrst     2074            ;"5@  0\"
001422:  603340000004  tlne     7, 4            ;"P;@  $"
001423:  254000001504  jrst     1504            ;"5@  -$"
001424:  603340020000  tlne     7, 20000        ;"P;@"  "
001425:  254000001470  jrst     1470            ;"5@  ,X"
001426:  260740001571  pushj    17, 1571        ;"6'@ -Y"
001427:  260740001636  pushj    17, 1636        ;"6'@ .>"
001430:  302440000061  caie     11, 61          ;"84@  Q"
001431:  306440000062  cain     11, 62          ;"8T@  R"
001432:  254000001464  jrst     1464            ;"5@  ,T"
001433:  306440000111  cain     11, 111         ;"8T@ !)"
001434:  254000001503  jrst     1503            ;"5@  -#"
001435:  302440000124  caie     11, 124         ;"84@ !4"
001436:  254000001452  jrst     1452            ;"5@  ,J"
001437:  260740003127  pushj    17, 3127        ;"6'@ 97"
001440:  260740003133  pushj    17, 3133        ;"6'@ 9;"
001441:  302440000003  caie     11, 3           ;"84@  #"
001442:  306440000033  cain     11, 33          ;"8T@  ;"
001443:  254000001427  jrst     1427            ;"5@  ,7"
001444:  260740001545  pushj    17, 1545        ;"6'@ -E"
001445:  302440000015  caie     11, 15          ;"84@  -"
001446:  254000001440  jrst     1440            ;"5@  ,@"
001447:  201440000012  movei    11, 12          ;"0,@  *"
001450:  260740001545  pushj    17, 1545        ;"6'@ -E"
001451:  254000001437  jrst     1437            ;"5@  ,?"
001452:  302440000000  caie     11, 0           ;"84@   " "0R\0\0\0"
001453:  254200000000  halt     0               ;"5B    "
001454:  541340000000  hrri     7, 0            ;"L+@   " "X.\0\0\0"
001455:  402007006504  setzm    6504(7)         ;"@0' U$" "@@8\r\""
001456:  260740001640  pushj    17, 1640        ;"6'@ .@"
001457:  541340000001  hrri     7, 1            ;"L+@  !"
001460:  402007006504  setzm    6504(7)         ;"@0' U$" "@@8\r\""
001461:  260740001640  pushj    17, 1640        ;"6'@ .@"
001462:  476000006504  setom    6504            ;"GP  U$"
001463:  263740000000  popj     17,             ;"6?@   "
001464:  541351777717  hrri     7, 777717(11)   ;"L+I__/"
001465:  476007006504  setom    6504(7)         ;"GP' U$" "O@8\r\""
001466:  260740001640  pushj    17, 1640        ;"6'@ .@"
001467:  254000001427  jrst     1427            ;"5@  ,7"
001470:  476000006505  setom    6505            ;"GP  U%"
001471:  541340000001  hrri     7, 1            ;"L+@  !"
001472:  476000006514  setom    6514            ;"GP  U,"
001473:  261747000004  push     17, 4(7)        ;"6/G  $"
001474:  260740001640  pushj    17, 1640        ;"6'@ .@"
001475:  262740000001  pop      17, 1           ;"67@  !"
001476:  201100005347  movei    2, 5347         ;"0)  KG"
001477:  316047000004  camn     1, 4(7)         ;"9PG  $"
001500:  260740001531  pushj    17, 1531        ;"6'@ -9"
001501:  403440006514  setzb    11, 6514        ;"@<@ U,"
001502:  254000001452  jrst     1452            ;"5@  ,J"
001503:  261740005350  push     17, 5350        ;"6/@ KH"
001504:  201100005351  movei    2, 5351         ;"0)  KI"
001505:  260740001531  pushj    17, 1531        ;"6'@ -9"
001506:  200100003031  move     2, 3031         ;"0!  89"
001507:  260740001531  pushj    17, 1531        ;"6'@ -9"
001510:  201100005360  movei    2, 5360         ;"0)  KP"
001511:  260740001531  pushj    17, 1531        ;"6'@ -9"
001512:  476000006504  setom    6504            ;"GP  U$"
001513:  541340000000  hrri     7, 0            ;"L+@   " "X.\0\0\0"
001514:  260740001640  pushj    17, 1640        ;"6'@ .@"
001515:  201100005362  movei    2, 5362         ;"0)  KR"
001516:  260740001531  pushj    17, 1531        ;"6'@ -9"
001517:  200100003032  move     2, 3032         ;"0!  8:"
001520:  260740001531  pushj    17, 1531        ;"6'@ -9"
001521:  201100005364  movei    2, 5364         ;"0)  KT"
001522:  260740001531  pushj    17, 1531        ;"6'@ -9"
001523:  476000006505  setom    6505            ;"GP  U%"
001524:  541340000001  hrri     7, 1            ;"L+@  !"
001525:  260740001640  pushj    17, 1640        ;"6'@ .@"
001526:  402000006505  setzm    6505            ;"@0  U%"
001527:  201100005366  movei    2, 5366         ;"0)  KV"
001530:  254000001531  jrst     1531            ;"5@  -9"
001531:  505100440700  hrli     2, 440700       ;"HI D' "
001532:  134440000002  ildb     11, 2           ;"+D@  ""
001533:  322440002075  jumpe    11, 2075        ;":4@ 0]"
001534:  260740001545  pushj    17, 1545        ;"6'@ -E"
001535:  254000001532  jrst     1532            ;"5@  -:"
001536:  261740000001  push     17, 1           ;"6/@  !"
001537:  336040000011  skipn    1, 11           ;";P@  )"
001540:  254000001565  jrst     1565            ;"5@  -U"
001541:  134440000002  ildb     11, 2           ;"+D@  ""
001542:  260740001545  pushj    17, 1545        ;"6'@ -E"
001543:  367040001541  sojg     1, 1541         ;">X@ -A"
001544:  254000001565  jrst     1565            ;"5@  -U"
001545:  136440007135  idpb     11, 7135        ;"+T@ Y="
001546:  373000007136  sosle    7136            ;"?8  Y>"
001547:  263740000000  popj     17,             ;"6?@   "
001550:  261740000001  push     17, 1           ;"6/@  !"
001551:  261740000002  push     17, 2           ;"6/@  ""
001552:  200040005253  move     1, 5253         ;"0 @ JK"
001553:  202040007135  movem    1, 7135         ;"00@ Y="
001554:  201100000500  movei    2, 500          ;"0)  % "
001555:  274100007136  sub      2, 7136         ;"7A  Y>"
001556:  272100007136  addm     2, 7136         ;"71  Y>"
001557:  322100001564  jumpe    2, 1564         ;":1  -T"
001560:  213000000002  movns    0, 2            ;"18   ""
001561:  200500005406  move     12, 5406        ;"0%  L&"
001562:  260740000140  pushj    17, 140         ;"6'@ !@"
001563:  213000000002  movns    0, 2            ;"18   ""
001564:  262740000002  pop      17, 2           ;"67@  ""
001565:  262740000001  pop      17, 1           ;"67@  !"
001566:  263740000000  popj     17,             ;"6?@   "
001567:  554457000000  hlrz     11, (17)        ;"MDO   "
001570:  202051000000  movem    1, (11)         ;"00I   " " BH\0\0"
001571:  260740003131  pushj    17, 3131        ;"6'@ 99"
001572:  200040005407  move     1, 5407         ;"0 @ L'"
001573:  201440000000  movei    11, 0           ;"0,@   " " 2\0\0\0"
001574:  312040005410  came     1, 5410         ;"90@ L("
001575:  260740003137  pushj    17, 3137        ;"6'@ 9?"
001576:  305440000040  caige    11, 40          ;"8L@  @"
001577:  201440000000  movei    11, 0           ;"0,@   " " 2\0\0\0"
001600:  136440000001  idpb     11, 1           ;"+T@  !"
001601:  302440000061  caie     11, 61          ;"84@  Q"
001602:  306440000062  cain     11, 62          ;"8T@  R"
001603:  254000001573  jrst     1573            ;"5@  -["
001604:  302440000111  caie     11, 111         ;"84@ !)"
001605:  306440000124  cain     11, 124         ;"8T@ !4"
001606:  254000001573  jrst     1573            ;"5@  -["
001607:  306440000114  cain     11, 114         ;"8T@ !,"
001610:  254000001614  jrst     1614            ;"5@  .,"
001611:  302440000103  caie     11, 103         ;"84@ !#"
001612:  254000001630  jrst     1630            ;"5@  .8"
001613:  334040005411  skipa    1, 5411         ;";@@ L)"
001614:  201040007152  movei    1, 7152         ;"0(@ YJ"
001615:  506057000000  hrlm     1, (17)         ;"HPO   " "QBx\0\0"
001616:  201040000000  movei    1, 0            ;"0(@   " " \"\0\0\0"
001617:  260740003133  pushj    17, 3133        ;"6'@ 9;"
001620:  305440000040  caige    11, 40          ;"8L@  @"
001621:  254000001567  jrst     1567            ;"5@  -W"
001622:  301440000060  cail     11, 60          ;"8,@  P"
001623:  303440000071  caile    11, 71          ;"8<@  Y"
001624:  254000001633  jrst     1633            ;"5@  .;"
001625:  221040000012  imuli    1, 12           ;"2(@  *"
001626:  271051777720  addi     1, 777720(11)   ;"7(I__0"
001627:  254000001617  jrst     1617            ;"5@  ./"
001630:  200040005407  move     1, 5407         ;"0 @ L'"
001631:  202040006513  movem    1, 6513         ;"00@ U+"
001632:  322440002075  jumpe    11, 2075        ;":4@ 0]"
001633:  200040005441  move     1, 5441         ;"0 @ LA"
001634:  260740002253  pushj    17, 2253        ;"6'@ 2K"
001635:  254000001571  jrst     1571            ;"5@  -Y"
001636:  134440006513  ildb     11, 6513        ;"+D@ U+"
001637:  263740000000  popj     17,             ;"6?@   "
001640:  332007006504  skipe    6504(7)         ;";0' U$" "6@8\r\""
001641:  260740001674  pushj    17, 1674        ;"6'@ .\"
001642:  332047000004  skipe    1, 4(7)         ;";0G  $"
001643:  254000001646  jrst     1646            ;"5@  .F"
001644:  402007006303  setzm    6303(7)         ;"@0' S#"
001645:  263740000000  popj     17,             ;"6?@   "
001646:  201500000001  movei    12, 1           ;"0-   !"
001647:  210440000001  movn     11, 1           ;"1$@  !"
001650:  270447006300  add      11, 6300(7)     ;"7$G S "
001651:  200100000001  move     2, 1            ;"0!   !"
001652:  316047006517  camn     1, 6517(7)      ;"9PG U/"
001653:  272447006517  addm     11, 6517(7)     ;"74G U/"
001654:  336041000000  skipn    1, (1)          ;";PA   "
001655:  254000001660  jrst     1660            ;"5@  .P"
001656:  272442000000  addm     11, (2)         ;"74B   "
001657:  344500001651  aoja     12, 1651        ;"<E  .I"
001660:  202507006303  movem    12, 6303(7)     ;"05' S#"
001661:  514047000004  hrlz     1, 4(7)         ;"I@G  $"
001662:  540047006300  hrr      1, 6300(7)      ;"L G S "
001663:  200502000001  move     12, 1(2)        ;"0%"  !"
001664:  271500000005  addi     12, 5           ;"7-   %"
001665:  231500000005  idivi    12, 5           ;"3-   %"
001666:  271112000010  addi     2, 10(12)       ;"7)*  ("
001667:  270100000011  add      2, 11           ;"7!   )"
001670:  251042000000  blt      1, (2)          ;"5(B   "
001671:  200047006300  move     1, 6300(7)      ;"0 G S "
001672:  202047000004  movem    1, 4(7)         ;"00G  $"
001673:  263740000000  popj     17,             ;"6?@   "
001674:  200047006300  move     1, 6300(7)      ;"0 G S "
001675:  336007006303  skipn    6303(7)         ;";P' S#"
001676:  400040000000  setz     1,              ;"@ @   "
001677:  316047000004  camn     1, 4(7)         ;"9PG  $"
001700:  263740000000  popj     17,             ;"6?@   "
001701:  603340020000  tlne     7, 20000        ;"P;@"  "
001702:  335000006507  skipge   6507            ;";H  U'"
001703:  254000001715  jrst     1715            ;"5@  /-"
001704:  333000006507  skiple   6507            ;";8  U'"
001705:  254000001713  jrst     1713            ;"5@  /+"
001706:  201440000174  movei    11, 174         ;"0,@ !\"
001707:  332000006514  skipe    6514            ;";0  U,"
001710:  260740001545  pushj    17, 1545        ;"6'@ -E"
001711:  607340020000  tlnn     7, 20000        ;"P[@"  "
001712:  254000001715  jrst     1715            ;"5@  /-"
001713:  201440000011  movei    11, 11          ;"0,@  )"
001714:  260740001545  pushj    17, 1545        ;"6'@ -E"
001715:  201101000011  movei    2, 11(1)        ;"0)!  )"
001716:  505100440700  hrli     2, 440700       ;"HI D' "
001717:  200441000001  move     11, 1(1)        ;"0$A  !"
001720:  402000006507  setzm    6507            ;"@0  U'"
001721:  305440000002  caige    11, 2           ;"8L@  ""
001722:  476000006507  setom    6507            ;"GP  U'"
001723:  260740001536  pushj    17, 1536        ;"6'@ ->"
001724:  370000000002  sos      2               ;"?    ""
001725:  133000000002  ibp      2               ;"+8   ""
001726:  133000000002  ibp      2               ;"+8   ""
001727:  133000000002  ibp      2               ;"+8   ""
001730:  134440000002  ildb     11, 2           ;"+D@  ""
001731:  302440000015  caie     11, 15          ;"84@  -"
001732:  476000006507  setom    6507            ;"GP  U'"
001733:  134440000002  ildb     11, 2           ;"+D@  ""
001734:  302440000012  caie     11, 12          ;"84@  *"
001735:  476000006507  setom    6507            ;"GP  U'"
001736:  306440000015  cain     11, 15          ;"8T@  -"
001737:  213000006507  movns    0, 6507         ;"18  U'"
001740:  200041000000  move     1, (1)          ;"0 A   "
001741:  254000001677  jrst     1677            ;"5@  ._"
001742:  200444000001  move     11, 1(4)        ;"0$D  !"
001743:  312445000001  came     11, 1(5)        ;"94E  !"
001744:  254000001763  jrst     1763            ;"5@  /S"
001745:  201051000005  movei    1, 5(11)        ;"0(I  %"
001746:  231040000005  idivi    1, 5            ;"3(@  %"
001747:  213000000001  movns    0, 1            ;"18   !"
001750:  517000000001  hrlzs    0, 1            ;"IX   !"
001751:  541044000011  hrri     1, 11(4)        ;"L(D  )"
001752:  201105000011  movei    2, 11(5)        ;"0)%  )"
001753:  274100000001  sub      2, 1            ;"7A   !"
001754:  542100001756  hrrm     2, 1756         ;"L1  /N"
001755:  200441000000  move     11, (1)         ;"0$A   "
001756:  430441000000  xor      11, (1)         ;"C$A   "
001757:  612440005442  tdne     11, 5442        ;"Q4@ LB"
001760:  254000001763  jrst     1763            ;"5@  /S"
001761:  253040001755  aobjn    1, 1755         ;"58@ /M"
001762:  263740000000  popj     17,             ;"6?@   "
001763:  607340040100  tlnn     7, 40100        ;"P[@$! "
001764:  254000002074  jrst     2074            ;"5@  0\"
001765:  201044000011  movei    1, 11(4)        ;"0(D  )"
001766:  201105000011  movei    2, 11(5)        ;"0)%  )"
001767:  505040440700  hrli     1, 440700       ;"HH@D' "
001770:  505100440700  hrli     2, 440700       ;"HI D' "
001771:  134500000001  ildb     12, 1           ;"+E   !"
001772:  134540000002  ildb     13, 2           ;"+E@  ""
001773:  312500000013  came     12, 13          ;"95   +"
001774:  254000001777  jrst     1777            ;"5@  /_"
001775:  326500001771  jumpn    12, 1771        ;":U  /Y"
001776:  263740000000  popj     17,             ;"6?@   "
001777:  607340000100  tlnn     7, 100          ;"P[@ ! "
002000:  254000002007  jrst     2007            ;"5@  0'"
002001:  302500000040  caie     12, 40          ;"85   @"
002002:  306500000011  cain     12, 11          ;"8U   )"
002003:  254000005443  jrst     5443            ;"5@  LC"
002004:  302540000040  caie     13, 40          ;"85@  @"
002005:  306540000011  cain     13, 11          ;"8U@  )"
002006:  254000005445  jrst     5445            ;"5@  LE"
002007:  607340040000  tlnn     7, 40000        ;"P[@$  "
002010:  254000002021  jrst     2021            ;"5@  01"
002011:  301500000141  cail     12, 141         ;"8-  !A"
002012:  303500000172  caile    12, 172         ;"8=  !Z"
002013:  304000000000  caia                     ;"8@    " "1\0\0\0\0"
002014:  275500000040  subi     12, 40          ;"7M   @"
002015:  301540000141  cail     13, 141         ;"8-@ !A"
002016:  303540000172  caile    13, 172         ;"8=@ !Z"
002017:  304000000000  caia                     ;"8@    " "1\0\0\0\0"
002020:  275540000040  subi     13, 40          ;"7M@  @"
002021:  316500000013  camn     12, 13          ;"9U   +"
002022:  254000001771  jrst     1771            ;"5@  /Y"
002023:  254000002074  jrst     2074            ;"5@  0\"
002024:  201044000011  movei    1, 11(4)        ;"0(D  )"
002025:  201105000011  movei    2, 11(5)        ;"0)%  )"
002026:  505040440700  hrli     1, 440700       ;"HH@D' "
002027:  505100440700  hrli     2, 440700       ;"HI D' "
002030:  134500000001  ildb     12, 1           ;"+E   !"
002031:  134540000002  ildb     13, 2           ;"+E@  ""
002032:  312540000012  came     13, 12          ;"95@  *"
002033:  254000002040  jrst     2040            ;"5@  0@"
002034:  306500000073  cain     12, 73          ;"8U   ["
002035:  607340000200  tlnn     7, 200          ;"P[@ " "
002036:  326500002030  jumpn    12, 2030        ;":U  08"
002037:  263740000000  popj     17,             ;"6?@   "
002040:  607340000100  tlnn     7, 100          ;"P[@ ! "
002041:  254000002052  jrst     2052            ;"5@  0J"
002042:  302540000040  caie     13, 40          ;"85@  @"
002043:  306540000011  cain     13, 11          ;"8U@  )"
002044:  254000002031  jrst     2031            ;"5@  09"
002045:  302500000040  caie     12, 40          ;"85   @"
002046:  306500000011  cain     12, 11          ;"8U   )"
002047:  254000005447  jrst     5447            ;"5@  LG"
002050:  316500000013  camn     12, 13          ;"9U   +"
002051:  254000002034  jrst     2034            ;"5@  0<"
002052:  607340040000  tlnn     7, 40000        ;"P[@$  "
002053:  254000002066  jrst     2066            ;"5@  0V"
002054:  301500000141  cail     12, 141         ;"8-  !A"
002055:  303500000172  caile    12, 172         ;"8=  !Z"
002056:  304000000000  caia                     ;"8@    " "1\0\0\0\0"
002057:  275500000040  subi     12, 40          ;"7M   @"
002060:  301540000141  cail     13, 141         ;"8-@ !A"
002061:  303540000172  caile    13, 172         ;"8=@ !Z"
002062:  304000000000  caia                     ;"8@    " "1\0\0\0\0"
002063:  275540000040  subi     13, 40          ;"7M@  @"
002064:  316500000013  camn     12, 13          ;"9U   +"
002065:  254000002030  jrst     2030            ;"5@  08"
002066:  302500000073  caie     12, 73          ;"85   ["
002067:  306540000073  cain     13, 73          ;"8U@  ["
002070:  607340000200  tlnn     7, 200          ;"P[@ " "
002071:  254000002074  jrst     2074            ;"5@  0\"
002072:  322500002075  jumpe    12, 2075        ;":5  0]"
002073:  322540002075  jumpe    13, 2075        ;":5@ 0]"
002074:  350017000000  aos      (17)            ;"= /   "
002075:  263740000000  popj     17,             ;"6?@   "
002076:  350000006277  aos      6277            ;"=   R_"
002077:  603340020004  tlne     7, 20004        ;"P;@" $"
002100:  263740000000  popj     17,             ;"6?@   "
002101:  202740006276  movem    17, 6276        ;"07@ R^"
002102:  620340777777  trz      7, 777777       ;"R#@___"
002103:  260740002110  pushj    17, 2110        ;"6'@ 1("
002104:  541340000001  hrri     7, 1            ;"L+@  !"
002105:  260740002110  pushj    17, 2110        ;"6'@ 1("
002106:  402000006276  setzm    6276            ;"@0  R^"
002107:  263740000000  popj     17,             ;"6?@   "
002110:  260740002157  pushj    17, 2157        ;"6'@ 1O"
002111:  336007006303  skipn    6303(7)         ;";P' S#"
002112:  263740000000  popj     17,             ;"6?@   "
002113:  200047006300  move     1, 6300(7)      ;"0 G S "
002114:  400140000000  setz     3,              ;"@!@   "
002115:  332407000004  skipe    10, 4(7)        ;";4'  $"
002116:  607340000040  tlnn     7, 40           ;"P[@  @"
002117:  304000000000  caia                     ;"8@    " "1\0\0\0\0"
002120:  200410000000  move     10, (10)        ;"0$(   "
002121:  312040000010  came     1, 10           ;"90@  ("
002122:  311140007152  caml     3, 7152         ;"9)@ YJ"
002123:  263740000000  popj     17,             ;"6?@   "
002124:  607340010000  tlnn     7, 10000        ;"P[@!  "
002125:  254000002132  jrst     2132            ;"5@  1:"
002126:  261740000001  push     17, 1           ;"6/@  !"
002127:  201047002146  movei    1, 2146(7)      ;"0(G 1F"
002130:  260740002253  pushj    17, 2253        ;"6'@ 2K"
002131:  262740000001  pop      17, 1           ;"67@  !"
002132:  201101000011  movei    2, 11(1)        ;"0)!  )"
002133:  505100440700  hrli     2, 440700       ;"HI D' "
002134:  200441000001  move     11, 1(1)        ;"0$A  !"
002135:  311440007151  caml     11, 7151        ;"9,@ YI"
002136:  200440007151  move     11, 7151        ;"0$@ YI"
002137:  607340400000  tlnn     7, 400000       ;"P[@@  "
002140:  200441000001  move     11, 1(1)        ;"0$A  !"
002141:  260740002152  pushj    17, 2152        ;"6'@ 1J"
002142:  607340000400  tlnn     7, 400          ;"P[@ $ "
002143:  260740002150  pushj    17, 2150        ;"6'@ 1H"
002144:  200041000000  move     1, (1)          ;"0 A   "
002145:  344140002121  aoja     3, 2121         ;"<A@ 11"
002146:  305221100000  caige    4, @100000(1)   ;"8J1(  " "1)\t\0\0"
002147:  311221100000  caml     4, @100000(1)   ;"9*1(  " "2)\t\0\0"
002150:  200100005451  move     2, 5451         ;"0!  LI"
002151:  201440000002  movei    11, 2           ;"0,@  ""
002152:  213000000011  movns    0, 11           ;"18   )"
002153:  200500005463  move     12, 5463        ;"0%  LS"
002154:  260740000140  pushj    17, 140         ;"6'@ !@"
002155:  213000000011  movns    0, 11           ;"18   )"
002156:  263740000000  popj     17,             ;"6?@   "
002157:  200100005467  move     2, 5467         ;"0!  LW"
002160:  201440000012  movei    11, 12          ;"0,@  *"
002161:  260740002152  pushj    17, 2152        ;"6'@ 1J"
002162:  200047003031  move     1, 3031(7)      ;"0 G 89"
002163:  260740002253  pushj    17, 2253        ;"6'@ 2K"
002164:  200100005471  move     2, 5471         ;"0!  LY"
002165:  201440000002  movei    11, 2           ;"0,@  ""
002166:  260740002152  pushj    17, 2152        ;"6'@ 1J"
002167:  200047006300  move     1, 6300(7)      ;"0 G S "
002170:  336007006303  skipn    6303(7)         ;";P' S#"
002171:  334507006457  skipa    12, 6457(7)     ;";E' TO"
002172:  200501000006  move     12, 6(1)        ;"0%!  &"
002173:  260740002236  pushj    17, 2236        ;"6'@ 2>"
002174:  260740005473  pushj    17, 5473        ;"6'@ L["
002175:  336007006303  skipn    6303(7)         ;";P' S#"
002176:  334507006462  skipa    12, 6462(7)     ;";E' TR"
002177:  200501000007  move     12, 7(1)        ;"0%!  '"
002200:  260740002236  pushj    17, 2236        ;"6'@ 2>"
002201:  201040005476  movei    1, 5476         ;"0(@ L^"
002202:  260740002253  pushj    17, 2253        ;"6'@ 2K"
002203:  200047006300  move     1, 6300(7)      ;"0 G S "
002204:  336007006303  skipn    6303(7)         ;";P' S#"
002205:  334507006465  skipa    12, 6465(7)     ;";E' TU"
002206:  200501000010  move     12, 10(1)       ;"0%!  ("
002207:  260740002236  pushj    17, 2236        ;"6'@ 2>"
002210:  260740005500  pushj    17, 5500        ;"6'@ M "
002211:  607340200020  tlnn     7, 200020       ;"P[@0 0"
002212:  254000002150  jrst     2150            ;"5@  1H"
002213:  200047006300  move     1, 6300(7)      ;"0 G S "
002214:  336007006303  skipn    6303(7)         ;";P' S#"
002215:  254000005503  jrst     5503            ;"5@  M#"
002216:  201501000002  movei    12, 2(1)        ;"0-!  ""
002217:  336012000000  skipn    (12)            ;";P*   " "7@P\0\0"
002220:  254000002150  jrst     2150            ;"5@  1H"
002221:  201040005507  movei    1, 5507         ;"0(@ M'"
002222:  261740000012  push     17, 12          ;"6/@  *"
002223:  260740002253  pushj    17, 2253        ;"6'@ 2K"
002224:  262740000001  pop      17, 1           ;"67@  !"
002225:  603340200000  tlne     7, 200000       ;"P;@0  "
002226:  260740005512  pushj    17, 5512        ;"6'@ M*"
002227:  261741000004  push     17, 4(1)        ;"6/A  $"
002230:  402001000004  setzm    4(1)            ;"@0!  $"
002231:  260740002253  pushj    17, 2253        ;"6'@ 2K"
002232:  262741000004  pop      17, 4(1)        ;"67A  $"
002233:  603340200000  tlne     7, 200000       ;"P;@0  "
002234:  260740005515  pushj    17, 5515        ;"6'@ M-"
002235:  254000002150  jrst     2150            ;"5@  1H"
002236:  200100005520  move     2, 5520         ;"0!  M0"
002237:  400440000000  setz     11,             ;"@$@   "
002240:  260740002243  pushj    17, 2243        ;"6'@ 2C"
002241:  200100005520  move     2, 5520         ;"0!  M0"
002242:  254000002152  jrst     2152            ;"5@  1J"
002243:  231500000012  idivi    12, 12          ;"3-   *"
002244:  506557000000  hrlm     13, (17)        ;"HUO   " "QVx\0\0"
002245:  332000000012  skipe    12              ;";0   *"
002246:  260740002243  pushj    17, 2243        ;"6'@ 2C"
002247:  554557000000  hlrz     13, (17)        ;"MEO   "
002250:  271540000060  addi     13, 60          ;"7-@  P"
002251:  136540000002  idpb     13, 2           ;"+U@  ""
002252:  344440002075  aoja     11, 2075        ;"<D@ 0]"
002253:  201101000000  movei    2, (1)          ;"0)!   "
002254:  505100440700  hrli     2, 440700       ;"HI D' "
002255:  400440000000  setz     11,             ;"@$@   "
002256:  134500000002  ildb     12, 2           ;"+E   ""
002257:  332000000012  skipe    12              ;";0   *"
002260:  344440002256  aoja     11, 2256        ;"<D@ 2N"
002261:  201101000000  movei    2, (1)          ;"0)!   "
002262:  505100440700  hrli     2, 440700       ;"HI D' "
002263:  254000002152  jrst     2152            ;"5@  1J"
002264:  612347003026  tdne     7, 3026(7)      ;"Q3G 86"
002265:  254000005521  jrst     5521            ;"5@  M1"
002266:  200047006300  move     1, 6300(7)      ;"0 G S "
002267:  336007006303  skipn    6303(7)         ;";P' S#"
002270:  254000002277  jrst     2277            ;"5@  2_"
002271:  336047000004  skipn    1, 4(7)         ;";PG  $"
002272:  254200000000  halt     0               ;"5B    "
002273:  200501000001  move     12, 1(1)        ;"0%!  !"
002274:  271500000005  addi     12, 5           ;"7-   %"
002275:  231500000005  idivi    12, 5           ;"3-   %"
002276:  271052000011  addi     1, 11(12)       ;"7(J  )"
002277:  400140000000  setz     3,              ;"@!@   "
002300:  200427003004  move     10, @3004(7)    ;"0$7 8$"
002301:  134440000010  ildb     11, 10          ;"+D@  ("
002302:  307440000015  caig     11, 15          ;"8\@  -"
002303:  256011002352  xct      2352(11)        ;"5P) 3J"
002304:  273147006465  addb     3, 6465(7)      ;"79G TU"
002305:  202141000010  movem    3, 10(1)        ;"01A  ("
002306:  607340200020  tlnn     7, 200020       ;"P[@0 0"
002307:  254000002314  jrst     2314            ;"5@  3,"
002310:  201141000002  movei    3, 2(1)         ;"0)A  ""
002311:  137340005523  dpb      7, 5523         ;"+[@ M3"
002312:  270140005524  add      3, 5524         ;"7!@ M4"
002313:  251141000005  blt      3, 5(1)         ;"5)A  %"
002314:  200107006457  move     2, 6457(7)      ;"0!' TO"
002315:  202101000006  movem    2, 6(1)         ;"01!  &"
002316:  200107006462  move     2, 6462(7)      ;"0!' TR"
002317:  202101000007  movem    2, 7(1)         ;"01!  '"
002320:  402001000000  setzm    (1)             ;"@0!   "
002321:  201101000011  movei    2, 11(1)        ;"0)!  )"
002322:  505100440700  hrli     2, 440700       ;"HI D' "
002323:  200700005525  move     16, 5525        ;"0'  M5"
002324:  251700000016  blt      16, 16          ;"5/   ."
002325:  630140000003  tdz      3, 3            ;"S!@  #"
002326:  254000000015  jrst     15              ;"5@   -"
002327:  134440000010  ildb     11, 10          ;"+D@  ("
002330:  256011002370  xct      2370(11)        ;"5P) 3X"
002331:  344140000014  aoja     3, 14           ;"<A@  ,"
002332:  350007006303  aos      6303(7)         ;"= ' S#"
002333:  332007000004  skipe    4(7)            ;";0'  $"
002334:  202067000004  movem    1, @4(7)        ;"00W  $"
002335:  202047000004  movem    1, 4(7)         ;"00G  $"
002336:  202141000001  movem    3, 1(1)         ;"01A  !"
002337:  272147006465  addm     3, 6465(7)      ;"71G TU"
002340:  202427003004  movem    10, @3004(7)    ;"047 8$"
002341:  403500000013  setzb    12, 13          ;"@=   +"
002342:  136500000002  idpb     12, 2           ;"+U   ""
002343:  135500005526  ldb      12, 5526        ;"+M  M6"
002344:  137500005527  dpb      12, 5527        ;"+]  M7"
002345:  137540000002  dpb      13, 2           ;"+]@  ""
002346:  603340200000  tlne     7, 200000       ;"P;@0  "
002347:  260740002666  pushj    17, 2666        ;"6'@ 6V"
002350:  350017000000  aos      (17)            ;"= /   "
002351:  254000002074  jrst     2074            ;"5@  0\"
002352:  255000000000  jfcl                     ;"5H    " "+ \0\0\0"
002353:  255000000000  jfcl                     ;"5H    " "+ \0\0\0"
002354:  255000000000  jfcl                     ;"5H    " "+ \0\0\0"
002355:  254000002740  jrst     2740            ;"5@  7@"
002356:  255000000000  jfcl                     ;"5H    " "+ \0\0\0"
002357:  255000000000  jfcl                     ;"5H    " "+ \0\0\0"
002360:  255000000000  jfcl                     ;"5H    " "+ \0\0\0"
002361:  255000000000  jfcl                     ;"5H    " "+ \0\0\0"
002362:  255000000000  jfcl                     ;"5H    " "+ \0\0\0"
002363:  255000000000  jfcl                     ;"5H    " "+ \0\0\0"
002364:  254000002576  jrst     2576            ;"5@  5^"
002365:  255000000000  jfcl                     ;"5H    " "+ \0\0\0"
002366:  254000002570  jrst     2570            ;"5@  5X"
002367:  254000002602  jrst     2602            ;"5@  6""
002370:  136440000002  idpb     11, 2           ;"+T@  ""
002371:  136440000002  idpb     11, 2           ;"+T@  ""
002372:  136440000002  idpb     11, 2           ;"+T@  ""
002373:  254000002750  jrst     2750            ;"5@  7H"
002374:  136440000002  idpb     11, 2           ;"+T@  ""
002375:  136440000002  idpb     11, 2           ;"+T@  ""
002376:  136440000002  idpb     11, 2           ;"+T@  ""
002377:  136440000002  idpb     11, 2           ;"+T@  ""
002400:  136440000002  idpb     11, 2           ;"+T@  ""
002401:  136440000002  idpb     11, 2           ;"+T@  ""
002402:  254000002607  jrst     2607            ;"5@  6'"
002403:  136440000002  idpb     11, 2           ;"+T@  ""
002404:  254000002605  jrst     2605            ;"5@  6%"
002405:  254000002616  jrst     2616            ;"5@  6."
002406:  136440000002  idpb     11, 2           ;"+T@  ""
002407:  136440000002  idpb     11, 2           ;"+T@  ""
002410:  136440000002  idpb     11, 2           ;"+T@  ""
002411:  136440000002  idpb     11, 2           ;"+T@  ""
002412:  136440000002  idpb     11, 2           ;"+T@  ""
002413:  136440000002  idpb     11, 2           ;"+T@  ""
002414:  136440000002  idpb     11, 2           ;"+T@  ""
002415:  136440000002  idpb     11, 2           ;"+T@  ""
002416:  136440000002  idpb     11, 2           ;"+T@  ""
002417:  136440000002  idpb     11, 2           ;"+T@  ""
002420:  136440000002  idpb     11, 2           ;"+T@  ""
002421:  136440000002  idpb     11, 2           ;"+T@  ""
002422:  136440000002  idpb     11, 2           ;"+T@  ""
002423:  136440000002  idpb     11, 2           ;"+T@  ""
002424:  136440000002  idpb     11, 2           ;"+T@  ""
002425:  136440000002  idpb     11, 2           ;"+T@  ""
002426:  136440000002  idpb     11, 2           ;"+T@  ""
002427:  136440000002  idpb     11, 2           ;"+T@  ""
002430:  136440000002  idpb     11, 2           ;"+T@  ""
002431:  136440000002  idpb     11, 2           ;"+T@  ""
002432:  136440000002  idpb     11, 2           ;"+T@  ""
002433:  136440000002  idpb     11, 2           ;"+T@  ""
002434:  136440000002  idpb     11, 2           ;"+T@  ""
002435:  136440000002  idpb     11, 2           ;"+T@  ""
002436:  136440000002  idpb     11, 2           ;"+T@  ""
002437:  136440000002  idpb     11, 2           ;"+T@  ""
002440:  136440000002  idpb     11, 2           ;"+T@  ""
002441:  136440000002  idpb     11, 2           ;"+T@  ""
002442:  136440000002  idpb     11, 2           ;"+T@  ""
002443:  136440000002  idpb     11, 2           ;"+T@  ""
002444:  136440000002  idpb     11, 2           ;"+T@  ""
002445:  136440000002  idpb     11, 2           ;"+T@  ""
002446:  136440000002  idpb     11, 2           ;"+T@  ""
002447:  136440000002  idpb     11, 2           ;"+T@  ""
002450:  136440000002  idpb     11, 2           ;"+T@  ""
002451:  136440000002  idpb     11, 2           ;"+T@  ""
002452:  136440000002  idpb     11, 2           ;"+T@  ""
002453:  136440000002  idpb     11, 2           ;"+T@  ""
002454:  136440000002  idpb     11, 2           ;"+T@  ""
002455:  136440000002  idpb     11, 2           ;"+T@  ""
002456:  136440000002  idpb     11, 2           ;"+T@  ""
002457:  136440000002  idpb     11, 2           ;"+T@  ""
002460:  136440000002  idpb     11, 2           ;"+T@  ""
002461:  136440000002  idpb     11, 2           ;"+T@  ""
002462:  254000002633  jrst     2633            ;"5@  6;"
002463:  136440000002  idpb     11, 2           ;"+T@  ""
002464:  136440000002  idpb     11, 2           ;"+T@  ""
002465:  136440000002  idpb     11, 2           ;"+T@  ""
002466:  136440000002  idpb     11, 2           ;"+T@  ""
002467:  136440000002  idpb     11, 2           ;"+T@  ""
002470:  136440000002  idpb     11, 2           ;"+T@  ""
002471:  136440000002  idpb     11, 2           ;"+T@  ""
002472:  136440000002  idpb     11, 2           ;"+T@  ""
002473:  136440000002  idpb     11, 2           ;"+T@  ""
002474:  136440000002  idpb     11, 2           ;"+T@  ""
002475:  136440000002  idpb     11, 2           ;"+T@  ""
002476:  136440000002  idpb     11, 2           ;"+T@  ""
002477:  136440000002  idpb     11, 2           ;"+T@  ""
002500:  136440000002  idpb     11, 2           ;"+T@  ""
002501:  136440000002  idpb     11, 2           ;"+T@  ""
002502:  136440000002  idpb     11, 2           ;"+T@  ""
002503:  136440000002  idpb     11, 2           ;"+T@  ""
002504:  136440000002  idpb     11, 2           ;"+T@  ""
002505:  136440000002  idpb     11, 2           ;"+T@  ""
002506:  136440000002  idpb     11, 2           ;"+T@  ""
002507:  136440000002  idpb     11, 2           ;"+T@  ""
002510:  136440000002  idpb     11, 2           ;"+T@  ""
002511:  136440000002  idpb     11, 2           ;"+T@  ""
002512:  136440000002  idpb     11, 2           ;"+T@  ""
002513:  136440000002  idpb     11, 2           ;"+T@  ""
002514:  136440000002  idpb     11, 2           ;"+T@  ""
002515:  136440000002  idpb     11, 2           ;"+T@  ""
002516:  136440000002  idpb     11, 2           ;"+T@  ""
002517:  136440000002  idpb     11, 2           ;"+T@  ""
002520:  136440000002  idpb     11, 2           ;"+T@  ""
002521:  136440000002  idpb     11, 2           ;"+T@  ""
002522:  136440000002  idpb     11, 2           ;"+T@  ""
002523:  136440000002  idpb     11, 2           ;"+T@  ""
002524:  136440000002  idpb     11, 2           ;"+T@  ""
002525:  136440000002  idpb     11, 2           ;"+T@  ""
002526:  136440000002  idpb     11, 2           ;"+T@  ""
002527:  136440000002  idpb     11, 2           ;"+T@  ""
002530:  136440000002  idpb     11, 2           ;"+T@  ""
002531:  136440000002  idpb     11, 2           ;"+T@  ""
002532:  136440000002  idpb     11, 2           ;"+T@  ""
002533:  136440000002  idpb     11, 2           ;"+T@  ""
002534:  136440000002  idpb     11, 2           ;"+T@  ""
002535:  136440000002  idpb     11, 2           ;"+T@  ""
002536:  136440000002  idpb     11, 2           ;"+T@  ""
002537:  136440000002  idpb     11, 2           ;"+T@  ""
002540:  136440000002  idpb     11, 2           ;"+T@  ""
002541:  136440000002  idpb     11, 2           ;"+T@  ""
002542:  136440000002  idpb     11, 2           ;"+T@  ""
002543:  136440000002  idpb     11, 2           ;"+T@  ""
002544:  136440000002  idpb     11, 2           ;"+T@  ""
002545:  136440000002  idpb     11, 2           ;"+T@  ""
002546:  136440000002  idpb     11, 2           ;"+T@  ""
002547:  136440000002  idpb     11, 2           ;"+T@  ""
002550:  136440000002  idpb     11, 2           ;"+T@  ""
002551:  136440000002  idpb     11, 2           ;"+T@  ""
002552:  136440000002  idpb     11, 2           ;"+T@  ""
002553:  136440000002  idpb     11, 2           ;"+T@  ""
002554:  136440000002  idpb     11, 2           ;"+T@  ""
002555:  136440000002  idpb     11, 2           ;"+T@  ""
002556:  136440000002  idpb     11, 2           ;"+T@  ""
002557:  136440000002  idpb     11, 2           ;"+T@  ""
002560:  136440000002  idpb     11, 2           ;"+T@  ""
002561:  136440000002  idpb     11, 2           ;"+T@  ""
002562:  136440000002  idpb     11, 2           ;"+T@  ""
002563:  136440000002  idpb     11, 2           ;"+T@  ""
002564:  136440000002  idpb     11, 2           ;"+T@  ""
002565:  136440000002  idpb     11, 2           ;"+T@  ""
002566:  136440000002  idpb     11, 2           ;"+T@  ""
002567:  136440000002  idpb     11, 2           ;"+T@  ""
002570:  603340000400  tlne     7, 400          ;"P;@ $ "
002571:  254000002304  jrst     2304            ;"5@  3$"
002572:  402007006462  setzm    6462(7)         ;"@0' TR"
002573:  350007006457  aos      6457(7)         ;"= ' TO"
002574:  350007006462  aos      6462(7)         ;"= ' TR"
002575:  344140002301  aoja     3, 2301         ;"<A@ 3!"
002576:  603340000400  tlne     7, 400          ;"P;@ $ "
002577:  254000002304  jrst     2304            ;"5@  3$"
002600:  350007006462  aos      6462(7)         ;"= ' TR"
002601:  344140002301  aoja     3, 2301         ;"<A@ 3!"
002602:  607340000400  tlnn     7, 400          ;"P[@ $ "
002603:  344140002301  aoja     3, 2301         ;"<A@ 3!"
002604:  254000002304  jrst     2304            ;"5@  3$"
002605:  402007006462  setzm    6462(7)         ;"@0' TR"
002606:  350007006457  aos      6457(7)         ;"= ' TO"
002607:  350007006462  aos      6462(7)         ;"= ' TR"
002610:  607340000400  tlnn     7, 400          ;"P[@ $ "
002611:  254000002614  jrst     2614            ;"5@  6,"
002612:  136440000002  idpb     11, 2           ;"+T@  ""
002613:  344140002332  aoja     3, 2332         ;"<A@ 3:"
002614:  350007006465  aos      6465(7)         ;"= ' TU"
002615:  254000002332  jrst     2332            ;"5@  3:"
002616:  607340000400  tlnn     7, 400          ;"P[@ $ "
002617:  254000002614  jrst     2614            ;"5@  6,"
002620:  136440000002  idpb     11, 2           ;"+T@  ""
002621:  134440000010  ildb     11, 10          ;"+D@  ("
002622:  306440000012  cain     11, 12          ;"8T@  *"
002623:  344140002607  aoja     3, 2607         ;"<A@ 6'"
002624:  316407003020  camn     10, 3020(7)     ;"9T' 80"
002625:  254000005530  jrst     5530            ;"5@  M8"
002626:  340140000000  aoj      3, 0            ;"<!@   "
002627:  270400005532  add      10, 5532        ;"7$  M:"
002630:  325400002332  jumpge   10, 2332        ;":L  3:"
002631:  274400005533  sub      10, 5533        ;"7D  M;"
002632:  254000002332  jrst     2332            ;"5@  3:"
002633:  607340000020  tlnn     7, 20           ;"P[@  0"
002634:  254000002770  jrst     2770            ;"5@  7X"
002635:  322140002770  jumpe    3, 2770         ;":1@ 7X"
002636:  201501000011  movei    12, 11(1)       ;"0-!  )"
002637:  505500440700  hrli     12, 440700      ;"HM D' "
002640:  134540000012  ildb     13, 12          ;"+E@  *"
002641:  307540000040  caig     13, 40          ;"8]@  @"
002642:  254000002770  jrst     2770            ;"5@  7X"
002643:  302540000072  caie     13, 72          ;"85@  Z"
002644:  306540000073  cain     13, 73          ;"8U@  ["
002645:  254000002770  jrst     2770            ;"5@  7X"
002646:  312500000002  came     12, 2           ;"95   ""
002647:  254000002640  jrst     2640            ;"5@  6@"
002650:  203001000012  moves    0, 12(1)        ;"08!  *"
002651:  203012000001  moves    0, 1(12)        ;"08*  !"
002652:  201540000072  movei    13, 72          ;"0-@  Z"
002653:  136540000012  idpb     13, 12          ;"+U@  *"
002654:  400540000000  setz     13,             ;"@%@   "
002655:  136540000012  idpb     13, 12          ;"+U@  *"
002656:  550500000007  hrrz     12, 7           ;"M%   '"
002657:  242500000002  lsh      12, 2           ;"45   ""
002660:  271500006467  addi     12, 6467        ;"7-  TW"
002661:  261501000011  push     12, 11(1)       ;"6-!  )"
002662:  261501000012  push     12, 12(1)       ;"6-!  *"
002663:  261500005266  push     12, 5266        ;"6-  JV"
002664:  261500005266  push     12, 5266        ;"6-  JV"
002665:  254000002770  jrst     2770            ;"5@  7X"
002666:  336141000001  skipn    3, 1(1)         ;";QA  !"
002667:  263740000000  popj     17,             ;"6?@   "
002670:  135500005534  ldb      12, 5534        ;"+M  M<"
002671:  303500000040  caile    12, 40          ;"8=   @"
002672:  254000002703  jrst     2703            ;"5@  7#"
002673:  306500000040  cain     12, 40          ;"8U   @"
002674:  263740000000  popj     17,             ;"6?@   "
002675:  302500000011  caie     12, 11          ;"85   )"
002676:  306500000014  cain     12, 14          ;"8U   ,"
002677:  263740000000  popj     17,             ;"6?@   "
002700:  302500000015  caie     12, 15          ;"85   -"
002701:  306500000012  cain     12, 12          ;"8U   *"
002702:  263740000000  popj     17,             ;"6?@   "
002703:  306500000073  cain     12, 73          ;"8U   ["
002704:  263740000000  popj     17,             ;"6?@   "
002705:  550500000007  hrrz     12, 7           ;"M%   '"
002706:  221500000004  imuli    12, 4           ;"2-   $"
002707:  271500006467  addi     12, 6467        ;"7-  TW"
002710:  200540000012  move     13, 12          ;"0%@  *"
002711:  301140000001  cail     3, 1            ;"8)@  !"
002712:  261501000011  push     12, 11(1)       ;"6-!  )"
002713:  301140000006  cail     3, 6            ;"8)@  &"
002714:  261501000012  push     12, 12(1)       ;"6-!  *"
002715:  301140000013  cail     3, 13           ;"8)@  +"
002716:  261501000013  push     12, 13(1)       ;"6-!  +"
002717:  301140000020  cail     3, 20           ;"8)@  0"
002720:  261501000014  push     12, 14(1)       ;"6-!  ,"
002721:  607340000400  tlnn     7, 400          ;"P[@ $ "
002722:  263740000000  popj     17,             ;"6?@   "
002723:  201513000001  movei    12, 1(13)       ;"0-+  !"
002724:  505500440700  hrli     12, 440700      ;"HM D' "
002725:  201140000024  movei    3, 24           ;"0)@  4"
002726:  134540000012  ildb     13, 12          ;"+E@  *"
002727:  322540002075  jumpe    13, 2075        ;":5@ 0]"
002730:  302540000015  caie     13, 15          ;"85@  -"
002731:  306540000012  cain     13, 12          ;"8U@  *"
002732:  304000000000  caia                     ;"8@    " "1\0\0\0\0"
002733:  367140002726  sojg     3, 2726         ;">Y@ 76"
002734:  322140002075  jumpe    3, 2075         ;":1@ 0]"
002735:  400540000000  setz     13,             ;"@%@   "
002736:  137540000012  dpb      13, 12          ;"+]@  *"
002737:  263740000000  popj     17,             ;"6?@   "
002740:  316407003020  camn     10, 3020(7)     ;"9T' 80"
002741:  254000005535  jrst     5535            ;"5@  M="
002742:  312427003007  came     10, @3007(7)    ;"947 8'"
002743:  254000002304  jrst     2304            ;"5@  3$"
002744:  434347003026  ior      7, 3026(7)      ;"CCG 86"
002745:  476007006306  setom    6306(7)         ;"GP' S&" "O@8\fc"
002746:  202427003004  movem    10, @3004(7)    ;"047 8$"
002747:  263740000000  popj     17,             ;"6?@   "
002750:  316407003020  camn     10, 3020(7)     ;"9T' 80"
002751:  254000005537  jrst     5537            ;"5@  M?"
002752:  312427003007  came     10, @3007(7)    ;"947 8'"
002753:  254000002770  jrst     2770            ;"5@  7X"
002754:  434347003026  ior      7, 3026(7)      ;"CCG 86"
002755:  201501000010  movei    12, 10(1)       ;"0-!  ("
002756:  306502000000  cain     12, (2)         ;"8U"   "
002757:  254000002745  jrst     2745            ;"5@  7E"
002760:  135440000002  ldb      11, 2           ;"+L@  ""
002761:  302440000003  caie     11, 3           ;"84@  #"
002762:  326440002332  jumpn    11, 2332        ;":T@ 3:"
002763:  360140000000  soj      3, 0            ;">!@   "
002764:  270100005532  add      2, 5532         ;"7!  M:"
002765:  325100002756  jumpge   2, 2756         ;":I  7N"
002766:  274100005533  sub      2, 5533         ;"7A  M;"
002767:  254000002756  jrst     2756            ;"5@  7N"
002770:  136440000002  idpb     11, 2           ;"+T@  ""
002771:  344140000014  aoja     3, 14           ;"<A@  ,"
002772:  200447003012  move     11, 3012(7)     ;"0$G 8*"
002773:  201400000100  movei    10, 100         ;"0,  ! "
002774:  260767003023  pushj    17, @3023(7)    ;"6'W 83"
002775:  621440007700  tlz      11, 7700        ;"R,@ _ "
002776:  661440000700  tlo      11, 700         ;"V,@ ' "
002777:  201400000003  movei    10, 3           ;"0,   #"
003000:  136400000011  idpb     10, 11          ;"+T   )"
003001:  202467003007  movem    11, @3007(7)    ;"04W 8'"
003002:  200407003015  move     10, 3015(7)     ;"0$' 8-"
003003:  263740000000  popj     17,             ;"6?@   "
003004:  000000006625                           ;"    V5"
003005:  000000006730                           ;"    W8"
003006:  000000007033                           ;"    X;"
003007:  000000006626                           ;"    V6"
003010:  000000006731                           ;"    W9"
003011:  000000007034                           ;"    X<"
003012:  444400006524  eqv      10, 6524        ;"DD  U4"
003013:  444400006627  eqv      10, 6627        ;"DD  V7"
003014:  444400006732  eqv      10, 6732        ;"DD  W:"
003015:  440700006524  andcb    16, 6524        ;"D'  U4"
003016:  440700006627  andcb    16, 6627        ;"D'  V7"
003017:  440700006732  andcb    16, 6732        ;"D'  W:"
003020:  350700006624  aos      16, 6624        ;"='  V4"
003021:  350700006727  aos      16, 6727        ;"='  W7"
003022:  350700007032  aos      16, 7032        ;"='  X:"
003023:  000000005544                           ;"    MD"
003024:  000000005552                           ;"    MJ"
003025:  000000005560                           ;"    MP"
003026:  001000000000                           ;" (    "
003027:  002000000000                           ;" 0    "
003030:  004000000000                           ;" @    "
003031:  440700006314  andcb    16, 6314        ;"D'  S,"
003032:  440700006355  andcb    16, 6355        ;"D'  SM"
003033:  440700006416  andcb    16, 6416        ;"D'  T."
003034:  201640000254  movei    15, 254         ;"0.@ "L"
003035:  505641000000  hrli     15, (1)         ;"HNA   "
003036:  201100004123  movei    2, 4123         ;"0)  A3"
003037:  607340000002  tlnn     7, 2            ;"P[@  ""
003040:  201100004117  movei    2, 4117         ;"0)  A/"
003041:  260742000000  pushj    17, (2)         ;"6'B   "
003042:  260740003663  pushj    17, 3663        ;"6'@ >S"
003043:  200101003054  move     2, 3054(1)      ;"0!! 8L"
003044:  201042000000  movei    1, (2)          ;"0(B   "
003045:  505040010700  hrli     1, 10700        ;"HH@!' "
003046:  202042000002  movem    1, 2(2)         ;"00B  ""
003047:  200040005563  move     1, 5563         ;"0 @ MS"
003050:  202042000001  movem    1, 1(2)         ;"00B  !"
003051:  541340000000  hrri     7, 0            ;"L+@   " "X.\0\0\0"
003052:  302100006623  caie     2, 6623         ;"81  V3"
003053:  541340000001  hrri     7, 1            ;"L+@  !"
003054:  254000004216  jrst     4216            ;"5@  B."
003055:  000000006623                           ;"    V3"
003056:  000000006726                           ;"    W6"
003057:  000000007031                           ;"    X9"
003060:  200040003012  move     1, 3012         ;"0 @ 8*"
003061:  201100000100  movei    2, 100          ;"0)  ! "
003062:  201500005564  movei    12, 5564        ;"0-  MT"
003063:  260740005123  pushj    17, 5123        ;"6'@ I3"
003064:  271040000001  addi     1, 1            ;"7(@  !"
003065:  405040777777  andi     1, 777777       ;"@H@___"
003066:  305040006536  caige    1, 6536         ;"8H@ U>"
003067:  254000003701  jrst     3701            ;"5@  ?!"
003070:  200040006524  move     1, 6524         ;"0 @ U4"
003071:  200100006525  move     2, 6525         ;"0!  U5"
003072:  316040005261  camn     1, 5261         ;"9P@ JQ"
003073:  312100005262  came     2, 5262         ;"91  JR"
003074:  254000003701  jrst     3701            ;"5@  ?!"
003075:  200040006526  move     1, 6526         ;"0 @ U6"
003076:  312040005263  came     1, 5263         ;"90@ JS"
003077:  254000003701  jrst     3701            ;"5@  ?!"
003100:  200040005567  move     1, 5567         ;"0 @ MW"
003101:  201100000004  movei    2, 4            ;"0)   $"
003102:  134440000001  ildb     11, 1           ;"+D@  !"
003103:  302440000040  caie     11, 40          ;"84@  @"
003104:  254000003102  jrst     3102            ;"5@  9""
003105:  367100003102  sojg     2, 3102         ;">Y  9""
003106:  261740007207  push     17, 7207        ;"6/@ Z'"
003107:  261740007210  push     17, 7210        ;"6/@ Z("
003110:  516740007210  hrlzm    17, 7210        ;"IW@ Z("
003111:  202040007207  movem    1, 7207         ;"00@ Z'"
003112:  260740003536  pushj    17, 3536        ;"6'@ =>"
003113:  134440007207  ildb     11, 7207        ;"+D@ Z'"
003114:  302440000012  caie     11, 12          ;"84@  *"
003115:  254000003113  jrst     3113            ;"5@  9+"
003116:  201440000003  movei    11, 3           ;"0,@  #"
003117:  272440007207  addm     11, 7207        ;"74@ Z'"
003120:  260740003537  pushj    17, 3537        ;"6'@ =?"
003121:  262740007210  pop      17, 7210        ;"67@ Z("
003122:  262740007207  pop      17, 7207        ;"67@ Z'"
003123:  621340000001  tlz      7, 1            ;"R+@  !"
003124:  254000000462  jrst     462             ;"5@  $R"
003125:  332000007143  skipe    7143            ;";0  YC"
003126:  254000003374  jrst     3374            ;"5@  ;\"
003127:  563017000000  hrros    0, (17)         ;"N8/   " "\\`x\0\0"
003130:  254000003145  jrst     3145            ;"5@  9E"
003131:  553017000000  hrrzs    0, (17)         ;"M8/   " "Z`x\0\0"
003132:  254000003145  jrst     3145            ;"5@  9E"
003133:  375000007210  sosge    7210            ;"?H  Z("
003134:  334440005570  skipa    11, 5570        ;";D@ MX"
003135:  134440007207  ildb     11, 7207        ;"+D@ Z'"
003136:  263740000000  popj     17,             ;"6?@   "
003137:  260740003133  pushj    17, 3133        ;"6'@ 9;"
003140:  301440000141  cail     11, 141         ;"8,@ !A"
003141:  303440000172  caile    11, 172         ;"8<@ !Z"
003142:  304000000000  caia                     ;"8@    " "1\0\0\0\0"
003143:  275440000040  subi     11, 40          ;"7L@  @"
003144:  263740000000  popj     17,             ;"6?@   "
003145:  260740004076  pushj    17, 4076        ;"6'@ @^"
003146:  332000007215  skipe    7215            ;";0  Z-"
003147:  254000003244  jrst     3244            ;"5@  :D"
003150:  402000007210  setzm    7210            ;"@0  Z("
003151:  335017000000  skipge   (17)            ;";H/   " "7 x\0\0"
003152:  260740005572  pushj    17, 5572        ;"6'@ MZ"
003153:  331017000000  skipl    (17)            ;";(/   " "6 x\0\0"
003154:  260740005576  pushj    17, 5576        ;"6'@ M^"
003155:  200440005601  move     11, 5601        ;"0$@ N!"
003156:  202440007207  movem    11, 7207        ;"04@ Z'"
003157:  260740004165  pushj    17, 4165        ;"6'@ AU"
003160:  306440000015  cain     11, 15          ;"8T@  -"
003161:  254000003202  jrst     3202            ;"5@  :""
003162:  302440000004  caie     11, 4           ;"84@  $"
003163:  306440000025  cain     11, 25          ;"8T@  5"
003164:  254000003145  jrst     3145            ;"5@  9E"
003165:  306440000177  cain     11, 177         ;"8T@ !_"
003166:  254000003231  jrst     3231            ;"5@  :9"
003167:  306440000014  cain     11, 14          ;"8T@  ,"
003170:  254000003216  jrst     3216            ;"5@  :."
003171:  302440000032  caie     11, 32          ;"84@  :"
003172:  306440000003  cain     11, 3           ;"8T@  #"
003173:  254000003177  jrst     3177            ;"5@  9_"
003174:  136440007207  idpb     11, 7207        ;"+T@ Z'"
003175:  350000007210  aos      7210            ;"=   Z("
003176:  254000003157  jrst     3157            ;"5@  9O"
003177:  260740004076  pushj    17, 4076        ;"6'@ @^"
003200:  607340400000  tlnn     7, 400000       ;"P[@@  "
003201:  476000007150  setom    7150            ;"GP  YH"
003202:  331017000000  skipl    (17)            ;";(/   " "6 x\0\0"
003203:  254000003206  jrst     3206            ;"5@  :&"
003204:  336000007210  skipn    7210            ;";P  Z("
003205:  254000003213  jrst     3213            ;"5@  :+"
003206:  400440000000  setz     11,             ;"@$@   "
003207:  136440007207  idpb     11, 7207        ;"+T@ Z'"
003210:  200440005601  move     11, 5601        ;"0$@ N!"
003211:  202440007207  movem    11, 7207        ;"04@ Z'"
003212:  263740000000  popj     17,             ;"6?@   "
003213:  332000007150  skipe    7150            ;";0  YH"
003214:  254000004107  jrst     4107            ;"5@  A'"
003215:  254000003146  jrst     3146            ;"5@  9F"
003216:  201500005602  movei    12, 5602        ;"0-  N""
003217:  331017000000  skipl    (17)            ;";(/   " "6 x\0\0"
003220:  201500005603  movei    12, 5603        ;"0-  N#"
003221:  260740004037  pushj    17, 4037        ;"6'@ @?"
003222:  200540005601  move     13, 5601        ;"0%@ N!"
003223:  200440007210  move     11, 7210        ;"0$@ Z("
003224:  213000000011  movns    0, 11           ;"18   )"
003225:  200500005615  move     12, 5615        ;"0%  N-"
003226:  260740000140  pushj    17, 140         ;"6'@ !@"
003227:  213000000011  movns    0, 11           ;"18   )"
003230:  254000003157  jrst     3157            ;"5@  9O"
003231:  375000007210  sosge    7210            ;"?H  Z("
003232:  254000003145  jrst     3145            ;"5@  9E"
003233:  135440007207  ldb      11, 7207        ;"+L@ Z'"
003234:  260740005616  pushj    17, 5616        ;"6'@ N."
003235:  205440070000  movsi    11, 70000       ;"0L@'  "
003236:  270440007207  add      11, 7207        ;"7$@ Z'"
003237:  325440003242  jumpge   11, 3242        ;":L@ :B"
003240:  201451777777  movei    11, 777777(11)  ;"0,I___"
003241:  505440010700  hrli     11, 10700       ;"HL@!' "
003242:  202440007207  movem    11, 7207        ;"04@ Z'"
003243:  254000003157  jrst     3157            ;"5@  9O"
003244:  561140005602  hrroi    3, 5602         ;"N)@ N""
003245:  331017000000  skipl    (17)            ;";(/   " "6 x\0\0"
003246:  561140005603  hrroi    3, 5603         ;"N)@ N#"
003247:  200040000003  move     1, 3            ;"0 @  #"
003250:  104000000076                           ;"(@   ^"
003251:  561040007157  hrroi    1, 7157         ;"N(@ YO"
003252:  200100005621  move     2, 5621         ;"0!  N1"
003253:  104000000523                           ;"(@  %3"
003254:  254000000336  jrst     336             ;"5@  #>"
003255:  621100777777  tlz      2, 777777       ;"R) ___"
003256:  275100000170  subi     2, 170          ;"7I  !X"
003257:  135440000001  ldb      11, 1           ;"+L@  !"
003260:  302440000012  caie     11, 12          ;"84@  *"
003261:  254000003271  jrst     3271            ;"5@  :Y"
003262:  211140000001  movni    3, 1            ;"1)@  !"
003263:  133140000001                           ;"+9@  !"
003264:  135440000003  ldb      11, 3           ;"+L@  #"
003265:  302440000015  caie     11, 15          ;"84@  -"
003266:  254000003271  jrst     3271            ;"5@  :Y"
003267:  200040000003  move     1, 3            ;"0 @  #"
003270:  271100000001  addi     2, 1            ;"7)   !"
003271:  211140000001  movni    3, 1            ;"1)@  !"
003272:  133140000001                           ;"+9@  !"
003273:  202140007207  movem    3, 7207         ;"01@ Z'"
003274:  452100007210  setcam   2, 7210         ;"E1  Z("
003275:  302440000032  caie     11, 32          ;"84@  :"
003276:  254000003202  jrst     3202            ;"5@  :""
003277:  254000003177  jrst     3177            ;"5@  9_"
003300:  261740007207  push     17, 7207        ;"6/@ Z'"
003301:  261740007210  push     17, 7210        ;"6/@ Z("
003302:  260740003340  pushj    17, 3340        ;"6'@ ;@"
003303:  306440000077  cain     11, 77          ;"8T@  _"
003304:  254000003320  jrst     3320            ;"5@  ;0"
003305:  302440000110  caie     11, 110         ;"84@ !("
003306:  254000003335  jrst     3335            ;"5@  ;="
003307:  260740003137  pushj    17, 3137        ;"6'@ 9?"
003310:  302440000105  caie     11, 105         ;"84@ !%"
003311:  254000003335  jrst     3335            ;"5@  ;="
003312:  260740003137  pushj    17, 3137        ;"6'@ 9?"
003313:  302440000114  caie     11, 114         ;"84@ !,"
003314:  254000003335  jrst     3335            ;"5@  ;="
003315:  260740003137  pushj    17, 3137        ;"6'@ 9?"
003316:  302440000120  caie     11, 120         ;"84@ !0"
003317:  254000003335  jrst     3335            ;"5@  ;="
003320:  260740003340  pushj    17, 3340        ;"6'@ ;@"
003321:  302440000015  caie     11, 15          ;"84@  -"
003322:  306440000003  cain     11, 3           ;"8T@  #"
003323:  304000000000  caia                     ;"8@    " "1\0\0\0\0"
003324:  254000003335  jrst     3335            ;"5@  ;="
003325:  260740004143  pushj    17, 4143        ;"6'@ AC"
003326:  254000003676  jrst     3676            ;"5@  >^"
003327:  260740005622  pushj    17, 5622        ;"6'@ N2"
003330:  306440000014  cain     11, 14          ;"8T@  ,"
003331:  254000004001  jrst     4001            ;"5@  @!"
003332:  321440004001  jumpl    11, 4001        ;":,@ @!"
003333:  260740005625  pushj    17, 5625        ;"6'@ N5"
003334:  254000003327  jrst     3327            ;"5@  ;7"
003335:  262740007210  pop      17, 7210        ;"67@ Z("
003336:  262740007207  pop      17, 7207        ;"67@ Z'"
003337:  263740000000  popj     17,             ;"6?@   "
003340:  260740003137  pushj    17, 3137        ;"6'@ 9?"
003341:  306440000040  cain     11, 40          ;"8T@  @"
003342:  254000003340  jrst     3340            ;"5@  ;@"
003343:  263740000000  popj     17,             ;"6?@   "
003344:  332000007143  skipe    7143            ;";0  YC"
003345:  254000003745  jrst     3745            ;"5@  ?E"
003346:  333000007210  skiple   7210            ;";8  Z("
003347:  254000003667  jrst     3667            ;"5@  >W"
003350:  261740000001  push     17, 1           ;"6/@  !"
003351:  400040000000  setz     1,              ;"@ @   "
003352:  250040000277  exch     1, 277          ;"5 @ "_"
003353:  250040000306  exch     1, 306          ;"5 @ #&"
003354:  303040000000  caile    1, 0            ;"88@   " "0b\0\0\0"
003355:  104000000022                           ;"(@   2"
003356:  320700003357  jump     16, 3357        ;":'  ;O"
003357:  262740000001  pop      17, 1           ;"67@  !"
003360:  200040000255  move     1, 255          ;"0 @ "M"
003361:  202040007144  movem    1, 7144         ;"00@ YD"
003362:  200040000254  move     1, 254          ;"0 @ "L"
003363:  202040007145  movem    1, 7145         ;"00@ YE"
003364:  200040000266  move     1, 266          ;"0 @ "V"
003365:  202040007146  movem    1, 7146         ;"00@ YF"
003366:  200040000265  move     1, 265          ;"0 @ "U"
003367:  316040004637  camn     1, 4637         ;"9P@ F?"
003370:  200040004636  move     1, 4636         ;"0 @ F>"
003371:  202040007147  movem    1, 7147         ;"00@ YG"
003372:  476000007143  setom    7143            ;"GP  YC"
003373:  254000004001  jrst     4001            ;"5@  @!"
003374:  402000007210  setzm    7210            ;"@0  Z("
003375:  200600005601  move     14, 5601        ;"0&  N!"
003376:  202600007207  movem    14, 7207        ;"06  Z'"
003377:  260740005630  pushj    17, 5630        ;"6'@ N8"
003400:  405440777777  andi     11, 777777      ;"@L@___"
003401:  302440000003  caie     11, 3           ;"84@  #"
003402:  306440000014  cain     11, 14          ;"8T@  ,"
003403:  254000003524  jrst     3524            ;"5@  =4"
003404:  302440000073  caie     11, 73          ;"84@  ["
003405:  254000003377  jrst     3377            ;"5@  ;_"
003406:  260740005633  pushj    17, 5633        ;"6'@ N;"
003407:  302440000073  caie     11, 73          ;"84@  ["
003410:  254000003400  jrst     3400            ;"5@  < "
003411:  260740005636  pushj    17, 5636        ;"6'@ N>"
003412:  302440000123  caie     11, 123         ;"84@ !3"
003413:  254000003400  jrst     3400            ;"5@  < "
003414:  260740005641  pushj    17, 5641        ;"6'@ NA"
003415:  302440000122  caie     11, 122         ;"84@ !2"
003416:  254000003400  jrst     3400            ;"5@  < "
003417:  260740005644  pushj    17, 5644        ;"6'@ ND"
003420:  302440000103  caie     11, 103         ;"84@ !#"
003421:  254000003400  jrst     3400            ;"5@  < "
003422:  260740005647  pushj    17, 5647        ;"6'@ NG"
003423:  302440000103  caie     11, 103         ;"84@ !#"
003424:  254000003400  jrst     3400            ;"5@  < "
003425:  260740005652  pushj    17, 5652        ;"6'@ NJ"
003426:  302440000117  caie     11, 117         ;"84@ !/"
003427:  254000003400  jrst     3400            ;"5@  < "
003430:  260740005655  pushj    17, 5655        ;"6'@ NM"
003431:  302440000115  caie     11, 115         ;"84@ !-"
003432:  254000003400  jrst     3400            ;"5@  < "
003433:  260740005660  pushj    17, 5660        ;"6'@ NP"
003434:  302440000040  caie     11, 40          ;"84@  @"
003435:  254000003400  jrst     3400            ;"5@  < "
003436:  260740005663  pushj    17, 5663        ;"6'@ NS"
003437:  302440000103  caie     11, 103         ;"84@ !#"
003440:  254000003400  jrst     3400            ;"5@  < "
003441:  260740005666  pushj    17, 5666        ;"6'@ NV"
003442:  302440000117  caie     11, 117         ;"84@ !/"
003443:  254000003400  jrst     3400            ;"5@  < "
003444:  260740005671  pushj    17, 5671        ;"6'@ NY"
003445:  302440000115  caie     11, 115         ;"84@ !-"
003446:  254000003400  jrst     3400            ;"5@  < "
003447:  260740005674  pushj    17, 5674        ;"6'@ N\"
003450:  302440000115  caie     11, 115         ;"84@ !-"
003451:  254000003400  jrst     3400            ;"5@  < "
003452:  260740005677  pushj    17, 5677        ;"6'@ N_"
003453:  302440000101  caie     11, 101         ;"84@ !!"
003454:  254000003400  jrst     3400            ;"5@  < "
003455:  260740005702  pushj    17, 5702        ;"6'@ O""
003456:  302440000116  caie     11, 116         ;"84@ !."
003457:  254000003400  jrst     3400            ;"5@  < "
003460:  260740005705  pushj    17, 5705        ;"6'@ O%"
003461:  302440000104  caie     11, 104         ;"84@ !$"
003462:  254000003400  jrst     3400            ;"5@  < "
003463:  260740005710  pushj    17, 5710        ;"6'@ O("
003464:  302440000040  caie     11, 40          ;"84@  @"
003465:  254000003400  jrst     3400            ;"5@  < "
003466:  260740005713  pushj    17, 5713        ;"6'@ O+"
003467:  302440000073  caie     11, 73          ;"84@  ["
003470:  254000003400  jrst     3400            ;"5@  < "
003471:  260740005716  pushj    17, 5716        ;"6'@ O."
003472:  302440000073  caie     11, 73          ;"84@  ["
003473:  254000003400  jrst     3400            ;"5@  < "
003474:  634040000001  tdza     1, 1            ;"S@@  !"
003475:  200040000011  move     1, 11           ;"0 @  )"
003476:  260740005721  pushj    17, 5721        ;"6'@ O1"
003477:  405440777777  andi     11, 777777      ;"@L@___"
003500:  302440000003  caie     11, 3           ;"84@  #"
003501:  306440000015  cain     11, 15          ;"8T@  -"
003502:  254000003517  jrst     3517            ;"5@  =/"
003503:  306440000014  cain     11, 14          ;"8T@  ,"
003504:  254000003517  jrst     3517            ;"5@  =/"
003505:  306440000073  cain     11, 73          ;"8T@  ["
003506:  302040000073  caie     1, 73           ;"80@  ["
003507:  354000007210  aosa     7210            ;"=@  Z("
003510:  254000003513  jrst     3513            ;"5@  =+"
003511:  136440000014  idpb     11, 14          ;"+T@  ,"
003512:  254000003475  jrst     3475            ;"5@  <]"
003513:  370000007210  sos      7210            ;"?   Z("
003514:  270600005532  add      14, 5532        ;"7&  M:"
003515:  325600003517  jumpge   14, 3517        ;":N  =/"
003516:  274600005533  sub      14, 5533        ;"7F  M;"
003517:  400440000000  setz     11,             ;"@$@   "
003520:  136440000014  idpb     11, 14          ;"+T@  ,"
003521:  201500007157  movei    12, 7157        ;"0-  YO"
003522:  260740004040  pushj    17, 4040        ;"6'@ @@"
003523:  254000004076  jrst     4076            ;"5@  @^"
003524:  261740000001  push     17, 1           ;"6/@  !"
003525:  333040000306  skiple   1, 306          ;";8@ #&"
003526:  104000000022                           ;"(@   2"
003527:  320700003530  jump     16, 3530        ;":'  =8"
003530:  402000000306  setzm    306             ;"@0  #&"
003531:  262740000001  pop      17, 1           ;"67@  !"
003532:  402000007143  setzm    7143            ;"@0  YC"
003533:  332000007150  skipe    7150            ;";0  YH"
003534:  254000004107  jrst     4107            ;"5@  A'"
003535:  254000003127  jrst     3127            ;"5@  97"
003536:  402015000004  setzm    4(15)           ;"@0-  $"
003537:  402000007214  setzm    7214            ;"@0  Z,"
003540:  260740003133  pushj    17, 3133        ;"6'@ 9;"
003541:  306440000015  cain     11, 15          ;"8T@  -"
003542:  254000003611  jrst     3611            ;"5@  >)"
003543:  306440000054  cain     11, 54          ;"8T@  L"
003544:  254000003611  jrst     3611            ;"5@  >)"
003545:  302440000075  caie     11, 75          ;"84@  ]"
003546:  306440000137  cain     11, 137         ;"8T@ !?"
003547:  254000003611  jrst     3611            ;"5@  >)"
003550:  306440000057  cain     11, 57          ;"8T@  O"
003551:  254000005724  jrst     5724            ;"5@  O4"
003552:  302440000011  caie     11, 11          ;"84@  )"
003553:  306440000040  cain     11, 40          ;"8T@  @"
003554:  254000003540  jrst     3540            ;"5@  =@"
003555:  200100007207  move     2, 7207         ;"0!  Z'"
003556:  270100005532  add      2, 5532         ;"7!  M:"
003557:  325100003561  jumpge   2, 3561         ;":I  =Q"
003560:  274100005533  sub      2, 5533         ;"7A  M;"
003561:  332000007214  skipe    7214            ;";0  Z,"
003562:  254000005726  jrst     5726            ;"5@  O6"
003563:  200500005740  move     12, 5740        ;"0%  O@"
003564:  260740000140  pushj    17, 140         ;"6'@ !@"
003565:  254000003540  jrst     3540            ;"5@  =@"
003566:  270100005532  add      2, 5532         ;"7!  M:"
003567:  325100003571  jumpge   2, 3571         ;":I  =Y"
003570:  274100005533  sub      2, 5533         ;"7A  M;"
003571:  202100007207  movem    2, 7207         ;"01  Z'"
003572:  260740004745  pushj    17, 4745        ;"6'@ GE"
003573:  200500005744  move     12, 5744        ;"0%  OD"
003574:  260740000140  pushj    17, 140         ;"6'@ !@"
003575:  255000000000  jfcl                     ;"5H    " "+ \0\0\0"
003576:  402015000010  setzm    10(15)          ;"@0-  ("
003577:  476000007214  setom    7214            ;"GP  Z,"
003600:  402000007210  setzm    7210            ;"@0  Z("
003601:  334100007207  skipa    2, 7207         ;";A  Z'"
003602:  350000007210  aos      7210            ;"=   Z("
003603:  134440000002  ildb     11, 2           ;"+D@  ""
003604:  302440000003  caie     11, 3           ;"84@  #"
003605:  306440000015  cain     11, 15          ;"8T@  -"
003606:  304000000000  caia                     ;"8@    " "1\0\0\0\0"
003607:  326440003602  jumpn    11, 3602        ;":T@ >""
003610:  254000003540  jrst     3540            ;"5@  =@"
003611:  263740000000  popj     17,             ;"6?@   "
003612:  260740003137  pushj    17, 3137        ;"6'@ 9?"
003613:  400600000000  setz     14,             ;"@&    "
003614:  306440000041  cain     11, 41          ;"8T@  A"
003615:  561600100000  hrroi    14, 100000      ;"N. (  "
003616:  306440000100  cain     11, 100         ;"8T@ ! "
003617:  561600000001  hrroi    14, 1           ;"N.   !"
003620:  306440000101  cain     11, 101         ;"8T@ !!"
003621:  561600000010  hrroi    14, 10          ;"N.   ("
003622:  306440000102  cain     11, 102         ;"8T@ !""
003623:  561600000400  hrroi    14, 400         ;"N.  $ "
003624:  306440000103  cain     11, 103         ;"8T@ !#"
003625:  561600000200  hrroi    14, 200         ;"N.  " "
003626:  306440000104  cain     11, 104         ;"8T@ !$"
003627:  254000004176  jrst     4176            ;"5@  A^"
003630:  306440000105  cain     11, 105         ;"8T@ !%"
003631:  561600000040  hrroi    14, 40          ;"N.   @"
003632:  306440000106  cain     11, 106         ;"8T@ !&"
003633:  561600420400  hrroi    14, 420400      ;"N. B$ "
003634:  306440000111  cain     11, 111         ;"8T@ !)"
003635:  561600400404  hrroi    14, 400404      ;"N. @$$"
003636:  306440000113  cain     11, 113         ;"8T@ !+"
003637:  561600040000  hrroi    14, 40000       ;"N. $  "
003640:  306440000114  cain     11, 114         ;"8T@ !,"
003641:  561600000020  hrroi    14, 20          ;"N.   0"
003642:  306440000115  cain     11, 115         ;"8T@ !-"
003643:  561600400400  hrroi    14, 400400      ;"N. @$ "
003644:  306440000123  cain     11, 123         ;"8T@ !3"
003645:  561600000100  hrroi    14, 100         ;"N.  ! "
003646:  306440000127  cain     11, 127         ;"8T@ !7"
003647:  561600010000  hrroi    14, 10000       ;"N. !  "
003650:  306440000130  cain     11, 130         ;"8T@ !8"
003651:  561600000002  hrroi    14, 2           ;"N.   ""
003652:  306440000131  cain     11, 131         ;"8T@ !9"
003653:  561600200000  hrroi    14, 200000      ;"N. 0  "
003654:  301440000061  cail     11, 61          ;"8,@  Q"
003655:  303440000071  caile    11, 71          ;"8<@  Y"
003656:  304000000000  caia                     ;"8@    " "1\0\0\0\0"
003657:  254000005745  jrst     5745            ;"5@  OE"
003660:  322600003763  jumpe    14, 3763        ;":6  ?S"
003661:  661354000000  tlo      7, (14)         ;"V+L   " "l.`\0\0"
003662:  263740000000  popj     17,             ;"6?@   "
003663:  260740004200  pushj    17, 4200        ;"6'@ B "
003664:  260740005750  pushj    17, 5750        ;"6'@ OH"
003665:  260740004201  pushj    17, 4201        ;"6'@ B!"
003666:  254000003770  jrst     3770            ;"5@  ?X"
003667:  265500003767  jsp      12, 3767        ;"6M  ?W"
003670:  427616471302  setab    14, 471302(16)  ;"B^.G+"" "Extra"
003671:  203235670352  moves    4, @670352(15)  ;"0:=W#J" " inpu"
003672:  721014664730  blki     210, 664730(14) ;"Z(,VG8" "t fil"
003673:  627464071740  tlzn     11, @71740(4)   ;"R\T'/@" "es sp"
003674:  627075163322  tlzn     1, @163322(15)  ;"RX].;2" "ecifi"
003675:  627100000000  tlzn     2, 0            ;"RY    " "ed\0\0\0"
003676:  201500005753  movei    12, 5753        ;"0-  OK"
003677:  260740004037  pushj    17, 4037        ;"6'@ @?"
003700:  254000003770  jrst     3770            ;"5@  ?X"
003701:  265500003767  jsp      12, 3767        ;"6M  ?W"
003702:  413034420314  andcab   0, @420314(14)  ;"A8<B#," "Bad f"
003703:  677455560750  tson     11, 560750(15)  ;"W\MN'H" "ormat"
003704:  201370020322  movei    7, @20322(10)   ;"0+X"#2" " /@ i"
003705:  673115171312  tsoe     2, 171312(15)   ;"W9-/+*" "ndire"
003706:  617504063322  tsnn     12, 63322(4)    ;"Q]$&;2" "ct fi"
003707:  663120000000  tloe     2, @0           ;"V90   " "le\0\0\0"
003710:  265500003767  jsp      12, 3767        ;"6M  ?W"
003711:  417035623750  setmb    0, @623750(15)  ;"AX=R?H" "Can't"
003712:  203536362500  moves    12, @362500(16) ;"0=>>5 " " use "
003713:  276004067744  subm     0, 67744(4)     ;"7P$&_D" "/@ or"
003714:  201373020356  movei    7, @20356(13)   ;"0+["#N" " /X w"
003715:  647515020346  tlcn     12, 20346(15)   ;"T]-"#F" "ith s"
003716:  627075767310  tlzn     1, @767310(15)  ;"RX]^[(" "econd"
003717:  203235670352  moves    4, @670352(15)  ;"0:=W#J" " inpu"
003720:  721014664730  blki     210, 664730(14) ;"Z(,VG8" "t fil"
003721:  624000000000  trza     0, 0            ;"R@    " "e\0\0\0\0"
003722:  265500003767  jsp      12, 3767        ;"6M  ?W"
003723:  417035623750  setmb    0, @623750(15)  ;"AX=R?H" "Can't"
003724:  203536362500  moves    12, @362500(16) ;"0=>>5 " " use "
003725:  276004067744  subm     0, 67744(4)     ;"7P$&_D" "/@ or"
003726:  201373020356  movei    7, @20356(13)   ;"0+["#N" " /X w"
003727:  647515020350  tlcn     12, 20350(15)   ;"T]-"#H" "ith t"
003730:  643236262100  tlce     4, @262100(16)  ;"T:>61 " "hird "
003731:  647356072750  tlcn     7, 72750(16)    ;"T[N'7H" "input"
003732:  203155166312  moves    3, 166312(15)   ;"09M.S*" " file"
003733:  000000000000                           ;"      "
003734:  265500003767  jsp      12, 3767        ;"6M  ?W"
003735:  523216262712  hllos    4, 262712(16)   ;"J:.67*" "Three"
003736:  203235670352  moves    4, @670352(15)  ;"0:=W#J" " inpu"
003737:  721014664730  blki     210, 664730(14) ;"Z(,VG8" "t fil"
003740:  627464061352  tlzn     11, @61352(4)   ;"R\T&+J" "es bu"
003741:  721005746500  blki     210, 746500(5)  ;"Z(%\U " "t /M "
003742:  673376420346  tsoe     7, @420346(16)  ;"W;^B#F" "not s"
003743:  703134364714  blko     30, @364714(14) ;"X9<>G," "pecif"
003744:  647134400000  tlcn     2, @400000(14)  ;"TY<@  " "ied\0\0"
003745:  265500003767  jsp      12, 3767        ;"6M  ?W"
003746:  513134372744  hllzs    2, @372744(14)  ;"I9<?7D" "Recur"
003747:  717236662500  cono     170, @662500(16);"YZ>V5 " "sive "
003750:  276604060750  subm     14, 60750(4)    ;"7V$&'H" "/X at"
003751:  723135570350  blko     230, @570350(15);"Z9=O#H" "tempt"
003752:  627100000000  tlzn     2, 0            ;"RY    " "ed\0\0\0"
003753:  265500003767  jsp      12, 3767        ;"6M  ?W"
003754:  417035623750  setmb    0, @623750(15)  ;"AX=R?H" "Can't"
003755:  203036261720  moves    0, @261720(16)  ;"08>6/0" " arch"
003756:  647554520302  tlcn     13, 520302(14)  ;"T]LJ#"" "ive a"
003757:  673104066712  tsoe     2, 66712(4)     ;"W9$&W*" "nd me"
003760:  713174520302  datao    130, @520302(14);"Y9\J#"" "rge a"
003761:  721015767306  blki     210, 767306(15) ;"Z(-^[&" "t onc"
003762:  624000000000  trza     0, 0            ;"R@    " "e\0\0\0\0"
003763:  265500003767  jsp      12, 3767        ;"6M  ?W"
003764:  447315462716  eqvb     6, 462716(15)   ;"D[-F7." "Illeg"
003765:  607304071756  tlnn     6, 71756(4)     ;"P[$'/N" "al sw"
003766:  647514364000  tlcn     12, 364000(14)  ;"T],>@ " "itch\0"
003767:  260740004037  pushj    17, 4037        ;"6'@ @?"
003770:  104000000100                           ;"(@  ! "
003771:  402000007143  setzm    7143            ;"@0  YC"
003772:  261740000001  push     17, 1           ;"6/@  !"
003773:  333040000306  skiple   1, 306          ;";8@ #&"
003774:  104000000022                           ;"(@   2"
003775:  320700003776  jump     16, 3776        ;":'  ?^"
003776:  402000000306  setzm    306             ;"@0  #&"
003777:  262740000001  pop      17, 1           ;"67@  !"
004000:  402000007150  setzm    7150            ;"@0  YH"
004001:  261740000001  push     17, 1           ;"6/@  !"
004002:  333040000277  skiple   1, 277          ;";8@ "_"
004003:  104000000022                           ;"(@   2"
004004:  320700004005  jump     16, 4005        ;":'  @%"
004005:  402000000277  setzm    277             ;"@0  "_"
004006:  262740000001  pop      17, 1           ;"67@  !"
004007:  261740000001  push     17, 1           ;"6/@  !"
004010:  333040000300  skiple   1, 300          ;";8@ # "
004011:  104000000022                           ;"(@   2"
004012:  320700004013  jump     16, 4013        ;":'  @+"
004013:  402000000300  setzm    300             ;"@0  # "
004014:  262740000001  pop      17, 1           ;"67@  !"
004015:  261740000001  push     17, 1           ;"6/@  !"
004016:  333040000302  skiple   1, 302          ;";8@ #""
004017:  104000000022                           ;"(@   2"
004020:  320700004021  jump     16, 4021        ;":'  @1"
004021:  402000000302  setzm    302             ;"@0  #""
004022:  262740000001  pop      17, 1           ;"67@  !"
004023:  261740000001  push     17, 1           ;"6/@  !"
004024:  333040000305  skiple   1, 305          ;";8@ #%"
004025:  104000000022                           ;"(@   2"
004026:  320700004027  jump     16, 4027        ;":'  @7"
004027:  402000000305  setzm    305             ;"@0  #%"
004030:  262740000001  pop      17, 1           ;"67@  !"
004031:  332000007143  skipe    7143            ;";0  YC"
004032:  254000004035  jrst     4035            ;"5@  @="
004033:  332000007150  skipe    7150            ;";0  YH"
004034:  254000004107  jrst     4107            ;"5@  A'"
004035:  260740004076  pushj    17, 4076        ;"6'@ @^"
004036:  254000000336  jrst     336             ;"5@  #>"
004037:  260740004076  pushj    17, 4076        ;"6'@ @^"
004040:  505500440700  hrli     12, 440700      ;"HM D' "
004041:  134440000012  ildb     11, 12          ;"+D@  *"
004042:  322440002075  jumpe    11, 2075        ;":4@ 0]"
004043:  260740004074  pushj    17, 4074        ;"6'@ @\"
004044:  254000004041  jrst     4041            ;"5@  @A"
004045:  261740000011  push     17, 11          ;"6/@  )"
004046:  261740000012  push     17, 12          ;"6/@  *"
004047:  200517777776  move     12, 777776(17)  ;"0%/__^"
004050:  260740004037  pushj    17, 4037        ;"6'@ @?"
004051:  262740000012  pop      17, 12          ;"67@  *"
004052:  262740000011  pop      17, 11          ;"67@  )"
004053:  274740005242  sub      17, 5242        ;"7G@ JB"
004054:  263740000000  popj     17,             ;"6?@   "
004055:  200600000000  move     14, 0           ;"0&    "
004056:  400540000000  setz     13,             ;"@%@   "
004057:  245540000006  rotc     13, 6           ;"4M@  &"
004060:  201553000040  movei    13, 40(13)      ;"0-K  @"
004061:  260740005760  pushj    17, 5760        ;"6'@ OP"
004062:  326600004056  jumpn    14, 4056        ;":V  @N"
004063:  263740000000  popj     17,             ;"6?@   "
004064:  231000000012  idivi    0, 12           ;"3(   *"
004065:  506057000000  hrlm     1, (17)         ;"HPO   " "QBx\0\0"
004066:  332000000000  skipe    0               ;";0    " "6@\0\0\0"
004067:  260740004064  pushj    17, 4064        ;"6'@ @T"
004070:  554057000000  hlrz     1, (17)         ;"M@O   "
004071:  271040000060  addi     1, 60           ;"7(@  P"
004072:  260740005763  pushj    17, 5763        ;"6'@ OS"
004073:  263740000000  popj     17,             ;"6?@   "
004074:  260740005766  pushj    17, 5766        ;"6'@ OV"
004075:  263740000000  popj     17,             ;"6?@   "
004076:  260740005771  pushj    17, 5771        ;"6'@ OY"
004077:  260740005775  pushj    17, 5775        ;"6'@ O]"
004100:  263740000000  popj     17,             ;"6?@   "
004101:  402000007215  setzm    7215            ;"@0  Z-"
004102:  200500006007  move     12, 6007        ;"0%  P'"
004103:  260740000140  pushj    17, 140         ;"6'@ !@"
004104:  336000000002  skipn    2               ;";P   ""
004105:  476000007215  setom    7215            ;"GP  Z-"
004106:  263740000000  popj     17,             ;"6?@   "
004107:  104000000170                           ;"(@  !X"
004110:  254000000336  jrst     336             ;"5@  #>"
004111:  261740000001  push     17, 1           ;"6/@  !"
004112:  261740000002  push     17, 2           ;"6/@  ""
004113:  200100006010  move     2, 6010         ;"0!  P("
004114:  260740005041  pushj    17, 5041        ;"6'@ HA"
004115:  254000004140  jrst     4140            ;"5@  A@"
004116:  254000004130  jrst     4130            ;"5@  A8"
004117:  261740000001  push     17, 1           ;"6/@  !"
004120:  261740000002  push     17, 2           ;"6/@  ""
004121:  200100006011  move     2, 6011         ;"0!  P)"
004122:  254000004126  jrst     4126            ;"5@  A6"
004123:  261740000001  push     17, 1           ;"6/@  !"
004124:  261740000002  push     17, 2           ;"6/@  ""
004125:  200100006012  move     2, 6012         ;"0!  P*"
004126:  260740005042  pushj    17, 5042        ;"6'@ HB"
004127:  254000004140  jrst     4140            ;"5@  A@"
004130:  200500006017  move     12, 6017        ;"0%  P/"
004131:  260740000140  pushj    17, 140         ;"6'@ !@"
004132:  254000006024  jrst     6024            ;"5@  P4"
004133:  261755000010  push     17, 10(15)      ;"6/M  ("
004134:  554040000015  hlrz     1, 15           ;"M@@  -"
004135:  262741000276  pop      17, 276(1)      ;"67A "^"
004136:  260740004745  pushj    17, 4745        ;"6'@ GE"
004137:  350017777776  aos      777776(17)      ;"= /__^"
004140:  262740000002  pop      17, 2           ;"67@  ""
004141:  262740000001  pop      17, 1           ;"67@  !"
004142:  263740000000  popj     17,             ;"6?@   "
004143:  261740000001  push     17, 1           ;"6/@  !"
004144:  261740000002  push     17, 2           ;"6/@  ""
004145:  205040100001  movsi    1, 100001       ;"0H@( !"
004146:  561100006030  hrroi    2, 6030         ;"N)  P8"
004147:  104000000020                           ;"(@   0"
004150:  254000004161  jrst     4161            ;"5@  AQ"
004151:  553000000001  hrrzs    0, 1            ;"M8   !"
004152:  261740000001  push     17, 1           ;"6/@  !"
004153:  200100006012  move     2, 6012         ;"0!  P*"
004154:  104000000021                           ;"(@   1"
004155:  254000006036  jrst     6036            ;"5@  P>"
004156:  262740000001  pop      17, 1           ;"67@  !"
004157:  202040000277  movem    1, 277          ;"00@ "_"
004160:  350017777776  aos      777776(17)      ;"= /__^"
004161:  262740000002  pop      17, 2           ;"67@  ""
004162:  262740000001  pop      17, 1           ;"67@  !"
004163:  263740000000  popj     17,             ;"6?@   "
004164:  263740000000  popj     17,             ;"6?@   "
004165:  261740000001  push     17, 1           ;"6/@  !"
004166:  104000000073                           ;"(@   ["
004167:  306040000037  cain     1, 37           ;"8P@  ?"
004170:  201040000015  movei    1, 15           ;"0(@  -"
004171:  306040000012  cain     1, 12           ;"8P@  *"
004172:  254000004166  jrst     4166            ;"5@  AV"
004173:  200440000001  move     11, 1           ;"0$@  !"
004174:  262740000001  pop      17, 1           ;"67@  !"
004175:  263740000000  popj     17,             ;"6?@   "
004176:  260740006055  pushj    17, 6055        ;"6'@ PM"
004177:  263740000000  popj     17,             ;"6?@   "
004200:  254000004704  jrst     4704            ;"5@  G$"
004201:  334040005401  skipa    1, 5401         ;";@@ L!"
004202:  200040007236  move     1, 7236         ;"0 @ Z>"
004203:  505040400000  hrli     1, 400000       ;"HH@@  "
004204:  200500006072  move     12, 6072        ;"0%  PZ"
004205:  260740000140  pushj    17, 140         ;"6'@ !@"
004206:  254000004214  jrst     4214            ;"5@  B,"
004207:  254200000000  halt     0               ;"5B    "
004210:  400100000000  setz     2,              ;"@!    "
004211:  136100000001  idpb     2, 1            ;"+Q   !"
004212:  201500007216  movei    12, 7216        ;"0-  Z."
004213:  254000004037  jrst     4037            ;"5@  @?"
004214:  260740006077  pushj    17, 6077        ;"6'@ P_"
004215:  263740000000  popj     17,             ;"6?@   "
004216:  201047000001  movei    1, 1(7)         ;"0(G  !"
004217:  200041000276  move     1, 276(1)       ;"0 A "^"
004220:  200107003031  move     2, 3031(7)      ;"0!' 89"
004221:  200500006111  move     12, 6111        ;"0%  Q)"
004222:  260740000140  pushj    17, 140         ;"6'@ !@"
004223:  400040000000  setz     1,              ;"@ @   "
004224:  136040000002  idpb     1, 2            ;"+P@  ""
004225:  263740000000  popj     17,             ;"6?@   "
004226:  402000007207  setzm    7207            ;"@0  Z'"
004227:  336000007215  skipn    7215            ;";P  Z-"
004230:  254000006112  jrst     6112            ;"5@  Q*"
004231:  400040000000  setz     1,              ;"@ @   "
004232:  104000000500                           ;"(@  % "
004233:  263740000000  popj     17,             ;"6?@   "
004234:  323040002075  jumple   1, 2075         ;":8@ 0]"
004235:  211141000000  movni    3, (1)          ;"1)A   "
004236:  561100007157  hrroi    2, 7157         ;"N)  YO"
004237:  201040000100  movei    1, 100          ;"0(@ ! "
004240:  104000000052                           ;"(@   J"
004241:  400040000000  setz     1,              ;"@ @   "
004242:  136040000002  idpb     1, 2            ;"+P@  ""
004243:  200100005601  move     2, 5601         ;"0!  N!"
004244:  134040000002  ildb     1, 2            ;"+@@  ""
004245:  302040000122  caie     1, 122          ;"80@ !2"
004246:  254000004261  jrst     4261            ;"5@  BQ"
004247:  134040000002  ildb     1, 2            ;"+@@  ""
004250:  302040000125  caie     1, 125          ;"80@ !5"
004251:  254000004261  jrst     4261            ;"5@  BQ"
004252:  134040000002  ildb     1, 2            ;"+@@  ""
004253:  302040000116  caie     1, 116          ;"80@ !."
004254:  254000004261  jrst     4261            ;"5@  BQ"
004255:  134040000002  ildb     1, 2            ;"+@@  ""
004256:  302040000040  caie     1, 40           ;"80@  @"
004257:  254000004261  jrst     4261            ;"5@  BQ"
004260:  304000000000  caia                     ;"8@    " "1\0\0\0\0"
004261:  200100005601  move     2, 5601         ;"0!  N!"
004262:  134040000002  ildb     1, 2            ;"+@@  ""
004263:  303040000040  caile    1, 40           ;"88@  @"
004264:  254000004262  jrst     4262            ;"5@  BR"
004265:  302040000040  caie     1, 40           ;"80@  @"
004266:  263740000000  popj     17,             ;"6?@   "
004267:  200440000002  move     11, 2           ;"0$@  ""
004270:  134040000002  ildb     1, 2            ;"+@@  ""
004271:  306040000040  cain     1, 40           ;"8P@  @"
004272:  254000004267  jrst     4267            ;"5@  BW"
004273:  306040000015  cain     1, 15           ;"8P@  -"
004274:  263740000000  popj     17,             ;"6?@   "
004275:  202440007207  movem    11, 7207        ;"04@ Z'"
004276:  200040000011  move     1, 11           ;"0 @  )"
004277:  400400000000  setz     10,             ;"@$    "
004300:  134440000001  ildb     11, 1           ;"+D@  !"
004301:  322440004310  jumpe    11, 4310        ;":4@ C("
004302:  302440000015  caie     11, 15          ;"84@  -"
004303:  306440000012  cain     11, 12          ;"8T@  *"
004304:  304000000000  caia                     ;"8@    " "1\0\0\0\0"
004305:  344400004300  aoja     10, 4300        ;"<D  C "
004306:  400440000000  setz     11,             ;"@$@   "
004307:  137440000001  dpb      11, 1           ;"+\@  !"
004310:  202400007210  movem    10, 7210        ;"04  Z("
004311:  350017000000  aos      (17)            ;"= /   "
004312:  263740000000  popj     17,             ;"6?@   "
004313:  422471300000  andcmm   11, @300000(11) ;"B4Y8  " "DSK\0\0"
004314:  522513100000  hllom    12, 100000(13)  ;"J5+(  " "TTY\0\0"
004315:  472531400000  orcbm    12, @400000(11) ;"G59@  " "NUL\0\0"
004316:  416371550202  setmm    7, @550202(11)  ;"ASYM""" "COMPA"
004317:  512120000000  hllzm    2, @0           ;"I10   " "RE\0\0\0"
004320:  416332040644  setmm    6, @40644(12)   ;"AS:$&D" "CMPAR"
004321:  414000000000  setm     0, 0            ;"A@    " "C\0\0\0\0"
004322:  432310143616  xorm     6, 143616(10)   ;"C3(,>." "FLAGG"
004323:  420000000000  andcm    0, 0            ;"B     " "D\0\0\0\0"
004324:  000000000000                           ;"      "
004325:  000000000000                           ;"      "
004326:  000000000000                           ;"      "
004327:  000000000000                           ;"      "
004330:  000000000000                           ;"      "
004331:  000000000000                           ;"      "
004332:  000000000000                           ;"      "
004333:  000000000000                           ;"      "
004334:  000000000000                           ;"      "
004335:  000000000000                           ;"      "
004336:  000000000000                           ;"      "
004337:  000000000000                           ;"      "
004340:  000000000000                           ;"      "
004341:  000000000000                           ;"      "
004342:  000000000000                           ;"      "
004343:  000000000000                           ;"      "
004344:  000000000000                           ;"      "
004345:  000000000000                           ;"      "
004346:  000000000000                           ;"      "
004347:  000000000000                           ;"      "
004350:  000000000000                           ;"      "
004351:  000000000000                           ;"      "
004352:  000000000000                           ;"      "
004353:  000000000000                           ;"      "
004354:  000000000000                           ;"      "
004355:  000000000000                           ;"      "
004356:  000000000000                           ;"      "
004357:  000000000000                           ;"      "
004360:  000000000000                           ;"      "
004361:  000000000000                           ;"      "
004362:  000000000000                           ;"      "
004363:  000000000000                           ;"      "
004364:  000000000000                           ;"      "
004365:  000000000000                           ;"      "
004366:  000000000000                           ;"      "
004367:  000000000000                           ;"      "
004370:  000000000000                           ;"      "
004371:  000000000000                           ;"      "
004372:  000000000000                           ;"      "
004373:  000000000000                           ;"      "
004374:  000000000000                           ;"      "
004375:  000000000000                           ;"      "
004376:  000000000000                           ;"      "
004377:  000000000000                           ;"      "
004400:  000000000000                           ;"      "
004401:  000000000000                           ;"      "
004402:  000000000000                           ;"      "
004403:  000000000000                           ;"      "
004404:  000000000000                           ;"      "
004405:  000000000000                           ;"      "
004406:  000000000000                           ;"      "
004407:  000000000000                           ;"      "
004410:  000000000000                           ;"      "
004411:  000000000000                           ;"      "
004412:  000000000000                           ;"      "
004413:  000000000000                           ;"      "
004414:  000000000000                           ;"      "
004415:  000000000000                           ;"      "
004416:  000000000000                           ;"      "
004417:  000000000000                           ;"      "
004420:  000000000000                           ;"      "
004421:  000000000000                           ;"      "
004422:  000000000000                           ;"      "
004423:  000000000000                           ;"      "
004424:  000000000000                           ;"      "
004425:  000000000000                           ;"      "
004426:  000000000000                           ;"      "
004427:  000000000000                           ;"      "
004430:  000000000000                           ;"      "
004431:  000000000000                           ;"      "
004432:  000000000000                           ;"      "
004433:  000000000000                           ;"      "
004434:  000000000000                           ;"      "
004435:  000000000000                           ;"      "
004436:  000000000000                           ;"      "
004437:  000000000000                           ;"      "
004440:  000000000000                           ;"      "
004441:  000000000000                           ;"      "
004442:  000000000000                           ;"      "
004443:  000000000000                           ;"      "
004444:  000000000000                           ;"      "
004445:  000000000000                           ;"      "
004446:  000000000000                           ;"      "
004447:  000000000000                           ;"      "
004450:  000000000000                           ;"      "
004451:  000000000000                           ;"      "
004452:  000000000000                           ;"      "
004453:  000000000000                           ;"      "
004454:  000000000000                           ;"      "
004455:  000000000000                           ;"      "
004456:  000000000000                           ;"      "
004457:  000000000000                           ;"      "
004460:  000000000000                           ;"      "
004461:  000000000000                           ;"      "
004462:  000000000000                           ;"      "
004463:  000000000000                           ;"      "
004464:  000000000000                           ;"      "
004465:  000000000000                           ;"      "
004466:  000000000000                           ;"      "
004467:  000000000000                           ;"      "
004470:  000000000000                           ;"      "
004471:  000000000000                           ;"      "
004472:  000000000000                           ;"      "
004473:  000000000000                           ;"      "
004474:  000000000000                           ;"      "
004475:  000000000000                           ;"      "
004476:  000000000000                           ;"      "
004477:  000000000000                           ;"      "
004500:  000000000000                           ;"      "
004501:  000000000000                           ;"      "
004502:  000000000000                           ;"      "
004503:  000000000000                           ;"      "
004504:  000000000000                           ;"      "
004505:  000000000000                           ;"      "
004506:  000000000000                           ;"      "
004507:  000000000000                           ;"      "
004510:  000000000000                           ;"      "
004511:  000000000000                           ;"      "
004512:  000000000000                           ;"      "
004513:  000000000000                           ;"      "
004514:  000000000000                           ;"      "
004515:  000000000000                           ;"      "
004516:  000000000000                           ;"      "
004517:  000000000000                           ;"      "
004520:  000000000000                           ;"      "
004521:  000000000000                           ;"      "
004522:  000000000000                           ;"      "
004523:  000000000000                           ;"      "
004524:  000000000000                           ;"      "
004525:  000000000000                           ;"      "
004526:  000000000000                           ;"      "
004527:  000000000000                           ;"      "
004530:  000000000000                           ;"      "
004531:  000000000000                           ;"      "
004532:  000000000000                           ;"      "
004533:  000000000000                           ;"      "
004534:  000000000000                           ;"      "
004535:  000000000000                           ;"      "
004536:  000000000000                           ;"      "
004537:  000000000000                           ;"      "
004540:  000000000000                           ;"      "
004541:  000000000000                           ;"      "
004542:  000000000000                           ;"      "
004543:  000000000000                           ;"      "
004544:  000000000000                           ;"      "
004545:  000000000000                           ;"      "
004546:  000000000000                           ;"      "
004547:  000000000000                           ;"      "
004550:  000000000000                           ;"      "
004551:  000000000000                           ;"      "
004552:  000000000000                           ;"      "
004553:  000000000000                           ;"      "
004554:  000000000000                           ;"      "
004555:  000000000000                           ;"      "
004556:  000000000000                           ;"      "
004557:  000000000000                           ;"      "
004560:  000000000000                           ;"      "
004561:  000000000000                           ;"      "
004562:  000000000000                           ;"      "
004563:  000000000000                           ;"      "
004564:  000000000000                           ;"      "
004565:  000000000000                           ;"      "
004566:  000000000000                           ;"      "
004567:  000000000000                           ;"      "
004570:  000000000000                           ;"      "
004571:  000000000000                           ;"      "
004572:  000000000000                           ;"      "
004573:  000000000000                           ;"      "
004574:  000000000000                           ;"      "
004575:  000000000000                           ;"      "
004576:  000000000000                           ;"      "
004577:  000000000000                           ;"      "
004600:  000000000000                           ;"      "
004601:  000000000000                           ;"      "
004602:  000000000000                           ;"      "
004603:  000000000000                           ;"      "
004604:  000000000000                           ;"      "
004605:  000000000000                           ;"      "
004606:  000000000000                           ;"      "
004607:  000000000000                           ;"      "
004610:  000000000000                           ;"      "
004611:  000000000000                           ;"      "
004612:  000000000000                           ;"      "
004613:  000000000000                           ;"      "
004614:  000000000000                           ;"      "
004615:  000000000000                           ;"      "
004616:  000000000000                           ;"      "
004617:  000000000000                           ;"      "
004620:  000000000000                           ;"      "
004621:  000000000000                           ;"      "
004622:  000000000000                           ;"      "
004623:  000000000000                           ;"      "
004624:  000000000000                           ;"      "
004625:  000000000000                           ;"      "
004626:  000000000000                           ;"      "
004627:  000000000000                           ;"      "
004630:  000000000000                           ;"      "
004631:  000000000000                           ;"      "
004632:  000000000000                           ;"      "
004633:  000000000000                           ;"      "
004634:  000000000000                           ;"      "
004635:  000000000000                           ;"      "
004636:  440700004313  andcb    16, 4313        ;"D'  C+"
004637:  440700004314  andcb    16, 4314        ;"D'  C,"
004640:  440700004315  andcb    16, 4315        ;"D'  C-"
004641:  440700004316  andcb    16, 4316        ;"D'  C."
004642:  440700004320  andcb    16, 4320        ;"D'  C0"
004643:  440700004322  andcb    16, 4322        ;"D'  C2"
004644:  440700004324  andcb    16, 4324        ;"D'  C4"
004645:  000000777776                           ;"   __^"
004646:  440700004313  andcb    16, 4313        ;"D'  C+"
004647:  000000004635                           ;"    F="
004650:  440700004325  andcb    16, 4325        ;"D'  C5"
004651:  440700004325  andcb    16, 4325        ;"D'  C5"
004652:  200100004650  move     2, 4650         ;"0!  FH"
004653:  135040000002  ldb      1, 2            ;"+H@  ""
004654:  322040004657  jumpe    1, 4657         ;":0@ FO"
004655:  400040000000  setz     1,              ;"@ @   "
004656:  136040000002  idpb     1, 2            ;"+P@  ""
004657:  603100760000  tlne     2, 760000       ;"P9 ^  "
004660:  254000004656  jrst     4656            ;"5@  FN"
004661:  270100005533  add      2, 5533         ;"7!  M;"
004662:  202100004650  movem    2, 4650         ;"01  FH"
004663:  550100004650  hrrz     2, 4650         ;"M!  FH"
004664:  311100004647  caml     2, 4647         ;"9)  FG"
004665:  254000006126  jrst     6126            ;"5@  Q6"
004666:  200040004646  move     1, 4646         ;"0 @ FF"
004667:  200300004651  move     6, 4651         ;"0#  FI"
004670:  201501000000  movei    12, (1)         ;"0-!   "
004671:  201546000000  movei    13, (6)         ;"0-F   " " 60\0\0"
004672:  301513000000  cail     12, (13)        ;"8-+   " "04X\0\0"
004673:  254000006130  jrst     6130            ;"5@  Q8"
004674:  200112000000  move     2, (12)         ;"0!*   "
004675:  316113000000  camn     2, (13)         ;"9Q+   " "3DX\0\0"
004676:  254000006135  jrst     6135            ;"5@  Q="
004677:  201100000377  movei    2, 377          ;"0)  #_"
004700:  612112000000  tdne     2, (12)         ;"Q1*   " "bDP\0\0"
004701:  344500004700  aoja     12, 4700        ;"<E  G "
004702:  541052000001  hrri     1, 1(12)        ;"L(J  !"
004703:  254000004670  jrst     4670            ;"5@  FX"
004704:  332115000000  skipe    2, (15)         ;";1-   " "6Dh\0\0"
004705:  254000006141  jrst     6141            ;"5@  QA"
004706:  332115000001  skipe    2, 1(15)        ;";1-  !"
004707:  254000006145  jrst     6145            ;"5@  QE"
004710:  332115000002  skipe    2, 2(15)        ;";1-  ""
004711:  260740004734  pushj    17, 4734        ;"6'@ G<"
004712:  201040000056  movei    1, 56           ;"0(@  N"
004713:  260740004743  pushj    17, 4743        ;"6'@ GC"
004714:  332115000003  skipe    2, 3(15)        ;";1-  #"
004715:  260740004734  pushj    17, 4734        ;"6'@ G<"
004716:  201040000056  movei    1, 56           ;"0(@  N"
004717:  336000007215  skipn    7215            ;";P  Z-"
004720:  201040000073  movei    1, 73           ;"0(@  ["
004721:  260740004743  pushj    17, 4743        ;"6'@ GC"
004722:  570055000004  hrre     1, 4(15)        ;"O M  $"
004723:  321040006153  jumpl    1, 6153         ;":(@ QK"
004724:  260740004741  pushj    17, 4741        ;"6'@ GA"
004725:  332015000005  skipe    5(15)           ;";0-  %"
004726:  260740006162  pushj    17, 6162        ;"6'@ QR"
004727:  332115000007  skipe    2, 7(15)        ;";1-  '"
004730:  254000006170  jrst     6170            ;"5@  QX"
004731:  332115000006  skipe    2, 6(15)        ;";1-  &"
004732:  254000006177  jrst     6177            ;"5@  Q_"
004733:  263740000000  popj     17,             ;"6?@   "
004734:  304000000000  caia                     ;"8@    " "1\0\0\0\0"
004735:  260740004743  pushj    17, 4743        ;"6'@ GC"
004736:  134040000002  ildb     1, 2            ;"+@@  ""
004737:  326040004735  jumpn    1, 4735         ;":P@ G="
004740:  263740000000  popj     17,             ;"6?@   "
004741:  200000000001  move     0, 1            ;"0    !"
004742:  254000004064  jrst     4064            ;"5@  @T"
004743:  200440000001  move     11, 1           ;"0$@  !"
004744:  254000004074  jrst     4074            ;"5@  @\"
004745:  334055000010  skipa    1, 10(15)       ;";@M  ("
004746:  202055000010  movem    1, 10(15)       ;"00M  ("
004747:  205200777773  movsi    4, 777773       ;"0J __["
004750:  261740000012  push     17, 12          ;"6/@  *"
004751:  200500006211  move     12, 6211        ;"0%  R)"
004752:  260740000140  pushj    17, 140         ;"6'@ !@"
004753:  262740000012  pop      17, 12          ;"67@  *"
004754:  200444004770  move     11, 4770(4)     ;"0$D GX"
004755:  306440000004  cain     11, 4           ;"8T@  $"
004756:  254000006212  jrst     6212            ;"5@  R*"
004757:  200040004651  move     1, 4651         ;"0 @ FI"
004760:  316040004650  camn     1, 4650         ;"9P@ FH"
004761:  634040000001  tdza     1, 1            ;"S@@  !"
004762:  260740004652  pushj    17, 4652        ;"6'@ FJ"
004763:  271455000000  addi     11, (15)        ;"7,M   " ".2h\0\0"
004764:  202051000000  movem    1, (11)         ;"00I   " " BH\0\0"
004765:  271200000001  addi     4, 1            ;"7*   !"
004766:  253200004750  aobjn    4, 4750         ;"5:  GH"
004767:  263740000000  popj     17,             ;"6?@   "
004770:  000000000000                           ;"      "
004771:  100000000000                           ;"(     "
004772:  000000000001                           ;"     !"
004773:  010000000000                           ;"!     "
004774:  000000000002                           ;"     ""
004775:  001000000000                           ;" (    "
004776:  000000000003                           ;"     #"
004777:  000100000000                           ;" !    "
005000:  000000000004                           ;"     $"
005001:  000010000000                           ;"  (   "
005002:  261740000002  push     17, 2           ;"6/@  ""
005003:  261740000011  push     17, 11          ;"6/@  )"
005004:  200440000001  move     11, 1           ;"0$@  !"
005005:  400040000000  setz     1,              ;"@ @   "
005006:  254000005011  jrst     5011            ;"5@  H)"
005007:  221040000012  imuli    1, 12           ;"2(@  *"
005010:  271042777720  addi     1, 777720(2)    ;"7(B__0"
005011:  134100000011  ildb     2, 11           ;"+A   )"
005012:  326100005007  jumpn    2, 5007         ;":Q  H'"
005013:  262740000011  pop      17, 11          ;"67@  )"
005014:  262740000002  pop      17, 2           ;"67@  ""
005015:  263740000000  popj     17,             ;"6?@   "
005016:  261740000002  push     17, 2           ;"6/@  ""
005017:  261740000011  push     17, 11          ;"6/@  )"
005020:  261740000004  push     17, 4           ;"6/@  $"
005021:  200200000001  move     4, 1            ;"0"   !"
005022:  400040000000  setz     1,              ;"@ @   "
005023:  200100006216  move     2, 6216         ;"0!  R."
005024:  254000005033  jrst     5033            ;"5@  H;"
005025:  301440000140  cail     11, 140         ;"8,@ !@"
005026:  275440000040  subi     11, 40          ;"7L@  @"
005027:  275440000040  subi     11, 40          ;"7L@  @"
005030:  136440000002  idpb     11, 2           ;"+T@  ""
005031:  607100770000  tlnn     2, 770000       ;"PY _  "
005032:  254000005035  jrst     5035            ;"5@  H="
005033:  134440000004  ildb     11, 4           ;"+D@  $"
005034:  326440005025  jumpn    11, 5025        ;":T@ H5"
005035:  262740000004  pop      17, 4           ;"67@  $"
005036:  262740000011  pop      17, 11          ;"67@  )"
005037:  262740000002  pop      17, 2           ;"67@  ""
005040:  263740000000  popj     17,             ;"6?@   "
005041:  334040006217  skipa    1, 6217         ;";@@ R/"
005042:  205040100000  movsi    1, 100000       ;"0H@(  "
005043:  260740005057  pushj    17, 5057        ;"6'@ HO"
005044:  261740000001  push     17, 1           ;"6/@  !"
005045:  261740000002  push     17, 2           ;"6/@  ""
005046:  201040007237  movei    1, 7237         ;"0(@ Z?"
005047:  400100000000  setz     2,              ;"@!    "
005050:  104000000020                           ;"(@   0"
005051:  254000006220  jrst     6220            ;"5@  R0"
005052:  542055000010  hrrm     1, 10(15)       ;"L0M  ("
005053:  350017777776  aos      777776(17)      ;"= /__^"
005054:  262740000002  pop      17, 2           ;"67@  ""
005055:  262740000001  pop      17, 1           ;"67@  !"
005056:  263740000000  popj     17,             ;"6?@   "
005057:  540055000004  hrr      1, 4(15)        ;"L M  $"
005060:  332015000005  skipe    5(15)           ;";0-  %"
005061:  661040010000  tlo      1, 10000        ;"V(@!  "
005062:  202040007237  movem    1, 7237         ;"00@ Z?"
005063:  200055000000  move     1, (15)         ;"0 M   "
005064:  202040007241  movem    1, 7241         ;"00@ ZA"
005065:  200055000001  move     1, 1(15)        ;"0 M  !"
005066:  202040007242  movem    1, 7242         ;"00@ ZB"
005067:  200055000002  move     1, 2(15)        ;"0 M  ""
005070:  202040007243  movem    1, 7243         ;"00@ ZC"
005071:  200055000003  move     1, 3(15)        ;"0 M  #"
005072:  202040007244  movem    1, 7244         ;"00@ ZD"
005073:  200055000007  move     1, 7(15)        ;"0 M  '"
005074:  202040007245  movem    1, 7245         ;"00@ ZE"
005075:  200055000006  move     1, 6(15)        ;"0 M  &"
005076:  202040007246  movem    1, 7246         ;"00@ ZF"
005077:  200055000010  move     1, 10(15)       ;"0 M  ("
005100:  202040007247  movem    1, 7247         ;"00@ ZG"
005101:  200040006222  move     1, 6222         ;"0 @ R2"
005102:  202040007240  movem    1, 7240         ;"00@ Z@"
005103:  263740000000  popj     17,             ;"6?@   "
005104:  250057777777  exch     1, 777777(17)   ;"5 O___"
005105:  250117000000  exch     2, (17)         ;"5!/   "
005106:  104000000051                           ;"(@   I"
005107:  262740000002  pop      17, 2           ;"67@  ""
005110:  262740000001  pop      17, 1           ;"67@  !"
005111:  263740000000  popj     17,             ;"6?@   "
005112:  250057777777  exch     1, 777777(17)   ;"5 O___"
005113:  261740000002  push     17, 2           ;"6/@  ""
005114:  104000000050                           ;"(@   H"
005115:  320700006223  jump     16, 6223        ;":'  R3"
005116:  202137777777  movem    2, @777777(17)  ;"01?___"
005117:  262740000002  pop      17, 2           ;"67@  ""
005120:  274740005242  sub      17, 5242        ;"7G@ JB"
005121:  262740000001  pop      17, 1           ;"67@  !"
005122:  263740000000  popj     17,             ;"6?@   "
005123:  261740000001  push     17, 1           ;"6/@  !"
005124:  261740000002  push     17, 2           ;"6/@  ""
005125:  261740000003  push     17, 3           ;"6/@  #"
005126:  200072000000  move     1, @(12)        ;"0 Z   "
005127:  200132000001  move     2, @1(12)       ;"0!:  !"
005130:  210172000002  movn     3, @2(12)       ;"1!Z  ""
005131:  104000000052                           ;"(@   J"
005132:  320700005133  jump     16, 5133        ;":'  I;"
005133:  212172000002  movnm    3, @2(12)       ;"11Z  ""
005134:  202132000001  movem    2, @1(12)       ;"01:  !"
005135:  262740000003  pop      17, 3           ;"67@  #"
005136:  262740000002  pop      17, 2           ;"67@  ""
005137:  262740000001  pop      17, 1           ;"67@  !"
005140:  263740000000  popj     17,             ;"6?@   "
005141:  000000000000                           ;"      "
005142:  000000000000                           ;"      "
005143:  000000000000                           ;"      "
005144:  000000000000                           ;"      "
005145:  000000000000                           ;"      "
005146:  000000000000                           ;"      "
005147:  000000000000                           ;"      "
005150:  000000000000                           ;"      "
005151:  000000000000                           ;"      "
005152:  000000000000                           ;"      "
005153:  000000000000                           ;"      "
005154:  000000000000                           ;"      "
005155:  000000000000                           ;"      "
005156:  000000000000                           ;"      "
005157:  000000000000                           ;"      "
005160:  000000000000                           ;"      "
005161:  000000000000                           ;"      "
005162:  000000000000                           ;"      "
005163:  000000000000                           ;"      "
005164:  000000000000                           ;"      "
005165:  000000000000                           ;"      "
005166:  000000000000                           ;"      "
005167:  000000000000                           ;"      "
005170:  000000000000                           ;"      "
005171:  000000000000                           ;"      "
005172:  000000000000                           ;"      "
005173:  000000000000                           ;"      "
005174:  000000000000                           ;"      "
005175:  000000000000                           ;"      "
005176:  000000000000                           ;"      "
005177:  000000000000                           ;"      "
005200:  000000000000                           ;"      "
005201:  000000000000                           ;"      "
005202:  000000000000                           ;"      "
005203:  000000000000                           ;"      "
005204:  000000000000                           ;"      "
005205:  000000000000                           ;"      "
005206:  000000000000                           ;"      "
005207:  000000000000                           ;"      "
005210:  000000000000                           ;"      "
005211:  000000000000                           ;"      "
005212:  000000000000                           ;"      "
005213:  000000000000                           ;"      "
005214:  000000000000                           ;"      "
005215:  000000000000                           ;"      "
005216:  000000000000                           ;"      "
005217:  000000000000                           ;"      "
005220:  000000000000                           ;"      "
005221:  000000000000                           ;"      "
005222:  000000000000                           ;"      "
005223:  000000000000                           ;"      "
005224:  000000000000                           ;"      "
005225:  000000000000                           ;"      "
005226:  000000000000                           ;"      "
005227:  000000000000                           ;"      "
005230:  000000000000                           ;"      "
005231:  000000000000                           ;"      "
005232:  000000000000                           ;"      "
005233:  000000000000                           ;"      "
005234:  000000000000                           ;"      "
005235:  000000000000                           ;"      "
005236:  000000000000                           ;"      "
005237:  000000000000                           ;"      "
005240:  000000000000                           ;"      "
005241:  000005000005                           ;"  %  %"
005242:  000001000001                           ;"  !  !"
005243:  777750006225  conso    774, 6225(10)   ;"__H R5"
005244:  636243435755  tdzn     5, 435755(3)    ;"SRCCOM"
005245:  000000000040                           ;"     @"
005246:  261740000303  push     17, 303         ;"6/@ ##"
005247:  261740005245  push     17, 5245        ;"6/@ JE"
005250:  254000005104  jrst     5104            ;"5@  I$"
005251:  000000000145                           ;"    !E"
005252:  006225006226                           ;" R5 R6"
005253:  440700007035  andcb    16, 7035        ;"D'  X="
005254:  000254000265                           ;" "L "U"
005255:  261740000303  push     17, 303         ;"6/@ ##"
005256:  262740000305  pop      17, 305         ;"67@ #%"
005257:  476000006515  setom    6515            ;"GP  U-"
005260:  254000000550  jrst     550             ;"5@  %H"
005261:  064247341636                           ;"&BG<.>" "\r\n;CO"
005262:  466410151222  orcmm    10, 151222(10)  ;"FT(-*2" "MPARI"
005263:  516371620236  hrlzm    7, @620236(11)  ;"ISYR">" "SON O"
005264:  431000000000  xori     0, 0            ;"C(    " "F \0\0\0"
005265:  202031642100  movem    0, @642100(11)  ;"009T1 " " AND "
005266:  000000000000                           ;"      "
005267:  064247347640                           ;"&BG<^@" "\r\n;OP"
005270:  522231747246  hllom    4, @747246(11)  ;"J29\ZF" "TIONS"
005271:  202032242500  movem    0, @242500(12)  ;"00:45 " " ARE "
005272:  201000000000  movei    0, 0            ;"0(    " "  \0\0\0"
005273:  201370100000  movei    7, @100000(10)  ;"0+X(  " " /A\0\0"
005274:  201370200000  movei    7, @200000(10)  ;"0+X0  " " /B\0\0"
005275:  201370300000  movei    7, @300000(10)  ;"0+X8  " " /C\0\0"
005276:  201370500000  movei    7, @500000(10)  ;"0+XH  " " /E\0\0"
005277:  201371300000  movei    7, @300000(11)  ;"0+Y8  " " /K\0\0"
005300:  201371400000  movei    7, @400000(11)  ;"0+Y@  " " /L\0\0"
005301:  201372300000  movei    7, @300000(12)  ;"0+Z8  " " /S\0\0"
005302:  201372700000  movei    7, @700000(12)  ;"0+ZX  " " /W\0\0"
005303:  201373100000  movei    7, @100000(13)  ;"0+[(  " " /Y\0\0"
005304:  201360000000  movei    7, @0           ;"0+P   " " /\0\0\0"
005305:  251245225124  blt      5, 225124(5)    ;"5*E2I4" "*****"
005306:  251245225124  blt      5, 225124(5)    ;"5*E2I4" "*****"
005307:  251245225124  blt      5, 225124(5)    ;"5*E2I4" "*****"
005310:  064240000000                           ;"&B@   " "\r\n\0\0\0"
005311:  000001000265                           ;"  ! "U"
005312:  000000000014                           ;"     ,"
005313:  261740000305  push     17, 305         ;"6/@ #%"
005314:  261740005312  push     17, 5312        ;"6/@ K*"
005315:  254000005104  jrst     5104            ;"5@  I$"
005316:  000000000277                           ;"    "_"
005317:  000000000002                           ;"     ""
005320:  000000000011                           ;"     )"
005321:  472364042222  orcbm    7, @42222(4)    ;"G3T$22" "NO DI"
005322:  432150551212  xorm     3, 551212(10)   ;"C1HM**" "FFERE"
005323:  472070551500  orcbm    1, @551500(10)  ;"G0XM- " "NCES "
005324:  426350347652  setam    7, 347652(10)   ;"BSH<^J" "ENCOU"
005325:  472510551212  orcbm    12, 551212(10)  ;"G5(M**" "NTERE"
005326:  420000000000  andcm    0, 0            ;"B     " "D\0\0\0\0"
005327:  426350420236  setam    7, 420236(10)   ;"BSHB">" "END O"
005330:  431011542644  xori     0, 542644(11)   ;"C()L6D" "F MER"
005331:  436120000000  iorm     2, @0           ;"CQ0   " "GE\0\0\0"
005332:  200040006520  move     1, 6520         ;"0 @ U0"
005333:  504040006517  hrl      1, 6517         ;"H@@ U/"
005334:  136040007212  idpb     1, 7212         ;"+P@ Z*"
005335:  254000001067  jrst     1067            ;"5@  (W"
005336:  000002000002                           ;"  "  ""
005337:  251245225124  blt      5, 225124(5)    ;"5*E2I4" "*****"
005340:  251245225124  blt      5, 225124(5)    ;"5*E2I4" "*****"
005341:  251245225124  blt      5, 225124(5)    ;"5*E2I4" "*****"
005342:  064241505000                           ;"&BAHH " "\r\n\r\n\0"
005343:  440700005337  andcb    16, 5337        ;"D'  K?"
005344:  440700000011  andcb    16, 11          ;"D'   )"
005345:  250240000006  exch     5, 6            ;"5"@  &"
005346:  254000001267  jrst     1267            ;"5@  *W"
005347:  572753657000  hrrem    17, 657000(13)  ;"O7KUX " "^^^^\0"
005350:  000000001427                           ;"    ,7"
005351:  251245220232  blt      5, 220232(5)    ;"5*E2":" "*** M"
005352:  426450742500  setam    11, 742500(10)  ;"BTH\5 " "ERGE "
005353:  462372351602  setcmm   7, @351602(12)  ;"F3Z=."" "LOSSA"
005354:  436124025124  iorm     2, @25124(4)    ;"CQ4"I4" "GE **"
005355:  250321225124  exch     6, @225124(1)   ;"5#12I4" "*\r\n**"
005356:  251010644630  blt      0, 644630(10)   ;"5((TF8" "* FIL"
005357:  425000000000  setai    0,              ;"BH    " "E \0\0\0"
005360:  202210151564  movem    4, 151564(10)   ;"02(--T" " HAS:"
005361:  064240000000                           ;"&B@   " "\r\n\0\0\0"
005362:  251245220214  blt      5, 220214(5)    ;"5*E2"," "*** F"
005363:  446310520000  eqvm     6, 520000(10)   ;"DS(J  " "ILE \0"
005364:  202210151564  movem    4, 151564(10)   ;"02(--T" " HAS:"
005365:  064240000000                           ;"&B@   " "\r\n\0\0\0"
005366:  251245220212  blt      5, 220212(5)    ;"5*E2"*" "*** E"
005367:  472104047614  orcbm    2, 47614(4)     ;"G1$$^," "ND OF"
005370:  202330551216  movem    6, @551216(10)  ;"038M*." " MERG"
005371:  425011447646  setai    0, 447646(11)   ;"BH)D^F" "E LOS"
005372:  516030742500  hrlzm    0, @742500(10)  ;"IP8\5 " "SAGE "
005373:  251245206424  blt      5, 206424(5)    ;"5*E0T4" "***\r\n"
005374:  000000000000                           ;"      "
005375:  104000000053                           ;"(@   K"
005376:  000000000302                           ;"    #""
005377:  000000000001                           ;"     !"
005400:  000000000002                           ;"     ""
005401:  777777777777  conso    774, @777777(17);"______"
005402:  000000006225                           ;"    R5"
005403:  000000000001                           ;"     !"
005404:  000000000002                           ;"     ""
005405:  777777777777  conso    774, @777777(17);"______"
005406:  005375005402                           ;" K] L""
005407:  440700006510  andcb    16, 6510        ;"D'  U("
005410:  350700006511  aos      16, 6511        ;"='  U)"
005411:  000000007151                           ;"    YI"
005412:  376371646262  sosn     7, @646262(11)  ;"?SYTRR" "?ONLY"
005413:  201425420144  movei    10, @420144(5)  ;"0,5B!D" " 1, 2"
005414:  261011126100  push     0, 126100(11)   ;"6()*Q " ", I, "
005415:  406350427636  andm     7, 427636(10)   ;"@SHB^>" "AND/O"
005416:  511012420202  hllzi    0, 420202(12)   ;"I(*B""" "R T A"
005417:  512124046212  hllzm    2, @46212(4)    ;"I14$R*" "RE LE"
005420:  436031420222  iorm     0, @420222(11)  ;"CP9B"2" "GAL I"
005421:  471011542644  orcbi    0, 542644(11)   ;"G()L6D" "N MER"
005422:  436124041636  iorm     2, @41636(4)    ;"CQ4$.>" "GE CO"
005423:  466330147210  orcmm    6, @147210(10)  ;"FS8,Z(" "MMAND"
005424:  514321247644  hrlz     6, @247644(1)   ;"IC14^D" "S\r\nOR"
005425:  202064321506  movem    1, @321506(4)   ;"00T:-&" " C###"
005426:  202511720246  movem    12, 720246(11)  ;"05)Z"F" " TO S"
005427:  426504046602  setam    12, 46602(4)    ;"BU$$V"" "ET MA"
005430:  541344041636  hrri     7, 41636(4)     ;"L+D$.>" "X. CO"
005431:  461344047644  setcmi   7, 47644(4)     ;"F+D$^D" "L. OR"
005432:  202304321506  movem    6, 321506(4)    ;"03$:-&" " L###"
005433:  202511720246  movem    12, 720246(11)  ;"05)Z"F" " TO S"
005434:  426504046602  setam    12, 46602(4)    ;"BU$$V"" "ET MA"
005435:  541344046222  hrri     7, 46222(4)     ;"L+D$R2" "X. LI"
005436:  472132320250  orcbm    2, @320250(12)  ;"G1::"H" "NES T"
005437:  546410542134  hlrm     10, 542134(10)  ;"LT(L1<" "YPED."
005440:  064240000000                           ;"&B@   " "\r\n\0\0\0"
005441:  440700005412  andcb    16, 5412        ;"D'  L*"
005442:  777777777776  conso    774, @777776(17);"_____^"
005443:  134500000001  ildb     12, 1           ;"+E   !"
005444:  254000002001  jrst     2001            ;"5@  0!"
005445:  134540000002  ildb     13, 2           ;"+E@  ""
005446:  254000002004  jrst     2004            ;"5@  0$"
005447:  134500000001  ildb     12, 1           ;"+E   !"
005450:  254000002045  jrst     2045            ;"5@  0E"
005451:  440700005310  andcb    16, 5310        ;"D'  K("
005452:  104000000053                           ;"(@   K"
005453:  000000000305                           ;"    #%"
005454:  000000000002                           ;"     ""
005455:  000000000011                           ;"     )"
005456:  777777777777  conso    774, @777777(17);"______"
005457:  000000006225                           ;"    R5"
005460:  000000000002                           ;"     ""
005461:  000000000011                           ;"     )"
005462:  777777777777  conso    774, @777777(17);"______"
005463:  005452005457                           ;" LJ LO"
005464:  251245225100  blt      5, 225100(5)    ;"5*E2I " "**** "
005465:  432231442500  xorm     4, @442500(11)  ;"C29D5 " "FILE "
005466:  000000000000                           ;"      "
005467:  440700005464  andcb    16, 5464        ;"D'  LT"
005470:  261000000000  push     0, 0            ;"6(    " ", \0\0\0"
005471:  440700005470  andcb    16, 5470        ;"D'  LX"
005472:  000000000055                           ;"     M"
005473:  261740000305  push     17, 305         ;"6/@ #%"
005474:  261740005472  push     17, 5472        ;"6/@ LZ"
005475:  254000005104  jrst     5104            ;"5@  I$"
005476:  201200000000  movei    4, 0            ;"0*    " " (\0\0\0"
005477:  000000000051                           ;"     I"
005500:  261740000305  push     17, 305         ;"6/@ #%"
005501:  261740005477  push     17, 5477        ;"6/@ L_"
005502:  254000005104  jrst     5104            ;"5@  I$"
005503:  201507000000  movei    12, (7)         ;"0-'   " " 48\0\0"
005504:  221500000004  imuli    12, 4           ;"2-   $"
005505:  271500006470  addi     12, 6470        ;"7-  TX"
005506:  254000002217  jrst     2217            ;"5@  2/"
005507:  202030652212  movem    0, @652212(10)  ;"008U2*" " AFTE"
005510:  511000000000  hllzi    0, 0            ;"I(    " "R \0\0\0"
005511:  000000000042                           ;"     B"
005512:  261740000305  push     17, 305         ;"6/@ #%"
005513:  261740005511  push     17, 5511        ;"6/@ M)"
005514:  254000005104  jrst     5104            ;"5@  I$"
005515:  261740000305  push     17, 305         ;"6/@ #%"
005516:  261740005511  push     17, 5511        ;"6/@ M)"
005517:  254000005104  jrst     5104            ;"5@  I$"
005520:  440700007137  andcb    16, 7137        ;"D'  Y?"
005521:  476007006306  setom    6306(7)         ;"GP' S&" "O@8\fc"
005522:  263740000000  popj     17,             ;"6?@   "
005523:  240100000003  ash      2, 3            ;"4!   #"
005524:  006470000000                           ;" TX   "
005525:  002327000014                           ;" 37  ,"
005526:  360600000002  soj      14, 2           ;">&   ""
005527:  301400000002  cail     10, 2           ;"8,   ""
005530:  260740002772  pushj    17, 2772        ;"6'@ 7Z"
005531:  254000002621  jrst     2621            ;"5@  61"
005532:  070000000000                           ;"'     "
005533:  430000000001  xor      0, 1            ;"C    !"
005534:  350701000011  aos      16, 11(1)       ;"='!  )"
005535:  260740002772  pushj    17, 2772        ;"6'@ 7Z"
005536:  254000002301  jrst     2301            ;"5@  3!"
005537:  260740002772  pushj    17, 2772        ;"6'@ 7Z"
005540:  254000000014  jrst     14              ;"5@   ,"
005541:  000000000277                           ;"    "_"
005542:  000000000011                           ;"     )"
005543:  000000000010                           ;"     ("
005544:  201500005541  movei    12, 5541        ;"0-  MA"
005545:  260740005123  pushj    17, 5123        ;"6'@ I3"
005546:  263740000000  popj     17,             ;"6?@   "
005547:  000000000300                           ;"    # "
005550:  000000000011                           ;"     )"
005551:  000000000010                           ;"     ("
005552:  201500005547  movei    12, 5547        ;"0-  MG"
005553:  260740005123  pushj    17, 5123        ;"6'@ I3"
005554:  263740000000  popj     17,             ;"6?@   "
005555:  000000000301                           ;"    #!"
005556:  000000000011                           ;"     )"
005557:  000000000010                           ;"     ("
005560:  201500005555  movei    12, 5555        ;"0-  MM"
005561:  260740005123  pushj    17, 5123        ;"6'@ I3"
005562:  263740000000  popj     17,             ;"6?@   "
005563:  014060301406                           ;"!@P8,&"
005564:  000000000277                           ;"    "_"
005565:  000000000001                           ;"     !"
005566:  000000000002                           ;"     ""
005567:  350700006527  aos      16, 6527        ;"='  U7"
005570:  000000000015                           ;"     -"
005571:  000000000043                           ;"     C"
005572:  261740000303  push     17, 303         ;"6/@ ##"
005573:  261740005571  push     17, 5571        ;"6/@ MY"
005574:  254000005104  jrst     5104            ;"5@  I$"
005575:  000000000052                           ;"     J"
005576:  261740000303  push     17, 303         ;"6/@ ##"
005577:  261740005575  push     17, 5575        ;"6/@ M]"
005600:  254000005104  jrst     5104            ;"5@  I$"
005601:  440700007157  andcb    16, 7157        ;"D'  YO"
005602:  214000000000  movm     0, 0            ;"1@    " "#\0\0\0\0"
005603:  250000000000  exch     0, 0            ;"5     " "*\0\0\0\0"
005604:  104000000053                           ;"(@   K"
005605:  000000000303                           ;"    ##"
005606:  000000000013                           ;"     +"
005607:  000000000011                           ;"     )"
005610:  777777777777  conso    774, @777777(17);"______"
005611:  000000006225                           ;"    R5"
005612:  000000000013                           ;"     +"
005613:  000000000011                           ;"     )"
005614:  777777777777  conso    774, @777777(17);"______"
005615:  005604005611                           ;" N$ N)"
005616:  261740000303  push     17, 303         ;"6/@ ##"
005617:  261740000011  push     17, 11          ;"6/@  )"
005620:  254000005104  jrst     5104            ;"5@  I$"
005621:  200000000170  move     0, 170          ;"0   !X"
005622:  261740000277  push     17, 277         ;"6/@ "_"
005623:  261740005320  push     17, 5320        ;"6/@ K0"
005624:  254000005112  jrst     5112            ;"5@  I*"
005625:  261740000303  push     17, 303         ;"6/@ ##"
005626:  261740000011  push     17, 11          ;"6/@  )"
005627:  254000005104  jrst     5104            ;"5@  I$"
005630:  261740000306  push     17, 306         ;"6/@ #&"
005631:  261740005320  push     17, 5320        ;"6/@ K0"
005632:  254000005112  jrst     5112            ;"5@  I*"
005633:  261740000306  push     17, 306         ;"6/@ #&"
005634:  261740005320  push     17, 5320        ;"6/@ K0"
005635:  254000005112  jrst     5112            ;"5@  I*"
005636:  261740000306  push     17, 306         ;"6/@ #&"
005637:  261740005320  push     17, 5320        ;"6/@ K0"
005640:  254000005112  jrst     5112            ;"5@  I*"
005641:  261740000306  push     17, 306         ;"6/@ #&"
005642:  261740005320  push     17, 5320        ;"6/@ K0"
005643:  254000005112  jrst     5112            ;"5@  I*"
005644:  261740000306  push     17, 306         ;"6/@ #&"
005645:  261740005320  push     17, 5320        ;"6/@ K0"
005646:  254000005112  jrst     5112            ;"5@  I*"
005647:  261740000306  push     17, 306         ;"6/@ #&"
005650:  261740005320  push     17, 5320        ;"6/@ K0"
005651:  254000005112  jrst     5112            ;"5@  I*"
005652:  261740000306  push     17, 306         ;"6/@ #&"
005653:  261740005320  push     17, 5320        ;"6/@ K0"
005654:  254000005112  jrst     5112            ;"5@  I*"
005655:  261740000306  push     17, 306         ;"6/@ #&"
005656:  261740005320  push     17, 5320        ;"6/@ K0"
005657:  254000005112  jrst     5112            ;"5@  I*"
005660:  261740000306  push     17, 306         ;"6/@ #&"
005661:  261740005320  push     17, 5320        ;"6/@ K0"
005662:  254000005112  jrst     5112            ;"5@  I*"
005663:  261740000306  push     17, 306         ;"6/@ #&"
005664:  261740005320  push     17, 5320        ;"6/@ K0"
005665:  254000005112  jrst     5112            ;"5@  I*"
005666:  261740000306  push     17, 306         ;"6/@ #&"
005667:  261740005320  push     17, 5320        ;"6/@ K0"
005670:  254000005112  jrst     5112            ;"5@  I*"
005671:  261740000306  push     17, 306         ;"6/@ #&"
005672:  261740005320  push     17, 5320        ;"6/@ K0"
005673:  254000005112  jrst     5112            ;"5@  I*"
005674:  261740000306  push     17, 306         ;"6/@ #&"
005675:  261740005320  push     17, 5320        ;"6/@ K0"
005676:  254000005112  jrst     5112            ;"5@  I*"
005677:  261740000306  push     17, 306         ;"6/@ #&"
005700:  261740005320  push     17, 5320        ;"6/@ K0"
005701:  254000005112  jrst     5112            ;"5@  I*"
005702:  261740000306  push     17, 306         ;"6/@ #&"
005703:  261740005320  push     17, 5320        ;"6/@ K0"
005704:  254000005112  jrst     5112            ;"5@  I*"
005705:  261740000306  push     17, 306         ;"6/@ #&"
005706:  261740005320  push     17, 5320        ;"6/@ K0"
005707:  254000005112  jrst     5112            ;"5@  I*"
005710:  261740000306  push     17, 306         ;"6/@ #&"
005711:  261740005320  push     17, 5320        ;"6/@ K0"
005712:  254000005112  jrst     5112            ;"5@  I*"
005713:  261740000306  push     17, 306         ;"6/@ #&"
005714:  261740005320  push     17, 5320        ;"6/@ K0"
005715:  254000005112  jrst     5112            ;"5@  I*"
005716:  261740000306  push     17, 306         ;"6/@ #&"
005717:  261740005320  push     17, 5320        ;"6/@ K0"
005720:  254000005112  jrst     5112            ;"5@  I*"
005721:  261740000306  push     17, 306         ;"6/@ #&"
005722:  261740005320  push     17, 5320        ;"6/@ K0"
005723:  254000005112  jrst     5112            ;"5@  I*"
005724:  260740003612  pushj    17, 3612        ;"6'@ >*"
005725:  254000003540  jrst     3540            ;"5@  =@"
005726:  350000007210  aos      7210            ;"=   Z("
005727:  254000003611  jrst     3611            ;"5@  >)"
005730:  000041000000                           ;"  A   "
005731:  104000000020                           ;"(@   0"
005732:  000000005730                           ;"    O8"
005733:  000000000002                           ;"     ""
005734:  777777777777  conso    774, @777777(17);"______"
005735:  000015000010                           ;"  -  ("
005736:  000000000002                           ;"     ""
005737:  777777777777  conso    774, @777777(17);"______"
005740:  005731005735                           ;" O9 O="
005741:  104000000023                           ;"(@   3"
005742:  000015000010                           ;"  -  ("
005743:  777777777777  conso    774, @777777(17);"______"
005744:  005741005401                           ;" OA L!"
005745:  201451777717  movei    11, 777717(11)  ;"0,I__/"
005746:  202440007153  movem    11, 7153        ;"04@ YK"
005747:  263740000000  popj     17,             ;"6?@   "
005750:  261740000303  push     17, 303         ;"6/@ ##"
005751:  261740005320  push     17, 5320        ;"6/@ K0"
005752:  254000005104  jrst     5104            ;"5@  I$"
005753:  417035623750  setmb    0, @623750(15)  ;"AX=R?H" "Can't"
005754:  203155167310  moves    3, 167310(15)   ;"09M.[(" " find"
005755:  203214566340  moves    4, 566340(14)   ;"0:,NS@" " help"
005756:  203155166312  moves    3, 166312(15)   ;"09M.S*" " file"
005757:  204000000000  movs     0, 0            ;"0@    " "!\0\0\0\0"
005760:  261740000303  push     17, 303         ;"6/@ ##"
005761:  261740000013  push     17, 13          ;"6/@  +"
005762:  254000005104  jrst     5104            ;"5@  I$"
005763:  261740000303  push     17, 303         ;"6/@ ##"
005764:  261740000001  push     17, 1           ;"6/@  !"
005765:  254000005104  jrst     5104            ;"5@  I$"
005766:  261740000303  push     17, 303         ;"6/@ ##"
005767:  261740000011  push     17, 11          ;"6/@  )"
005770:  254000005104  jrst     5104            ;"5@  I$"
005771:  261740000303  push     17, 303         ;"6/@ ##"
005772:  261740005570  push     17, 5570        ;"6/@ MX"
005773:  254000005104  jrst     5104            ;"5@  I$"
005774:  000000000012                           ;"     *"
005775:  261740000303  push     17, 303         ;"6/@ ##"
005776:  261740005774  push     17, 5774        ;"6/@ O\"
005777:  254000005104  jrst     5104            ;"5@  I$"
006000:  545741446442  hlri     17, 446442(1)   ;"LOADTB"
006001:  104000000016                           ;"(@   ."
006002:  000000006000                           ;"    P "
006003:  777777777777  conso    774, @777777(17);"______"
006004:  000000000002                           ;"     ""
006005:  000000000002                           ;"     ""
006006:  777777777777  conso    774, @777777(17);"______"
006007:  006001006004                           ;" P! P$"
006010:  070000100000                           ;"'  (  "
006011:  440000200000  andcb    0, 200000       ;"D  0  "
006012:  070000200000                           ;"'  0  "
006013:  104000000021                           ;"(@   1"
006014:  000015000010                           ;"  -  ("
006015:  000000000002                           ;"     ""
006016:  777777777777  conso    774, @777777(17);"______"
006017:  006013005401                           ;" P+ L!"
006020:  104000000022                           ;"(@   2"
006021:  000015000010                           ;"  -  ("
006022:  777777777777  conso    774, @777777(17);"______"
006023:  006020005401                           ;" P0 L!"
006024:  200500006023  move     12, 6023        ;"0%  P3"
006025:  260740000140  pushj    17, 140         ;"6'@ !@"
006026:  255000000000  jfcl                     ;"5H    " "+ \0\0\0"
006027:  254000004140  jrst     4140            ;"5@  A@"
006030:  362111741652  soje     2, 741652(11)   ;">1)\.J" "<DOCU"
006031:  466131652202  orcmm    2, @652202(11)  ;"FQ9U2"" "MENTA"
006032:  522231747174  hllom    4, @747174(11)  ;"J29\Y\" "TION>"
006033:  516450341636  hrlzm    11, 341636(10)  ;"ITH<.>" "SRCCO"
006034:  465350447606  orcmi    7, 447606(10)   ;"FKHD^&" "M.DOC"
006035:  000000000000                           ;"      "
006036:  262740000001  pop      17, 1           ;"67@  !"
006037:  104000000022                           ;"(@   2"
006040:  255000000000  jfcl                     ;"5H    " "+ \0\0\0"
006041:  254000004161  jrst     4161            ;"5@  AQ"
006042:  417035667336  setmb    0, @667336(15)  ;"AX=V[>" "Canno"
006043:  721014464746  blki     210, 464746(14) ;"Z(,FGF" "t dis"
006044:  677575620336  tson     13, @620336(15) ;"W]]R#>" "own o"
006045:  671016464322  tso      0, 464322(16)   ;"W(.FC2" "n thi"
006046:  715015467746  blki     150, 467746(15) ;"YH-F_F" "s los"
006047:  647354720346  tlcn     7, 720346(14)   ;"T[LZ#F" "ing s"
006050:  747476462732  datai    474, @462732(16);"\\^F7:" "ystem"
006051:  355014367734  aosge    367734(14)      ;"=H,>_<" "; con"
006052:  723235672722  cono     230, @672722(15);"Z:=W72" "tinui"
006053:  673165600000  tsoe     3, @600000(5)   ;"W9UP  " "ng.\0\0"
006054:  000000006042                           ;"    PB"
006055:  261740006054  push     17, 6054        ;"6/@ PL"
006056:  254000004045  jrst     4045            ;"5@  @E"
006057:  777777007216  conso    774, @7216(17)  ;"___ Z."
006060:  777660000000  coni     774, @0         ;"_^P   "
006061:  104000000011                           ;"(@   )"
006062:  000000006057                           ;"    PO"
006063:  000000000001                           ;"     !"
006064:  000000006060                           ;"    PP"
006065:  777777777777  conso    774, @777777(17);"______"
006066:  000000000001                           ;"     !"
006067:  000000000002                           ;"     ""
006070:  000000000002                           ;"     ""
006071:  777777777777  conso    774, @777777(17);"______"
006072:  006061006066                           ;" PQ PV"
006073:  527355367336  hrlos    7, 367336(15)   ;"J[M>[>" "Unkno"
006074:  737344062744  conso    370, 62744(4)   ;"[[D&7D" "wn er"
006075:  713376200000  conso    130, @200000(16);"Y;^0  " "ror\0\0"
006076:  000000006073                           ;"    P["
006077:  261740006076  push     17, 6076        ;"6/@ P^"
006100:  254000004045  jrst     4045            ;"5@  @E"
006101:  111110000001                           ;"))(  !"
006102:  104000000030                           ;"(@   8"
006103:  000000000002                           ;"     ""
006104:  000000000001                           ;"     !"
006105:  000000006101                           ;"    Q!"
006106:  777777777777  conso    774, @777777(17);"______"
006107:  000000000002                           ;"     ""
006110:  777777777777  conso    774, @777777(17);"______"
006111:  006102006107                           ;" Q" Q'"
006112:  201040000100  movei    1, 100          ;"0(@ ! "
006113:  104000000042                           ;"(@   B"
006114:  263740000000  popj     17,             ;"6?@   "
006115:  104000000073                           ;"(@   ["
006116:  302040000037  caie     1, 37           ;"80@  ?"
006117:  476000007207  setom    7207            ;"GP  Z'"
006120:  263740000000  popj     17,             ;"6?@   "
006121:  433235462734  xorb     4, @462734(15)  ;"C:=F7<" "Filen"
006122:  607334520304  tlnn     6, @520304(14)  ;"P[<J#$" "ame b"
006123:  727154662744  datao    270, 662744(14) ;"ZYLV7D" "uffer"
006124:  203376662744  moves    7, @662744(16)  ;"0;^V7D" " over"
006125:  633315773400  tsze     6, 773400(15)   ;"S;-_< " "flow\0"
006126:  265500003767  jsp      12, 3767        ;"6M  ?W"
006127:  000000006121                           ;"    Q1"
006130:  200040000006  move     1, 6            ;"0 @  &"
006131:  200100004650  move     2, 4650         ;"0!  FH"
006132:  202100004651  movem    2, 4651         ;"01  FI"
006133:  263740000000  popj     17,             ;"6?@   "
006134:  344540004674  aoja     13, 4674        ;"<E@ F\"
006135:  602100000377  trne     2, 377          ;"P1  #_"
006136:  344500006134  aoja     12, 6134        ;"<E  Q<"
006137:  202300004650  movem    6, 4650         ;"03  FH"
006140:  263740000000  popj     17,             ;"6?@   "
006141:  260740004734  pushj    17, 4734        ;"6'@ G<"
006142:  201040000072  movei    1, 72           ;"0(@  Z"
006143:  260740004743  pushj    17, 4743        ;"6'@ GC"
006144:  254000004706  jrst     4706            ;"5@  G&"
006145:  201040000074  movei    1, 74           ;"0(@  \"
006146:  260740004743  pushj    17, 4743        ;"6'@ GC"
006147:  260740004734  pushj    17, 4734        ;"6'@ G<"
006150:  201040000076  movei    1, 76           ;"0(@  ^"
006151:  260740004743  pushj    17, 4743        ;"6'@ GC"
006152:  254000004710  jrst     4710            ;"5@  G("
006153:  214100000001  movm     2, 1            ;"1A   !"
006154:  201040000055  movei    1, 55           ;"0(@  M"
006155:  260740004743  pushj    17, 4743        ;"6'@ GC"
006156:  200040000002  move     1, 2            ;"0 @  ""
006157:  254000004724  jrst     4724            ;"5@  G4"
006160:  356500000000  aosn     12, 0           ;"=U    " ";T\0\0\0"
006161:  000000006160                           ;"    QP"
006162:  261740006161  push     17, 6161        ;"6/@ QQ"
006163:  254000004045  jrst     4045            ;"5@  @E"
006164:  356400000000  aosn     10, 0           ;"=T    " ";P\0\0\0"
006165:  000000006164                           ;"    QT"
006166:  261740006165  push     17, 6165        ;"6/@ QU"
006167:  254000004045  jrst     4045            ;"5@  @E"
006170:  260740006166  pushj    17, 6166        ;"6'@ QV"
006171:  260740004734  pushj    17, 4734        ;"6'@ G<"
006172:  254000004731  jrst     4731            ;"5@  G9"
006173:  356020000000  aosn     @0              ;"=P0   " ";A\0\0\0"
006174:  000000006173                           ;"    Q["
006175:  261740006174  push     17, 6174        ;"6/@ Q\"
006176:  254000004045  jrst     4045            ;"5@  @E"
006177:  260740006175  pushj    17, 6175        ;"6'@ Q]"
006200:  260740004734  pushj    17, 4734        ;"6'@ G<"
006201:  254000004733  jrst     4733            ;"5@  G;"
006202:  104000000030                           ;"(@   8"
006203:  000000004650                           ;"    FH"
006204:  000015000010                           ;"  -  ("
006205:  000004004771                           ;"  $ GY"
006206:  777777777777  conso    774, @777777(17);"______"
006207:  000000004650                           ;"    FH"
006210:  777777777777  conso    774, @777777(17);"______"
006211:  006202006207                           ;" R" R'"
006212:  200040004651  move     1, 4651         ;"0 @ FI"
006213:  202040004650  movem    1, 4650         ;"00@ FH"
006214:  260740005002  pushj    17, 5002        ;"6'@ H""
006215:  254000004763  jrst     4763            ;"5@  GS"
006216:  440600000001  andcb    14, 1           ;"D&   !"
006217:  600000000000  trn      0, 0            ;"P     " "`\0\0\0\0"
006220:  202040007236  movem    1, 7236         ;"00@ Z>"
006221:  254000005054  jrst     5054            ;"5@  HL"
006222:  377777377777  sosg     17, @377777(17) ;"?__?__"
006223:  561100000003  hrroi    2, 3            ;"N)   #"
006224:  254000005116  jrst     5116            ;"5@  I."
006225:  000000000000                           ;"      "
006226:  000000000000                           ;"      "
006227:  000000000000                           ;"      "
006230:  000000000000                           ;"      "
006231:  000000000000                           ;"      "
006232:  000000000000                           ;"      "
006233:  000000000000                           ;"      "
006234:  000000000000                           ;"      "
006235:  000000000000                           ;"      "
006236:  000000000000                           ;"      "
006237:  000000000000                           ;"      "
006240:  000000000000                           ;"      "
006241:  000000000000                           ;"      "
006242:  000000000000                           ;"      "
006243:  000000000000                           ;"      "
006244:  000000000000                           ;"      "
006245:  000000000000                           ;"      "
006246:  000000000000                           ;"      "
006247:  000000000000                           ;"      "
006250:  000000000000                           ;"      "
006251:  000000000000                           ;"      "
006252:  000000000000                           ;"      "
006253:  000000000000                           ;"      "
006254:  000000000000                           ;"      "
006255:  000000000000                           ;"      "
006256:  000000000000                           ;"      "
006257:  000000000000                           ;"      "
006260:  000000000000                           ;"      "
006261:  000000000000                           ;"      "
006262:  000000000000                           ;"      "
006263:  000000000000                           ;"      "
006264:  000000000000                           ;"      "
006265:  000000000000                           ;"      "
006266:  000000000000                           ;"      "
006267:  000000000000                           ;"      "
006270:  000000000000                           ;"      "
006271:  000000000000                           ;"      "
006272:  000000000000                           ;"      "
006273:  000000000000                           ;"      "
006274:  000000000000                           ;"      "
006275:  000000000000                           ;"      "
006276:  000000000000                           ;"      "
006277:  000000000000                           ;"      "
006300:  000000000000                           ;"      "
006301:  000000000000                           ;"      "
006302:  000000000000                           ;"      "
006303:  000000000000                           ;"      "
006304:  000000000000                           ;"      "
006305:  000000000000                           ;"      "
006306:  000000000000                           ;"      "
006307:  000000000000                           ;"      "
006310:  000000000000                           ;"      "
006311:  000000000000                           ;"      "
006312:  000000000000                           ;"      "
006313:  000000000000                           ;"      "
006314:  000000000000                           ;"      "
006315:  000000000000                           ;"      "
006316:  000000000000                           ;"      "
006317:  000000000000                           ;"      "
006320:  000000000000                           ;"      "
006321:  000000000000                           ;"      "
006322:  000000000000                           ;"      "
006323:  000000000000                           ;"      "
006324:  000000000000                           ;"      "
006325:  000000000000                           ;"      "
006326:  000000000000                           ;"      "
006327:  000000000000                           ;"      "
006330:  000000000000                           ;"      "
006331:  000000000000                           ;"      "
006332:  000000000000                           ;"      "
006333:  000000000000                           ;"      "
006334:  000000000000                           ;"      "
006335:  000000000000                           ;"      "
006336:  000000000000                           ;"      "
006337:  000000000000                           ;"      "
006340:  000000000000                           ;"      "
006341:  000000000000                           ;"      "
006342:  000000000000                           ;"      "
006343:  000000000000                           ;"      "
006344:  000000000000                           ;"      "
006345:  000000000000                           ;"      "
006346:  000000000000                           ;"      "
006347:  000000000000                           ;"      "
006350:  000000000000                           ;"      "
006351:  000000000000                           ;"      "
006352:  000000000000                           ;"      "
006353:  000000000000                           ;"      "
006354:  000000000000                           ;"      "
006355:  000000000000                           ;"      "
006356:  000000000000                           ;"      "
006357:  000000000000                           ;"      "
006360:  000000000000                           ;"      "
006361:  000000000000                           ;"      "
006362:  000000000000                           ;"      "
006363:  000000000000                           ;"      "
006364:  000000000000                           ;"      "
006365:  000000000000                           ;"      "
006366:  000000000000                           ;"      "
006367:  000000000000                           ;"      "
006370:  000000000000                           ;"      "
006371:  000000000000                           ;"      "
006372:  000000000000                           ;"      "
006373:  000000000000                           ;"      "
006374:  000000000000                           ;"      "
006375:  000000000000                           ;"      "
006376:  000000000000                           ;"      "
006377:  000000000000                           ;"      "
006400:  000000000000                           ;"      "
006401:  000000000000                           ;"      "
006402:  000000000000                           ;"      "
006403:  000000000000                           ;"      "
006404:  000000000000                           ;"      "
006405:  000000000000                           ;"      "
006406:  000000000000                           ;"      "
006407:  000000000000                           ;"      "
006410:  000000000000                           ;"      "
006411:  000000000000                           ;"      "
006412:  000000000000                           ;"      "
006413:  000000000000                           ;"      "
006414:  000000000000                           ;"      "
006415:  000000000000                           ;"      "
006416:  000000000000                           ;"      "
006417:  000000000000                           ;"      "
006420:  000000000000                           ;"      "
006421:  000000000000                           ;"      "
006422:  000000000000                           ;"      "
006423:  000000000000                           ;"      "
006424:  000000000000                           ;"      "
006425:  000000000000                           ;"      "
006426:  000000000000                           ;"      "
006427:  000000000000                           ;"      "
006430:  000000000000                           ;"      "
006431:  000000000000                           ;"      "
006432:  000000000000                           ;"      "
006433:  000000000000                           ;"      "
006434:  000000000000                           ;"      "
006435:  000000000000                           ;"      "
006436:  000000000000                           ;"      "
006437:  000000000000                           ;"      "
006440:  000000000000                           ;"      "
006441:  000000000000                           ;"      "
006442:  000000000000                           ;"      "
006443:  000000000000                           ;"      "
006444:  000000000000                           ;"      "
006445:  000000000000                           ;"      "
006446:  000000000000                           ;"      "
006447:  000000000000                           ;"      "
006450:  000000000000                           ;"      "
006451:  000000000000                           ;"      "
006452:  000000000000                           ;"      "
006453:  000000000000                           ;"      "
006454:  000000000000                           ;"      "
006455:  000000000000                           ;"      "
006456:  000000000000                           ;"      "
006457:  000000000000                           ;"      "
006460:  000000000000                           ;"      "
006461:  000000000000                           ;"      "
006462:  000000000000                           ;"      "
006463:  000000000000                           ;"      "
006464:  000000000000                           ;"      "
006465:  000000000000                           ;"      "
006466:  000000000000                           ;"      "
006467:  000000000000                           ;"      "
006470:  000000000000                           ;"      "
006471:  000000000000                           ;"      "
006472:  000000000000                           ;"      "
006473:  000000000000                           ;"      "
006474:  000000000000                           ;"      "
006475:  000000000000                           ;"      "
006476:  000000000000                           ;"      "
006477:  000000000000                           ;"      "
006500:  000000000000                           ;"      "
006501:  000000000000                           ;"      "
006502:  000000000000                           ;"      "
006503:  000000000000                           ;"      "
006504:  000000000000                           ;"      "
006505:  000000000000                           ;"      "
006506:  000000000000                           ;"      "
006507:  000000000000                           ;"      "
006510:  000000000000                           ;"      "
006511:  000000000000                           ;"      "
006512:  000000000000                           ;"      "
006513:  000000000000                           ;"      "
006514:  000000000000                           ;"      "
006515:  000000000000                           ;"      "
006516:  000000000000                           ;"      "
006517:  000000000000                           ;"      "
006520:  000000000000                           ;"      "
006521:  000000000000                           ;"      "
006522:  000000000000                           ;"      "
006523:  000000000000                           ;"      "
006524:  000000000000                           ;"      "
006525:  000000000000                           ;"      "
006526:  000000000000                           ;"      "
006527:  000000000000                           ;"      "
006530:  000000000000                           ;"      "
006531:  000000000000                           ;"      "
006532:  000000000000                           ;"      "
006533:  000000000000                           ;"      "
006534:  000000000000                           ;"      "
006535:  000000000000                           ;"      "
006536:  000000000000                           ;"      "
006537:  000000000000                           ;"      "
006540:  000000000000                           ;"      "
006541:  000000000000                           ;"      "
006542:  000000000000                           ;"      "
006543:  000000000000                           ;"      "
006544:  000000000000                           ;"      "
006545:  000000000000                           ;"      "
006546:  000000000000                           ;"      "
006547:  000000000000                           ;"      "
006550:  000000000000                           ;"      "
006551:  000000000000                           ;"      "
006552:  000000000000                           ;"      "
006553:  000000000000                           ;"      "
006554:  000000000000                           ;"      "
006555:  000000000000                           ;"      "
006556:  000000000000                           ;"      "
006557:  000000000000                           ;"      "
006560:  000000000000                           ;"      "
006561:  000000000000                           ;"      "
006562:  000000000000                           ;"      "
006563:  000000000000                           ;"      "
006564:  000000000000                           ;"      "
006565:  000000000000                           ;"      "
006566:  000000000000                           ;"      "
006567:  000000000000                           ;"      "
006570:  000000000000                           ;"      "
006571:  000000000000                           ;"      "
006572:  000000000000                           ;"      "
006573:  000000000000                           ;"      "
006574:  000000000000                           ;"      "
006575:  000000000000                           ;"      "
006576:  000000000000                           ;"      "
006577:  000000000000                           ;"      "
006600:  000000000000                           ;"      "
006601:  000000000000                           ;"      "
006602:  000000000000                           ;"      "
006603:  000000000000                           ;"      "
006604:  000000000000                           ;"      "
006605:  000000000000                           ;"      "
006606:  000000000000                           ;"      "
006607:  000000000000                           ;"      "
006610:  000000000000                           ;"      "
006611:  000000000000                           ;"      "
006612:  000000000000                           ;"      "
006613:  000000000000                           ;"      "
006614:  000000000000                           ;"      "
006615:  000000000000                           ;"      "
006616:  000000000000                           ;"      "
006617:  000000000000                           ;"      "
006620:  000000000000                           ;"      "
006621:  000000000000                           ;"      "
006622:  000000000000                           ;"      "
006623:  000000000000                           ;"      "
006624:  014060301406                           ;"!@P8,&"
006625:  000000000000                           ;"      "
006626:  000000000000                           ;"      "
006627:  000000000000                           ;"      "
006630:  000000000000                           ;"      "
006631:  000000000000                           ;"      "
006632:  000000000000                           ;"      "
006633:  000000000000                           ;"      "
006634:  000000000000                           ;"      "
006635:  000000000000                           ;"      "
006636:  000000000000                           ;"      "
006637:  000000000000                           ;"      "
006640:  000000000000                           ;"      "
006641:  000000000000                           ;"      "
006642:  000000000000                           ;"      "
006643:  000000000000                           ;"      "
006644:  000000000000                           ;"      "
006645:  000000000000                           ;"      "
006646:  000000000000                           ;"      "
006647:  000000000000                           ;"      "
006650:  000000000000                           ;"      "
006651:  000000000000                           ;"      "
006652:  000000000000                           ;"      "
006653:  000000000000                           ;"      "
006654:  000000000000                           ;"      "
006655:  000000000000                           ;"      "
006656:  000000000000                           ;"      "
006657:  000000000000                           ;"      "
006660:  000000000000                           ;"      "
006661:  000000000000                           ;"      "
006662:  000000000000                           ;"      "
006663:  000000000000                           ;"      "
006664:  000000000000                           ;"      "
006665:  000000000000                           ;"      "
006666:  000000000000                           ;"      "
006667:  000000000000                           ;"      "
006670:  000000000000                           ;"      "
006671:  000000000000                           ;"      "
006672:  000000000000                           ;"      "
006673:  000000000000                           ;"      "
006674:  000000000000                           ;"      "
006675:  000000000000                           ;"      "
006676:  000000000000                           ;"      "
006677:  000000000000                           ;"      "
006700:  000000000000                           ;"      "
006701:  000000000000                           ;"      "
006702:  000000000000                           ;"      "
006703:  000000000000                           ;"      "
006704:  000000000000                           ;"      "
006705:  000000000000                           ;"      "
006706:  000000000000                           ;"      "
006707:  000000000000                           ;"      "
006710:  000000000000                           ;"      "
006711:  000000000000                           ;"      "
006712:  000000000000                           ;"      "
006713:  000000000000                           ;"      "
006714:  000000000000                           ;"      "
006715:  000000000000                           ;"      "
006716:  000000000000                           ;"      "
006717:  000000000000                           ;"      "
006720:  000000000000                           ;"      "
006721:  000000000000                           ;"      "
006722:  000000000000                           ;"      "
006723:  000000000000                           ;"      "
006724:  000000000000                           ;"      "
006725:  000000000000                           ;"      "
006726:  000000000000                           ;"      "
006727:  014060301406                           ;"!@P8,&"
006730:  000000000000                           ;"      "
006731:  000000000000                           ;"      "
006732:  000000000000                           ;"      "
006733:  000000000000                           ;"      "
006734:  000000000000                           ;"      "
006735:  000000000000                           ;"      "
006736:  000000000000                           ;"      "
006737:  000000000000                           ;"      "
006740:  000000000000                           ;"      "
006741:  000000000000                           ;"      "
006742:  000000000000                           ;"      "
006743:  000000000000                           ;"      "
006744:  000000000000                           ;"      "
006745:  000000000000                           ;"      "
006746:  000000000000                           ;"      "
006747:  000000000000                           ;"      "
006750:  000000000000                           ;"      "
006751:  000000000000                           ;"      "
006752:  000000000000                           ;"      "
006753:  000000000000                           ;"      "
006754:  000000000000                           ;"      "
006755:  000000000000                           ;"      "
006756:  000000000000                           ;"      "
006757:  000000000000                           ;"      "
006760:  000000000000                           ;"      "
006761:  000000000000                           ;"      "
006762:  000000000000                           ;"      "
006763:  000000000000                           ;"      "
006764:  000000000000                           ;"      "
006765:  000000000000                           ;"      "
006766:  000000000000                           ;"      "
006767:  000000000000                           ;"      "
006770:  000000000000                           ;"      "
006771:  000000000000                           ;"      "
006772:  000000000000                           ;"      "
006773:  000000000000                           ;"      "
006774:  000000000000                           ;"      "
006775:  000000000000                           ;"      "
006776:  000000000000                           ;"      "
006777:  000000000000                           ;"      "
007000:  000000000000                           ;"      "
007001:  000000000000                           ;"      "
007002:  000000000000                           ;"      "
007003:  000000000000                           ;"      "
007004:  000000000000                           ;"      "
007005:  000000000000                           ;"      "
007006:  000000000000                           ;"      "
007007:  000000000000                           ;"      "
007010:  000000000000                           ;"      "
007011:  000000000000                           ;"      "
007012:  000000000000                           ;"      "
007013:  000000000000                           ;"      "
007014:  000000000000                           ;"      "
007015:  000000000000                           ;"      "
007016:  000000000000                           ;"      "
007017:  000000000000                           ;"      "
007020:  000000000000                           ;"      "
007021:  000000000000                           ;"      "
007022:  000000000000                           ;"      "
007023:  000000000000                           ;"      "
007024:  000000000000                           ;"      "
007025:  000000000000                           ;"      "
007026:  000000000000                           ;"      "
007027:  000000000000                           ;"      "
007030:  000000000000                           ;"      "
007031:  000000000000                           ;"      "
007032:  014060301406                           ;"!@P8,&"
007033:  000000000000                           ;"      "
007034:  000000000000                           ;"      "
007035:  000000000000                           ;"      "
007036:  000000000000                           ;"      "
007037:  000000000000                           ;"      "
007040:  000000000000                           ;"      "
007041:  000000000000                           ;"      "
007042:  000000000000                           ;"      "
007043:  000000000000                           ;"      "
007044:  000000000000                           ;"      "
007045:  000000000000                           ;"      "
007046:  000000000000                           ;"      "
007047:  000000000000                           ;"      "
007050:  000000000000                           ;"      "
007051:  000000000000                           ;"      "
007052:  000000000000                           ;"      "
007053:  000000000000                           ;"      "
007054:  000000000000                           ;"      "
007055:  000000000000                           ;"      "
007056:  000000000000                           ;"      "
007057:  000000000000                           ;"      "
007060:  000000000000                           ;"      "
007061:  000000000000                           ;"      "
007062:  000000000000                           ;"      "
007063:  000000000000                           ;"      "
007064:  000000000000                           ;"      "
007065:  000000000000                           ;"      "
007066:  000000000000                           ;"      "
007067:  000000000000                           ;"      "
007070:  000000000000                           ;"      "
007071:  000000000000                           ;"      "
007072:  000000000000                           ;"      "
007073:  000000000000                           ;"      "
007074:  000000000000                           ;"      "
007075:  000000000000                           ;"      "
007076:  000000000000                           ;"      "
007077:  000000000000                           ;"      "
007100:  000000000000                           ;"      "
007101:  000000000000                           ;"      "
007102:  000000000000                           ;"      "
007103:  000000000000                           ;"      "
007104:  000000000000                           ;"      "
007105:  000000000000                           ;"      "
007106:  000000000000                           ;"      "
007107:  000000000000                           ;"      "
007110:  000000000000                           ;"      "
007111:  000000000000                           ;"      "
007112:  000000000000                           ;"      "
007113:  000000000000                           ;"      "
007114:  000000000000                           ;"      "
007115:  000000000000                           ;"      "
007116:  000000000000                           ;"      "
007117:  000000000000                           ;"      "
007120:  000000000000                           ;"      "
007121:  000000000000                           ;"      "
007122:  000000000000                           ;"      "
007123:  000000000000                           ;"      "
007124:  000000000000                           ;"      "
007125:  000000000000                           ;"      "
007126:  000000000000                           ;"      "
007127:  000000000000                           ;"      "
007130:  000000000000                           ;"      "
007131:  000000000000                           ;"      "
007132:  000000000000                           ;"      "
007133:  000000000000                           ;"      "
007134:  000000000000                           ;"      "
007135:  000000000000                           ;"      "
007136:  000000000000                           ;"      "
007137:  000000000000                           ;"      "
007140:  000000000000                           ;"      "
007141:  000000000000                           ;"      "
007142:  000000000000                           ;"      "
007143:  000000000000                           ;"      "
007144:  000000000000                           ;"      "
007145:  000000000000                           ;"      "
007146:  000000000000                           ;"      "
007147:  000000000000                           ;"      "
007150:  000000000000                           ;"      "
007151:  377777777777  sosg     17, @777777(17) ;"?_____"
007152:  377777777777  sosg     17, @777777(17) ;"?_____"
007153:  000000000002                           ;"     ""
007154:  000000010000                           ;"   !  "
007155:  000000201000                           ;"   0( "
007156:  000000401000                           ;"   @( "
007157:  000000000000                           ;"      "
007160:  000000000000                           ;"      "
007161:  000000000000                           ;"      "
007162:  000000000000                           ;"      "
007163:  000000000000                           ;"      "
007164:  000000000000                           ;"      "
007165:  000000000000                           ;"      "
007166:  000000000000                           ;"      "
007167:  000000000000                           ;"      "
007170:  000000000000                           ;"      "
007171:  000000000000                           ;"      "
007172:  000000000000                           ;"      "
007173:  000000000000                           ;"      "
007174:  000000000000                           ;"      "
007175:  000000000000                           ;"      "
007176:  000000000000                           ;"      "
007177:  000000000000                           ;"      "
007200:  000000000000                           ;"      "
007201:  000000000000                           ;"      "
007202:  000000000000                           ;"      "
007203:  000000000000                           ;"      "
007204:  000000000000                           ;"      "
007205:  000000000000                           ;"      "
007206:  000000000000                           ;"      "
007207:  000000000000                           ;"      "
007210:  000000000000                           ;"      "
007211:  000000000000                           ;"      "
007212:  000000000000                           ;"      "
007213:  000000000000                           ;"      "
007214:  000000000000                           ;"      "
007215:  000000000000                           ;"      "
007216:  000000000000                           ;"      "
007217:  000000000000                           ;"      "
007220:  000000000000                           ;"      "
007221:  000000000000                           ;"      "
007222:  000000000000                           ;"      "
007223:  000000000000                           ;"      "
007224:  000000000000                           ;"      "
007225:  000000000000                           ;"      "
007226:  000000000000                           ;"      "
007227:  000000000000                           ;"      "
007230:  000000000000                           ;"      "
007231:  000000000000                           ;"      "
007232:  000000000000                           ;"      "
007233:  000000000000                           ;"      "
007234:  000000000000                           ;"      "
007235:  000000000000                           ;"      "
007236:  000000000000                           ;"      "
007237:  000000000000                           ;"      "
007240:  000000000000                           ;"      "
007241:  000000000000                           ;"      "
007242:  000000000000                           ;"      "
007243:  000000000000                           ;"      "
007244:  000000000000                           ;"      "
007245:  000000000000                           ;"      "
007246:  000000000000                           ;"      "
007247:  000000000000                           ;"      "
007250:  000000000000                           ;"      "
007251:  777777777777  conso    774, @777777(17);"______"
007252:  500011075745  hll      0, 75745(11)    ;"H )'OE"
007253:  000000000000                           ;"      "
007254:  500567054770  hll      13, @54770(7)   ;"H%W%GX"
007255:  000000000000                           ;"      "
007256:  500011027312  hll      0, 27312(11)    ;"H )"[*"
007257:  000000000000                           ;"      "
007260:  500000075615  hll      0, 75615        ;"H  'N-"
007261:  000000000000                           ;"      "
007262:  500000006312  hll      0, 6312         ;"H   S*"
007263:  000000000000                           ;"      "
007264:  500203422103  hll      4, 422103(3)    ;"H"#B1#"
007265:  000000000000                           ;"      "
007266:  521202051456  hlloi    4, 51456(2)     ;"J*"%,N"
007267:  000000000000                           ;"      "
007270:  500000054745  hll      0, 54745        ;"H  %GE"
007271:  000000000000                           ;"      "
007272:  500574426556  hll      13, @426556(14) ;"H%\BUN"
007273:  000000000000                           ;"      "
007274:  500011116615  hll      0, 116615(11)   ;"H ))V-"
007275:  000000000000                           ;"      "
007276:  514505503114  hrlz     12, 503114(5)   ;"IE%H9,"
007277:  000000000001                           ;"     !"
007300:  100000002142                           ;"(   1B"
007301:  000000000001                           ;"     !"
007302:  500000011412  hll      0, 11412        ;"H  !,*"
007303:  000000000001                           ;"     !"
007304:  100000000013                           ;"(    +"
007305:  000000000001                           ;"     !"
007306:  500011032412  hll      0, 32412(11)    ;"H )#4*"
007307:  000000000001                           ;"     !"
007310:  500000137542  hll      0, 137542       ;"H  +]B"
007311:  000000000001                           ;"     !"
007312:  500567055224  hll      13, @55224(7)   ;"H%W%J4"
007313:  000000000001                           ;"     !"
007314:  500203357202  hll      4, 357202(3)    ;"H"#=Z""
007315:  000000000001                           ;"     !"
007316:  521203247157  hlloi    4, 247157(3)    ;"J*#4YO"
007317:  000000000001                           ;"     !"
007320:  100000002452                           ;"(   4J"
007321:  000000000001                           ;"     !"
007322:  500011160542  hll      0, 160542(11)   ;"H ).%B"
007323:  000000000001                           ;"     !"
007324:  500203357203  hll      4, 357203(3)    ;"H"#=Z#"
007325:  000000000002                           ;"     ""
007326:  535235734147  hrlei    4, @734147(15)  ;"KJ=[AG"
007327:  000000000002                           ;"     ""
007330:  522056062760  hllom    1, 62760(16)    ;"J0N&7P" "TBpex"
007331:  000000000002                           ;"     ""
007332:  514511165000  hrlz     12, 165000(11)  ;"IE).H "
007333:  000000000002                           ;"     ""
007334:  521201503566  hlloi    4, 503566(1)    ;"J*!H=V"
007335:  000000000002                           ;"     ""
007336:  100000000014                           ;"(    ,"
007337:  000000000002                           ;"     ""
007340:  100000002453                           ;"(   4K"
007341:  000000000002                           ;"     ""
007342:  100000002143                           ;"(   1C"
007343:  000000000002                           ;"     ""
007344:  500203357204  hll      4, 357204(3)    ;"H"#=Z$"
007345:  000000000003                           ;"     #"
007346:  521201503542  hlloi    4, 503542(1)    ;"J*!H=B"
007347:  000000000003                           ;"     #"
007350:  500343365632  hll      7, 365632(3)    ;"H#C>N:"
007351:  000000000003                           ;"     #"
007352:  100000002144                           ;"(   1D"
007353:  000000000003                           ;"     #"
007354:  500567061456  hll      13, @61456(7)   ;"H%W&,N"
007355:  000000000003                           ;"     #"
007356:  100000002454                           ;"(   4L"
007357:  000000000003                           ;"     #"
007360:  514505524206  hrlz     12, 524206(5)   ;"IE%JB&"
007361:  000000000004                           ;"     $"
007362:  100000000016                           ;"(    ."
007363:  000000000004                           ;"     $"
007364:  521201503543  hlloi    4, 503543(1)    ;"J*!H=C"
007365:  000000000004                           ;"     $"
007366:  100000001202                           ;"(   *""
007367:  000000000004                           ;"     $"
007370:  535237721075  hrlei    4, @721075(17)  ;"KJ?Z(]"
007371:  000000000004                           ;"     $"
007372:  100000002145                           ;"(   1E"
007373:  000000000004                           ;"     $"
007374:  521201445210  hlloi    4, 445210(1)    ;"J*!DJ(" "T(\fJD"
007375:  000000000004                           ;"     $"
007376:  500203374061  hll      4, 374061(3)    ;"H"#?@Q"
007377:  000000000004                           ;"     $"
007400:  100000002146                           ;"(   1F"
007401:  000000000005                           ;"     %"
007402:  521201503544  hlloi    4, 503544(1)    ;"J*!H=D"
007403:  000000000005                           ;"     %"
007404:  535237326562  hrlei    4, @326562(17)  ;"KJ?:UR" "W){-9"
007405:  000000000005                           ;"     %"
007406:  100000000017                           ;"(    /"
007407:  000000000005                           ;"     %"
007410:  500203422111  hll      4, 422111(3)    ;"H"#B1)"
007411:  000000000005                           ;"     %"
007412:  100000001203                           ;"(   *#"
007413:  000000000005                           ;"     %"
007414:  522551450760  hllom    13, 450760(11)  ;"J5IE'P" "TVLQx"
007415:  000000000005                           ;"     %"
007416:  500203343074  hll      4, 343074(3)    ;"H"#<8\"
007417:  000000000006                           ;"     &"
007420:  100000001204                           ;"(   *$"
007421:  000000000006                           ;"     &"
007422:  100000000703                           ;"(   '#"
007423:  000000000006                           ;"     &"
007424:  535232610546  hrlei    4, @610546(12)  ;"KJ:Q%F"
007425:  000000000006                           ;"     &"
007426:  521202451027  hlloi    4, 451027(2)    ;"J*"E(7"
007427:  000000000006                           ;"     &"
007430:  521201512727  hlloi    4, 512727(1)    ;"J*!I77"
007431:  000000000007                           ;"     '"
007432:  100000001234                           ;"(   *<"
007433:  000000000007                           ;"     '"
007434:  535236413406  hrlei    4, @413406(16)  ;"KJ>A<&"
007435:  000000000007                           ;"     '"
007436:  500203402466  hll      4, 402466(3)    ;"H"#@4V"
007437:  000000000007                           ;"     '"
007440:  500203334346  hll      4, 334346(3)    ;"H"#;CF"
007441:  000000000010                           ;"     ("
007442:  514503547432  hrlz     12, 547432(3)   ;"IE#L\:"
007443:  000000000010                           ;"     ("
007444:  521177323127  hlloi    3, @323127(17)  ;"J)_:97"
007445:  000000000010                           ;"     ("
007446:  500567077630  hll      13, @77630(7)   ;"H%W'^8"
007447:  000000000010                           ;"     ("
007450:  100000001045                           ;"(   (E"
007451:  000000000010                           ;"     ("
007452:  521614157216  hlloi    14, 157216(14)  ;"J.,-Z." "T8a^G"
007453:  000000000010                           ;"     ("
007454:  521410647205  hlloi    10, 647205(10)  ;"J,(TZ%"
007455:  000000000011                           ;"     )"
007456:  500000136504  hll      0, 136504       ;"H  +U$"
007457:  000000000011                           ;"     )"
007460:  521177472573  hlloi    3, @472573(17)  ;"J)_G5["
007461:  000000000011                           ;"     )"
007462:  100000000015                           ;"(    -"
007463:  000000000011                           ;"     )"
007464:  524133534571  hrlo     2, @534571(13)  ;"JA;KEY"
007465:  000000000011                           ;"     )"
007466:  100000000036                           ;"(    >"
007467:  000000000012                           ;"     *"
007470:  100000002316                           ;"(   3."
007471:  000000000013                           ;"     +"
007472:  525507553203  hrloi    12, 553203(7)   ;"JM'M:#"
007473:  000000000014                           ;"     ,"
007474:  100000000772                           ;"(   'Z"
007475:  000000000014                           ;"     ,"
007476:  522036177612  hllom    0, @177612(16)  ;"J0>/^*"
007477:  000000000015                           ;"     -"
007500:  100000001232                           ;"(   *:"
007501:  000000000015                           ;"     -"
007502:  100000000020                           ;"(    0"
007503:  000000000015                           ;"     -"
007504:  525507553210  hrloi    12, 553210(7)   ;"JM'M:(" "U4=VD"
007505:  000000000016                           ;"     ."
007506:  532253670542  hllem    5, 670542(13)   ;"K2KW%B" "VJ^q1"
007507:  000000000017                           ;"     /"
007510:  100000000032                           ;"(    :"
007511:  000000000017                           ;"     /"
007512:  514506221266  hrlz     12, 221266(6)   ;"IE&2*V"
007513:  000000000020                           ;"     0"
007514:  527360335626  hrlos    7, @335626      ;"J[P;N6"
007515:  000000000030                           ;"     8"
007516:  500005420306  hll      0, 420306(5)    ;"H %B#&"
007517:  000000000030                           ;"     8"
007520:  500002646107  hll      0, 646107(2)    ;"H "TQ'"
007521:  000000000033                           ;"     ;"
007522:  514504517106  hrlz     12, 517106(4)   ;"IE$IY&"
007523:  000000000040                           ;"     @"
007524:  500000151146  hll      0, 151146       ;"H  -)F"
007525:  000000000041                           ;"     A"
007526:  514510053105  hrlz     12, 53105(10)   ;"IE(%9%"
007527:  000000000100                           ;"    ! "
007530:  514450774626  hrlz     11, 774626(10)  ;"IDH_F6"
007531:  000000000100                           ;"    ! "
007532:  521053201014  hlloi    1, 201014(13)   ;"J(K0(,"
007533:  000000000120                           ;"    !0"
007534:  100521061325                           ;"(%1&+5"
007535:  000000000140                           ;"    !@"
007536:  514504122636  hrlz     12, 122636(4)   ;"IE$*6>"
007537:  000000000200                           ;"    " "
007540:  132253670512  fsc      5, 670512(13)   ;"+2KW%*"
007541:  000000000202                           ;"    """
007542:  132253670513  fsc      5, 670513(13)   ;"+2KW%+"
007543:  000000000214                           ;"    ","
007544:  132253670552  fsc      5, 670552(13)   ;"+2KW%J"
007545:  000000000236                           ;"    ">"
007546:  100004623214                           ;"( $R:,"
007547:  000000000254                           ;"    "L"
007550:  100336070014                           ;"(#>' ,"
007551:  000000000265                           ;"    "U"
007552:  117446542055                           ;")\FL0M"
007553:  000000000276                           ;"    "^"
007554:  100000046551                           ;"(  $UI"
007555:  000000000316                           ;"    #."
007556:  521063737750  hlloi    1, @737750(3)   ;"J(S[_H"
007557:  000000000323                           ;"    #3"
007560:  125523200776                           ;"*M30'^"
007561:  000000000336                           ;"    #>"
007562:  125523200742                           ;"*M30'B"
007563:  000000000337                           ;"    #?"
007564:  500241542106  hll      5, 542106(1)    ;"H"AL1&" "P\n\rD#"
007565:  000000000400                           ;"    $ "
007566:  100003241764                           ;"( #4/T"
007567:  000000000411                           ;"    $)"
007570:  100003241767                           ;"( #4/W"
007571:  000000000444                           ;"    $D"
007572:  125532423062                           ;"*M:B8R"
007573:  000000000462                           ;"    $R"
007574:  522056024654  hllom    1, 24654(16)    ;"J0N"FL" "TBp)V"
007575:  000000000500                           ;"    % "
007576:  100003241765                           ;"( #4/U"
007577:  000000000512                           ;"    %*"
007600:  100003241766                           ;"( #4/V"
007601:  000000000537                           ;"    %?"
007602:  100204516771                           ;"("$IWY"
007603:  000000000550                           ;"    %H"
007604:  100003241763                           ;"( #4/S"
007605:  000000000550                           ;"    %H"
007606:  100230416764                           ;"("8AWT"
007607:  000000000643                           ;"    &C"
007610:  100007115147                           ;"( ')IG"
007611:  000000000643                           ;"    &C"
007612:  100436020032                           ;"($>" :"
007613:  000000000654                           ;"    &L"
007614:  100436020033                           ;"($>" ;"
007615:  000000000663                           ;"    &S"
007616:  100003422520                           ;"( #B50"
007617:  000000000666                           ;"    &V"
007620:  113032234156                           ;")8:3AN"
007621:  000000000701                           ;"    '!"
007622:  100215352204                           ;"("-=2$"
007623:  000000000716                           ;"    '."
007624:  100215352201                           ;"("-=2!"
007625:  000000000722                           ;"    '2"
007626:  100215352203                           ;"("-=2#"
007627:  000000000727                           ;"    '7"
007630:  100215352202                           ;"("-=2""
007631:  000000000734                           ;"    '<"
007632:  100003637061                           ;"( #SXQ"
007633:  000000000742                           ;"    'B"
007634:  100003637063                           ;"( #SXS"
007635:  000000000752                           ;"    'J"
007636:  114451375210                           ;")DI?J("
007637:  000000000761                           ;"    'Q"
007640:  100004015203                           ;"( $!J#"
007641:  000000000771                           ;"    'Y"
007642:  524133540135  hrlo     2, @540135(13)  ;"JA;L!="
007643:  000000000777                           ;"    '_"
007644:  524133562134  hrlo     2, @562134(13)  ;"JA;N1<"
007645:  000000001000                           ;"    ( "
007646:  514504522302  hrlz     12, 522302(4)   ;"IE$J3""
007647:  000000001000                           ;"    ( "
007650:  100004015205                           ;"( $!J%"
007651:  000000001003                           ;"    (#"
007652:  100004015206                           ;"( $!J&"
007653:  000000001015                           ;"    (-"
007654:  100004015204                           ;"( $!J$"
007655:  000000001023                           ;"    (3"
007656:  100350242103                           ;"(#H41#"
007657:  000000001043                           ;"    (C"
007660:  100350242063                           ;"(#H40S"
007661:  000000001051                           ;"    (I"
007662:  100350242065                           ;"(#H40U"
007663:  000000001067                           ;"    (W"
007664:  100350242077                           ;"(#H40_"
007665:  000000001075                           ;"    (]"
007666:  100350242067                           ;"(#H40W"
007667:  000000001104                           ;"    )$"
007670:  100350242071                           ;"(#H40Y"
007671:  000000001107                           ;"    )'"
007672:  122114523721                           ;"*1,J?1"
007673:  000000001123                           ;"    )3"
007674:  112320037535                           ;")30#]="
007675:  000000001130                           ;"    )8"
007676:  112320037546                           ;")30#]F"
007677:  000000001143                           ;"    )C"
007700:  112320037523                           ;")30#]3"
007701:  000000001153                           ;"    )K"
007702:  112320037524                           ;")30#]4"
007703:  000000001163                           ;"    )S"
007704:  112320037562                           ;")30#]R"
007705:  000000001167                           ;"    )W"
007706:  112320037540                           ;")30#]@"
007707:  000000001175                           ;"    )]"
007710:  111451133542                           ;"),I+=B"
007711:  000000001200                           ;"    * "
007712:  111451133512                           ;"),I+=*"
007713:  000000001203                           ;"    *#"
007714:  100056155147                           ;"( N-IG"
007715:  000000001221                           ;"    *1"
007716:  100054456102                           ;"( LEQ""
007717:  000000001221                           ;"    *1"
007720:  103470420032                           ;"(<XB :"
007721:  000000001232                           ;"    *:"
007722:  103470420033                           ;"(<XB ;"
007723:  000000001241                           ;"    *A"
007724:  103470420034                           ;"(<XB <"
007725:  000000001250                           ;"    *H"
007726:  100052462520                           ;"( JF50"
007727:  000000001267                           ;"    *W"
007730:  103247752234                           ;"(:G]2<"
007731:  000000001312                           ;"    +*"
007732:  103247752201                           ;"(:G]2!"
007733:  000000001347                           ;"    +G"
007734:  103247752203                           ;"(:G]2#"
007735:  000000001354                           ;"    +L"
007736:  103247752202                           ;"(:G]2""
007737:  000000001361                           ;"    +Q"
007740:  103247752204                           ;"(:G]2$"
007741:  000000001366                           ;"    +V"
007742:  103247752207                           ;"(:G]2'"
007743:  000000001371                           ;"    +Y"
007744:  103247752206                           ;"(:G]2&"
007745:  000000001400                           ;"    , "
007746:  103247752205                           ;"(:G]2%"
007747:  000000001407                           ;"    ,'"
007750:  103213303210  xctri    303210(13)      ;"(:+8:("
007751:  000000001417                           ;"    ,/"
007752:  103402642103                           ;"(<"T1#"
007753:  000000001417                           ;"    ,/"
007754:  127340701061                           ;"*[@X(Q"
007755:  000000001420                           ;"    ,0"
007756:  121122437760                           ;"*)2C_P"
007757:  000000001427                           ;"    ,7"
007760:  100347431354                           ;"(#GC+L"
007761:  000000001437                           ;"    ,?"
007762:  100347431353                           ;"(#GC+K"
007763:  000000001440                           ;"    ,@"
007764:  100005623655                           ;"( %R>M"
007765:  000000001452                           ;"    ,J"
007766:  100005623656                           ;"( %R>N"
007767:  000000001464                           ;"    ,T"
007770:  100347433432                           ;"(#GC<:"
007771:  000000001470                           ;"    ,X"
007772:  100005623673                           ;"( %R>["
007773:  000000001503                           ;"    -#"
007774:  100347432472                           ;"(#GC4Z"
007775:  000000001504                           ;"    -$"
007776:  122056100136                           ;"*0N(!>"
007777:  000000001531                           ;"    -9"
010000:  122056100102                           ;"*0N(!""
010001:  000000001532                           ;"    -:"
010002:  122056027436                           ;"*0N"\>"
010003:  000000001536                           ;"    ->"
010004:  122056027402                           ;"*0N"\""
010005:  000000001541                           ;"    -A"
010006:  100005623701                           ;"( %R?!"
010007:  000000001545                           ;"    -E"
010010:  122056041155                           ;"*0N$)M"
010011:  000000001550                           ;"    -H"
010012:  122056041142                           ;"*0N$)B"
010013:  000000001564                           ;"    -T"
010014:  124246741244                           ;"*BF\*D"
010015:  000000001565                           ;"    -U"
010016:  115433303651                           ;")L;8>I"
010017:  000000001567                           ;"    -W"
010020:  115212450061                           ;")J*E Q"
010021:  000000001571                           ;"    -Y"
010022:  115433303652                           ;")L;8>J"
010023:  000000001573                           ;"    -["
010024:  115433303676                           ;")L;8>^"
010025:  000000001614                           ;"    .,"
010026:  115433303653                           ;")L;8>K"
010027:  000000001617                           ;"    ./"
010030:  115433303654                           ;")L;8>L"
010031:  000000001630                           ;"    .8"
010032:  115433303655                           ;")L;8>M"
010033:  000000001633                           ;"    .;"
010034:  100347432520                           ;"(#GC50"
010035:  000000001636                           ;"    .>"
010036:  122024331262                           ;"*04;*R"
010037:  000000001640                           ;"    .@"
010040:  122024331236                           ;"*04;*>"
010041:  000000001646                           ;"    .F"
010042:  122024331234                           ;"*04;*<"
010043:  000000001651                           ;"    .I"
010044:  122024331235                           ;"*04;*="
010045:  000000001660                           ;"    .P"
010046:  122024331232                           ;"*04;*:"
010047:  000000001674                           ;"    .\"
010050:  122024331233                           ;"*04;*;"
010051:  000000001677                           ;"    ._"
010052:  122024331240                           ;"*04;*@"
010053:  000000001713                           ;"    /+"
010054:  122024331237                           ;"*04;*?"
010055:  000000001715                           ;"    /-"
010056:  100205146746                           ;"("%,WF"
010057:  000000001742                           ;"    /B"
010060:  112320025762                           ;")30"OR"
010061:  000000001755                           ;"    /M"
010062:  112320026022                           ;")30"P2"
010063:  000000001756                           ;"    /N"
010064:  112320026556                           ;")30"UN"
010065:  000000001763                           ;"    /S"
010066:  112320026532                           ;")30"U:"
010067:  000000001771                           ;"    /Y"
010070:  112320026533                           ;")30"U;"
010071:  000000001777                           ;"    /_"
010072:  514504522303  hrlz     12, 522303(4)   ;"IE$J3#"
010073:  000000002000                           ;"    0 "
010074:  112320026535                           ;")30"U="
010075:  000000002007                           ;"    0'"
010076:  112320026534                           ;")30"U<"
010077:  000000002021                           ;"    01"
010100:  112320025245                           ;")30"JE"
010101:  000000002024                           ;"    04"
010102:  112320025764                           ;")30"OT"
010103:  000000002030                           ;"    08"
010104:  112320025767                           ;")30"OW"
010105:  000000002031                           ;"    09"
010106:  112320025770                           ;")30"OX"
010107:  000000002034                           ;"    0<"
010110:  112320025765                           ;")30"OU"
010111:  000000002040                           ;"    0@"
010112:  112320025766                           ;")30"OV"
010113:  000000002045                           ;"    0E"
010114:  112320025771                           ;")30"OY"
010115:  000000002052                           ;"    0J"
010116:  112320025763                           ;")30"OS"
010117:  000000002066                           ;"    0V"
010120:  100404127642                           ;"($$*^B"
010121:  000000002074                           ;"    0\"
010122:  100161732144                           ;"(!Q[1D"
010123:  000000002075                           ;"    0]"
010124:  100205352144                           ;"("%=1D"
010125:  000000002075                           ;"    0]"
010126:  124236015702                           ;"*B>!O""
010127:  000000002076                           ;"    0^"
010130:  124236106356                           ;"*B>(SN"
010131:  000000002110                           ;"    1("
010132:  124236106322                           ;"*B>(S2"
010133:  000000002121                           ;"    11"
010134:  124236106323                           ;"*B>(S3"
010135:  000000002132                           ;"    1:"
010136:  114534053674                           ;")E<%>\"
010137:  000000002146                           ;"    1F"
010140:  100401202200                           ;"($!02 "
010141:  000000002150                           ;"    1H"
010142:  124236020436                           ;"*B>"$>"
010143:  000000002152                           ;"    1J"
010144:  124236037306                           ;"*B>#[&"
010145:  000000002157                           ;"    1O"
010146:  124236037262                           ;"*B>#ZR"
010147:  000000002217                           ;"    2/"
010150:  124236022745                           ;"*B>"7E"
010151:  000000002236                           ;"    2>"
010152:  124236022732                           ;"*B>"7:"
010153:  000000002243                           ;"    2C"
010154:  100404671236                           ;"($$W*>"
010155:  000000002253                           ;"    2K"
010156:  100424774220                           ;"($4_B0"
010157:  000000002264                           ;"    2T"
010160:  125507553201                           ;"*M'M:!"
010161:  000000002277                           ;"    2_"
010162:  125507553202                           ;"*M'M:""
010163:  000000002301                           ;"    3!"
010164:  125507553205                           ;"*M'M:%"
010165:  000000002304                           ;"    3$"
010166:  122036177611                           ;"*0>/^)"
010167:  000000002305                           ;"    3%"
010170:  125507553206                           ;"*M'M:&"
010171:  000000002314                           ;"    3,"
010172:  125507553207                           ;"*M'M:'"
010173:  000000002327                           ;"    37"
010174:  125507553204                           ;"*M'M:$"
010175:  000000002332                           ;"    3:"
010176:  122036177617                           ;"*0>/^/"
010177:  000000002342                           ;"    3B"
010200:  100424775062                           ;"($4_HR"
010201:  000000002352                           ;"    3J"
010202:  100424775063                           ;"($4_HS"
010203:  000000002370                           ;"    3X"
010204:  125507553226                           ;"*M'M:6"
010205:  000000002570                           ;"    5X"
010206:  125507553224                           ;"*M'M:4"
010207:  000000002576                           ;"    5^"
010210:  125507553227                           ;"*M'M:7"
010211:  000000002602                           ;"    6""
010212:  125507553106                           ;"*M'M9&"
010213:  000000002605                           ;"    6%"
010214:  125507553104                           ;"*M'M9$"
010215:  000000002607                           ;"    6'"
010216:  122036177613                           ;"*0>/^+"
010217:  000000002612                           ;"    6*"
010220:  125507553062                           ;"*M'M8R"
010221:  000000002614                           ;"    6,"
010222:  125507553107                           ;"*M'M9'"
010223:  000000002616                           ;"    6."
010224:  122036177614                           ;"*0>/^,"
010225:  000000002620                           ;"    60"
010226:  125507553063                           ;"*M'M8S"
010227:  000000002621                           ;"    61"
010230:  125507530310                           ;"*M'K#("
010231:  000000002633                           ;"    6;"
010232:  125507530261                           ;"*M'K"Q"
010233:  000000002640                           ;"    6@"
010234:  122036177616                           ;"*0>/^."
010235:  000000002650                           ;"    6H"
010236:  122036177620                           ;"*0>/^0"
010237:  000000002651                           ;"    6I"
010240:  100331465556                           ;"(#9FMN"
010241:  000000002666                           ;"    6V"
010242:  121000144462                           ;"*( ,DR"
010243:  000000002703                           ;"    7#"
010244:  121000144463                           ;"*( ,DS"
010245:  000000002726                           ;"    76"
010246:  125507553215                           ;"*M'M:-"
010247:  000000002740                           ;"    7@"
010250:  125507553066                           ;"*M'M8V"
010251:  000000002745                           ;"    7E"
010252:  125507553075                           ;"*M'M8]"
010253:  000000002750                           ;"    7H"
010254:  125507553065                           ;"*M'M8U"
010255:  000000002756                           ;"    7N"
010256:  122036177615                           ;"*0>/^-"
010257:  000000002770                           ;"    7X"
010260:  125521405006                           ;"*M1@H&"
010261:  000000002772                           ;"    7Z"
010262:  115164026472                           ;")IT"TZ"
010263:  000000003004                           ;"    8$"
010264:  115164026504                           ;")IT"U$"
010265:  000000003007                           ;"    8'"
010266:  115164026463                           ;")IT"TS"
010267:  000000003012                           ;"    8*"
010270:  115164026454                           ;")IT"TL"
010271:  000000003015                           ;"    8-"
010272:  115164026457                           ;")IT"TO"
010273:  000000003020                           ;"    80"
010274:  115164026502                           ;")IT"U""
010275:  000000003023                           ;"    83"
010276:  113733466566                           ;")?;FUV"
010277:  000000003026                           ;"    86"
010300:  125475017012                           ;"*L]!X*"
010301:  000000003031                           ;"    89"
010302:  116756407360                           ;")WN@[P"
010303:  000000003034                           ;"    8<"
010304:  116756410464                           ;")WNA$T"
010305:  000000003055                           ;"    8M"
010306:  125532423114                           ;"*M:B9,"
010307:  000000003060                           ;"    8P"
010310:  125532423063                           ;"*M:B8S"
010311:  000000003102                           ;"    9""
010312:  112272224220                           ;")2Z2B0"
010313:  000000003125                           ;"    95"
010314:  127360375220                           ;"*[P?J0"
010315:  000000003127                           ;"    97"
010316:  127360375513                           ;"*[P?M+"
010317:  000000003131                           ;"    99"
010320:  127360341054                           ;"*[P<(L"
010321:  000000003133                           ;"    9;"
010322:  127360341057                           ;"*[P<(O"
010323:  000000003137                           ;"    9?"
010324:  127360375172                           ;"*[P?IZ"
010325:  000000003145                           ;"    9E"
010326:  127360375173                           ;"*[P?I["
010327:  000000003146                           ;"    9F"
010330:  127360376162                           ;"*[P?QR"
010331:  000000003157                           ;"    9O"
010332:  127360341775                           ;"*[P</]"
010333:  000000003177                           ;"    9_"
010334:  100454322344                           ;"($L:3D"
010335:  000000003202                           ;"    :""
010336:  127360341642                           ;"*[P<.B"
010337:  000000003206                           ;"    :&"
010340:  127360375174                           ;"*[P?I\"
010341:  000000003213                           ;"    :+"
010342:  127360342006                           ;"*[P<0&"
010343:  000000003216                           ;"    :."
010344:  127360420744                           ;"*[PB'D"
010345:  000000003231                           ;"    :9"
010346:  127360420732                           ;"*[PB':"
010347:  000000003242                           ;"    :B"
010350:  127360373771                           ;"*[P??Y"
010351:  000000003244                           ;"    :D"
010352:  127360373772                           ;"*[P??Z"
010353:  000000003271                           ;"    :Y"
010354:  127340661012                           ;"*[@V(*"
010355:  000000003300                           ;"    ; "
010356:  127340660762                           ;"*[@V'R"
010357:  000000003320                           ;"    ;0"
010360:  127340660764                           ;"*[@V'T"
010361:  000000003327                           ;"    ;7"
010362:  127340661006                           ;"*[@V(&"
010363:  000000003335                           ;"    ;="
010364:  127360404242                           ;"*[P@BB"
010365:  000000003340                           ;"    ;@"
010366:  112272271246                           ;")2Z7*F"
010367:  000000003344                           ;"    ;D"
010370:  127360352416                           ;"*[P=4."
010371:  000000003374                           ;"    ;\"
010372:  127360352371                           ;"*[P=3Y"
010373:  000000003377                           ;"    ;_"
010374:  127360352372                           ;"*[P=3Z"
010375:  000000003400                           ;"    < "
010376:  127360352373                           ;"*[P=3["
010377:  000000003475                           ;"    <]"
010400:  127360352375                           ;"*[P=3]"
010401:  000000003513                           ;"    =+"
010402:  127360352374                           ;"*[P=3\"
010403:  000000003517                           ;"    =/"
010404:  127360347670                           ;"*[P<^X"
010405:  000000003524                           ;"    =4"
010406:  100425355077                           ;"($5=H_"
010407:  000000003536                           ;"    =>"
010410:  125532416051                           ;"*M:API"
010411:  000000003537                           ;"    =?"
010412:  125532414733                           ;"*M:AG;"
010413:  000000003540                           ;"    =@"
010414:  125532414737                           ;"*M:AG?"
010415:  000000003602                           ;"    >""
010416:  125532414741                           ;"*M:AGA"
010417:  000000003611                           ;"    >)"
010420:  100006732051                           ;"( &[0I"
010421:  000000003612                           ;"    >*"
010422:  100372452626                           ;"(#ZE66"
010423:  000000003663                           ;"    >S"
010424:  113773670514                           ;")?[W%,"
010425:  000000003667                           ;"    >W"
010426:  113773606012                           ;")?[PP*"
010427:  000000003676                           ;"    >^"
010430:  113773611216                           ;")?[Q*."
010431:  000000003701                           ;"    ?!"
010432:  113773611203                           ;")?[Q*#"
010433:  000000003710                           ;"    ?("
010434:  113773611204                           ;")?[Q*$"
010435:  000000003722                           ;"    ?2"
010436:  113773532327                           ;")?[K37"
010437:  000000003734                           ;"    ?<"
010440:  113773667246                           ;")?[VZF"
010441:  000000003745                           ;"    ?E"
010442:  113773560455                           ;")?[N$M"
010443:  000000003753                           ;"    ?K"
010444:  100231375651                           ;"("9?NI"
010445:  000000003763                           ;"    ?S"
010446:  113773626131                           ;")?[RQ9"
010447:  000000003767                           ;"    ?W"
010450:  113773577420                           ;")?[O\0"
010451:  000000003770                           ;"    ?X"
010452:  514504522304  hrlz     12, 522304(4)   ;"IE$J3$"
010453:  000000004000                           ;"    @ "
010454:  125521342770                           ;"*M1<7X"
010455:  000000004001                           ;"    @!"
010456:  125521342732                           ;"*M1<7:"
010457:  000000004035                           ;"    @="
010460:  127443024131                           ;"*\C"A9"
010461:  000000004037                           ;"    @?"
010462:  127443024111                           ;"*\C"A)"
010463:  000000004040                           ;"    @@"
010464:  127443024112                           ;"*\C"A*"
010465:  000000004041                           ;"    @A"
010466:  100007425347                           ;"( 'BKG"
010467:  000000004045                           ;"    @E"
010470:  127362001132                           ;"*[R ):"
010471:  000000004055                           ;"    @M"
010472:  127362001071                           ;"*[R (Y"
010473:  000000004056                           ;"    @N"
010474:  127361721745                           ;"*[QZ/E"
010475:  000000004064                           ;"    @T"
010476:  100000140421                           ;"(  ,$1"
010477:  000000004074                           ;"    @\"
010500:  100003262200                           ;"( #62 "
010501:  000000004076                           ;"    @^"
010502:  126326224412                           ;"*S62D*"
010503:  000000004101                           ;"    A!"
010504:  100417270622                           ;"($/7&2"
010505:  000000004107                           ;"    A'"
010506:  100006621326                           ;"( &R+6"
010507:  000000004107                           ;"    A'"
010510:  100372507504                           ;"(#ZH]$"
010511:  000000004111                           ;"    A)"
010512:  123451440521                           ;"*<ID%1"
010513:  000000004117                           ;"    A/"
010514:  123451440473                           ;"*<ID$["
010515:  000000004123                           ;"    A3"
010516:  123451440463                           ;"*<ID$S"
010517:  000000004126                           ;"    A6"
010520:  123451440466                           ;"*<ID$V"
010521:  000000004130                           ;"    A8"
010522:  123451440471                           ;"*<ID$Y"
010523:  000000004140                           ;"    A@"
010524:  123451402012                           ;"*<I@0*"
010525:  000000004143                           ;"    AC"
010526:  123451401770                           ;"*<I@/X"
010527:  000000004161                           ;"    AQ"
010530:  125521771511                           ;"*M1_-)"
010531:  000000004164                           ;"    AT"
010532:  100000140413                           ;"(  ,$+"
010533:  000000004165                           ;"    AU"
010534:  100007424673                           ;"( 'BF["
010535:  000000004166                           ;"    AV"
010536:  126605733540                           ;"*V%[=@"
010537:  000000004176                           ;"    A^"
010540:  121264301416                           ;"**T8,."
010541:  000000004200                           ;"    B "
010542:  127442007074                           ;"*\B X\"
010543:  000000004201                           ;"    B!"
010544:  127140201014                           ;"*Y@0(,"
010545:  000000004202                           ;"    B""
010546:  127140200770                           ;"*Y@0'X"
010547:  000000004214                           ;"    B,"
010550:  100424563446                           ;"($4N<F"
010551:  000000004216                           ;"    B."
010552:  115212435436                           ;")J*CL>"
010553:  000000004226                           ;"    B6"
010554:  117410743205                           ;")\(\:%"
010555:  000000004261                           ;"    BQ"
010556:  117410743204                           ;")\(\:$"
010557:  000000004267                           ;"    BW"
010560:  115432436263                           ;")L:CRS"
010561:  000000004300                           ;"    C "
010562:  115432436264                           ;")L:CRT"
010563:  000000004310                           ;"    C("
010564:  100242137750                           ;"("B+_H"
010565:  000000004313                           ;"    C+"
010566:  100243327035                           ;"("C:X="
010567:  000000004636                           ;"    F>"
010570:  100243411123                           ;"("CA)3"
010571:  000000004637                           ;"    F?"
010572:  100243366356                           ;"("C>SN"
010573:  000000004640                           ;"    F@"
010574:  100243323362                           ;"("C:;R"
010575:  000000004641                           ;"    FA"
010576:  114610412733                           ;")F(A7;"
010577:  000000004642                           ;"    FB"
010600:  114611176066                           ;")F)/PV"
010601:  000000004643                           ;"    FC"
010602:  114610607103                           ;")F(PY#"
010603:  000000004644                           ;"    FD"
010604:  100244146611                           ;"("D,V)"
010605:  000000004645                           ;"    FE"
010606:  536404621430  hrlem    10, 621430(4)   ;"KT$R,8" "WP&#\f"
010607:  000000004645                           ;"    FE"
010610:  100242136372                           ;"("B+SZ"
010611:  000000004646                           ;"    FF"
010612:  100242136562                           ;"("B+UR"
010613:  000000004647                           ;"    FG"
010614:  100242140102                           ;"("B,!""
010615:  000000004650                           ;"    FH"
010616:  114527343302                           ;")E7<;""
010617:  000000004651                           ;"    FI"
010620:  114527522754                           ;")E7J7L"
010621:  000000004652                           ;"    FJ"
010622:  114527522711                           ;")E7J7)"
010623:  000000004657                           ;"    FO"
010624:  100242142045                           ;"("B,0E"
010625:  000000004663                           ;"    FS"
010626:  114527522713                           ;")E7J7+"
010627:  000000004670                           ;"    FX"
010630:  114527522714                           ;")E7J7,"
010631:  000000004674                           ;"    F\"
010632:  100455531414                           ;"($MK,,"
010633:  000000004704                           ;"    G$"
010634:  100007425364                           ;"( 'BKT"
010635:  000000004734                           ;"    G<"
010636:  100003451136                           ;"( #E)>"
010637:  000000004741                           ;"    GA"
010640:  127442576074                           ;"*\BOP\"
010641:  000000004743                           ;"    GC"
010642:  117446624774                           ;")\FRG\"
010643:  000000004745                           ;"    GE"
010644:  117446625014                           ;")\FRH,"
010645:  000000004746                           ;"    GF"
010646:  117446624763                           ;")\FRGS"
010647:  000000004750                           ;"    GH"
010650:  117446624765                           ;")\FRGU"
010651:  000000004763                           ;"    GS"
010652:  117647146642                           ;")^G,VB"
010653:  000000004770                           ;"    GX"
010654:  112425625745                           ;")45ROE"
010655:  000000005002                           ;"    H""
010656:  112425625613                           ;")45RN+"
010657:  000000005007                           ;"    H'"
010660:  112425625614                           ;")45RN,"
010661:  000000005011                           ;"    H)"
010662:  112425705132                           ;")45XI:"
010663:  000000005016                           ;"    H."
010664:  112425706223                           ;")45XR3"
010665:  000000005025                           ;"    H5"
010666:  112425706224                           ;")45XR4"
010667:  000000005033                           ;"    H;"
010670:  112425706226                           ;")45XR6"
010671:  000000005035                           ;"    H="
010672:  115212435631                           ;")J*CN9"
010673:  000000005041                           ;"    HA"
010674:  115212435623                           ;")J*CN3"
010675:  000000005042                           ;"    HB"
010676:  115212435630                           ;")J*CN8"
010677:  000000005043                           ;"    HC"
010700:  115212435606                           ;")J*CN&"
010701:  000000005054                           ;"    HL"
010702:  100451010622                           ;"($I!&2"
010703:  000000005057                           ;"    HO"
010704:  100453210175                           ;"($K1!]"
010705:  000000005104                           ;"    I$"
010706:  100007343215                           ;"( '<:-"
010707:  000000005112                           ;"    I*"
010710:  100007343235                           ;"( '<:="
010711:  000000005123                           ;"    I3"
010712:  100400615632                           ;"($ QN:"
010713:  000000005141                           ;"    IA"
010714:  100005046625                           ;"( %$V5"
010715:  000000006225                           ;"    R5"
010716:  500003014202  hll      0, 14202(3)     ;"H #!B""
010717:  000000006225                           ;"    R5"
010720:  100404335666                           ;"($$;NV"
010721:  000000006226                           ;"    R6"
010722:  114510457052                           ;")E(EXJ"
010723:  000000006276                           ;"    R^"
010724:  113773566436                           ;")?[NT>"
010725:  000000006277                           ;"    R_"
010726:  521016467022  hlloi    0, 467022(16)   ;"J(.FX2" "T tn\t"
010727:  000000006300                           ;"    S "
010730:  100331756132                           ;"(#9]Q:"
010731:  000000006300                           ;"    S "
010732:  121016467023                           ;"*(.FX3"
010733:  000000006301                           ;"    S!"
010734:  121016467024                           ;"*(.FX4"
010735:  000000006302                           ;"    S""
010736:  122572503165                           ;"*5ZH9U"
010737:  000000006303                           ;"    S#"
010740:  522572503132  hllom    13, @503132(12) ;"J5ZH9:"
010741:  000000006303                           ;"    S#"
010742:  122572503133                           ;"*5ZH9;"
010743:  000000006304                           ;"    S$"
010744:  122572503134                           ;"*5ZH9<"
010745:  000000006305                           ;"    S%"
010746:  113733413562                           ;")?;A=R"
010747:  000000006306                           ;"    S&"
010750:  113733413563                           ;")?;A=S"
010751:  000000006307                           ;"    S'"
010752:  113733413564                           ;")?;A=T"
010753:  000000006310                           ;"    S("
010754:  122444146722                           ;"*4D,W2"
010755:  000000006311                           ;"    S)"
010756:  122444146723                           ;"*4D,W3"
010757:  000000006312                           ;"    S*"
010760:  122444146724                           ;"*4D,W4"
010761:  000000006313                           ;"    S+"
010762:  100262716102                           ;"("RYQ""
010763:  000000006314                           ;"    S,"
010764:  100262716103                           ;"("RYQ#"
010765:  000000006355                           ;"    SM"
010766:  100262716104                           ;"("RYQ$"
010767:  000000006416                           ;"    T."
010770:  124033762357                           ;"*@;^3O"
010771:  000000006457                           ;"    TO"
010772:  121121235357                           ;"*)13KO"
010773:  000000006462                           ;"    TR"
010774:  112214711357                           ;")2,Y+O"
010775:  000000006465                           ;"    TU"
010776:  121153265556                           ;"*)K6MN"
010777:  000000006470                           ;"    TX"
011000:  122056075466                           ;"*0N'LV"
011001:  000000006504                           ;"    U$"
011002:  121224152043                           ;"**4-0C"
011003:  000000006507                           ;"    U'"
011004:  122056027477                           ;"*0N"\_"
011005:  000000006510                           ;"    U("
011006:  122056025226                           ;"*0N"J6"
011007:  000000006513                           ;"    U+"
011010:  122056117126                           ;"*0N)Y6"
011011:  000000006514                           ;"    U,"
011012:  123533676123                           ;"*=;WQ3"
011013:  000000006515                           ;"    U-"
011014:  122723422462                           ;"*73B4R"
011015:  000000006516                           ;"    U."
011016:  127137005402                           ;"*Y? L""
011017:  000000006517                           ;"    U/"
011020:  127137005403                           ;"*Y? L#"
011021:  000000006520                           ;"    U0"
011022:  127137005404                           ;"*Y? L$"
011023:  000000006521                           ;"    U1"
011024:  100425355075                           ;"($5=H]"
011025:  000000006522                           ;"    U2"
011026:  121264277452                           ;"**T7\J"
011027:  000000006523                           ;"    U3"
011030:  114450774602                           ;")DH_F""
011031:  000000006524                           ;"    U4"
011032:  114450774532                           ;")DH_E:"
011033:  000000006623                           ;"    V3"
011034:  114451051462                           ;")DI%,R"
011035:  000000006625                           ;"    V5"
011036:  114451006722                           ;")DI W2"
011037:  000000006626                           ;"    V6"
011040:  114450774603                           ;")DH_F#"
011041:  000000006627                           ;"    V7"
011042:  114450774533                           ;")DH_E;"
011043:  000000006726                           ;"    W6"
011044:  114451051463                           ;")DI%,S"
011045:  000000006730                           ;"    W8"
011046:  114451006723                           ;")DI W3"
011047:  000000006731                           ;"    W9"
011050:  114450774604                           ;")DH_F$"
011051:  000000006732                           ;"    W:"
011052:  114450774534                           ;")DH_E<"
011053:  000000007031                           ;"    X9"
011054:  114451051464                           ;")DI%,T"
011055:  000000007033                           ;"    X;"
011056:  114451006724                           ;")DI W4"
011057:  000000007034                           ;"    X<"
011060:  100347432060                           ;"(#GC0P"
011061:  000000007035                           ;"    X="
011062:  100347432072                           ;"(#GC0Z"
011063:  000000007135                           ;"    Y="
011064:  100347432146                           ;"(#GC1F"
011065:  000000007136                           ;"    Y>"
011066:  124236022560                           ;"*B>"5P"
011067:  000000007137                           ;"    Y?"
011070:  112763165224                           ;")7S.J4"
011071:  000000007142                           ;"    YB"
011072:  500003637112  hll      0, 637112(3)    ;"H #SY*"
011073:  000000007142                           ;"    YB"
011074:  112272201416                           ;")2Z0,."
011075:  000000007143                           ;"    YC"
011076:  100204520225                           ;"("$J"5"
011077:  000000007144                           ;"    YD"
011100:  100204520206                           ;"("$J"&"
011101:  000000007145                           ;"    YE"
011102:  100204520605                           ;"("$J&%"
011103:  000000007146                           ;"    YF"
011104:  100204520566                           ;"("$J%V"
011105:  000000007147                           ;"    YG"
011106:  100206323630                           ;"("&:>8"
011107:  000000007150                           ;"    YH"
011110:  112317616632                           ;")3/QV:"
011111:  000000007151                           ;"    YI"
011112:  121121230632                           ;"*)13&:"
011113:  000000007152                           ;"    YJ"
011114:  122723371220                           ;"*73?*0"
011115:  000000007153                           ;"    YK"
011116:  100007131152                           ;"( '+)J"
011117:  000000007154                           ;"    YL"
011120:  100007131153                           ;"( '+)K"
011121:  000000007155                           ;"    YM"
011122:  100007131154                           ;"( '+)L"
011123:  000000007156                           ;"    YN"
011124:  127360336750                           ;"*[P;WH"
011125:  000000007157                           ;"    YO"
011126:  127360412136                           ;"*[PA1>"
011127:  000000007207                           ;"    Z'"
011130:  127360341436                           ;"*[P<,>"
011131:  000000007210                           ;"    Z("
011132:  100001134033                           ;"( !+@;"
011133:  000000007211                           ;"    Z)"
011134:  100000064001                           ;"(  &@!"
011135:  000000007211                           ;"    Z)"
011136:  101460261572                           ;"(,P6-Z"
011137:  000000007212                           ;"    Z*"
011140:  101460261554                           ;"(,P6-L"
011141:  000000007213                           ;"    Z+"
011142:  100424751601                           ;"($4].!"
011143:  000000007214                           ;"    Z,"
011144:  114505006412                           ;")E% T*"
011145:  000000007215                           ;"    Z-"
011146:  113774050754                           ;")?\%'L"
011147:  000000007216                           ;"    Z."
011150:  113773566466                           ;")?[NTV"
011151:  000000007236                           ;"    Z>"
011152:  115432433205                           ;")L:C:%"
011153:  000000007237                           ;"    Z?"
011154:  113721200504                           ;")?10%$"
011155:  000000007252                           ;"    ZJ"
011156:  514504715357  hrlz     12, 715357(4)   ;"IE$YKO"
011157:  000000010000                           ;"   !  "
011160:  514504705511  hrlz     12, 705511(4)   ;"IE$XM)"
011161:  000000020000                           ;"   "  "
011162:  514504055527  hrlz     12, 55527(4)    ;"IE$%M7"
011163:  000000040000                           ;"   $  "
011164:  514507113156  hrlz     12, 113156(7)   ;"IE')9N"
011165:  000000100000                           ;"   (  "
011166:  514511217566  hrlz     12, 217566(11)  ;"IE)1]V"
011167:  000000200000                           ;"   0  "
011170:  514506434061  hrlz     12, 434061(6)   ;"IE&C@Q"
011171:  000000400000                           ;"   @  "
011172:  500000001226  hll      0, 1226         ;"H   *6"
011173:  000001525252                           ;"  !JJJ"
011174:  500402755646  hll      10, 755646(2)   ;"H$"]NF"
011175:  254000000000  jrst     0               ;"5@    " "+\0\0\0\0"
011176:  513773606016  hllzs    17, @606016(13) ;"I?[PP."
011177:  254200000000  halt     0               ;"5B    "
011200:  100003175106                           ;"( #/I&"
011201:  260740000000  pushj    17, 0           ;"6'@   "
011202:  100007115717                           ;"( ')O/"
011203:  261740000000  push     17, 0           ;"6/@   " ",>\0\0\0"
011204:  100006735146                           ;"( &[IF"
011205:  262740000000  pop      17, 0           ;"67@   " ",^\0\0\0"
011206:  100000130566                           ;"(  +%V"
011207:  263740000000  popj     17,             ;"6?@   "
011210:  026524643477                           ;""U4T<_"
011211:  000000000000                           ;"      "
011212:  000000000000                           ;"      "
011213:  000000000000                           ;"      "
011214:  000000000000                           ;"      "
011215:  000000000000                           ;"      "
011216:  000000000000                           ;"      "
011217:  000000000000                           ;"      "
011220:  000000000000                           ;"      "
011221:  000000000000                           ;"      "
011222:  000000000000                           ;"      "
011223:  000000000000                           ;"      "
011224:  000000000000                           ;"      "
011225:  000000000000                           ;"      "
011226:  000000000000                           ;"      "
011227:  000000000000                           ;"      "
011230:  000000000000                           ;"      "
011231:  000000000000                           ;"      "
011232:  000000000000                           ;"      "
011233:  000000000000                           ;"      "
011234:  000000000000                           ;"      "
011235:  000000000000                           ;"      "
011236:  000000000000                           ;"      "
011237:  000000000000                           ;"      "
011240:  000000000000                           ;"      "
011241:  000000000000                           ;"      "
011242:  000000000000                           ;"      "
011243:  000000000000                           ;"      "
011244:  000000000000                           ;"      "
011245:  000000000000                           ;"      "
011246:  000000000000                           ;"      "
011247:  000000000000                           ;"      "
011250:  000000000000                           ;"      "
011251:  000000000000                           ;"      "
011252:  000000000000                           ;"      "
011253:  000000000000                           ;"      "
011254:  000000000000                           ;"      "
011255:  000000000000                           ;"      "
011256:  000000000000                           ;"      "
011257:  000000000000                           ;"      "
011260:  000000000000                           ;"      "
011261:  000000000000                           ;"      "
011262:  000000000000                           ;"      "
011263:  000000000000                           ;"      "
011264:  000000000000                           ;"      "
011265:  000000000000                           ;"      "
011266:  000000000000                           ;"      "
011267:  000000000000                           ;"      "
011270:  000000000000                           ;"      "
011271:  000000000000                           ;"      "
011272:  000000000000                           ;"      "
011273:  000000000000                           ;"      "
011274:  000000000000                           ;"      "
011275:  000000000000                           ;"      "
011276:  000000000000                           ;"      "
011277:  000000000000                           ;"      "
011300:  000000000000                           ;"      "
011301:  000000000000                           ;"      "
011302:  000000000000                           ;"      "
011303:  000000000000                           ;"      "
011304:  000000000000                           ;"      "
011305:  000000000000                           ;"      "
011306:  000000000000                           ;"      "
011307:  000000000000                           ;"      "
011310:  000000000000                           ;"      "
011311:  000000000000                           ;"      "
011312:  000000000000                           ;"      "
011313:  000000000000                           ;"      "
011314:  000000000000                           ;"      "
011315:  000000000000                           ;"      "
011316:  000000000000                           ;"      "
011317:  000000000000                           ;"      "
011320:  000000000000                           ;"      "
011321:  000000000000                           ;"      "
011322:  000000000000                           ;"      "
011323:  000000000000                           ;"      "
011324:  000000000000                           ;"      "
011325:  000000000000                           ;"      "
011326:  000000000000                           ;"      "
011327:  000000000000                           ;"      "
011330:  000000000000                           ;"      "
011331:  000000000000                           ;"      "
011332:  000000000000                           ;"      "
011333:  000000000000                           ;"      "
011334:  000000000000                           ;"      "
011335:  000000000000                           ;"      "
011336:  000000000000                           ;"      "
011337:  000000000000                           ;"      "
011340:  000000000000                           ;"      "
011341:  000000000000                           ;"      "
011342:  000000000000                           ;"      "
011343:  000000000000                           ;"      "
011344:  000000000000                           ;"      "
011345:  000000000000                           ;"      "
011346:  000000000000                           ;"      "
011347:  000000000000                           ;"      "
011350:  000000000000                           ;"      "
011351:  000000000000                           ;"      "
011352:  000000000000                           ;"      "
011353:  000000000000                           ;"      "
011354:  000000000000                           ;"      "
011355:  000000000000                           ;"      "
011356:  000000000000                           ;"      "
011357:  000000000000                           ;"      "
011360:  000000000000                           ;"      "
011361:  000000000000                           ;"      "
011362:  000000000000                           ;"      "
011363:  000000000000                           ;"      "
011364:  000000000000                           ;"      "
011365:  000000000000                           ;"      "
011366:  000000000000                           ;"      "
011367:  000000000000                           ;"      "
011370:  000000000000                           ;"      "
011371:  000000000000                           ;"      "
011372:  000000000000                           ;"      "
011373:  000000000000                           ;"      "
011374:  000000000000                           ;"      "
011375:  000000000000                           ;"      "
011376:  000000000000                           ;"      "
011377:  000000000000                           ;"      "
011400:  000000000000                           ;"      "
011401:  000000000000                           ;"      "
011402:  000000000000                           ;"      "
011403:  000000000000                           ;"      "
011404:  000000000000                           ;"      "
011405:  000000000000                           ;"      "
011406:  000000000000                           ;"      "
011407:  000000000000                           ;"      "
011410:  000000000000                           ;"      "
011411:  000000000000                           ;"      "
011412:  000000000000                           ;"      "
011413:  000000000000                           ;"      "
011414:  000000000000                           ;"      "
011415:  000000000000                           ;"      "
011416:  000000000000                           ;"      "
011417:  000000000000                           ;"      "
011420:  000000000000                           ;"      "
011421:  000000000000                           ;"      "
011422:  000000000000                           ;"      "
011423:  000000000000                           ;"      "
011424:  000000000000                           ;"      "
011425:  000000000000                           ;"      "
011426:  000000000000                           ;"      "
011427:  000000000000                           ;"      "
011430:  000000000000                           ;"      "
011431:  000000000000                           ;"      "
011432:  000000000000                           ;"      "
011433:  000000000000                           ;"      "
011434:  000000000000                           ;"      "
011435:  000000000000                           ;"      "
011436:  000000000000                           ;"      "
011437:  000000000000                           ;"      "
011440:  000000000000                           ;"      "
011441:  000000000000                           ;"      "
011442:  000000000000                           ;"      "
011443:  000000000000                           ;"      "
011444:  000000000000                           ;"      "
011445:  000000000000                           ;"      "
011446:  000000000000                           ;"      "
011447:  000000000000                           ;"      "
011450:  000000000000                           ;"      "
011451:  000000000000                           ;"      "
011452:  000000000000                           ;"      "
011453:  000000000000                           ;"      "
011454:  000000000000                           ;"      "
011455:  000000000000                           ;"      "
011456:  000000000000                           ;"      "
011457:  000000000000                           ;"      "
011460:  000000000000                           ;"      "
011461:  000000000000                           ;"      "
011462:  000000000000                           ;"      "
011463:  000000000000                           ;"      "
011464:  000000000000                           ;"      "
011465:  000000000000                           ;"      "
011466:  000000000000                           ;"      "
011467:  000000000000                           ;"      "
011470:  000000000000                           ;"      "
011471:  000000000000                           ;"      "
011472:  000000000000                           ;"      "
011473:  000000000000                           ;"      "
011474:  000000000000                           ;"      "
011475:  000000000000                           ;"      "
011476:  000000000000                           ;"      "
011477:  000000000000                           ;"      "
011500:  000000000000                           ;"      "
011501:  000000000000                           ;"      "
011502:  000000000000                           ;"      "
011503:  000000000000                           ;"      "
011504:  000000000000                           ;"      "
011505:  000000000000                           ;"      "
011506:  000000000000                           ;"      "
011507:  000000000000                           ;"      "
011510:  000000000000                           ;"      "
011511:  000000000000                           ;"      "
011512:  000000000000                           ;"      "
011513:  000000000000                           ;"      "
011514:  000000000000                           ;"      "
011515:  000000000000                           ;"      "
011516:  000000000000                           ;"      "
011517:  000000000000                           ;"      "
011520:  000000000000                           ;"      "
011521:  000000000000                           ;"      "
011522:  000000000000                           ;"      "
011523:  000000000000                           ;"      "
011524:  000000000000                           ;"      "
011525:  000000000000                           ;"      "
011526:  000000000000                           ;"      "
011527:  000000000000                           ;"      "
011530:  000000000000                           ;"      "
011531:  000000000000                           ;"      "
011532:  000000000000                           ;"      "
011533:  000000000000                           ;"      "
011534:  000000000000                           ;"      "
011535:  000000000000                           ;"      "
011536:  000000000000                           ;"      "
011537:  000000000000                           ;"      "
011540:  000000000000                           ;"      "
011541:  000000000000                           ;"      "
011542:  000000000000                           ;"      "
011543:  000000000000                           ;"      "
011544:  000000000000                           ;"      "
011545:  000000000000                           ;"      "
011546:  000000000000                           ;"      "
011547:  000000000000                           ;"      "
011550:  000000000000                           ;"      "
011551:  000000000000                           ;"      "
011552:  000000000000                           ;"      "
011553:  000000000000                           ;"      "
011554:  000000000000                           ;"      "
011555:  000000000000                           ;"      "
011556:  000000000000                           ;"      "
011557:  000000000000                           ;"      "
011560:  000000000000                           ;"      "
011561:  000000000000                           ;"      "
011562:  000000000000                           ;"      "
011563:  000000000000                           ;"      "
011564:  000000000000                           ;"      "
011565:  000000000000                           ;"      "
011566:  000000000000                           ;"      "
011567:  000000000000                           ;"      "
011570:  000000000000                           ;"      "
011571:  000000000000                           ;"      "
011572:  000000000000                           ;"      "
011573:  000000000000                           ;"      "
011574:  000000000000                           ;"      "
011575:  000000000000                           ;"      "
011576:  000000000000                           ;"      "
011577:  000000000000                           ;"      "
011600:  000000000000                           ;"      "
011601:  000000000000                           ;"      "
011602:  000000000000                           ;"      "
011603:  000000000000                           ;"      "
011604:  000000000000                           ;"      "
011605:  000000000000                           ;"      "
011606:  000000000000                           ;"      "
011607:  000000000000                           ;"      "
011610:  000000000000                           ;"      "
011611:  000000000000                           ;"      "
011612:  000000000000                           ;"      "
011613:  000000000000                           ;"      "
011614:  000000000000                           ;"      "
011615:  000000000000                           ;"      "
011616:  000000000000                           ;"      "
011617:  000000000000                           ;"      "
011620:  000000000000                           ;"      "
011621:  000000000000                           ;"      "
011622:  000000000000                           ;"      "
011623:  000000000000                           ;"      "
011624:  000000000000                           ;"      "
011625:  000000000000                           ;"      "
011626:  000000000000                           ;"      "
011627:  000000000000                           ;"      "
011630:  000000000000                           ;"      "
011631:  000000000000                           ;"      "
011632:  000000000000                           ;"      "
011633:  000000000000                           ;"      "
011634:  000000000000                           ;"      "
011635:  000000000000                           ;"      "
011636:  000000000000                           ;"      "
011637:  000000000000                           ;"      "
011640:  000000000000                           ;"      "
011641:  000000000000                           ;"      "
011642:  000000000000                           ;"      "
011643:  000000000000                           ;"      "
011644:  000000000000                           ;"      "
011645:  000000000000                           ;"      "
011646:  000000000000                           ;"      "
011647:  000000000000                           ;"      "
011650:  000000000000                           ;"      "
011651:  000000000000                           ;"      "
011652:  000000000000                           ;"      "
011653:  000000000000                           ;"      "
011654:  000000000000                           ;"      "
011655:  000000000000                           ;"      "
011656:  000000000000                           ;"      "
011657:  000000000000                           ;"      "
011660:  000000000000                           ;"      "
011661:  000000000000                           ;"      "
011662:  000000000000                           ;"      "
011663:  000000000000                           ;"      "
011664:  000000000000                           ;"      "
011665:  000000000000                           ;"      "
011666:  000000000000                           ;"      "
011667:  000000000000                           ;"      "
011670:  000000000000                           ;"      "
011671:  000000000000                           ;"      "
011672:  000000000000                           ;"      "
011673:  000000000000                           ;"      "
011674:  000000000000                           ;"      "
011675:  000000000000                           ;"      "
011676:  000000000000                           ;"      "
011677:  000000000000                           ;"      "
011700:  000000000000                           ;"      "
011701:  000000000000                           ;"      "
011702:  000000000000                           ;"      "
011703:  000000000000                           ;"      "
011704:  000000000000                           ;"      "
011705:  000000000000                           ;"      "
011706:  000000000000                           ;"      "
011707:  000000000000                           ;"      "
011710:  000000000000                           ;"      "
011711:  000000000000                           ;"      "
011712:  000000000000                           ;"      "
011713:  000000000000                           ;"      "
011714:  000000000000                           ;"      "
011715:  000000000000                           ;"      "
011716:  000000000000                           ;"      "
011717:  000000000000                           ;"      "
011720:  000000000000                           ;"      "
011721:  000000000000                           ;"      "
011722:  000000000000                           ;"      "
011723:  000000000000                           ;"      "
011724:  000000000000                           ;"      "
011725:  000000000000                           ;"      "
011726:  000000000000                           ;"      "
011727:  000000000000                           ;"      "
011730:  000000000000                           ;"      "
011731:  000000000000                           ;"      "
011732:  000000000000                           ;"      "
011733:  000000000000                           ;"      "
011734:  000000000000                           ;"      "
011735:  000000000000                           ;"      "
011736:  000000000000                           ;"      "
011737:  000000000000                           ;"      "
011740:  000000000000                           ;"      "
011741:  000000000000                           ;"      "
011742:  000000000000                           ;"      "
011743:  000000000000                           ;"      "
011744:  000000000000                           ;"      "
011745:  000000000000                           ;"      "
011746:  000000000000                           ;"      "
011747:  000000000000                           ;"      "
011750:  000000000000                           ;"      "
011751:  000000000000                           ;"      "
011752:  000000000000                           ;"      "
011753:  000000000000                           ;"      "
011754:  000000000000                           ;"      "
011755:  000000000000                           ;"      "
011756:  000000000000                           ;"      "
011757:  000000000000                           ;"      "
011760:  000000000000                           ;"      "
011761:  000000000000                           ;"      "
011762:  000000000000                           ;"      "
011763:  000000000000                           ;"      "
011764:  000000000000                           ;"      "
011765:  000000000000                           ;"      "
011766:  000000000000                           ;"      "
011767:  000000000000                           ;"      "
011770:  000000000000                           ;"      "
011771:  000000000000                           ;"      "
011772:  000000000000                           ;"      "
011773:  000000000000                           ;"      "
011774:  000000000000                           ;"      "
011775:  000000000000                           ;"      "
011776:  000000000000                           ;"      "
011777:  000000000000                           ;"      "
