PDUMP format

Page map:
Page  Address  Page description
000   000000   000000,,610312  ---wr 312
001   002000   000000,,610300  ---wr 300
002   004000   400000,,210002  a---r 002
003   006000   400000,,210003  a---r 003
004   010000   400000,,210004  a---r 004
005   012000   400000,,210005  a---r 005
006   014000   400000,,210006  a---r 006
007   016000   400000,,210007  a---r 007
010   020000   400000,,210010  a---r 010
011   022000   400000,,210011  a---r 011
012   024000   400000,,210012  a---r 012
013   026000   400000,,210013  a---r 013
014   030000   400000,,210014  a---r 014
015   032000   400000,,210015  a---r 015
016   034000   400000,,210016  a---r 016
017   036000   400000,,210017  a---r 017
020   040000   400000,,210020  a---r 020
021   042000   400000,,210021  a---r 021
022   044000   400000,,210022  a---r 022
023   046000   400000,,210023  a---r 023
024   050000   400000,,210024  a---r 024
025   052000   400000,,210025  a---r 025
026   054000   400000,,210026  a---r 026
027   056000   400000,,210027  a---r 027
030   060000   400000,,210030  a---r 030
031   062000   400000,,210031  a---r 031
032   064000   400000,,210032  a---r 032
033   066000   400000,,210033  a---r 033
034   070000   400000,,210034  a---r 034
035   072000   400000,,210035  a---r 035
036   074000   400000,,210036  a---r 036
037   076000   400000,,210037  a---r 037
040   100000   400000,,210040  a---r 040
041   102000   400000,,210041  a---r 041
042   104000   400000,,210042  a---r 042
043   106000   400000,,210043  a---r 043
044   110000   400000,,210044  a---r 044
045   112000   400000,,210045  a---r 045
046   114000   400000,,210046  a---r 046
047   116000   400000,,210047  a---r 047
050   120000   400000,,210050  a---r 050
051   122000   400000,,210051  a---r 051
052   124000   400000,,210052  a---r 052
053   126000   400000,,210053  a---r 053
054   130000   400000,,210054  a---r 054
055   132000   400000,,210055  a---r 055
056   134000   400000,,210056  a---r 056
057   136000   400000,,210057  a---r 057
060   140000   400000,,210060  a---r 060
061   142000   400000,,210061  a---r 061
062   144000   400000,,210062  a---r 062
063   146000   400000,,210063  a---r 063
064   150000   400000,,210064  a---r 064
065   152000   400000,,210065  a---r 065
066   154000   400000,,210066  a---r 066
067   156000   400000,,210067  a---r 067
070   160000   400000,,210070  a---r 070
071   162000   400000,,210071  a---r 071
072   164000   400000,,210072  a---r 072
073   166000   400000,,210073  a---r 073
074   170000   400000,,210074  a---r 074
075   172000   400000,,210075  a---r 075
076   174000   400000,,210076  a---r 076
077   176000   400000,,210077  a---r 077
100   200000   400000,,210100  a---r 100
101   202000   400000,,210101  a---r 101
102   204000   400000,,210102  a---r 102
103   206000   400000,,210103  a---r 103
104   210000   400000,,210104  a---r 104
105   212000   400000,,210105  a---r 105
106   214000   400000,,210106  a---r 106
107   216000   400000,,210107  a---r 107
110   220000   400000,,210110  a---r 110
111   222000   400000,,210111  a---r 111
112   224000   400000,,210112  a---r 112
113   226000   400000,,210113  a---r 113
114   230000   400000,,210114  a---r 114
115   232000   400000,,210115  a---r 115
116   234000   400000,,210116  a---r 116
117   236000   400000,,210117  a---r 117
120   240000   400000,,210120  a---r 120
121   242000   400000,,210121  a---r 121
122   244000   400000,,210122  a---r 122
123   246000   400000,,210123  a---r 123
124   250000   400000,,210124  a---r 124
125   252000   400000,,210125  a---r 125
126   254000   400000,,210126  a---r 126
127   256000   400000,,210127  a---r 127
130   260000   400000,,210130  a---r 130
131   262000   400000,,210131  a---r 131
132   264000   400000,,210132  a---r 132
133   266000   400000,,210133  a---r 133
134   270000   400000,,210134  a---r 134
135   272000   400000,,210135  a---r 135
136   274000   400000,,210136  a---r 136
137   276000   400000,,210137  a---r 137
140   300000   400000,,210140  a---r 140
141   302000   400000,,210141  a---r 141
142   304000   400000,,210142  a---r 142
143   306000   400000,,210143  a---r 143
144   310000   400000,,210144  a---r 144
145   312000   400000,,210145  a---r 145
146   314000   400000,,210146  a---r 146
147   316000   400000,,210147  a---r 147
150   320000   400000,,210150  a---r 150
151   322000   400000,,210151  a---r 151
152   324000   400000,,210152  a---r 152
153   326000   400000,,210153  a---r 153
154   330000   400000,,210154  a---r 154
155   332000   400000,,210155  a---r 155
156   334000   400000,,210156  a---r 156
157   336000   400000,,210157  a---r 157
160   340000   400000,,210160  a---r 160
161   342000   400000,,210161  a---r 161
162   344000   400000,,210162  a---r 162
163   346000   400000,,210163  a---r 163
164   350000   400000,,210164  a---r 164
165   352000   400000,,210165  a---r 165
166   354000   400000,,210166  a---r 166
167   356000   400000,,210167  a---r 167
170   360000   400000,,210170  a---r 170
171   362000   400000,,210171  a---r 171
172   364000   400000,,210172  a---r 172
173   366000   400000,,210173  a---r 173
174   370000   400000,,210174  a---r 174
175   372000   400000,,210175  a---r 175
176   374000   400000,,210176  a---r 176
177   376000   400000,,210177  a---r 177

Start instruction:
         254000001636  jrst     1636            ;"5@  .>"

Duplicate start instruction:
         254000001636  jrst     1636            ;"5@  .>"

Disassembly:

000000:  000000000000                           ;"      "
000001:  415100000000                           ;"AI    " "C$\0\0\0"
000002:  212624240000  movnm    14, @240000(4)  ;"1644  " "\"Y\"@\0"
000003:  000000000000                           ;"      "
000004:  000000000000                           ;"      "
000005:  000000000000                           ;"      "
000006:  400000000000  setz     0,              ;"@     " "@\0\0\0\0"
000007:  000000000200                           ;"    " "
000010:  000000000000                           ;"      "
000011:  000000000000                           ;"      "
000012:  000000000000                           ;"      "
000013:  000000000000                           ;"      "
000014:  000000000000                           ;"      "
000015:  000000000000                           ;"      "
000016:  000000000000                           ;"      "
000017:  777635003371  cono     774, @3371(15)  ;"_^= ;Y"
000020:  000000000000                           ;"      "
000021:  000000000000                           ;"      "
000022:  000000000000                           ;"      "
000023:  000000000000                           ;"      "
000024:  000000000000                           ;"      "
000025:  000000000000                           ;"      "
000026:  000000000000                           ;"      "
000027:  000000000000                           ;"      "
000030:  000000000000                           ;"      "
000031:  000000000000                           ;"      "
000032:  000000000000                           ;"      "
000033:  000000000000                           ;"      "
000034:  000000000000                           ;"      "
000035:  000000000000                           ;"      "
000036:  000000000000                           ;"      "
000037:  000000000000                           ;"      "
000040:  000000000000                           ;"      "
000041:  000000000000                           ;"      "
000042:  777777002550  conso    774, @2550(17)  ;"___ 5H"
000043:  000000000000                           ;"      "
000044:  000000000000                           ;"      "
000045:  000000000000                           ;"      "
000046:  000000000000                           ;"      "
000047:  000000000000                           ;"      "
000050:  000000000000                           ;"      "
000051:  000000000000                           ;"      "
000052:  000000000000                           ;"      "
000053:  000000000000                           ;"      "
000054:  000000000000                           ;"      "
000055:  000000000000                           ;"      "
000056:  000000000000                           ;"      "
000057:  000000000000                           ;"      "
000060:  000000000000                           ;"      "
000061:  000000000000                           ;"      "
000062:  000000000000                           ;"      "
000063:  000000000000                           ;"      "
000064:  000000000000                           ;"      "
000065:  000000000000                           ;"      "
000066:  000000000000                           ;"      "
000067:  000000000000                           ;"      "
000070:  000000000000                           ;"      "
000071:  000000000000                           ;"      "
000072:  000000000000                           ;"      "
000073:  000000000000                           ;"      "
000074:  000000000000                           ;"      "
000075:  000000000000                           ;"      "
000076:  000000000000                           ;"      "
000077:  000000000000                           ;"      "
000100:  332000003570  skipe    3570            ;";0  =X"
000101:  043200000000  .value                   ;"$:    "
000102:  042040000033  .logout  1,              ;"$0@  ;"
000103:  043000002555  .call    [setz
                                 SIXBIT/LOSE  /
                                 201007001000
                                 601006777776]
                                                ;"$8  5M"
000104:  043100001000  .lose    1000            ;"$9  ( "
000105:  350017000000  aos      (17)            ;"= /   "
000106:  263740000000  popj     17,             ;"6?@   "
000107:  261740000004  push     17, 4           ;"6/@  $"
000110:  201217777777  movei    4, 777777(17)   ;"0*/___"
000111:  270200000003  add      4, 3            ;"7"   #"
000112:  261740000004  push     17, 4           ;"6/@  $"
000113:  505203777777  hrli     4, 777777(3)    ;"HJ#___"
000114:  261740000004  push     17, 4           ;"6/@  $"
000115:  261740000005  push     17, 5           ;"6/@  %"
000116:  551257377775  hrrzi    5, 377775(17)   ;"M*O?_]"
000117:  554140000001  hlrz     3, 1            ;"MA@  !"
000120:  302140777777  caie     3, 777777       ;"81@___"
000121:  336000000003  skipn    3               ;";P   #"
000122:  505040440700  hrli     1, 440700       ;"HH@D' "
000123:  261740000001  push     17, 1           ;"6/@  !"
000124:  261740002561  push     17, 2561        ;"6/@ 5Q"
000125:  201045400012  movei    1, 400012(5)    ;"0(E@ *"
000126:  505040440700  hrli     1, 440700       ;"HH@D' "
000127:  261740000001  push     17, 1           ;"6/@  !"
000130:  261740002562  push     17, 2562        ;"6/@ 5R"
000131:  261740002561  push     17, 2561        ;"6/@ 5Q"
000132:  261740002562  push     17, 2562        ;"6/@ 5R"
000133:  261740002563  push     17, 2563        ;"6/@ 5S"
000134:  261740002563  push     17, 2563        ;"6/@ 5S"
000135:  261740002563  push     17, 2563        ;"6/@ 5S"
000136:  261740002563  push     17, 2563        ;"6/@ 5S"
000137:  261740002563  push     17, 2563        ;"6/@ 5S"
000140:  261740002563  push     17, 2563        ;"6/@ 5S"
000141:  261740002563  push     17, 2563        ;"6/@ 5S"
000142:  261740002563  push     17, 2563        ;"6/@ 5S"
000143:  261740002563  push     17, 2563        ;"6/@ 5S"
000144:  261740002563  push     17, 2563        ;"6/@ 5S"
000145:  200200000002  move     4, 2            ;"0"   ""
000146:  361200000156  sojl     4, 156          ;">*  !N"
000147:  134145400004  ildb     3, 400004(5)    ;"+AE@ $"
000150:  306140000176  cain     3, 176          ;"8Q@ !^"
000151:  254000000170  jrst     170             ;"5@  !X"
000152:  136145400006  idpb     3, 400006(5)    ;"+QE@ &"
000153:  377005400007  sosg     400007(5)       ;"?X%@ '"
000154:  260740001435  pushj    17, 1435        ;"6'@ ,="
000155:  365200000147  sojge    4, 147          ;">J  !G"
000156:  260740001435  pushj    17, 1435        ;"6'@ ,="
000157:  603240020000  tlne     5, 20000        ;"P:@"  "
000160:  260740001570  pushj    17, 1570        ;"6'@ -X"
000161:  550140000017  hrrz     3, 17           ;"M!@  /"
000162:  274145400001  sub      3, 400001(5)    ;"7AE@ !"
000163:  200205400000  move     4, 400000(5)    ;"0"%@  "
000164:  200245400003  move     5, 400003(5)    ;"0"E@ #"
000165:  504140000003  hrl      3, 3            ;"HA@  #"
000166:  274740000003  sub      17, 3           ;"7G@  #"
000167:  263740000000  popj     17,             ;"6?@   "
000170:  201140000001  movei    3, 1            ;"0)@  !"
000171:  202145400005  movem    3, 400005(5)    ;"01E@ %"
000172:  621240742000  tlz      5, 742000       ;"R*@\0 "
000173:  361200001570  sojl     4, 1570         ;">*  -X"
000174:  134145400004  ildb     3, 400004(5)    ;"+AE@ $"
000175:  254023000176  jrst     @176(3)         ;"5@3 !^"
000176:  000000001531                           ;"    -9"
000177:  000000001531                           ;"    -9"
000200:  000000001531                           ;"    -9"
000201:  000000001531                           ;"    -9"
000202:  000000001531                           ;"    -9"
000203:  000000001531                           ;"    -9"
000204:  000000001531                           ;"    -9"
000205:  000000001531                           ;"    -9"
000206:  000000001531                           ;"    -9"
000207:  000000001531                           ;"    -9"
000210:  000000001531                           ;"    -9"
000211:  000000001531                           ;"    -9"
000212:  000000001531                           ;"    -9"
000213:  000000001276                           ;"    *^"
000214:  000000001531                           ;"    -9"
000215:  000000001531                           ;"    -9"
000216:  000000001531                           ;"    -9"
000217:  000000001531                           ;"    -9"
000220:  000000001531                           ;"    -9"
000221:  000000001531                           ;"    -9"
000222:  000000001531                           ;"    -9"
000223:  000000001531                           ;"    -9"
000224:  000000001531                           ;"    -9"
000225:  000000001531                           ;"    -9"
000226:  000000001531                           ;"    -9"
000227:  000000001531                           ;"    -9"
000230:  000000001531                           ;"    -9"
000231:  000000001531                           ;"    -9"
000232:  000000001531                           ;"    -9"
000233:  000000001531                           ;"    -9"
000234:  000000001531                           ;"    -9"
000235:  000000001531                           ;"    -9"
000236:  000000001531                           ;"    -9"
000237:  000000001531                           ;"    -9"
000240:  000000001531                           ;"    -9"
000241:  000000001531                           ;"    -9"
000242:  000000001531                           ;"    -9"
000243:  000000001315                           ;"    +-"
000244:  000000001323                           ;"    +3"
000245:  000000001531                           ;"    -9"
000246:  000000001531                           ;"    -9"
000247:  000000001531                           ;"    -9"
000250:  000000001531                           ;"    -9"
000251:  000000001531                           ;"    -9"
000252:  000000001531                           ;"    -9"
000253:  000000001531                           ;"    -9"
000254:  000000001531                           ;"    -9"
000255:  000000001531                           ;"    -9"
000256:  000000000414                           ;"    $,"
000257:  000000000414                           ;"    $,"
000260:  000000000414                           ;"    $,"
000261:  000000000414                           ;"    $,"
000262:  000000000414                           ;"    $,"
000263:  000000000414                           ;"    $,"
000264:  000000000414                           ;"    $,"
000265:  000000000414                           ;"    $,"
000266:  000000000414                           ;"    $,"
000267:  000000000414                           ;"    $,"
000270:  000000000376                           ;"    #^"
000271:  000000001353                           ;"    +K"
000272:  000000001340                           ;"    +@"
000273:  000000001531                           ;"    -9"
000274:  000000001376                           ;"    +^"
000275:  000000001531                           ;"    -9"
000276:  000000000401                           ;"    $!"
000277:  000000001073                           ;"    (["
000300:  000000000437                           ;"    $?"
000301:  000000001120                           ;"    )0"
000302:  000000000441                           ;"    $A"
000303:  000000001531                           ;"    -9"
000304:  000000001232                           ;"    *:"
000305:  000000001531                           ;"    -9"
000306:  000000000451                           ;"    $I"
000307:  000000001531                           ;"    -9"
000310:  000000001531                           ;"    -9"
000311:  000000001531                           ;"    -9"
000312:  000000001531                           ;"    -9"
000313:  000000001531                           ;"    -9"
000314:  000000001531                           ;"    -9"
000315:  000000000442                           ;"    $B"
000316:  000000001144                           ;"    )D"
000317:  000000001531                           ;"    -9"
000320:  000000000432                           ;"    $:"
000321:  000000001112                           ;"    )*"
000322:  000000001531                           ;"    -9"
000323:  000000001206                           ;"    *&"
000324:  000000000404                           ;"    $$"
000325:  000000001531                           ;"    -9"
000326:  000000000435                           ;"    $="
000327:  000000001531                           ;"    -9"
000330:  000000001531                           ;"    -9"
000331:  000000001531                           ;"    -9"
000332:  000000001531                           ;"    -9"
000333:  000000001531                           ;"    -9"
000334:  000000001531                           ;"    -9"
000335:  000000001531                           ;"    -9"
000336:  000000001531                           ;"    -9"
000337:  000000001073                           ;"    (["
000340:  000000000437                           ;"    $?"
000341:  000000001120                           ;"    )0"
000342:  000000000441                           ;"    $A"
000343:  000000001531                           ;"    -9"
000344:  000000001232                           ;"    *:"
000345:  000000001531                           ;"    -9"
000346:  000000000451                           ;"    $I"
000347:  000000001531                           ;"    -9"
000350:  000000001531                           ;"    -9"
000351:  000000001531                           ;"    -9"
000352:  000000001531                           ;"    -9"
000353:  000000001531                           ;"    -9"
000354:  000000001531                           ;"    -9"
000355:  000000000442                           ;"    $B"
000356:  000000001144                           ;"    )D"
000357:  000000001531                           ;"    -9"
000360:  000000000432                           ;"    $:"
000361:  000000001112                           ;"    )*"
000362:  000000001531                           ;"    -9"
000363:  000000001206                           ;"    *&"
000364:  000000000404                           ;"    $$"
000365:  000000001531                           ;"    -9"
000366:  000000000435                           ;"    $="
000367:  000000001531                           ;"    -9"
000370:  000000001531                           ;"    -9"
000371:  000000001531                           ;"    -9"
000372:  000000001322                           ;"    +2"
000373:  000000001531                           ;"    -9"
000374:  000000000426                           ;"    $6"
000375:  000000001531                           ;"    -9"
000376:  663240400000  tloe     5, 400000       ;"V:@@  "
000377:  260740001542  pushj    17, 1542        ;"6'@ -B"
000400:  254000000173  jrst     173             ;"5@  !["
000401:  663240200000  tloe     5, 200000       ;"V:@0  "
000402:  260740001542  pushj    17, 1542        ;"6'@ -B"
000403:  254000000173  jrst     173             ;"5@  !["
000404:  663240140000  tloe     5, 140000       ;"V:@,  "
000405:  260740001542  pushj    17, 1542        ;"6'@ -B"
000406:  200145400002  move     3, 400002(5)    ;"0!E@ ""
000407:  252140001603  aobjp    3, 1603         ;"51@ .#"
000410:  202145400002  movem    3, 400002(5)    ;"01E@ ""
000411:  200143000000  move     3, (3)          ;"0!C   "
000412:  202145400005  movem    3, 400005(5)    ;"01E@ %"
000413:  254000000173  jrst     173             ;"5@  !["
000414:  603240040000  tlne     5, 40000        ;"P:@$  "
000415:  260740001542  pushj    17, 1542        ;"6'@ -B"
000416:  200045400005  move     1, 400005(5)    ;"0 E@ %"
000417:  667240100000  tlon     5, 100000       ;"VZ@(  "
000420:  401040000000  setzi    1,              ;"@(@   " "@\"\0\0\0"
000421:  221040000012  imuli    1, 12           ;"2(@  *"
000422:  275140000060  subi     3, 60           ;"7I@  P"
000423:  270040000003  add      1, 3            ;"7 @  #"
000424:  202045400005  movem    1, 400005(5)    ;"00E@ %"
000425:  254000000173  jrst     173             ;"5@  !["
000426:  136145400006  idpb     3, 400006(5)    ;"+QE@ &"
000427:  377005400007  sosg     400007(5)       ;"?X%@ '"
000430:  260740001435  pushj    17, 1435        ;"6'@ ,="
000431:  254000000146  jrst     146             ;"5@  !F"
000432:  607240100000  tlnn     5, 100000       ;"PZ@(  "
000433:  254000000505  jrst     505             ;"5@  %%"
000434:  334045400005  skipa    1, 400005(5)    ;";@E@ %"
000435:  201040000020  movei    1, 20           ;"0(@  0"
000436:  254000000443  jrst     443             ;"5@  $C"
000437:  201040000002  movei    1, 2            ;"0(@  ""
000440:  254000000443  jrst     443             ;"5@  $C"
000441:  334040002564  skipa    1, 2564         ;";@@ 5T"
000442:  201040000010  movei    1, 10           ;"0(@  ("
000443:  200105400002  move     2, 400002(5)    ;"0!%@ ""
000444:  252100001603  aobjp    2, 1603         ;"51  .#"
000445:  202105400002  movem    2, 400002(5)    ;"01%@ ""
000446:  200102000000  move     2, (2)          ;"0!"   "
000447:  260740001465  pushj    17, 1465        ;"6'@ ,U"
000450:  254000000146  jrst     146             ;"5@  !F"
000451:  200105400002  move     2, 400002(5)    ;"0!%@ ""
000452:  252100001603  aobjp    2, 1603         ;"51  .#"
000453:  202105400002  movem    2, 400002(5)    ;"01%@ ""
000454:  200102000000  move     2, (2)          ;"0!"   "
000455:  311100002565  caml     2, 2565         ;"9)  5U"
000456:  301100774000  cail     2, 774000       ;"8) _@ "
000457:  334000000000  skipa                    ;";@    " "7\0\0\0\0"
000460:  321240000502  jumpl    5, 502          ;":*@ %""
000461:  554100000002  hlrz     2, 2            ;"MA   ""
000462:  301100774000  cail     2, 774000       ;"8) _@ "
000463:  570100000002  hrre     2, 2            ;"O!   ""
000464:  201040000010  movei    1, 10           ;"0(@  ("
000465:  260740001465  pushj    17, 1465        ;"6'@ ,U"
000466:  201140000054  movei    3, 54           ;"0)@  L"
000467:  136145400006  idpb     3, 400006(5)    ;"+QE@ &"
000470:  377005400007  sosg     400007(5)       ;"?X%@ '"
000471:  260740001435  pushj    17, 1435        ;"6'@ ,="
000472:  201140000054  movei    3, 54           ;"0)@  L"
000473:  136145400006  idpb     3, 400006(5)    ;"+QE@ &"
000474:  377005400007  sosg     400007(5)       ;"?X%@ '"
000475:  260740001435  pushj    17, 1435        ;"6'@ ,="
000476:  200105400002  move     2, 400002(5)    ;"0!%@ ""
000477:  550102000000  hrrz     2, (2)          ;"M!"   "
000500:  301100774000  cail     2, 774000       ;"8) _@ "
000501:  570100000002  hrre     2, 2            ;"O!   ""
000502:  201040000010  movei    1, 10           ;"0(@  ("
000503:  260740001465  pushj    17, 1465        ;"6'@ ,U"
000504:  254000000146  jrst     146             ;"5@  !F"
000505:  200105400002  move     2, 400002(5)    ;"0!%@ ""
000506:  252100001603  aobjp    2, 1603         ;"51  .#"
000507:  202105400002  movem    2, 400002(5)    ;"01%@ ""
000510:  200102000000  move     2, (2)          ;"0!"   "
000511:  261740000431  push     17, 431         ;"6/@ $9"
000512:  322100000531  jumpe    2, 531          ;":1  %9"
000513:  327100000520  jumpg    2, 520          ;":Y  %0"
000514:  201040000725  movei    1, 725          ;"0(@ '5"
000515:  260740000646  pushj    17, 646         ;"6'@ &F"
000516:  210100000002  movn     2, 2            ;"1!   ""
000517:  321100000535  jumpl    2, 535          ;":)  %="
000520:  301100023420  cail     2, 23420        ;"8) "<0"
000521:  254000000541  jrst     541             ;"5@  %A"
000522:  200040000002  move     1, 2            ;"0 @  ""
000523:  231100000144  idivi    2, 144          ;"3)  !D"
000524:  231100000012  idivi    2, 12           ;"3)   *"
000525:  200100000001  move     2, 1            ;"0!   !"
000526:  322140000547  jumpe    3, 547          ;":1@ %G"
000527:  661240002000  tlo      5, 2000         ;"V*@ 0 "
000530:  254000000577  jrst     577             ;"5@  %_"
000531:  201040000731  movei    1, 731          ;"0(@ '9"
000532:  603240400000  tlne     5, 400000       ;"P:@@  "
000533:  201040000732  movei    1, 732          ;"0(@ ':"
000534:  254000000646  jrst     646             ;"5@  &F"
000535:  230100002566  idiv     2, 2566         ;"3!  5V"
000536:  210100000002  movn     2, 2            ;"1!   ""
000537:  210140000003  movn     3, 3            ;"1!@  #"
000540:  254000000542  jrst     542             ;"5@  %B"
000541:  230100002566  idiv     2, 2566         ;"3!  5V"
000542:  200040002567  move     1, 2567         ;"0 @ 5W"
000543:  254000000554  jrst     554             ;"5@  %L"
000544:  230100002570  idiv     2, 2570         ;"3!  5X"
000545:  200040002571  move     1, 2571         ;"0 @ 5Y"
000546:  254000000554  jrst     554             ;"5@  %L"
000547:  231100001750  idivi    2, 1750         ;"3)  /H"
000550:  200040002572  move     1, 2572         ;"0 @ 5Z"
000551:  254000000554  jrst     554             ;"5@  %L"
000552:  661240002000  tlo      5, 2000         ;"V*@ 0 "
000553:  254000000577  jrst     577             ;"5@  %_"
000554:  250100000003  exch     2, 3            ;"5!   #"
000555:  322141000000  jumpe    3, (1)          ;":1A   "
000556:  261740000001  push     17, 1           ;"6/@  !"
000557:  261740000002  push     17, 2           ;"6/@  ""
000560:  260740000576  pushj    17, 576         ;"6'@ %^"
000561:  262740000002  pop      17, 2           ;"67@  ""
000562:  544057000000  hlr      1, (17)         ;"L@O   "
000563:  260740000646  pushj    17, 646         ;"6'@ &F"
000564:  326100000571  jumpn    2, 571          ;":Q  %Y"
000565:  262757000000  pop      17, (17)        ;"67O   " ",^x\0\0"
000566:  325240001523  jumpge   5, 1523         ;":J@ -3"
000567:  201040002573  movei    1, 2573         ;"0(@ 5["
000570:  254000000646  jrst     646             ;"5@  &F"
000571:  201140000040  movei    3, 40           ;"0)@  @"
000572:  136145400006  idpb     3, 400006(5)    ;"+QE@ &"
000573:  377005400007  sosg     400007(5)       ;"?X%@ '"
000574:  260740001435  pushj    17, 1435        ;"6'@ ,="
000575:  263740000000  popj     17,             ;"6?@   "
000576:  200100000003  move     2, 3            ;"0!   #"
000577:  231100000144  idivi    2, 144          ;"3)  !D"
000600:  322100000624  jumpe    2, 624          ;":1  &4"
000601:  261740000003  push     17, 3           ;"6/@  #"
000602:  623240002000  tlze     5, 2000         ;"R:@ 0 "
000603:  607240400000  tlnn     5, 400000       ;"PZ@@  "
000604:  254000000616  jrst     616             ;"5@  &."
000605:  260740000632  pushj    17, 632         ;"6'@ &:"
000606:  201040001063  movei    1, 1063         ;"0(@ (S"
000607:  260740000646  pushj    17, 646         ;"6'@ &F"
000610:  262740000002  pop      17, 2           ;"67@  ""
000611:  322100000567  jumpe    2, 567          ;":1  %W"
000612:  201040000727  movei    1, 727          ;"0(@ '7"
000613:  260740000646  pushj    17, 646         ;"6'@ &F"
000614:  661240002000  tlo      5, 2000         ;"V*@ 0 "
000615:  254000000632  jrst     632             ;"5@  &:"
000616:  260740000632  pushj    17, 632         ;"6'@ &:"
000617:  201040001063  movei    1, 1063         ;"0(@ (S"
000620:  260740000646  pushj    17, 646         ;"6'@ &F"
000621:  262740000002  pop      17, 2           ;"67@  ""
000622:  326100000626  jumpn    2, 626          ;":Q  &6"
000623:  263740000000  popj     17,             ;"6?@   "
000624:  200100000003  move     2, 3            ;"0!   #"
000625:  254000000632  jrst     632             ;"5@  &:"
000626:  201140000040  movei    3, 40           ;"0)@  @"
000627:  136145400006  idpb     3, 400006(5)    ;"+QE@ &"
000630:  377005400007  sosg     400007(5)       ;"?X%@ '"
000631:  260740001435  pushj    17, 1435        ;"6'@ ,="
000632:  305100000024  caige    2, 24           ;"8I   4"
000633:  254000000643  jrst     643             ;"5@  &C"
000634:  231100000012  idivi    2, 12           ;"3)   *"
000635:  200042000713  move     1, 713(2)       ;"0 B '+"
000636:  200100000003  move     2, 3            ;"0!   #"
000637:  260740000646  pushj    17, 646         ;"6'@ &F"
000640:  322100000661  jumpe    2, 661          ;":1  &Q"
000641:  201040002574  movei    1, 2574         ;"0(@ 5\"
000642:  260740000646  pushj    17, 646         ;"6'@ &F"
000643:  200042000671  move     1, 671(2)       ;"0 B &Y"
000644:  603240002000  tlne     5, 2000         ;"P:@ 0 "
000645:  544040000001  hlr      1, 1            ;"L@@  !"
000646:  505040440700  hrli     1, 440700       ;"HH@D' "
000647:  627240200000  tlzn     5, 200000       ;"RZ@0  "
000650:  254000000656  jrst     656             ;"5@  &N"
000651:  134140000001  ildb     3, 1            ;"+A@  !"
000652:  275140000040  subi     3, 40           ;"7I@  @"
000653:  136145400006  idpb     3, 400006(5)    ;"+QE@ &"
000654:  377005400007  sosg     400007(5)       ;"?X%@ '"
000655:  260740001435  pushj    17, 1435        ;"6'@ ,="
000656:  134140000001  ildb     3, 1            ;"+A@  !"
000657:  326140000653  jumpn    3, 653          ;":Q@ &K"
000660:  263740000000  popj     17,             ;"6?@   "
000661:  603240002000  tlne     5, 2000         ;"P:@ 0 "
000662:  254000000670  jrst     670             ;"5@  &X"
000663:  201140000171  movei    3, 171          ;"0)@ !Y"
000664:  136145400006  idpb     3, 400006(5)    ;"+QE@ &"
000665:  377005400007  sosg     400007(5)       ;"?X%@ '"
000666:  260740001435  pushj    17, 1435        ;"6'@ ,="
000667:  263740000000  popj     17,             ;"6?@   "
000670:  201040002575  movei    1, 2575         ;"0(@ 5]"
000671:  254000000646  jrst     646             ;"5@  &F"
000672:  000735000734                           ;" '= '<"
000673:  000740000737                           ;" '@ '?"
000674:  000744000742                           ;" 'D 'B"
000675:  000747000746                           ;" 'G 'F"
000676:  000752000751                           ;" 'J 'I"
000677:  000755000754                           ;" 'M 'L"
000700:  000761000757                           ;" 'Q 'O"
000701:  000765000763                           ;" 'U 'S"
000702:  000770000767                           ;" 'X 'W"
000703:  000773000772                           ;" '[ 'Z"
000704:  000777000775                           ;" '_ ']"
000705:  001003001001                           ;" (# (!"
000706:  001007001005                           ;" (' (%"
000707:  001014001012                           ;" (, (*"
000710:  001021001017                           ;" (1 (/"
000711:  001025001023                           ;" (5 (3"
000712:  001031001027                           ;" (9 (7"
000713:  001036001034                           ;" (> (<"
000714:  001043001041                           ;" (C (A"
000715:  000000001046                           ;"    (F"
000716:  000000001050                           ;"    (H"
000717:  000000001052                           ;"    (J"
000720:  000000001053                           ;"    (K"
000721:  000000001054                           ;"    (L"
000722:  000000001055                           ;"    (M"
000723:  000000001057                           ;"    (O"
000724:  000000001061                           ;"    (Q"
000725:  667235672746  tlon     4, @672746(15)  ;"VZ=W7F" "minus"
000726:  200000000000  move     0, 0            ;"0     " " \0\0\0\0"
000727:  203035662100  moves    0, @662100(15)  ;"08=V1 " " and "
000730:  000000000000                           ;"      "
000731:  753136267400  blko     530, @267400(16);"]9>6\ " "zero\0"
000732:  753136267750  blko     530, @267750(16);"]9>6_H" "zerot"
000733:  640000000000  trc      0, 0            ;"T     " "h\0\0\0\0"
000734:  677354500000  tson     7, 500000(14)   ;"W[LH  " "one\0\0"
000735:  633236271750  tsze     4, @271750(16)  ;"S:>7/H" "first"
000736:  000000000000                           ;"      "
000737:  723575700000  datao    234, @700000(15);"Z=]X  " "two\0\0"
000740:  717134367734  blko     170, @367734(14);"YY<>_<" "secon"
000741:  620000000000  trz      0, 0            ;"R     " "d\0\0\0\0"
000742:  723216262712  cono     230, 262712(16) ;"Z:.67*" "three"
000743:  000000000000                           ;"      "
000744:  723215171310  cono     230, 171310(15) ;"Z:-/+(" "third"
000745:  000000000000                           ;"      "
000746:  633376571000  tsze     7, @571000(16)  ;"S;^O( " "four\0"
000747:  633376571350  tsze     7, @571350(16)  ;"S;^O+H" "fourt"
000750:  640000000000  trc      0, 0            ;"T     " "h\0\0\0\0"
000751:  633236662400  tsze     4, @662400(16)  ;"S:>V4 " "five\0"
000752:  633234672320  tsze     4, @672320(14)  ;"S:<W30" "fifth"
000753:  000000000000                           ;"      "
000754:  717237000000  cono     170, @(17)      ;"YZ?   " "six\0\0"
000755:  717237072320  cono     170, @72320(17) ;"YZ?'30" "sixth"
000756:  000000000000                           ;"      "
000757:  717136662734  blko     170, @662734(16);"YY>V7<" "seven"
000760:  000000000000                           ;"      "
000761:  717136662734  blko     170, @662734(16);"YY>V7<" "seven"
000762:  723200000000  cono     230, 0          ;"Z:    " "th\0\0\0"
000763:  627234764350  tlzn     4, @764350(14)  ;"RZ<^CH" "eight"
000764:  000000000000                           ;"      "
000765:  627234764350  tlzn     4, @764350(14)  ;"RZ<^CH" "eight"
000766:  640000000000  trc      0, 0            ;"T     " "h\0\0\0\0"
000767:  673235662400  tsoe     4, @662400(15)  ;"W:=V4 " "nine\0"
000770:  673235672320  tsoe     4, @672320(15)  ;"W:=W30" "ninth"
000771:  000000000000                           ;"      "
000772:  723135600000  blko     230, @600000(15);"Z9=P  " "ten\0\0"
000773:  723135672320  blko     230, @672320(15);"Z9=W30" "tenth"
000774:  000000000000                           ;"      "
000775:  627314573312  tlzn     6, 573312(14)   ;"R[,O;*" "eleve"
000776:  670000000000  tdo      0, 0            ;"W     " "n\0\0\0\0"
000777:  627314573312  tlzn     6, 573312(14)   ;"R[,O;*" "eleve"
001000:  673515000000  tsoe     12, (15)        ;"W=-   " "nth\0\0"
001001:  723574566354  datao    234, @566354(14);"Z=\NSL" "twelv"
001002:  624000000000  trza     0, 0            ;"R@    " "e\0\0\0\0"
001003:  723574566314  datao    234, @566314(14);"Z=\NS," "twelf"
001004:  723200000000  cono     230, 0          ;"Z:    " "th\0\0\0"
001005:  723215171350  cono     230, 171350(15) ;"Z:-/+H" "thirt"
001006:  627135600000  tlzn     2, @600000(15)  ;"RY=P  " "een\0\0"
001007:  723215171350  cono     230, 171350(15) ;"Z:-/+H" "thirt"
001010:  627135672320  tlzn     2, @672320(15)  ;"RY=W30" "eenth"
001011:  000000000000                           ;"      "
001012:  633376571350  tsze     7, @571350(16)  ;"S;^O+H" "fourt"
001013:  627135600000  tlzn     2, @600000(15)  ;"RY=P  " "een\0\0"
001014:  633376571350  tsze     7, @571350(16)  ;"S;^O+H" "fourt"
001015:  627135672320  tlzn     2, @672320(15)  ;"RY=W30" "eenth"
001016:  000000000000                           ;"      "
001017:  633234672312  tsze     4, @672312(14)  ;"S:<W3*" "fifte"
001020:  627340000000  tlzn     7, 0            ;"R[@   " "en\0\0\0"
001021:  633234672312  tsze     4, @672312(14)  ;"S:<W3*" "fifte"
001022:  627356464000  tlzn     7, 464000(16)   ;"R[NF@ " "enth\0"
001023:  717237072312  cono     170, @72312(17) ;"YZ?'3*" "sixte"
001024:  627340000000  tlzn     7, 0            ;"R[@   " "en\0\0\0"
001025:  717237072312  cono     170, @72312(17) ;"YZ?'3*" "sixte"
001026:  627356464000  tlzn     7, 464000(16)   ;"R[NF@ " "enth\0"
001027:  717136662734  blko     170, @662734(16);"YY>V7<" "seven"
001030:  723134567000  blko     230, @567000(14);"Z9<NX " "teen\0"
001031:  717136662734  blko     170, @662734(16);"YY>V7<" "seven"
001032:  723134567350  blko     230, @567350(14);"Z9<N[H" "teent"
001033:  640000000000  trc      0, 0            ;"T     " "h\0\0\0\0"
001034:  627234764350  tlzn     4, @764350(14)  ;"RZ<^CH" "eight"
001035:  627135600000  tlzn     2, @600000(15)  ;"RY=P  " "een\0\0"
001036:  627234764350  tlzn     4, @764350(14)  ;"RZ<^CH" "eight"
001037:  627135672320  tlzn     2, @672320(15)  ;"RY=W30" "eenth"
001040:  000000000000                           ;"      "
001041:  673235662750  tsoe     4, @662750(15)  ;"W:=V7H" "ninet"
001042:  627135600000  tlzn     2, @600000(15)  ;"RY=P  " "een\0\0"
001043:  673235662750  tsoe     4, @662750(15)  ;"W:=V7H" "ninet"
001044:  627135672320  tlzn     2, @672320(15)  ;"RY=W30" "eenth"
001045:  000000000000                           ;"      "
001046:  723574567350  datao    234, @567350(14);"Z=\N[H" "twent"
001047:  000000000000                           ;"      "
001050:  723215171350  cono     230, 171350(15) ;"Z:-/+H" "thirt"
001051:  000000000000                           ;"      "
001052:  633376272000  tsze     7, @272000(16)  ;"S;^70 " "fort\0"
001053:  633234672000  tsze     4, @672000(14)  ;"S:<W0 " "fift\0"
001054:  717237072000  cono     170, @72000(17) ;"YZ?'0 " "sixt\0"
001055:  717136662734  blko     170, @662734(16);"YY>V7<" "seven"
001056:  720000000000  blki     200, 0          ;"Z     " "t\0\0\0\0"
001057:  627234764350  tlzn     4, @764350(14)  ;"RZ<^CH" "eight"
001060:  000000000000                           ;"      "
001061:  673235662750  tsoe     4, @662750(15)  ;"W:=V7H" "ninet"
001062:  000000000000                           ;"      "
001063:  203216567310  moves    4, 567310(16)   ;"0:.N[(" " hund"
001064:  713134400000  blko     130, @400000(14);"Y9<@  " "red\0\0"
001065:  203515067752  moves    12, 67752(15)   ;"0=-&_J" " thou"
001066:  717035662000  blki     170, @662000(15);"YX=V0 " "sand\0"
001067:  203335166330  moves    6, @166330(15)  ;"0;=.S8" " mill"
001070:  647375600000  tlcn     7, @600000(15)  ;"T[]P  " "ion\0\0"
001071:  203055166330  moves    1, 166330(15)   ;"08M.S8" " bill"
001072:  647375600000  tlcn     7, @600000(15)  ;"T[]P  " "ion\0\0"
001073:  200045400002  move     1, 400002(5)    ;"0 E@ ""
001074:  252040001603  aobjp    1, 1603         ;"50@ .#"
001075:  202045400002  movem    1, 400002(5)    ;"00E@ ""
001076:  200041000000  move     1, (1)          ;"0 A   "
001077:  554140000001  hlrz     3, 1            ;"MA@  !"
001100:  302140777777  caie     3, 777777       ;"81@___"
001101:  336000000003  skipn    3               ;";P   #"
001102:  505040440700  hrli     1, 440700       ;"HH@D' "
001103:  254000001107  jrst     1107            ;"5@  )'"
001104:  136145400006  idpb     3, 400006(5)    ;"+QE@ &"
001105:  377005400007  sosg     400007(5)       ;"?X%@ '"
001106:  260740001435  pushj    17, 1435        ;"6'@ ,="
001107:  134140000001  ildb     3, 1            ;"+A@  !"
001110:  326140001104  jumpn    3, 1104         ;":Q@ )$"
001111:  254000000146  jrst     146             ;"5@  !F"
001112:  200045400002  move     1, 400002(5)    ;"0 E@ ""
001113:  252040001603  aobjp    1, 1603         ;"50@ .#"
001114:  202045400002  movem    1, 400002(5)    ;"00E@ ""
001115:  200041000000  move     1, (1)          ;"0 A   "
001116:  260740001511  pushj    17, 1511        ;"6'@ -)"
001117:  254000000146  jrst     146             ;"5@  !F"
001120:  200045400002  move     1, 400002(5)    ;"0 E@ ""
001121:  252040001603  aobjp    1, 1603         ;"50@ .#"
001122:  202045400002  movem    1, 400002(5)    ;"00E@ ""
001123:  200041000000  move     1, (1)          ;"0 A   "
001124:  321240001130  jumpl    5, 1130         ;":*@ )8"
001125:  301040000040  cail     1, 40           ;"8(@  @"
001126:  301040000177  cail     1, 177          ;"8(@ !_"
001127:  254000001134  jrst     1134            ;"5@  )<"
001130:  136045400006  idpb     1, 400006(5)    ;"+PE@ &"
001131:  377005400007  sosg     400007(5)       ;"?X%@ '"
001132:  260740001435  pushj    17, 1435        ;"6'@ ,="
001133:  254000000146  jrst     146             ;"5@  !F"
001134:  306040000033  cain     1, 33           ;"8P@  ;"
001135:  254000001130  jrst     1130            ;"5@  )8"
001136:  201140000136  movei    3, 136          ;"0)@ !>"
001137:  136145400006  idpb     3, 400006(5)    ;"+QE@ &"
001140:  377005400007  sosg     400007(5)       ;"?X%@ '"
001141:  260740001435  pushj    17, 1435        ;"6'@ ,="
001142:  640040000100  trc      1, 100          ;"T @ ! "
001143:  254000001130  jrst     1130            ;"5@  )8"
001144:  321240001160  jumpl    5, 1160         ;":*@ )P"
001145:  200145400002  move     3, 400002(5)    ;"0!E@ ""
001146:  200143000000  move     3, (3)          ;"0!C   "
001147:  603240200000  tlne     5, 200000       ;"P:@0  "
001150:  254000001166  jrst     1166            ;"5@  )V"
001151:  306140000001  cain     3, 1            ;"8Q@  !"
001152:  254000000146  jrst     146             ;"5@  !F"
001153:  201140000163  movei    3, 163          ;"0)@ !S"
001154:  136145400006  idpb     3, 400006(5)    ;"+QE@ &"
001155:  377005400007  sosg     400007(5)       ;"?X%@ '"
001156:  260740001435  pushj    17, 1435        ;"6'@ ,="
001157:  254000000146  jrst     146             ;"5@  !F"
001160:  200145400002  move     3, 400002(5)    ;"0!E@ ""
001161:  252140001603  aobjp    3, 1603         ;"51@ .#"
001162:  202145400002  movem    3, 400002(5)    ;"01E@ ""
001163:  200143000000  move     3, (3)          ;"0!C   "
001164:  607240200000  tlnn     5, 200000       ;"PZ@0  "
001165:  254000001151  jrst     1151            ;"5@  )I"
001166:  306140000001  cain     3, 1            ;"8Q@  !"
001167:  254000001201  jrst     1201            ;"5@  *!"
001170:  201140000151  movei    3, 151          ;"0)@ !I"
001171:  136145400006  idpb     3, 400006(5)    ;"+QE@ &"
001172:  377005400007  sosg     400007(5)       ;"?X%@ '"
001173:  260740001435  pushj    17, 1435        ;"6'@ ,="
001174:  201140000145  movei    3, 145          ;"0)@ !E"
001175:  136145400006  idpb     3, 400006(5)    ;"+QE@ &"
001176:  377005400007  sosg     400007(5)       ;"?X%@ '"
001177:  260740001435  pushj    17, 1435        ;"6'@ ,="
001200:  254000001153  jrst     1153            ;"5@  )K"
001201:  201140000171  movei    3, 171          ;"0)@ !Y"
001202:  136145400006  idpb     3, 400006(5)    ;"+QE@ &"
001203:  377005400007  sosg     400007(5)       ;"?X%@ '"
001204:  260740001435  pushj    17, 1435        ;"6'@ ,="
001205:  254000000146  jrst     146             ;"5@  !F"
001206:  200105400002  move     2, 400002(5)    ;"0!%@ ""
001207:  252100001603  aobjp    2, 1603         ;"51  .#"
001210:  202105400002  movem    2, 400002(5)    ;"01%@ ""
001211:  200102000000  move     2, (2)          ;"0!"   "
001212:  621100740000  tlz      2, 740000       ;"R) \  "
001213:  230100002576  idiv     2, 2576         ;"3!  5^"
001214:  271100000066  addi     2, 66           ;"7)   V"
001215:  305100000101  caige    2, 101          ;"8I  !!"
001216:  275100000007  subi     2, 7            ;"7I   '"
001217:  303100000132  caile    2, 132          ;"89  !:"
001220:  275100000070  subi     2, 70           ;"7I   X"
001221:  306100000043  cain     2, 43           ;"8Q   C"
001222:  201100000056  movei    2, 56           ;"0)   N"
001223:  250100000003  exch     2, 3            ;"5!   #"
001224:  136145400006  idpb     3, 400006(5)    ;"+QE@ &"
001225:  377005400007  sosg     400007(5)       ;"?X%@ '"
001226:  260740001435  pushj    17, 1435        ;"6'@ ,="
001227:  221100000050  imuli    2, 50           ;"2)   H"
001230:  326100001213  jumpn    2, 1213         ;":Q  *+"
001231:  254000000146  jrst     146             ;"5@  !F"
001232:  200045400002  move     1, 400002(5)    ;"0 E@ ""
001233:  252040001603  aobjp    1, 1603         ;"50@ .#"
001234:  202045400002  movem    1, 400002(5)    ;"00E@ ""
001235:  200041000000  move     1, (1)          ;"0 A   "
001236:  261741000002  push     17, 2(1)        ;"6/A  ""
001237:  261741000001  push     17, 1(1)        ;"6/A  !"
001240:  261741000003  push     17, 3(1)        ;"6/A  #"
001241:  200041000000  move     1, (1)          ;"0 A   "
001242:  260740001511  pushj    17, 1511        ;"6'@ -)"
001243:  201140000072  movei    3, 72           ;"0)@  Z"
001244:  136145400006  idpb     3, 400006(5)    ;"+QE@ &"
001245:  377005400007  sosg     400007(5)       ;"?X%@ '"
001246:  260740001435  pushj    17, 1435        ;"6'@ ,="
001247:  201140000040  movei    3, 40           ;"0)@  @"
001250:  136145400006  idpb     3, 400006(5)    ;"+QE@ &"
001251:  377005400007  sosg     400007(5)       ;"?X%@ '"
001252:  260740001435  pushj    17, 1435        ;"6'@ ,="
001253:  262740000001  pop      17, 1           ;"67@  !"
001254:  260740001511  pushj    17, 1511        ;"6'@ -)"
001255:  201140000073  movei    3, 73           ;"0)@  ["
001256:  136145400006  idpb     3, 400006(5)    ;"+QE@ &"
001257:  377005400007  sosg     400007(5)       ;"?X%@ '"
001260:  260740001435  pushj    17, 1435        ;"6'@ ,="
001261:  201140000040  movei    3, 40           ;"0)@  @"
001262:  136145400006  idpb     3, 400006(5)    ;"+QE@ &"
001263:  377005400007  sosg     400007(5)       ;"?X%@ '"
001264:  260740001435  pushj    17, 1435        ;"6'@ ,="
001265:  262740000001  pop      17, 1           ;"67@  !"
001266:  260740001511  pushj    17, 1511        ;"6'@ -)"
001267:  201140000040  movei    3, 40           ;"0)@  @"
001270:  136145400006  idpb     3, 400006(5)    ;"+QE@ &"
001271:  377005400007  sosg     400007(5)       ;"?X%@ '"
001272:  260740001435  pushj    17, 1435        ;"6'@ ,="
001273:  262740000001  pop      17, 1           ;"67@  !"
001274:  260740001511  pushj    17, 1511        ;"6'@ -)"
001275:  254000000146  jrst     146             ;"5@  !F"
001276:  603240200000  tlne     5, 200000       ;"P:@0  "
001277:  260740001454  pushj    17, 1454        ;"6'@ ,L"
001300:  361200000156  sojl     4, 156          ;">*  !N"
001301:  134145400004  ildb     3, 400004(5)    ;"+AE@ $"
001302:  302140000012  caie     3, 12           ;"81@  *"
001303:  254000001313  jrst     1313            ;"5@  ++"
001304:  321240000146  jumpl    5, 146          ;":*@ !F"
001305:  361200000156  sojl     4, 156          ;">*  !N"
001306:  134145400004  ildb     3, 400004(5)    ;"+AE@ $"
001307:  302140000040  caie     3, 40           ;"81@  @"
001310:  306140000011  cain     3, 11           ;"8Q@  )"
001311:  254000001305  jrst     1305            ;"5@  +%"
001312:  254000000150  jrst     150             ;"5@  !H"
001313:  325240001307  jumpge   5, 1307         ;":J@ +'"
001314:  254000000150  jrst     150             ;"5@  !H"
001315:  337045400005  skipg    1, 400005(5)    ;";XE@ %"
001316:  254000000146  jrst     146             ;"5@  !F"
001317:  260740001454  pushj    17, 1454        ;"6'@ ,L"
001320:  367040001317  sojg     1, 1317         ;">X@ +/"
001321:  254000000146  jrst     146             ;"5@  !F"
001322:  334040002577  skipa    1, 2577         ;";@@ 5_"
001323:  201040000101  movei    1, 101          ;"0(@ !!"
001324:  603240020000  tlne     5, 20000        ;"P:@"  "
001325:  260740001553  pushj    17, 1553        ;"6'@ -K"
001326:  201140000020  movei    3, 20           ;"0)@  0"
001327:  136145400006  idpb     3, 400006(5)    ;"+QE@ &"
001330:  377005400007  sosg     400007(5)       ;"?X%@ '"
001331:  260740001435  pushj    17, 1435        ;"6'@ ,="
001332:  136045400006  idpb     1, 400006(5)    ;"+PE@ &"
001333:  377005400007  sosg     400007(5)       ;"?X%@ '"
001334:  260740001435  pushj    17, 1435        ;"6'@ ,="
001335:  377045400005  sosg     1, 400005(5)    ;"?XE@ %"
001336:  254000000146  jrst     146             ;"5@  !F"
001337:  254000001317  jrst     1317            ;"5@  +/"
001340:  260740001435  pushj    17, 1435        ;"6'@ ,="
001341:  663240030000  tloe     5, 30000        ;"V:@#  "
001342:  260740001553  pushj    17, 1553        ;"6'@ -K"
001343:  607240100000  tlnn     5, 100000       ;"PZ@(  "
001344:  260740001542  pushj    17, 1542        ;"6'@ -B"
001345:  200105400005  move     2, 400005(5)    ;"0!%@ %"
001346:  265040001422  jsp      1, 1422         ;"6H@ ,2"
001347:  201140000040  movei    3, 40           ;"0)@  @"
001350:  504145400005  hrl      3, 400005(5)    ;"HAE@ %"
001351:  202145400010  movem    3, 400010(5)    ;"01E@ ("
001352:  254000000146  jrst     146             ;"5@  !F"
001353:  607240020000  tlnn     5, 20000        ;"PZ@"  "
001354:  260740001542  pushj    17, 1542        ;"6'@ -B"
001355:  361200001570  sojl     4, 1570         ;">*  -X"
001356:  134045400004  ildb     1, 400004(5)    ;"+@E@ $"
001357:  607240010000  tlnn     5, 10000        ;"PZ@!  "
001360:  254000000146  jrst     146             ;"5@  !F"
001361:  200145400011  move     3, 400011(5)    ;"0!E@ )"
001362:  274145400007  sub      3, 400007(5)    ;"7AE@ '"
001363:  322140001374  jumpe    3, 1374         ;":1@ +\"
001364:  554105400010  hlrz     2, 400010(5)    ;"MA%@ ("
001365:  274100000003  sub      2, 3            ;"7A   #"
001366:  323100000146  jumple   2, 146          ;":9  !F"
001367:  504040000002  hrl      1, 2            ;"H@@  ""
001370:  202045400010  movem    1, 400010(5)    ;"00E@ ("
001371:  260740001435  pushj    17, 1435        ;"6'@ ,="
001372:  661240010000  tlo      5, 10000        ;"V*@!  "
001373:  254000000146  jrst     146             ;"5@  !F"
001374:  542045400010  hrrm     1, 400010(5)    ;"L0E@ ("
001375:  254000000146  jrst     146             ;"5@  !F"
001376:  627240020000  tlzn     5, 20000        ;"RZ@"  "
001377:  260740001542  pushj    17, 1542        ;"6'@ -B"
001400:  607240010000  tlnn     5, 10000        ;"PZ@!  "
001401:  254000000146  jrst     146             ;"5@  !F"
001402:  200145400011  move     3, 400011(5)    ;"0!E@ )"
001403:  274145400007  sub      3, 400007(5)    ;"7AE@ '"
001404:  554105400010  hlrz     2, 400010(5)    ;"MA%@ ("
001405:  274100000003  sub      2, 3            ;"7A   #"
001406:  323100001420  jumple   2, 1420         ;":9  ,0"
001407:  200045400006  move     1, 400006(5)    ;"0 E@ &"
001410:  261740000001  push     17, 1           ;"6/@  !"
001411:  261740000002  push     17, 2           ;"6/@  ""
001412:  550145400010  hrrz     3, 400010(5)    ;"M!E@ ("
001413:  136140000001  idpb     3, 1            ;"+Q@  !"
001414:  367100001413  sojg     2, 1413         ;">Y  ,+"
001415:  262740000002  pop      17, 2           ;"67@  ""
001416:  262740000001  pop      17, 1           ;"67@  !"
001417:  260740001614  pushj    17, 1614        ;"6'@ .,"
001420:  260740001435  pushj    17, 1435        ;"6'@ ,="
001421:  254000000146  jrst     146             ;"5@  !F"
001422:  274105400007  sub      2, 400007(5)    ;"7A%@ '"
001423:  323101000000  jumple   2, (1)          ;":9!   "
001424:  271100000004  addi     2, 4            ;"7)   $"
001425:  231100000005  idivi    2, 5            ;"3)   %"
001426:  201140000005  movei    3, 5            ;"0)@  %"
001427:  220140000002  imul     3, 2            ;"2!@  ""
001430:  272145400011  addm     3, 400011(5)    ;"71E@ )"
001431:  272145400007  addm     3, 400007(5)    ;"71E@ '"
001432:  261740002563  push     17, 2563        ;"6/@ 5S"
001433:  367100001432  sojg     2, 1432         ;">Y  ,:"
001434:  254001000000  jrst     (1)             ;"5@!   "
001435:  261740000002  push     17, 2           ;"6/@  ""
001436:  200105400011  move     2, 400011(5)    ;"0!%@ )"
001437:  200140000002  move     3, 2            ;"0!@  ""
001440:  250145400007  exch     3, 400007(5)    ;"5!E@ '"
001441:  274100000003  sub      2, 3            ;"7A   #"
001442:  322100001451  jumpe    2, 1451         ;":1  ,I"
001443:  261740000001  push     17, 1           ;"6/@  !"
001444:  201045400012  movei    1, 400012(5)    ;"0(E@ *"
001445:  505040440700  hrli     1, 440700       ;"HH@D' "
001446:  202045400006  movem    1, 400006(5)    ;"00E@ &"
001447:  260740001614  pushj    17, 1614        ;"6'@ .,"
001450:  262740000001  pop      17, 1           ;"67@  !"
001451:  621240010000  tlz      5, 10000        ;"R*@!  "
001452:  262740000002  pop      17, 2           ;"67@  ""
001453:  263740000000  popj     17,             ;"6?@   "
001454:  201140000015  movei    3, 15           ;"0)@  -"
001455:  136145400006  idpb     3, 400006(5)    ;"+QE@ &"
001456:  377005400007  sosg     400007(5)       ;"?X%@ '"
001457:  260740001435  pushj    17, 1435        ;"6'@ ,="
001460:  201140000012  movei    3, 12           ;"0)@  *"
001461:  136145400006  idpb     3, 400006(5)    ;"+QE@ &"
001462:  377005400007  sosg     400007(5)       ;"?X%@ '"
001463:  260740001435  pushj    17, 1435        ;"6'@ ,="
001464:  263740000000  popj     17,             ;"6?@   "
001465:  325100001472  jumpge   2, 1472         ;":I  ,Z"
001466:  201140000055  movei    3, 55           ;"0)@  M"
001467:  136145400006  idpb     3, 400006(5)    ;"+QE@ &"
001470:  377005400007  sosg     400007(5)       ;"?X%@ '"
001471:  260740001435  pushj    17, 1435        ;"6'@ ,="
001472:  230100000001  idiv     2, 1            ;"3!   !"
001473:  214100000002  movm     2, 2            ;"1A   ""
001474:  214140000003  movm     3, 3            ;"1A@  #"
001475:  271140000060  addi     3, 60           ;"7)@  P"
001476:  303140000071  caile    3, 71           ;"89@  Y"
001477:  271140000007  addi     3, 7            ;"7)@  '"
001500:  322100001505  jumpe    2, 1505         ;":1  -%"
001501:  506157000000  hrlm     3, (17)         ;"HQO   " "QFx\0\0"
001502:  230100000001  idiv     2, 1            ;"3!   !"
001503:  260740001475  pushj    17, 1475        ;"6'@ ,]"
001504:  554157000000  hlrz     3, (17)         ;"MAO   "
001505:  136145400006  idpb     3, 400006(5)    ;"+QE@ &"
001506:  377005400007  sosg     400007(5)       ;"?X%@ '"
001507:  260740001435  pushj    17, 1435        ;"6'@ ,="
001510:  263740000000  popj     17,             ;"6?@   "
001511:  322040001523  jumpe    1, 1523         ;":0@ -3"
001512:  135140002600  ldb      3, 2600         ;"+I@ 6 "
001513:  271140000040  addi     3, 40           ;"7)@  @"
001514:  603240400000  tlne     5, 400000       ;"P:@@  "
001515:  254000001524  jrst     1524            ;"5@  -4"
001516:  136145400006  idpb     3, 400006(5)    ;"+QE@ &"
001517:  377005400007  sosg     400007(5)       ;"?X%@ '"
001520:  260740001435  pushj    17, 1435        ;"6'@ ,="
001521:  242040000006  lsh      1, 6            ;"40@  &"
001522:  326040001512  jumpn    1, 1512         ;":P@ -*"
001523:  263740000000  popj     17,             ;"6?@   "
001524:  301140000101  cail     3, 101          ;"8)@ !!"
001525:  303140000132  caile    3, 132          ;"89@ !:"
001526:  254000001516  jrst     1516            ;"5@  -."
001527:  271140000040  addi     3, 40           ;"7)@  @"
001530:  254000001516  jrst     1516            ;"5@  -."
001531:  043200001533  .value   1533            ;"$:  -;"
001532:  254000001531  jrst     1531            ;"5@  -9"
001533:  350672567310  aos      15, @567310(12) ;"=&ZN[(" ":\033Und"
001534:  627155167312  tlzn     3, 167312(15)   ;"RYM.[*" "efine"
001535:  621014667744  tlz      0, 667744(14)   ;"R(,V_D" "d for"
001536:  667036420336  tlon     0, @420336(16)  ;"VX>B#>" "mat o"
001537:  703136260750  blko     30, @260750(16) ;"X9>6'H" "perat"
001540:  677445615432  tson     11, 615432(5)   ;"W\EQL:" "or.\033\r"
001541:  050000000000                           ;"%     " "\n\0\0\0\0"
001542:  043200001544  .value   1544            ;"$:  -D"
001543:  254000001542  jrst     1542            ;"5@  -B"
001544:  350670260710  aos      15, @260710(10) ;"=&X6'(" ":\033Bad"
001545:  203074166330  moves    1, @166330(14)  ;"08\.S8" " call"
001546:  203515720314  moves    12, 720314(15)  ;"0=-Z#," " to f"
001547:  677455560750  tson     11, 560750(15)  ;"W\MN'H" "ormat"
001550:  203376062744  moves    7, @62744(16)   ;"0;^&7D" " oper"
001551:  607515771134  tlnn     12, 771134(15)  ;"P]-_)<" "ator."
001552:  154321200000  fsbr     6, @200000(1)   ;"-C10  " "\033\r\n\0\0"
001553:  043200001555  .value   1555            ;"$:  -M"
001554:  254000001553  jrst     1553            ;"5@  -K"
001555:  350671166330  aos      15, @166330(11) ;"=&Y.S8" ":\033Ill"
001556:  627174166100  tlzn     3, @166100(14)  ;"RY\.Q " "egal "
001557:  633376266702  tsze     7, @266702(16)  ;"S;^6W"" "forma"
001560:  721015770312  blki     210, 770312(15) ;"Z(-_#*" "t ope"
001561:  713036464736  blki     130, @464736(16);"Y8>FG>" "ratio"
001562:  671014472744  tso      0, 472744(14)   ;"W(,G7D" "n dur"
001563:  647354720324  tlcn     7, 720324(14)   ;"T[LZ#4" "ing j"
001564:  727476464714  datai    274, @464714(16);"Z\^FG," "ustif"
001565:  647074172322  tlcn     1, @172322(14)  ;"TX\/32" "icati"
001566:  677345615432  tson     7, 615432(5)    ;"W[EQL:" "on.\033\r"
001567:  050000000000                           ;"%     " "\n\0\0\0\0"
001570:  043200001572  .value   1572            ;"$:  -Z"
001571:  254000001570  jrst     1570            ;"5@  -X"
001572:  350670667744  aos      15, @667744(10) ;"=&XV_D" ":\033For"
001573:  667036420346  tlon     0, @420346(16)  ;"VX>B#F" "mat s"
001574:  723455167316  datai    234, 167316(15) ;"Z<M.[." "tring"
001575:  203514571332  moves    12, 571332(14)  ;"0=,O+:" " term"
001576:  647354172312  tlcn     7, 172312(14)   ;"T[L/3*" "inate"
001577:  621016567312  tlz      0, 567312(16)   ;"R(.N[*" "d une"
001600:  743414561750  blki     434, 561750(14) ;"\<,N/H" "xpect"
001601:  627115474534  tlzn     2, 474534(15)   ;"RY-GE<" "edly."
001602:  154321200000  fsbr     6, @200000(1)   ;"-C10  " "\033\r\n\0\0"
001603:  043200001605  .value   1605            ;"$:  .%"
001604:  254000001603  jrst     1603            ;"5@  .#"
001605:  350670667744  aos      15, @667744(10) ;"=&XV_D" ":\033For"
001606:  667036420344  tlon     0, @420344(16)  ;"VX>B#D" "mat r"
001607:  607344067752  tlnn     7, 67752(4)     ;"P[D&_J" "an ou"
001610:  721015763100  blki     210, 763100(15) ;"Z(-^9 " "t of "
001611:  607454772732  tlnn     11, 772732(14)  ;"P\L_7:" "argum"
001612:  627356471534  tlzn     7, 471534(16)   ;"R[NG-<" "ents."
001613:  154321200000  fsbr     6, @200000(1)   ;"-C10  " "\033\r\n\0\0"
001614:  043000002601  .call    [setz
                                 SIXBIT/SIOT  /
                                 201000000002
                                 000000000001
                                 400000000002]
                                                ;"$8  6!"
001615:  043100001000  .lose    1000            ;"$9  ( "
001616:  263740000000  popj     17,             ;"6?@   "
001617:  261740000001  push     17, 1           ;"6/@  !"
001620:  261740000002  push     17, 2           ;"6/@  ""
001621:  261740000003  push     17, 3           ;"6/@  #"
001622:  260777777775  pushj    17, @777775(17) ;"6'___]"
001623:  262740000003  pop      17, 3           ;"67@  #"
001624:  262740000002  pop      17, 2           ;"67@  ""
001625:  262740000001  pop      17, 1           ;"67@  !"
001626:  262757000000  pop      17, (17)        ;"67O   " ",^x\0\0"
001627:  263740000000  popj     17,             ;"6?@   "
001630:  576064515756  hlrem    1, @515756(4)   ;"OPTION" "_C%\033w"
001631:  661000004200  tlo      0, 4200         ;"V(  B "
001632:  554163530000  hlrz     3, @530000(3)   ;"MASK  "
001633:  200000002606  move     0, 2606         ;"0   6&"
001634:  576064515756  hlrem    1, @515756(4)   ;"OPTION" "_C%\033w"
001635:  202000000001  movem    0, 1            ;"00   !"
001636:  200740002607  move     17, 2607        ;"0'@ 6'"
001637:  401000000000  setzi    0,              ;"@(    " "@ \0\0\0"
001640:  043000002610  .call    [setz
                                 SIXBIT/SSTATU/
                                 202000000001
                                 202000000001
                                 202000000001
                                 202000000001
                                 202000000001
                                 202000000001
                                 602000000002]
                                                ;"$8  6("
001641:  043100001000  .lose    1000            ;"$9  ( "
001642:  316040003562  camn     1, 3562         ;"9P@ =R"
001643:  312100003563  came     2, 3563         ;"91  =S"
001644:  260740002502  pushj    17, 2502        ;"6'@ 5""
001645:  041040002621  .open    1, 2621         ;"$(@ 61"
001646:  043100001000  .lose    1000            ;"$9  ( "
001647:  041100002624  .open    2, 2624         ;"$)  64"
001650:  043100001000  .lose    1000            ;"$9  ( "
001651:  200300002627  move     6, 2627         ;"0#  67"
001652:  043000002630  .call    [setz
                                 SIXBIT/USRVAR/
                                 201000777777
                                 400000000006]
                                                ;"$8  68"
001653:  043100001000  .lose    1000            ;"$9  ( "
001654:  401700000000  setzi    16,             ;"@/    " "@<\0\0\0"
001655:  607040040000  tlnn     1, 40000        ;"PX@$  "
001656:  254000001742  jrst     1742            ;"5@  /B"
001657:  402000003535  setzm    3535            ;"@0  =="
001660:  200340002634  move     7, 2634         ;"0#@ 6<"
001661:  251340003560  blt      7, 3560         ;"5+@ =P"
001662:  205300064320  movsi    6, 64320        ;"0K &C0"
001663:  202300003561  movem    6, 3561         ;"03  =Q"
001664:  045500002635  .break   12, 2635        ;"$M  6="
001665:  200040002636  move     1, 2636         ;"0 @ 6>"
001666:  200100002637  move     2, 2637         ;"0!  6?"
001667:  401140000000  setzi    3,              ;"@)@   " "@&\0\0\0"
001670:  260740001713  pushj    17, 1713        ;"6'@ /+"
001671:  254000001742  jrst     1742            ;"5@  /B"
001672:  254000001670  jrst     1670            ;"5@  .X"
001673:  242700000003  lsh      16, 3           ;"47   #"
001674:  271706777720  addi     16, 777720(6)   ;"7/&__0"
001675:  626300000100  trzn     6, 100          ;"RS  ! "
001676:  644300000040  trca     6, 40           ;"TC   @"
001677:  660300000040  tro      6, 40           ;"V#   @"
001700:  603100770000  tlne     2, 770000       ;"P9 _  "
001701:  136300000002  idpb     6, 2            ;"+S   ""
001702:  260740001713  pushj    17, 1713        ;"6'@ /+"
001703:  254000001733  jrst     1733            ;"5@  /;"
001704:  254000001706  jrst     1706            ;"5@  /&"
001705:  254000001673  jrst     1673            ;"5@  .["
001706:  260740001713  pushj    17, 1713        ;"6'@ /+"
001707:  254000001733  jrst     1733            ;"5@  /;"
001710:  254000001706  jrst     1706            ;"5@  /&"
001711:  260740002642  pushj    17, 2642        ;"6'@ 6B"
001712:  260740000100  pushj    17, 100         ;"6'@ ! "
001713:  134300000001  ildb     6, 1            ;"+C   !"
001714:  302300000015  caie     6, 15           ;"83   -"
001715:  306300000003  cain     6, 3            ;"8S   #"
001716:  263740000000  popj     17,             ;"6?@   "
001717:  302300000037  caie     6, 37           ;"83   ?"
001720:  306300000000  cain     6, 0            ;"8S    " "1L\0\0\0"
001721:  263740000000  popj     17,             ;"6?@   "
001722:  350017000000  aos      (17)            ;"= /   "
001723:  302300000040  caie     6, 40           ;"83   @"
001724:  306300000011  cain     6, 11           ;"8S   )"
001725:  263740000000  popj     17,             ;"6?@   "
001726:  350017000000  aos      (17)            ;"= /   "
001727:  301300000060  cail     6, 60           ;"8+   P"
001730:  303300000071  caile    6, 71           ;"8;   Y"
001731:  660000000001  tro      0, 1            ;"V    !"
001732:  263740000000  popj     17,             ;"6?@   "
001733:  606000000001  trnn     0, 1            ;"PP   !"
001734:  254000001742  jrst     1742            ;"5@  /B"
001735:  043000002651  .call    [setz
                                 SIXBIT/OPEN  /
                                 205000000016
                                 201000000004
                                 000000002647
                                 200000000003
                                 400000002650]
                                                ;"$8  6I"
001736:  254000002672  jrst     2672            ;"5@  6Z"
001737:  044200002674  .uset    4, 2674         ;"$B  6\"
001740:  042200000007  .close   4,              ;"$2   '"
001741:  321700002707  jumpl    16, 2707        ;":/  7'"
001742:  301700000000  cail     16, 0           ;"8/    " "0<\0\0\0"
001743:  311700003567  caml     16, 3567        ;"9/  =W"
001744:  254000002724  jrst     2724            ;"5@  74"
001745:  200660003564  move     15, @3564       ;"0&P =T"
001746:  316660003566  camn     15, @3566       ;"9VP =V"
001747:  200660003565  move     15, @3565       ;"0&P =U"
001750:  134600000015  ildb     14, 15          ;"+F   -"
001751:  254000001763  jrst     1763            ;"5@  /S"
001752:  200660003565  move     15, @3565       ;"0&P =U"
001753:  316660003564  camn     15, @3564       ;"9VP =T"
001754:  042000000047  .hang                    ;"$0   G"
001755:  316660003566  camn     15, @3566       ;"9VP =V"
001756:  254000001752  jrst     1752            ;"5@  /J"
001757:  134600000015  ildb     14, 15          ;"+F   -"
001760:  263740000000  popj     17,             ;"6?@   "
001761:  040100000014  .iot     2, 14           ;"$!   ,"
001762:  260740001753  pushj    17, 1753        ;"6'@ /K"
001763:  254034001764  jrst     @1764(14)       ;"5@< /T"
001764:  000000002366                           ;"    3V"
001765:  000000002366                           ;"    3V"
001766:  000000002366                           ;"    3V"
001767:  000000002366                           ;"    3V"
001770:  000000002366                           ;"    3V"
001771:  000000002366                           ;"    3V"
001772:  000000002366                           ;"    3V"
001773:  000000002366                           ;"    3V"
001774:  000000002366                           ;"    3V"
001775:  000000002366                           ;"    3V"
001776:  000000002366                           ;"    3V"
001777:  000000002366                           ;"    3V"
002000:  000000002366                           ;"    3V"
002001:  000000002366                           ;"    3V"
002002:  000000002366                           ;"    3V"
002003:  000000002366                           ;"    3V"
002004:  000000002366                           ;"    3V"
002005:  000000002366                           ;"    3V"
002006:  000000002366                           ;"    3V"
002007:  000000002366                           ;"    3V"
002010:  000000002366                           ;"    3V"
002011:  000000002366                           ;"    3V"
002012:  000000002366                           ;"    3V"
002013:  000000002366                           ;"    3V"
002014:  000000002366                           ;"    3V"
002015:  000000002366                           ;"    3V"
002016:  000000002366                           ;"    3V"
002017:  000000002366                           ;"    3V"
002020:  000000002366                           ;"    3V"
002021:  000000002366                           ;"    3V"
002022:  000000002366                           ;"    3V"
002023:  000000002366                           ;"    3V"
002024:  000000001761                           ;"    /Q"
002025:  000000001761                           ;"    /Q"
002026:  000000001761                           ;"    /Q"
002027:  000000001761                           ;"    /Q"
002030:  000000001761                           ;"    /Q"
002031:  000000001761                           ;"    /Q"
002032:  000000001761                           ;"    /Q"
002033:  000000001761                           ;"    /Q"
002034:  000000001761                           ;"    /Q"
002035:  000000001761                           ;"    /Q"
002036:  000000001761                           ;"    /Q"
002037:  000000001761                           ;"    /Q"
002040:  000000001761                           ;"    /Q"
002041:  000000001761                           ;"    /Q"
002042:  000000001761                           ;"    /Q"
002043:  000000001761                           ;"    /Q"
002044:  000000001761                           ;"    /Q"
002045:  000000001761                           ;"    /Q"
002046:  000000001761                           ;"    /Q"
002047:  000000001761                           ;"    /Q"
002050:  000000001761                           ;"    /Q"
002051:  000000001761                           ;"    /Q"
002052:  000000001761                           ;"    /Q"
002053:  000000001761                           ;"    /Q"
002054:  000000001761                           ;"    /Q"
002055:  000000001761                           ;"    /Q"
002056:  000000001761                           ;"    /Q"
002057:  000000001761                           ;"    /Q"
002060:  000000001761                           ;"    /Q"
002061:  000000001761                           ;"    /Q"
002062:  000000001761                           ;"    /Q"
002063:  000000001761                           ;"    /Q"
002064:  000000001761                           ;"    /Q"
002065:  000000001761                           ;"    /Q"
002066:  000000001761                           ;"    /Q"
002067:  000000001761                           ;"    /Q"
002070:  000000001761                           ;"    /Q"
002071:  000000001761                           ;"    /Q"
002072:  000000001761                           ;"    /Q"
002073:  000000001761                           ;"    /Q"
002074:  000000001761                           ;"    /Q"
002075:  000000001761                           ;"    /Q"
002076:  000000001761                           ;"    /Q"
002077:  000000001761                           ;"    /Q"
002100:  000000001761                           ;"    /Q"
002101:  000000001761                           ;"    /Q"
002102:  000000001761                           ;"    /Q"
002103:  000000001761                           ;"    /Q"
002104:  000000001761                           ;"    /Q"
002105:  000000001761                           ;"    /Q"
002106:  000000001761                           ;"    /Q"
002107:  000000001761                           ;"    /Q"
002110:  000000001761                           ;"    /Q"
002111:  000000001761                           ;"    /Q"
002112:  000000001761                           ;"    /Q"
002113:  000000001761                           ;"    /Q"
002114:  000000001761                           ;"    /Q"
002115:  000000001761                           ;"    /Q"
002116:  000000001761                           ;"    /Q"
002117:  000000001761                           ;"    /Q"
002120:  000000001761                           ;"    /Q"
002121:  000000001761                           ;"    /Q"
002122:  000000001761                           ;"    /Q"
002123:  000000001761                           ;"    /Q"
002124:  000000001761                           ;"    /Q"
002125:  000000001761                           ;"    /Q"
002126:  000000001761                           ;"    /Q"
002127:  000000001761                           ;"    /Q"
002130:  000000001761                           ;"    /Q"
002131:  000000001761                           ;"    /Q"
002132:  000000001761                           ;"    /Q"
002133:  000000001761                           ;"    /Q"
002134:  000000001761                           ;"    /Q"
002135:  000000001761                           ;"    /Q"
002136:  000000001761                           ;"    /Q"
002137:  000000001761                           ;"    /Q"
002140:  000000001761                           ;"    /Q"
002141:  000000001761                           ;"    /Q"
002142:  000000001761                           ;"    /Q"
002143:  000000001761                           ;"    /Q"
002144:  000000001761                           ;"    /Q"
002145:  000000001761                           ;"    /Q"
002146:  000000001761                           ;"    /Q"
002147:  000000001761                           ;"    /Q"
002150:  000000001761                           ;"    /Q"
002151:  000000001761                           ;"    /Q"
002152:  000000001761                           ;"    /Q"
002153:  000000001761                           ;"    /Q"
002154:  000000001761                           ;"    /Q"
002155:  000000001761                           ;"    /Q"
002156:  000000001761                           ;"    /Q"
002157:  000000001761                           ;"    /Q"
002160:  000000001761                           ;"    /Q"
002161:  000000001761                           ;"    /Q"
002162:  000000001761                           ;"    /Q"
002163:  000000002366                           ;"    3V"
002164:  000000002370                           ;"    3X"
002165:  000000002401                           ;"    4!"
002166:  000000002434                           ;"    4<"
002167:  000000002436                           ;"    4>"
002170:  000000002440                           ;"    4@"
002171:  000000002442                           ;"    4B"
002172:  000000002444                           ;"    4D"
002173:  000000002446                           ;"    4F"
002174:  000000002450                           ;"    4H"
002175:  000000002452                           ;"    4J"
002176:  000000002454                           ;"    4L"
002177:  000000002456                           ;"    4N"
002200:  000000002460                           ;"    4P"
002201:  000000002462                           ;"    4R"
002202:  000000002464                           ;"    4T"
002203:  000000002401                           ;"    4!"
002204:  000000002466                           ;"    4V"
002205:  000000002470                           ;"    4X"
002206:  000000002472                           ;"    4Z"
002207:  000000002406                           ;"    4&"
002210:  000000002411                           ;"    4)"
002211:  000000002414                           ;"    4,"
002212:  000000002417                           ;"    4/"
002213:  000000002474                           ;"    4\"
002214:  000000002476                           ;"    4^"
002215:  000000002500                           ;"    5 "
002216:  000000002422                           ;"    42"
002217:  000000002427                           ;"    47"
002220:  000000002364                           ;"    3T"
002221:  000000002364                           ;"    3T"
002222:  000000002364                           ;"    3T"
002223:  000000002364                           ;"    3T"
002224:  000000002364                           ;"    3T"
002225:  000000002364                           ;"    3T"
002226:  000000002364                           ;"    3T"
002227:  000000002364                           ;"    3T"
002230:  000000002364                           ;"    3T"
002231:  000000002364                           ;"    3T"
002232:  000000002364                           ;"    3T"
002233:  000000002364                           ;"    3T"
002234:  000000002364                           ;"    3T"
002235:  000000002364                           ;"    3T"
002236:  000000002364                           ;"    3T"
002237:  000000002364                           ;"    3T"
002240:  000000002364                           ;"    3T"
002241:  000000002364                           ;"    3T"
002242:  000000002364                           ;"    3T"
002243:  000000002364                           ;"    3T"
002244:  000000002364                           ;"    3T"
002245:  000000002364                           ;"    3T"
002246:  000000002364                           ;"    3T"
002247:  000000002364                           ;"    3T"
002250:  000000002364                           ;"    3T"
002251:  000000002364                           ;"    3T"
002252:  000000002364                           ;"    3T"
002253:  000000002364                           ;"    3T"
002254:  000000002364                           ;"    3T"
002255:  000000002364                           ;"    3T"
002256:  000000002364                           ;"    3T"
002257:  000000002364                           ;"    3T"
002260:  000000002364                           ;"    3T"
002261:  000000002364                           ;"    3T"
002262:  000000002364                           ;"    3T"
002263:  000000002364                           ;"    3T"
002264:  000000002364                           ;"    3T"
002265:  000000002364                           ;"    3T"
002266:  000000002364                           ;"    3T"
002267:  000000002364                           ;"    3T"
002270:  000000002364                           ;"    3T"
002271:  000000002364                           ;"    3T"
002272:  000000002364                           ;"    3T"
002273:  000000002364                           ;"    3T"
002274:  000000002364                           ;"    3T"
002275:  000000002364                           ;"    3T"
002276:  000000002364                           ;"    3T"
002277:  000000002364                           ;"    3T"
002300:  000000002364                           ;"    3T"
002301:  000000002364                           ;"    3T"
002302:  000000002364                           ;"    3T"
002303:  000000002364                           ;"    3T"
002304:  000000002364                           ;"    3T"
002305:  000000002364                           ;"    3T"
002306:  000000002364                           ;"    3T"
002307:  000000002364                           ;"    3T"
002310:  000000002364                           ;"    3T"
002311:  000000002364                           ;"    3T"
002312:  000000002364                           ;"    3T"
002313:  000000002364                           ;"    3T"
002314:  000000002364                           ;"    3T"
002315:  000000002364                           ;"    3T"
002316:  000000002364                           ;"    3T"
002317:  000000002364                           ;"    3T"
002320:  000000002364                           ;"    3T"
002321:  000000002364                           ;"    3T"
002322:  000000002364                           ;"    3T"
002323:  000000002364                           ;"    3T"
002324:  000000002364                           ;"    3T"
002325:  000000002364                           ;"    3T"
002326:  000000002364                           ;"    3T"
002327:  000000002364                           ;"    3T"
002330:  000000002364                           ;"    3T"
002331:  000000002364                           ;"    3T"
002332:  000000002364                           ;"    3T"
002333:  000000002364                           ;"    3T"
002334:  000000002364                           ;"    3T"
002335:  000000002364                           ;"    3T"
002336:  000000002364                           ;"    3T"
002337:  000000002364                           ;"    3T"
002340:  000000002364                           ;"    3T"
002341:  000000002364                           ;"    3T"
002342:  000000002364                           ;"    3T"
002343:  000000002364                           ;"    3T"
002344:  000000002364                           ;"    3T"
002345:  000000002364                           ;"    3T"
002346:  000000002364                           ;"    3T"
002347:  000000002364                           ;"    3T"
002350:  000000002364                           ;"    3T"
002351:  000000002364                           ;"    3T"
002352:  000000002364                           ;"    3T"
002353:  000000002364                           ;"    3T"
002354:  000000002364                           ;"    3T"
002355:  000000002364                           ;"    3T"
002356:  000000002364                           ;"    3T"
002357:  000000002364                           ;"    3T"
002360:  000000002364                           ;"    3T"
002361:  000000002364                           ;"    3T"
002362:  000000002364                           ;"    3T"
002363:  000000002364                           ;"    3T"
002364:  260740002730  pushj    17, 2730        ;"6'@ 78"
002365:  254000001762  jrst     1762            ;"5@  /R"
002366:  260740002740  pushj    17, 2740        ;"6'@ 7@"
002367:  254000001762  jrst     1762            ;"5@  /R"
002370:  260740001753  pushj    17, 1753        ;"6'@ /K"
002371:  200040000014  move     1, 14           ;"0 @  ,"
002372:  260740001753  pushj    17, 1753        ;"6'@ /K"
002373:  200100000014  move     2, 14           ;"0!   ,"
002374:  260740001753  pushj    17, 1753        ;"6'@ /K"
002375:  200140000014  move     3, 14           ;"0!@  ,"
002376:  260740001753  pushj    17, 1753        ;"6'@ /K"
002377:  260740002753  pushj    17, 2753        ;"6'@ 7K"
002400:  254000001762  jrst     1762            ;"5@  /R"
002401:  260740001753  pushj    17, 1753        ;"6'@ /K"
002402:  200040000014  move     1, 14           ;"0 @  ,"
002403:  260740001753  pushj    17, 1753        ;"6'@ /K"
002404:  260740002771  pushj    17, 2771        ;"6'@ 7Y"
002405:  254000001762  jrst     1762            ;"5@  /R"
002406:  260740001753  pushj    17, 1753        ;"6'@ /K"
002407:  260740003005  pushj    17, 3005        ;"6'@ 8%"
002410:  254000001762  jrst     1762            ;"5@  /R"
002411:  260740001753  pushj    17, 1753        ;"6'@ /K"
002412:  260740003020  pushj    17, 3020        ;"6'@ 80"
002413:  254000001762  jrst     1762            ;"5@  /R"
002414:  260740001753  pushj    17, 1753        ;"6'@ /K"
002415:  260740003034  pushj    17, 3034        ;"6'@ 8<"
002416:  254000001762  jrst     1762            ;"5@  /R"
002417:  260740001753  pushj    17, 1753        ;"6'@ /K"
002420:  260740003050  pushj    17, 3050        ;"6'@ 8H"
002421:  254000001762  jrst     1762            ;"5@  /R"
002422:  260740001753  pushj    17, 1753        ;"6'@ /K"
002423:  200040000014  move     1, 14           ;"0 @  ,"
002424:  260740001753  pushj    17, 1753        ;"6'@ /K"
002425:  260740003066  pushj    17, 3066        ;"6'@ 8V"
002426:  254000001762  jrst     1762            ;"5@  /R"
002427:  260740001753  pushj    17, 1753        ;"6'@ /K"
002430:  200040000014  move     1, 14           ;"0 @  ,"
002431:  260740001753  pushj    17, 1753        ;"6'@ /K"
002432:  260740003106  pushj    17, 3106        ;"6'@ 9&"
002433:  254000001762  jrst     1762            ;"5@  /R"
002434:  260740003117  pushj    17, 3117        ;"6'@ 9/"
002435:  254000001762  jrst     1762            ;"5@  /R"
002436:  260740003126  pushj    17, 3126        ;"6'@ 96"
002437:  254000001762  jrst     1762            ;"5@  /R"
002440:  260740003135  pushj    17, 3135        ;"6'@ 9="
002441:  254000001762  jrst     1762            ;"5@  /R"
002442:  260740003144  pushj    17, 3144        ;"6'@ 9D"
002443:  254000001762  jrst     1762            ;"5@  /R"
002444:  260740003153  pushj    17, 3153        ;"6'@ 9K"
002445:  254000001762  jrst     1762            ;"5@  /R"
002446:  260740003162  pushj    17, 3162        ;"6'@ 9R"
002447:  254000001762  jrst     1762            ;"5@  /R"
002450:  260740003171  pushj    17, 3171        ;"6'@ 9Y"
002451:  254000001762  jrst     1762            ;"5@  /R"
002452:  260740003200  pushj    17, 3200        ;"6'@ : "
002453:  254000001762  jrst     1762            ;"5@  /R"
002454:  260740003207  pushj    17, 3207        ;"6'@ :'"
002455:  254000001762  jrst     1762            ;"5@  /R"
002456:  260740003216  pushj    17, 3216        ;"6'@ :."
002457:  254000001762  jrst     1762            ;"5@  /R"
002460:  260740003225  pushj    17, 3225        ;"6'@ :5"
002461:  254000001762  jrst     1762            ;"5@  /R"
002462:  260740003234  pushj    17, 3234        ;"6'@ :<"
002463:  254000001762  jrst     1762            ;"5@  /R"
002464:  260740003243  pushj    17, 3243        ;"6'@ :C"
002465:  254000001762  jrst     1762            ;"5@  /R"
002466:  260740003252  pushj    17, 3252        ;"6'@ :J"
002467:  254000001762  jrst     1762            ;"5@  /R"
002470:  260740003261  pushj    17, 3261        ;"6'@ :Q"
002471:  254000001762  jrst     1762            ;"5@  /R"
002472:  260740003270  pushj    17, 3270        ;"6'@ :X"
002473:  254000001762  jrst     1762            ;"5@  /R"
002474:  260740003277  pushj    17, 3277        ;"6'@ :_"
002475:  254000001762  jrst     1762            ;"5@  /R"
002476:  260740003306  pushj    17, 3306        ;"6'@ ;&"
002477:  254000001762  jrst     1762            ;"5@  /R"
002500:  260740003315  pushj    17, 3315        ;"6'@ ;-"
002501:  254000001762  jrst     1762            ;"5@  /R"
002502:  200300003322  move     6, 3322         ;"0#  ;2"
002503:  201340000002  movei    7, 2            ;"0+@  ""
002504:  043000003323  .call    [setz
                                 SIXBIT/CORBLK/
                                 201000010000
                                 201000777777
                                 200000000006
                                 201000777772
                                 600000000007]
                                                ;"$8  ;3"
002505:  043100001000  .lose    1000            ;"$9  ( "
002506:  200300003332  move     6, 3332         ;"0#  ;:"
002507:  042300000073  .eval    6,              ;"$3   ["
002510:  043100000000  .lose    0               ;"$9    "
002511:  505300000016  hrli     6, 16           ;"HK   ."
002512:  202300003564  movem    6, 3564         ;"03  =T"
002513:  200300003333  move     6, 3333         ;"0#  ;;"
002514:  042300000073  .eval    6,              ;"$3   ["
002515:  043100000000  .lose    0               ;"$9    "
002516:  505300000016  hrli     6, 16           ;"HK   ."
002517:  202300003565  movem    6, 3565         ;"03  =U"
002520:  200300003334  move     6, 3334         ;"0#  ;<"
002521:  042300000073  .eval    6,              ;"$3   ["
002522:  043100000000  .lose    0               ;"$9    "
002523:  505300000016  hrli     6, 16           ;"HK   ."
002524:  202300003566  movem    6, 3566         ;"03  =V"
002525:  200300003335  move     6, 3335         ;"0#  ;="
002526:  042300000073  .eval    6,              ;"$3   ["
002527:  043100000000  .lose    0               ;"$9    "
002530:  202300003567  movem    6, 3567         ;"03  =W"
002531:  202040003562  movem    1, 3562         ;"00@ =R"
002532:  202100003563  movem    2, 3563         ;"01  =S"
002533:  332000003570  skipe    3570            ;";0  =X"
002534:  263740000000  popj     17,             ;"6?@   "
002535:  043000003342  .call    [setz
                                 SIXBIT/OPEN  /
                                 205000000007
                                 201000000003
                                 000000003336
                                 000000003337
                                 000000003340
                                 400000003341]
                                                ;"$8  ;B"
002536:  043100001400  .lose    1400            ;"$9  , "
002537:  401300000000  setzi    6,              ;"@+    " "@,\0\0\0"
002540:  043000003352  .call    [setz
                                 SIXBIT/PDUMP /
                                 201000777777
                                 201000000003
                                 600000000006]
                                                ;"$8  ;J"
002541:  043100001000  .lose    1000            ;"$9  ( "
002542:  200300003361  move     6, 3361         ;"0#  ;Q"
002543:  040140000006  .iot     3, 6            ;"$!@  &"
002544:  043000003364  .call    [setz
                                 SIXBIT/RENMWO/
                                 201000000003
                                 000000003362
                                 400000003363]
                                                ;"$8  ;T"
002545:  043100001400  .lose    1400            ;"$9  , "
002546:  042140000007  .close   3,              ;"$1@  '"
002547:  263740000000  popj     17,             ;"6?@   "
002550:  400000000017  setz     0, 17           ;"@    /"
002551:  400000000000  setz     0,              ;"@     " "@\0\0\0\0"
002552:  445163555163  eqvi     3, @555163(3)   ;"DISMIS"
002553:  205000400000  movsi    0, 400000       ;"0H @  "
002554:  400000000017  setz     0, 17           ;"@    /"
002555:  400000000000  setz     0,              ;"@     " "@\0\0\0\0"
002556:  545763450000  hlri     17, @450000(3)  ;"LOSE  "
002557:  201007001000  movei    0, 1000(7)      ;"0(' ( "
002560:  601006777776  tln      0, 777776(6)    ;"P(&__^"
002561:  000000000000                           ;"      "
002562:  000000000062                           ;"     R"
002563:  576773757676  hlrem    17, @757676(13) ;"OW[]^^" "_____"
002564:  000000000012                           ;"     *"
002565:  777777774000  conso    774, @774000(17);"____@ "
002566:  007346545000                           ;" [FLH "
002567:  001071000544                           ;" (Y %D"
002570:  000003641100                           ;"  #T) "
002571:  001067000547                           ;" (W %G"
002572:  001065000552                           ;" (U %J"
002573:  723200000000  cono     230, 0          ;"Z:    " "th\0\0\0"
002574:  745320000000  consz    450, @0         ;"\K0   " "y-\0\0\0"
002575:  647136464000  tlcn     2, @464000(16)  ;"TY>F@ " "ieth\0"
002576:  000606500000                           ;" &&H  "
002577:  000000000103                           ;"    !#"
002600:  360600000001  soj      14, 1           ;">&   !"
002601:  400000000000  setz     0,              ;"@     " "@\0\0\0\0"
002602:  635157640000  tsza     3, 640000(17)   ;"SIOT  " "g&~@\0"
002603:  201000000002  movei    0, 2            ;"0(   ""
002604:  000000000001                           ;"     !"
002605:  400000000002  setz     0, 2            ;"@    ""
002606:  000000200000                           ;"   0  "
002607:  777634003370  cono     774, @3370(14)  ;"_^< ;X"
002610:  400000000000  setz     0,              ;"@     " "@\0\0\0\0"
002611:  636364416465  tdzn     7, @416465(4)   ;"SSTATU"
002612:  202000000001  movem    0, 1            ;"00   !"
002613:  202000000001  movem    0, 1            ;"00   !"
002614:  202000000001  movem    0, 1            ;"00   !"
002615:  202000000001  movem    0, 1            ;"00   !"
002616:  202000000001  movem    0, 1            ;"00   !"
002617:  202000000001  movem    0, 1            ;"00   !"
002620:  602000000002  trne     0, 2            ;"P0   ""
002621:  000000646471                           ;"   TTY"
002622:  400000000000  setz     0,              ;"@     " "@\0\0\0\0"
002623:  400000000000  setz     0,              ;"@     " "@\0\0\0\0"
002624:  004001646471                           ;" @!TTY"
002625:  400000000000  setz     0,              ;"@     " "@\0\0\0\0"
002626:  400000000000  setz     0,              ;"@     " "@\0\0\0\0"
002627:  777772001630  conso    774, @1630(12)  ;"__Z .8"
002630:  400000000000  setz     0,              ;"@     " "@\0\0\0\0"
002631:  656362664162  tdcn     7, @664162(2)   ;"USRVAR"
002632:  201000777777  movei    0, 777777       ;"0( ___"
002633:  400000000006  setz     0, 6            ;"@    &"
002634:  003535003536                           ;" == =>"
002635:  000005003535                           ;"  % =="
002636:  440700003535  andcb    16, 3535        ;"D'  =="
002637:  440600000003  andcb    14, 3           ;"D&   #"
002640:  771151072720  datao    710, 72720(11)  ;"_)I'70" "~&Huh"
002641:  374000000000  sosa     0               ;"?@    " "?\0\0\0\0"
002642:  260740001617  pushj    17, 1617        ;"6'@ ./"
002643:  561040002640  hrroi    1, 2640         ;"N(@ 6@"
002644:  201100000006  movei    2, 6            ;"0)   &"
002645:  211140000000  movni    3, 0            ;"1)@   " "\"&\0\0\0"
002646:  254000000107  jrst     107             ;"5@  !'"
002647:  656362000000  tdcn     7, @(2)         ;"USR   "
002650:  504143646256  hrl      3, 646256(3)    ;"HACTRN"
002651:  400000000000  setz     0,              ;"@     " "@\0\0\0\0"
002652:  576045560000  hlrem    1, 560000(5)    ;"OPEN  " "_B-`\0"
002653:  205000000016  movsi    0, 16           ;"0H   ."
002654:  201000000004  movei    0, 4            ;"0(   $"
002655:  000000002647                           ;"    6G"
002656:  200000000003  move     0, 3            ;"0    #"
002657:  400000002650  setz     0, 2650         ;"@   6H"
002660:  771157651500  datao    710, 651500(17) ;"_)OU- " "~&~S "
002661:  673376420330  tsoe     7, @420330(16)  ;"W;^B#8" "not l"
002662:  677174762710  tson     3, @762710(14)  ;"WY\^7(" "ogged"
002663:  203235627000  moves    4, @627000(15)  ;"0:=RX " " in.\0"
002664:  260740001617  pushj    17, 1617        ;"6'@ ./"
002665:  261740000003  push     17, 3           ;"6/@  #"
002666:  561040002660  hrroi    1, 2660         ;"N(@ 6P"
002667:  201100000023  movei    2, 23           ;"0)   3"
002670:  211140000001  movni    3, 1            ;"1)@  !"
002671:  254000000107  jrst     107             ;"5@  !'"
002672:  260740002664  pushj    17, 2664        ;"6'@ 6T"
002673:  260740000100  pushj    17, 100         ;"6'@ ! "
002674:  000030000016                           ;"  8  ."
002675:  771157651500  datao    710, 651500(17) ;"_)OU- " "~&~S "
002676:  647464062312  tlcn     11, @62312(4)   ;"T\T&3*" "is de"
002677:  723034364312  blki     230, @364312(14);"Z8<>C*" "tache"
002700:  621760000000  tlz      17, @0          ;"R/P   " "d?\0\0\0"
002701:  260740001617  pushj    17, 1617        ;"6'@ ./"
002702:  261740000003  push     17, 3           ;"6/@  #"
002703:  561040002675  hrroi    1, 2675         ;"N(@ 6]"
002704:  201100000021  movei    2, 21           ;"0)   1"
002705:  211140000001  movni    3, 1            ;"1)@  !"
002706:  254000000107  jrst     107             ;"5@  !'"
002707:  260740002701  pushj    17, 2701        ;"6'@ 7!"
002710:  260740000100  pushj    17, 100         ;"6'@ ! "
002711:  771152464312  datao    710, 464312(12) ;"_)JFC*" "~&The"
002712:  713124064746  blko     130, @64746(4)  ;"Y94&GF" "re is"
002713:  203355720250  moves    7, 720250(15)   ;"0;MZ"H" " no T"
002714:  522624077236  hllom    14, @77236(4)   ;"J64'Z>" "TY ~O"
002715:  270000000000  add      0, 0            ;"7     " ".\0\0\0\0"
002716:  260740001617  pushj    17, 1617        ;"6'@ ./"
002717:  261740000016  push     17, 16          ;"6/@  ."
002720:  561040002711  hrroi    1, 2711         ;"N(@ 7)"
002721:  201100000025  movei    2, 25           ;"0)   5"
002722:  211140000001  movni    3, 1            ;"1)@  !"
002723:  254000000107  jrst     107             ;"5@  !'"
002724:  260740002716  pushj    17, 2716        ;"6'@ 7."
002725:  260740000100  pushj    17, 100         ;"6'@ ! "
002726:  771147777236  datao    710, 777236(7)  ;"_)G_Z>" "~&?~O"
002727:  771140000000  datao    710, 0          ;"_)@   " "~&\0\0\0"
002730:  260740001617  pushj    17, 1617        ;"6'@ ./"
002731:  261740000014  push     17, 14          ;"6/@  ,"
002732:  561040002726  hrroi    1, 2726         ;"N(@ 76"
002733:  201100000007  movei    2, 7            ;"0)   '"
002734:  211140000001  movni    3, 1            ;"1)@  !"
002735:  254000000107  jrst     107             ;"5@  !'"
002736:  771144377236  datao    710, 377236(4)  ;"_)D?Z>" "~&#~O"
002737:  771140000000  datao    710, 0          ;"_)@   " "~&\0\0\0"
002740:  260740001617  pushj    17, 1617        ;"6'@ ./"
002741:  261740000014  push     17, 14          ;"6/@  ,"
002742:  561040002736  hrroi    1, 2736         ;"N(@ 7>"
002743:  201100000007  movei    2, 7            ;"0)   '"
002744:  211140000001  movni    3, 1            ;"1)@  !"
002745:  254000000107  jrst     107             ;"5@  !'"
002746:  771145077210  datao    710, 77210(5)   ;"_)E'Z(" "~&(~D"
002747:  261017642122  push     0, 642122(17)   ;"6(/T12" ", ~D)"
002750:  201327620120  movei    6, @620120(7)   ;"0+7R!0" " -> ("
002751:  772105420374  blko     720, 420374(5)  ;"_1%B#\" "~D, ~"
002752:  421237623000  andcmi   4, @623000(17)  ;"B*?R8 " "D)~&\0"
002753:  260740001617  pushj    17, 1617        ;"6'@ ./"
002754:  261740000001  push     17, 1           ;"6/@  !"
002755:  261740000002  push     17, 2           ;"6/@  ""
002756:  261740000003  push     17, 3           ;"6/@  #"
002757:  261740000014  push     17, 14          ;"6/@  ,"
002760:  561040002746  hrroi    1, 2746         ;"N(@ 7F"
002761:  201100000030  movei    2, 30           ;"0)   8"
002762:  211140000004  movni    3, 4            ;"1)@  $"
002763:  254000000107  jrst     107             ;"5@  !'"
002764:  771145037530  datao    710, 37530(5)   ;"_)E#]8" "~&(?,"
002765:  201765120132  movei    17, @120132(5)  ;"0/U*!:" " ?) -"
002766:  371005077210  sosl     77210(5)        ;"?(%'Z(" "> (~D"
002767:  261017642122  push     0, 642122(17)   ;"6(/T12" ", ~D)"
002770:  771140000000  datao    710, 0          ;"_)@   " "~&\0\0\0"
002771:  260740001617  pushj    17, 1617        ;"6'@ ./"
002772:  261740000001  push     17, 1           ;"6/@  !"
002773:  261740000014  push     17, 14          ;"6/@  ,"
002774:  561040002764  hrroi    1, 2764         ;"N(@ 7T"
002775:  201100000026  movei    2, 26           ;"0)   6"
002776:  211140000002  movni    3, 2            ;"1)@  ""
002777:  254000000107  jrst     107             ;"5@  !'"
003000:  771151167346  datao    710, 167346(11) ;"_)I.[F" "~&Ins"
003001:  627456420374  tlzn     11, 420374(16)  ;"R\NB#\" "ert ~"
003002:  421015464734  andcmi   0, 464734(15)   ;"B(-FG<" "D lin"
003003:  627752027374  tlzn     17, 27374(12)   ;"R_J"[\" "e~P.~"
003004:  230000000000  idiv     0, 0            ;"3     " "&\0\0\0\0"
003005:  260740001617  pushj    17, 1617        ;"6'@ ./"
003006:  261740000014  push     17, 14          ;"6/@  ,"
003007:  561040003000  hrroi    1, 3000         ;"N(@ 8 "
003010:  201100000025  movei    2, 25           ;"0)   5"
003011:  211140000001  movni    3, 1            ;"1)@  !"
003012:  254000000107  jrst     107             ;"5@  !'"
003013:  771150462730  datao    710, 462730(10) ;"_)HF78" "~&Del"
003014:  627514520374  tlzn     12, 520374(14)  ;"R],J#\" "ete ~"
003015:  421015464734  andcmi   0, 464734(15)   ;"B(-FG<" "D lin"
003016:  627752027374  tlzn     17, 27374(12)   ;"R_J"[\" "e~P.~"
003017:  230000000000  idiv     0, 0            ;"3     " "&\0\0\0\0"
003020:  260740001617  pushj    17, 1617        ;"6'@ ./"
003021:  261740000014  push     17, 14          ;"6/@  ,"
003022:  561040003013  hrroi    1, 3013         ;"N(@ 8+"
003023:  201100000025  movei    2, 25           ;"0)   5"
003024:  211140000001  movni    3, 1            ;"1)@  !"
003025:  254000000107  jrst     107             ;"5@  !'"
003026:  771151167346  datao    710, 167346(11) ;"_)I.[F" "~&Ins"
003027:  627456420374  tlzn     11, 420374(16)  ;"R\NB#\" "ert ~"
003030:  421014364302  andcmi   0, 364302(14)   ;"B(,>C"" "D cha"
003031:  713034372312  blki     130, @372312(14);"Y8<?3*" "racte"
003032:  713752027374  conso    134, 27374(12)  ;"Y?J"[\" "r~P.~"
003033:  230000000000  idiv     0, 0            ;"3     " "&\0\0\0\0"
003034:  260740001617  pushj    17, 1617        ;"6'@ ./"
003035:  261740000014  push     17, 14          ;"6/@  ,"
003036:  561040003026  hrroi    1, 3026         ;"N(@ 86"
003037:  201100000032  movei    2, 32           ;"0)   :"
003040:  211140000001  movni    3, 1            ;"1)@  !"
003041:  254000000107  jrst     107             ;"5@  !'"
003042:  771150462730  datao    710, 462730(10) ;"_)HF78" "~&Del"
003043:  627514520374  tlzn     12, 520374(14)  ;"R],J#\" "ete ~"
003044:  421014364302  andcmi   0, 364302(14)   ;"B(,>C"" "D cha"
003045:  713034372312  blki     130, @372312(14);"Y8<?3*" "racte"
003046:  713752027374  conso    134, 27374(12)  ;"Y?J"[\" "r~P.~"
003047:  230000000000  idiv     0, 0            ;"3     " "&\0\0\0\0"
003050:  260740001617  pushj    17, 1617        ;"6'@ ./"
003051:  261740000014  push     17, 14          ;"6/@  ,"
003052:  561040003042  hrroi    1, 3042         ;"N(@ 8B"
003053:  201100000032  movei    2, 32           ;"0)   :"
003054:  211140000001  movni    3, 1            ;"1)@  !"
003055:  254000000107  jrst     107             ;"5@  !'"
003056:  771152361744  datao    710, 361744(12) ;"_)J>/D" "~&Scr"
003057:  677315420374  tson     6, 420374(15)   ;"W[-B#\" "oll ~"
003060:  421015464734  andcmi   0, 464734(15)   ;"B(-FG<" "D lin"
003061:  627752020374  tlzn     17, 20374(12)   ;"R_J"#\" "e~P ~"
003062:  421016464732  andcmi   0, 464732(16)   ;"B(.FG:" "D tim"
003063:  627752020352  tlzn     17, 20352(12)   ;"R_J"#J" "e~P u"
003064:  703574171310  datao    34, @171310(14) ;"X=\/+(" "pward"
003065:  715357623000  conso    150, 623000(17) ;"YKOR8 " "s.~&\0"
003066:  260740001617  pushj    17, 1617        ;"6'@ ./"
003067:  261740000001  push     17, 1           ;"6/@  !"
003070:  261740000014  push     17, 14          ;"6/@  ,"
003071:  561040003056  hrroi    1, 3056         ;"N(@ 8N"
003072:  201100000047  movei    2, 47           ;"0)   G"
003073:  211140000002  movni    3, 2            ;"1)@  ""
003074:  254000000107  jrst     107             ;"5@  !'"
003075:  771152361744  datao    710, 361744(12) ;"_)J>/D" "~&Scr"
003076:  677315420374  tson     6, 420374(15)   ;"W[-B#\" "oll ~"
003077:  421015464734  andcmi   0, 464734(15)   ;"B(-FG<" "D lin"
003100:  627752020374  tlzn     17, 20374(12)   ;"R_J"#\" "e~P ~"
003101:  421016464732  andcmi   0, 464732(16)   ;"B(.FG:" "D tim"
003102:  627752020310  tlzn     17, 20310(12)   ;"R_J"#(" "e~P d"
003103:  677575673702  tson     13, @673702(15) ;"W]]W?"" "ownwa"
003104:  713116327374  blko     130, 327374(16) ;"Y9.:[\" "rds.~"
003105:  230000000000  idiv     0, 0            ;"3     " "&\0\0\0\0"
003106:  260740001617  pushj    17, 1617        ;"6'@ ./"
003107:  261740000001  push     17, 1           ;"6/@  !"
003110:  261740000014  push     17, 14          ;"6/@  ,"
003111:  561040003075  hrroi    1, 3075         ;"N(@ 8]"
003112:  201100000051  movei    2, 51           ;"0)   I"
003113:  211140000002  movni    3, 2            ;"1)@  ""
003114:  254000000107  jrst     107             ;"5@  !'"
003115:  771144120212  datao    710, 120212(4)  ;"_)D*"*" "~&! E"
003116:  476157623000  setom    3, 623000(17)   ;"GQOR8 " "OF~&\0"
003117:  260740001617  pushj    17, 1617        ;"6'@ ./"
003120:  561040003115  hrroi    1, 3115         ;"N(@ 9-"
003121:  201100000011  movei    2, 11           ;"0)   )"
003122:  211140000000  movni    3, 0            ;"1)@   " "\"&\0\0\0"
003123:  254000000107  jrst     107             ;"5@  !'"
003124:  771144120212  datao    710, 120212(4)  ;"_)D*"*" "~&! E"
003125:  476317623000  setom    6, 623000(17)   ;"GS/R8 " "OL~&\0"
003126:  260740001617  pushj    17, 1617        ;"6'@ ./"
003127:  561040003124  hrroi    1, 3124         ;"N(@ 94"
003130:  201100000011  movei    2, 11           ;"0)   )"
003131:  211140000000  movni    3, 0            ;"1)@   " "\"&\0\0\0"
003132:  254000000107  jrst     107             ;"5@  !'"
003133:  771144120210  datao    710, 120210(4)  ;"_)D*"(" "~&! D"
003134:  462157623000  setcmm   3, 623000(17)   ;"F1OR8 " "LF~&\0"
003135:  260740001617  pushj    17, 1617        ;"6'@ ./"
003136:  561040003133  hrroi    1, 3133         ;"N(@ 9;"
003137:  201100000011  movei    2, 11           ;"0)   )"
003140:  211140000000  movni    3, 0            ;"1)@   " "\"&\0\0\0"
003141:  254000000107  jrst     107             ;"5@  !'"
003142:  771144120232  datao    710, 120232(4)  ;"_)D*":" "~&! M"
003143:  522157623000  hllom    3, 623000(17)   ;"J1OR8 " "TF~&\0"
003144:  260740001617  pushj    17, 1617        ;"6'@ ./"
003145:  561040003142  hrroi    1, 3142         ;"N(@ 9B"
003146:  201100000011  movei    2, 11           ;"0)   )"
003147:  211140000000  movni    3, 0            ;"1)@   " "\"&\0\0\0"
003150:  254000000107  jrst     107             ;"5@  !'"
003151:  771144120232  datao    710, 120232(4)  ;"_)D*":" "~&! M"
003152:  522357623000  hllom    7, 623000(17)   ;"J3OR8 " "TN~&\0"
003153:  260740001617  pushj    17, 1617        ;"6'@ ./"
003154:  561040003151  hrroi    1, 3151         ;"N(@ 9I"
003155:  201100000011  movei    2, 11           ;"0)   )"
003156:  211140000000  movni    3, 0            ;"1)@   " "\"&\0\0\0"
003157:  254000000107  jrst     107             ;"5@  !'"
003160:  771144120206  datao    710, 120206(4)  ;"_)D*"&" "~&! C"
003161:  512317623000  hllzm    6, 623000(17)   ;"I3/R8 " "RL~&\0"
003162:  260740001617  pushj    17, 1617        ;"6'@ ./"
003163:  561040003160  hrroi    1, 3160         ;"N(@ 9P"
003164:  201100000011  movei    2, 11           ;"0)   )"
003165:  211140000000  movni    3, 0            ;"1)@   " "\"&\0\0\0"
003166:  254000000107  jrst     107             ;"5@  !'"
003167:  771144120234  datao    710, 120234(4)  ;"_)D*"<" "~&! N"
003170:  476417623000  setom    10, 623000(17)  ;"GT/R8 " "OP~&\0"
003171:  260740001617  pushj    17, 1617        ;"6'@ ./"
003172:  561040003167  hrroi    1, 3167         ;"N(@ 9W"
003173:  201100000011  movei    2, 11           ;"0)   )"
003174:  211140000000  movni    3, 0            ;"1)@   " "\"&\0\0\0"
003175:  254000000107  jrst     107             ;"5@  !'"
003176:  771144120204  datao    710, 120204(4)  ;"_)D*"$" "~&! B"
003177:  517744600000  hrlzs    17, 600000(4)   ;"I_DP  " "S~&\0\0"
003200:  260740001617  pushj    17, 1617        ;"6'@ ./"
003201:  561040003176  hrroi    1, 3176         ;"N(@ 9^"
003202:  201100000010  movei    2, 10           ;"0)   ("
003203:  211140000000  movni    3, 0            ;"1)@   " "\"&\0\0\0"
003204:  254000000107  jrst     107             ;"5@  !'"
003205:  771144120230  datao    710, 120230(4)  ;"_)D*"8" "~&! L"
003206:  433744600000  xorb     17, 600000(4)   ;"C?DP  " "F~&\0\0"
003207:  260740001617  pushj    17, 1617        ;"6'@ ./"
003210:  561040003205  hrroi    1, 3205         ;"N(@ :%"
003211:  201100000010  movei    2, 10           ;"0)   ("
003212:  211140000000  movni    3, 0            ;"1)@   " "\"&\0\0\0"
003213:  254000000107  jrst     107             ;"5@  !'"
003214:  771144120244  datao    710, 120244(4)  ;"_)D*"D" "~&! R"
003215:  416457623000  setmm    11, 623000(17)  ;"ATOR8 " "CR~&\0"
003216:  260740001617  pushj    17, 1617        ;"6'@ ./"
003217:  561040003214  hrroi    1, 3214         ;"N(@ :,"
003220:  201100000011  movei    2, 11           ;"0)   )"
003221:  211140000000  movni    3, 0            ;"1)@   " "\"&\0\0\0"
003222:  254000000107  jrst     107             ;"5@  !'"
003223:  771144120236  datao    710, 120236(4)  ;"_)D*">" "~&! O"
003224:  512477623000  hllzm    11, @623000(17) ;"I4_R8 " "RS~&\0"
003225:  260740001617  pushj    17, 1617        ;"6'@ ./"
003226:  561040003223  hrroi    1, 3223         ;"N(@ :3"
003227:  201100000011  movei    2, 11           ;"0)   )"
003230:  211140000000  movni    3, 0            ;"1)@   " "\"&\0\0\0"
003231:  254000000107  jrst     107             ;"5@  !'"
003232:  771144120242  datao    710, 120242(4)  ;"_)D*"B" "~&! Q"
003233:  476517623000  setom    12, 623000(17)  ;"GU/R8 " "OT~&\0"
003234:  260740001617  pushj    17, 1617        ;"6'@ ./"
003235:  561040003232  hrroi    1, 3232         ;"N(@ ::"
003236:  201100000011  movei    2, 11           ;"0)   )"
003237:  211140000000  movni    3, 0            ;"1)@   " "\"&\0\0\0"
003240:  254000000107  jrst     107             ;"5@  !'"
003241:  771144120214  datao    710, 120214(4)  ;"_)D*"," "~&! F"
003242:  517744600000  hrlzs    17, 600000(4)   ;"I_DP  " "S~&\0\0"
003243:  260740001617  pushj    17, 1617        ;"6'@ ./"
003244:  561040003241  hrroi    1, 3241         ;"N(@ :A"
003245:  201100000010  movei    2, 10           ;"0)   ("
003246:  211140000000  movni    3, 0            ;"1)@   " "\"&\0\0\0"
003247:  254000000107  jrst     107             ;"5@  !'"
003250:  771144120206  datao    710, 120206(4)  ;"_)D*"&" "~&! C"
003251:  462457623000  setcmm   11, 623000(17)  ;"F4OR8 " "LR~&\0"
003252:  260740001617  pushj    17, 1617        ;"6'@ ./"
003253:  561040003250  hrroi    1, 3250         ;"N(@ :H"
003254:  201100000011  movei    2, 11           ;"0)   )"
003255:  211140000000  movni    3, 0            ;"1)@   " "\"&\0\0\0"
003256:  254000000107  jrst     107             ;"5@  !'"
003257:  771144120204  datao    710, 120204(4)  ;"_)D*"$" "~&! B"
003260:  426317623000  setam    6, 623000(17)   ;"BS/R8 " "EL~&\0"
003261:  260740001617  pushj    17, 1617        ;"6'@ ./"
003262:  561040003257  hrroi    1, 3257         ;"N(@ :O"
003263:  201100000011  movei    2, 11           ;"0)   )"
003264:  211140000000  movni    3, 0            ;"1)@   " "\"&\0\0\0"
003265:  254000000107  jrst     107             ;"5@  !'"
003266:  771144120222  datao    710, 120222(4)  ;"_)D*"2" "~&! I"
003267:  472237623000  orcbm    4, @623000(17)  ;"G2?R8 " "NI~&\0"
003270:  260740001617  pushj    17, 1617        ;"6'@ ./"
003271:  561040003266  hrroi    1, 3266         ;"N(@ :V"
003272:  201100000011  movei    2, 11           ;"0)   )"
003273:  211140000000  movni    3, 0            ;"1)@   " "\"&\0\0\0"
003274:  254000000107  jrst     107             ;"5@  !'"
003275:  771144120204  datao    710, 120204(4)  ;"_)D*"$" "~&! B"
003276:  476577623000  setom    13, @623000(17) ;"GU_R8 " "OW~&\0"
003277:  260740001617  pushj    17, 1617        ;"6'@ ./"
003300:  561040003275  hrroi    1, 3275         ;"N(@ :]"
003301:  201100000011  movei    2, 11           ;"0)   )"
003302:  211140000000  movni    3, 0            ;"1)@   " "\"&\0\0\0"
003303:  254000000107  jrst     107             ;"5@  !'"
003304:  771144120244  datao    710, 120244(4)  ;"_)D*"D" "~&! R"
003305:  516517623000  hrlzm    12, 623000(17)  ;"IU/R8 " "ST~&\0"
003306:  260740001617  pushj    17, 1617        ;"6'@ ./"
003307:  561040003304  hrroi    1, 3304         ;"N(@ ;$"
003310:  201100000011  movei    2, 11           ;"0)   )"
003311:  211140000000  movni    3, 0            ;"1)@   " "\"&\0\0\0"
003312:  254000000107  jrst     107             ;"5@  !'"
003313:  771144120216  datao    710, 120216(4)  ;"_)D*"." "~&! G"
003314:  512157623000  hllzm    3, 623000(17)   ;"I1OR8 " "RF~&\0"
003315:  260740001617  pushj    17, 1617        ;"6'@ ./"
003316:  561040003313  hrroi    1, 3313         ;"N(@ ;+"
003317:  201100000011  movei    2, 11           ;"0)   )"
003320:  211140000000  movni    3, 0            ;"1)@   " "\"&\0\0\0"
003321:  254000000107  jrst     107             ;"5@  !'"
003322:  777602000002  cono     774, 2(2)       ;"_^"  ""
003323:  400000000000  setz     0,              ;"@     " "@\0\0\0\0"
003324:  435762425453  iori     17, @425453(2)  ;"CORBLK"
003325:  201000010000  movei    0, 10000        ;"0( !  "
003326:  201000777777  movei    0, 777777       ;"0( ___"
003327:  200000000006  move     0, 6            ;"0    &"
003330:  201000777772  movei    0, 777772       ;"0( __Z"
003331:  600000000007  trn      0, 7            ;"P    '"
003332:  027277540200                           ;""Z_L" "
003333:  027275713420                           ;""Z]Y<0"
003334:  027275724720                           ;""Z]ZG0"
003335:  022445216000                           ;""4E1P "
003336:  446353000000  eqvm     7, (13)         ;"DSK   " "INX\0\0"
003337:  775742637700  conso    754, 637700(2)  ;"_OBS_ "
003340:  576564606564  hlrem    13, @606564(4)  ;"OUTPUT" "_W&\r:"
003341:  637163000000  tszn     3, @(3)         ;"SYS   "
003342:  400000000000  setz     0,              ;"@     " "@\0\0\0\0"
003343:  576045560000  hlrem    1, 560000(5)    ;"OPEN  " "_B-`\0"
003344:  205000000007  movsi    0, 7            ;"0H   '"
003345:  201000000003  movei    0, 3            ;"0(   #"
003346:  000000003336                           ;"    ;>"
003347:  000000003337                           ;"    ;?"
003350:  000000003340                           ;"    ;@"
003351:  400000003341  setz     0, 3341         ;"@   ;A"
003352:  400000000000  setz     0,              ;"@     " "@\0\0\0\0"
003353:  604465556000  trna     11, @556000(5)  ;"PDUMP "
003354:  201000777777  movei    0, 777777       ;"0( ___"
003355:  201000000003  movei    0, 3            ;"0(   #"
003356:  600000000006  trn      0, 6            ;"P    &"
003357:  254000001636  jrst     1636            ;"5@  .>"
003360:  254000001636  jrst     1636            ;"5@  .>"
003361:  777776003357  conso    774, @3357(16)  ;"__^ ;O"
003362:  646300000000  trcn     6, 0            ;"TS    " "iL\0\0\0"
003363:  574263000000  hlre     5, @(3)         ;"OBS   "
003364:  400000000000  setz     0,              ;"@     " "@\0\0\0\0"
003365:  624556556757  trza     13, 556757(16)  ;"RENMWO"
003366:  201000000003  movei    0, 3            ;"0(   #"
003367:  000000003362                           ;"    ;R"
003370:  400000003363  setz     0, 3363         ;"@   ;S"
003371:  010000001645                           ;"!   .E"
003372:  000000000000                           ;"      "
003373:  000000000000                           ;"      "
003374:  000000000000                           ;"      "
003375:  000000000000                           ;"      "
003376:  000000000000                           ;"      "
003377:  000000000000                           ;"      "
003400:  000000000000                           ;"      "
003401:  000000000000                           ;"      "
003402:  000000000000                           ;"      "
003403:  000000000000                           ;"      "
003404:  000000000000                           ;"      "
003405:  000000000000                           ;"      "
003406:  000000000000                           ;"      "
003407:  000000000000                           ;"      "
003410:  000000000000                           ;"      "
003411:  000000000000                           ;"      "
003412:  000000000000                           ;"      "
003413:  000000000000                           ;"      "
003414:  000000000000                           ;"      "
003415:  000000000000                           ;"      "
003416:  000000000000                           ;"      "
003417:  000000000000                           ;"      "
003420:  000000000000                           ;"      "
003421:  000000000000                           ;"      "
003422:  000000000000                           ;"      "
003423:  000000000000                           ;"      "
003424:  000000000000                           ;"      "
003425:  000000000000                           ;"      "
003426:  000000000000                           ;"      "
003427:  000000000000                           ;"      "
003430:  000000000000                           ;"      "
003431:  000000000000                           ;"      "
003432:  000000000000                           ;"      "
003433:  000000000000                           ;"      "
003434:  000000000000                           ;"      "
003435:  000000000000                           ;"      "
003436:  000000000000                           ;"      "
003437:  000000000000                           ;"      "
003440:  000000000000                           ;"      "
003441:  000000000000                           ;"      "
003442:  000000000000                           ;"      "
003443:  000000000000                           ;"      "
003444:  000000000000                           ;"      "
003445:  000000000000                           ;"      "
003446:  000000000000                           ;"      "
003447:  000000000000                           ;"      "
003450:  000000000000                           ;"      "
003451:  000000000000                           ;"      "
003452:  000000000000                           ;"      "
003453:  000000000000                           ;"      "
003454:  000000000000                           ;"      "
003455:  000000000000                           ;"      "
003456:  000000000000                           ;"      "
003457:  000000000000                           ;"      "
003460:  000000000000                           ;"      "
003461:  000000000000                           ;"      "
003462:  000000000000                           ;"      "
003463:  000000000000                           ;"      "
003464:  000000000000                           ;"      "
003465:  000000000000                           ;"      "
003466:  000000000000                           ;"      "
003467:  000000000000                           ;"      "
003470:  000000000000                           ;"      "
003471:  000000000000                           ;"      "
003472:  000000000000                           ;"      "
003473:  000000000000                           ;"      "
003474:  000000000000                           ;"      "
003475:  000000000000                           ;"      "
003476:  000000000000                           ;"      "
003477:  000000000000                           ;"      "
003500:  000000000000                           ;"      "
003501:  000000000000                           ;"      "
003502:  000000000000                           ;"      "
003503:  000000000000                           ;"      "
003504:  000000000000                           ;"      "
003505:  000000000000                           ;"      "
003506:  000000000000                           ;"      "
003507:  000000000000                           ;"      "
003510:  000000000000                           ;"      "
003511:  000000000000                           ;"      "
003512:  000000000000                           ;"      "
003513:  000000000000                           ;"      "
003514:  000000000000                           ;"      "
003515:  000000000000                           ;"      "
003516:  000000000000                           ;"      "
003517:  000000000000                           ;"      "
003520:  000000000000                           ;"      "
003521:  000000000000                           ;"      "
003522:  000000000000                           ;"      "
003523:  000000000000                           ;"      "
003524:  000000000000                           ;"      "
003525:  000000000000                           ;"      "
003526:  000000000000                           ;"      "
003527:  000000000000                           ;"      "
003530:  000000000000                           ;"      "
003531:  000000000000                           ;"      "
003532:  000000000000                           ;"      "
003533:  000000000000                           ;"      "
003534:  000000000000                           ;"      "
003535:  000000000000                           ;"      "
003536:  000000000000                           ;"      "
003537:  000000000000                           ;"      "
003540:  000000000000                           ;"      "
003541:  000000000000                           ;"      "
003542:  000000000000                           ;"      "
003543:  000000000000                           ;"      "
003544:  000000000000                           ;"      "
003545:  000000000000                           ;"      "
003546:  000000000000                           ;"      "
003547:  000000000000                           ;"      "
003550:  000000000000                           ;"      "
003551:  000000000000                           ;"      "
003552:  000000000000                           ;"      "
003553:  000000000000                           ;"      "
003554:  000000000000                           ;"      "
003555:  000000000000                           ;"      "
003556:  000000000000                           ;"      "
003557:  000000000000                           ;"      "
003560:  000000000000                           ;"      "
003561:  000000000000                           ;"      "
003562:  415100000000                           ;"AI    " "C$\0\0\0"
003563:  212624240000  movnm    14, @240000(4)  ;"1644  " "\"Y\"@\0"
003564:  000016071601                           ;"  .'.!"
003565:  000016071700                           ;"  .'/ "
003566:  000016071653                           ;"  .'.K"
003567:  000000000025                           ;"     5"
003570:  000000000000                           ;"      "
003571:  000000000000                           ;"      "
003572:  000000000000                           ;"      "
003573:  000000000000                           ;"      "
003574:  000000000000                           ;"      "
003575:  000000000000                           ;"      "
003576:  000000000000                           ;"      "
003577:  000000000000                           ;"      "
003600:  000000000000                           ;"      "
003601:  000000000000                           ;"      "
003602:  000000000000                           ;"      "
003603:  000000000000                           ;"      "
003604:  000000000000                           ;"      "
003605:  000000000000                           ;"      "
003606:  000000000000                           ;"      "
003607:  000000000000                           ;"      "
003610:  000000000000                           ;"      "
003611:  000000000000                           ;"      "
003612:  000000000000                           ;"      "
003613:  000000000000                           ;"      "
003614:  000000000000                           ;"      "
003615:  000000000000                           ;"      "
003616:  000000000000                           ;"      "
003617:  000000000000                           ;"      "
003620:  000000000000                           ;"      "
003621:  000000000000                           ;"      "
003622:  000000000000                           ;"      "
003623:  000000000000                           ;"      "
003624:  000000000000                           ;"      "
003625:  000000000000                           ;"      "
003626:  000000000000                           ;"      "
003627:  000000000000                           ;"      "
003630:  000000000000                           ;"      "
003631:  000000000000                           ;"      "
003632:  000000000000                           ;"      "
003633:  000000000000                           ;"      "
003634:  000000000000                           ;"      "
003635:  000000000000                           ;"      "
003636:  000000000000                           ;"      "
003637:  000000000000                           ;"      "
003640:  000000000000                           ;"      "
003641:  000000000000                           ;"      "
003642:  000000000000                           ;"      "
003643:  000000000000                           ;"      "
003644:  000000000000                           ;"      "
003645:  000000000000                           ;"      "
003646:  000000000000                           ;"      "
003647:  000000000000                           ;"      "
003650:  000000000000                           ;"      "
003651:  000000000000                           ;"      "
003652:  000000000000                           ;"      "
003653:  000000000000                           ;"      "
003654:  000000000000                           ;"      "
003655:  000000000000                           ;"      "
003656:  000000000000                           ;"      "
003657:  000000000000                           ;"      "
003660:  000000000000                           ;"      "
003661:  000000000000                           ;"      "
003662:  000000000000                           ;"      "
003663:  000000000000                           ;"      "
003664:  000000000000                           ;"      "
003665:  000000000000                           ;"      "
003666:  000000000000                           ;"      "
003667:  000000000000                           ;"      "
003670:  000000000000                           ;"      "
003671:  000000000000                           ;"      "
003672:  000000000000                           ;"      "
003673:  000000000000                           ;"      "
003674:  000000000000                           ;"      "
003675:  000000000000                           ;"      "
003676:  000000000000                           ;"      "
003677:  000000000000                           ;"      "
003700:  000000000000                           ;"      "
003701:  000000000000                           ;"      "
003702:  000000000000                           ;"      "
003703:  000000000000                           ;"      "
003704:  000000000000                           ;"      "
003705:  000000000000                           ;"      "
003706:  000000000000                           ;"      "
003707:  000000000000                           ;"      "
003710:  000000000000                           ;"      "
003711:  000000000000                           ;"      "
003712:  000000000000                           ;"      "
003713:  000000000000                           ;"      "
003714:  000000000000                           ;"      "
003715:  000000000000                           ;"      "
003716:  000000000000                           ;"      "
003717:  000000000000                           ;"      "
003720:  000000000000                           ;"      "
003721:  000000000000                           ;"      "
003722:  000000000000                           ;"      "
003723:  000000000000                           ;"      "
003724:  000000000000                           ;"      "
003725:  000000000000                           ;"      "
003726:  000000000000                           ;"      "
003727:  000000000000                           ;"      "
003730:  000000000000                           ;"      "
003731:  000000000000                           ;"      "
003732:  000000000000                           ;"      "
003733:  000000000000                           ;"      "
003734:  000000000000                           ;"      "
003735:  777777777777  conso    774, @777777(17);"______"
003736:  000000000000                           ;"      "
003737:  000000000000                           ;"      "
003740:  000000000000                           ;"      "
003741:  000000000000                           ;"      "
003742:  000000000000                           ;"      "
003743:  000000000000                           ;"      "
003744:  000000000000                           ;"      "
003745:  000000000000                           ;"      "
003746:  000000000000                           ;"      "
003747:  000000000000                           ;"      "
003750:  000000000000                           ;"      "
003751:  000000000000                           ;"      "
003752:  000000000000                           ;"      "
003753:  000000000000                           ;"      "
003754:  000000000000                           ;"      "
003755:  000000000000                           ;"      "
003756:  000000000000                           ;"      "
003757:  000000000000                           ;"      "
003760:  000000000000                           ;"      "
003761:  000000000000                           ;"      "
003762:  000000000000                           ;"      "
003763:  000000000000                           ;"      "
003764:  000000000000                           ;"      "
003765:  000000000000                           ;"      "
003766:  000000000000                           ;"      "
003767:  000000000000                           ;"      "
003770:  000000000000                           ;"      "
003771:  000000000000                           ;"      "
003772:  000000000000                           ;"      "
003773:  000000000000                           ;"      "
003774:  000000000000                           ;"      "
003775:  000000000000                           ;"      "
003776:  000000000000                           ;"      "
003777:  000000000000                           ;"      "
