PDUMP format

Page map:
Page  Address  Page description
000   000000   000000,,611420  ---wr 420
001   002000   000000,,612131  ---wr 131
002   004000   000000,,612036  ---wr 036
003   006000   000000,,610414  ---wr 414

Start instruction:
         254000000114  jrst     114             ;"5@  !,"

Assembly info:
  User name:          KLH   
  Creation time:      1982-11-14 04:24:32
  Source file device: MC    
  Source file name 1: SRCCOM
  Source file name 2: 124   
  Source file sname:  KLH   

Symbol table:
  Header: rubout
    Symbol $$help = 0   ( halfkilled local)
    Symbol rb.pos = 0   ( halfkilled local)
    Symbol $$mult = 0   ( halfkilled local)
    Symbol $$ctlb = 0   ( halfkilled local)
    Symbol rb.wid = 1   ( halfkilled local)
    Symbol a      = 1   ( local)
    Symbol $$prom = 1   ( halfkilled local)
    Symbol $$ffcl = 1   ( halfkilled local)
    Symbol $$ctle = 1   ( halfkilled local)
    Symbol $$brki = 1   ( halfkilled local)
    Symbol $$fci  = 1   ( halfkilled local)
    Symbol rb%cid = 1   ( halfkilled local)
    Symbol rb.typ = 2   ( halfkilled local)
    Symbol b      = 2   ( local)
    Symbol rb%fil = 2   ( halfkilled local)
    Symbol rb%sai = 2   ( halfkilled local)
    Symbol rb.beg = 3   ( halfkilled local)
    Symbol c      = 3   ( local)
    Symbol d      = 4   ( local)
    Symbol rb.end = 4   ( halfkilled local)
    Symbol rb.ptr = 5   ( halfkilled local)
    Symbol rb.prs = 6   ( halfkilled local)
    Symbol rb.sta = 7   ( halfkilled local)
    Symbol rb.len = 10   ( halfkilled local)
    Symbol chrtyp = 3443   ( local)
    Symbol chrty1 = 3451   ( local)
    Symbol rrchbp = 3465   ( local)
    Symbol rrchtb = 3473   ( local)
    Symbol init   = 3501   ( local)
    Symbol inito  = 3502   ( local)
    Symbol popdcj = 3521   ( local)
    Symbol popcj  = 3522   ( local)
    Symbol cpopj  = 3523   ( local)
    Symbol init1  = 3524   ( local)
    Symbol initb  = 3527   ( local)
    Symbol chrnrm = 3533   ( local)
    Symbol chrnr1 = 3541   ( local)
    Symbol chrasi = 3546   ( local)
    Symbol chrasc = 3553   ( local)
    Symbol read   = 3565   ( local)
    Symbol rbloop = 3567   ( local)
    Symbol rbloo2 = 3575   ( local)
    Symbol rbloo1 = 3601   ( local)
    Symbol rb$dsp = 3606   ( local)
    Symbol quote  = 3630   ( local)
    Symbol insech = 3633   ( local)
    Symbol inscr  = 3637   ( local)
    Symbol insert = 3645   ( local)
    Symbol brkcr  = 3650   ( local)
    Symbol brkins = 3657   ( local)
    Symbol break  = 3662   ( local)
    Symbol quit   = 3667   ( local)
    Symbol cancel = 3675   ( local)
    Symbol cance1 = 3715   ( local)
    Symbol ctlu   = 3721   ( local)
    Symbol clrlin = 3722   ( local)
    Symbol ignore = 3734   ( local)
    Symbol redisp = 3737   ( local)
    Symbol redis1 = 3741   ( local)
    Symbol wclear = 3746   ( local)
    Symbol crshom = 3753   ( local)
    Symbol disp2  = 3766   ( local)
    Symbol outech = 3774   ( local)
    Symbol outec1 = 4000   ( local)
    Symbol outrub = 4010   ( local)
    Symbol crlf   = 4014   ( local)
    Symbol rubout = 4021   ( local)
    Symbol rubou4 = 4037   ( local)
    Symbol rubou3 = 4040   ( local)
    Symbol output = 4041   ( local)
    Symbol rubou1 = 4042   ( local)
    Symbol rubou2 = 4044   ( local)
    Symbol rubtab = 4046   ( local)
    Symbol rubctl = 4056   ( local)
    Symbol rubcr  = 4062   ( local)
    Symbol rubht  = 4062   ( local)
    Symbol rubbs  = 4062   ( local)
    Symbol rublf  = 4063   ( local)
    Symbol dbpptr = 4065   ( local)
    Symbol popj1  = 4074   ( local)
    Symbol dbpc   = 4076   ( local)
    Symbol dbp9   = 4105   ( local)
    Symbol inchr  = 4111   ( local)
    Symbol outchr = 4113   ( local)
    Symbol displa = 4116   ( local)
    Symbol prompt = 4121   ( local)
    Symbol dispat = 4125   ( local)
    Symbol rb.    = 777777   ( halfkilled local)
  Header: srccom
    Symbol $f6dev = 0   ( halfkilled local)
    Symbol chtti  = 0   ( halfkilled local)
    Symbol lnnext = 0   ( halfkilled local)
    Symbol dec    = 0   ( halfkilled local)
    Symbol $fdev  = 0   ( halfkilled local)
    Symbol tnx    = 0   ( halfkilled local)
    Symbol $f6fn1 = 1   ( halfkilled local)
    Symbol $fname = 1   ( halfkilled local)
    Symbol w1     = 1   ( local)
    Symbol chin1  = 1   ( halfkilled local)
    Symbol its    = 1   ( halfkilled local)
    Symbol lnsize = 1   ( halfkilled local)
    Symbol flindr = 1   ( halfkilled local)
    Symbol $fvers = 2   ( halfkilled local)
    Symbol chin2  = 2   ( halfkilled local)
    Symbol mrglen = 2   ( halfkilled local)
    Symbol $fext  = 2   ( halfkilled local)
    Symbol lnllbl = 2   ( halfkilled local)
    Symbol $f6fn2 = 2   ( halfkilled local)
    Symbol flxctf = 2   ( halfkilled local)
    Symbol w2     = 2   ( local)
    Symbol match  = 3   ( halfkilled local)
    Symbol $fdir  = 3   ( halfkilled local)
    Symbol $f6dir = 3   ( halfkilled local)
    Symbol chin3  = 3   ( halfkilled local)
    Symbol w3     = 3   ( local)
    Symbol lnllb1 = 3   ( halfkilled local)
    Symbol chmrg  = 4   ( halfkilled local)
    Symbol lnlbln = 4   ( halfkilled local)
    Symbol l$fblk = 4   ( halfkilled local)
    Symbol lnllb2 = 4   ( halfkilled local)
    Symbol f1     = 4   ( local)
    Symbol fliswt = 4   ( halfkilled local)
    Symbol f2     = 5   ( local)
    Symbol chtto  = 5   ( halfkilled local)
    Symbol lnllb3 = 5   ( halfkilled local)
    Symbol f3     = 6   ( local)
    Symbol lnpgnm = 6   ( halfkilled local)
    Symbol cherr  = 6   ( halfkilled local)
    Symbol chout  = 7   ( halfkilled local)
    Symbol lnlnnm = 7   ( halfkilled local)
    Symbol fr     = 7   ( local)
    Symbol flarch = 10   ( halfkilled local)
    Symbol lnchnm = 10   ( halfkilled local)
    Symbol chcmd  = 10   ( halfkilled local)
    Symbol cs     = 10   ( local)
    Symbol chuin1 = 11   ( halfkilled local)
    Symbol tab    = 11   ( halfkilled local)
    Symbol c      = 11   ( local)
    Symbol lndata = 11   ( halfkilled local)
    Symbol chuin2 = 12   ( halfkilled local)
    Symbol t      = 12   ( local)
    Symbol tt     = 13   ( local)
    Symbol chuo1  = 13   ( halfkilled local)
    Symbol chuo2  = 14   ( halfkilled local)
    Symbol bp     = 14   ( local)
    Symbol rdlin2 = 14   ( halfkilled local)
    Symbol mpvok1 = 15   ( halfkilled local)
    Symbol fp     = 15   ( local)
    Symbol rdlin7 = 16   ( halfkilled local)
    Symbol p      = 17   ( local)
    Symbol fllabl = 20   ( halfkilled local)
    Symbol ttibfl = 30   ( halfkilled local)
    Symbol lpdl   = 30   ( halfkilled local)
    Symbol altm   = 33   ( halfkilled local)
    Symbol flendl = 40   ( halfkilled local)
    Symbol wpl    = 41   ( halfkilled local)
    Symbol flspac = 100   ( halfkilled local)
    Symbol filbfl = 100   ( halfkilled local)
    Symbol infb   = 104   ( local)
    Symbol lstfb  = 110   ( local)
    Symbol beg    = 114   ( local)
    Symbol restrt = 140   ( local)
    Symbol restr1 = 141   ( local)
    Symbol flcmnt = 200   ( halfkilled local)
    Symbol cmd3   = 215   ( local)
    Symbol cmd6   = 250   ( local)
    Symbol rfind1 = 266   ( local)
    Symbol cmd4   = 316   ( local)
    Symbol cmd5   = 343   ( local)
    Symbol cmd2   = 360   ( local)
    Symbol flall  = 400   ( halfkilled local)
    Symbol enter  = 464   ( local)
    Symbol same   = 471   ( local)
    Symbol mrgbsz = 500   ( halfkilled local)
    Symbol same1  = 502   ( local)
    Symbol same2  = 511   ( local)
    Symbol bsame  = 514   ( local)
    Symbol bend0  = 526   ( local)
    Symbol bend1  = 537   ( local)
    Symbol bdiff  = 544   ( local)
    Symbol sbsame = 575   ( local)
    Symbol sbsam0 = 606   ( local)
    Symbol sbend0 = 612   ( local)
    Symbol sbend1 = 623   ( local)
    Symbol sbdiff = 630   ( local)
    Symbol diff   = 660   ( local)
    Symbol diffrd = 674   ( local)
    Symbol diff3  = 711   ( local)
    Symbol diff0  = 715   ( local)
    Symbol diff2  = 722   ( local)
    Symbol diff1  = 727   ( local)
    Symbol end0   = 735   ( local)
    Symbol end2   = 745   ( local)
    Symbol findif = 754   ( local)
    Symbol fin2   = 764   ( local)
    Symbol fin4   = 776   ( local)
    Symbol fleof1 = 1000   ( halfkilled local)
    Symbol fin5   = 1010   ( local)
    Symbol fin3   = 1013   ( local)
    Symbol multi  = 1033   ( local)
    Symbol mult2  = 1041   ( local)
    Symbol mult4  = 1057   ( local)
    Symbol multe  = 1065   ( local)
    Symbol mult6  = 1074   ( local)
    Symbol mult8  = 1077   ( local)
    Symbol mult10 = 1113   ( local)
    Symbol comspc = 1120   ( local)
    Symbol comspl = 1133   ( local)
    Symbol comsp2 = 1143   ( local)
    Symbol comsp3 = 1153   ( local)
    Symbol comspx = 1157   ( local)
    Symbol comspf = 1165   ( local)
    Symbol blankp = 1170   ( local)
    Symbol blank1 = 1173   ( local)
    Symbol 3loop  = 1211   ( local)
    Symbol 3same  = 1212   ( local)
    Symbol 3same1 = 1223   ( local)
    Symbol 3same2 = 1232   ( local)
    Symbol 3same3 = 1241   ( local)
    Symbol 3diff  = 1260   ( local)
    Symbol 3diffr = 1304   ( local)
    Symbol 3diff0 = 1341   ( local)
    Symbol 3diff2 = 1346   ( local)
    Symbol 3diff1 = 1353   ( local)
    Symbol 3diff3 = 1360   ( local)
    Symbol 3diff6 = 1363   ( local)
    Symbol 3diff5 = 1372   ( local)
    Symbol 3diff4 = 1401   ( local)
    Symbol 3aldif = 1411   ( local)
    Symbol 3multi = 1411   ( local)
    Symbol trymrg = 1412   ( local)
    Symbol listen = 1422   ( local)
    Symbol mrg3b  = 1432   ( local)
    Symbol mrg3a  = 1433   ( local)
    Symbol mrg4   = 1445   ( local)
    Symbol mrg5   = 1457   ( local)
    Symbol mrgu1  = 1463   ( local)
    Symbol mrgi   = 1476   ( local)
    Symbol mrgi1  = 1477   ( local)
    Symbol mrgpnt = 1524   ( local)
    Symbol mrgpn1 = 1525   ( local)
    Symbol mrgcnt = 1531   ( local)
    Symbol mrgcn1 = 1534   ( local)
    Symbol mrgo   = 1540   ( local)
    Symbol mrgfrc = 1543   ( local)
    Symbol mrgfr1 = 1555   ( local)
    Symbol popw1j = 1556   ( local)
    Symbol gtmrg0 = 1560   ( local)
    Symbol getmrg = 1562   ( local)
    Symbol gtmrg1 = 1564   ( local)
    Symbol gtmrgl = 1605   ( local)
    Symbol gtmrg2 = 1610   ( local)
    Symbol gtmrg3 = 1621   ( local)
    Symbol gtmrg4 = 1624   ( local)
    Symbol mrgin  = 1627   ( local)
    Symbol moveup = 1631   ( local)
    Symbol moveu5 = 1642   ( local)
    Symbol moveu3 = 1645   ( local)
    Symbol moveu4 = 1654   ( local)
    Symbol moveu1 = 1670   ( local)
    Symbol moveu2 = 1673   ( local)
    Symbol moveu7 = 1707   ( local)
    Symbol moveu6 = 1711   ( local)
    Symbol compl  = 1736   ( local)
    Symbol compl1 = 1751   ( local)
    Symbol complx = 1752   ( local)
    Symbol compul = 1757   ( local)
    Symbol compu1 = 1765   ( local)
    Symbol compu2 = 1773   ( local)
    Symbol fleof2 = 2000   ( halfkilled local)
    Symbol compu4 = 2003   ( local)
    Symbol compu3 = 2015   ( local)
    Symbol compcs = 2020   ( local)
    Symbol compl3 = 2024   ( local)
    Symbol compl6 = 2025   ( local)
    Symbol compl7 = 2030   ( local)
    Symbol compl4 = 2034   ( local)
    Symbol compl5 = 2041   ( local)
    Symbol compl8 = 2046   ( local)
    Symbol compl2 = 2062   ( local)
    Symbol popj1  = 2070   ( local)
    Symbol cpopj  = 2071   ( local)
    Symbol apopj  = 2071   ( local)
    Symbol pntbth = 2072   ( local)
    Symbol pnttxt = 2105   ( local)
    Symbol pnttx1 = 2116   ( local)
    Symbol pnttx2 = 2127   ( local)
    Symbol fnumbr = 2143   ( local)
    Symbol pcrlf  = 2145   ( local)
    Symbol pntcnt = 2147   ( local)
    Symbol pnthdl = 2152   ( local)
    Symbol pnthd1 = 2212   ( local)
    Symbol pnthwd = 2231   ( local)
    Symbol pntoct = 2241   ( local)
    Symbol pntoc2 = 2245   ( local)
    Symbol pntoc4 = 2255   ( local)
    Symbol pntoc3 = 2256   ( local)
    Symbol pntoc5 = 2261   ( local)
    Symbol pntdec = 2265   ( local)
    Symbol pntde1 = 2272   ( local)
    Symbol print  = 2302   ( local)
    Symbol rdlin  = 2313   ( local)
    Symbol rdlin0 = 2326   ( local)
    Symbol rdlin1 = 2330   ( local)
    Symbol rdlin4 = 2333   ( local)
    Symbol mpvok0 = 2334   ( local)
    Symbol rdlin5 = 2343   ( local)
    Symbol rdlin6 = 2356   ( local)
    Symbol rdlin3 = 2361   ( local)
    Symbol mpvok6 = 2371   ( local)
    Symbol rdlt1  = 2401   ( local)
    Symbol rdlt2  = 2417   ( local)
    Symbol rdlinl = 2617   ( local)
    Symbol rdlinj = 2630   ( local)
    Symbol rdlinm = 2634   ( local)
    Symbol rdlill = 2637   ( local)
    Symbol rdlilj = 2644   ( local)
    Symbol mpvok2 = 2647   ( local)
    Symbol rdlil1 = 2651   ( local)
    Symbol rdlilm = 2653   ( local)
    Symbol mpvok3 = 2655   ( local)
    Symbol rdlil2 = 2656   ( local)
    Symbol rdlcln = 2670   ( local)
    Symbol rdlcl0 = 2675   ( local)
    Symbol mpvok5 = 2705   ( local)
    Symbol mpvok7 = 2706   ( local)
    Symbol label  = 2723   ( local)
    Symbol label1 = 2740   ( local)
    Symbol label2 = 2763   ( local)
    Symbol rdlinc = 2775   ( local)
    Symbol rdlil5 = 3002   ( local)
    Symbol rdlilc = 3005   ( local)
    Symbol rdlil4 = 3013   ( local)
    Symbol mpvok4 = 3025   ( local)
    Symbol rdwrd  = 3027   ( local)
    Symbol rdwrd2 = 3037   ( local)
    Symbol gwordl = 3046   ( local)
    Symbol gwordc = 3051   ( local)
    Symbol gwordb = 3054   ( local)
    Symbol gwordi = 3057   ( local)
    Symbol gworde = 3062   ( local)
    Symbol rduwrd = 3065   ( local)
    Symbol rduwd2 = 3075   ( local)
    Symbol rdubuf = 3104   ( local)
    Symbol reload = 3107   ( local)
    Symbol gcharp = 3121   ( local)
    Symbol gcharz = 3124   ( local)
    Symbol gchari = 3127   ( local)
    Symbol gcharb = 3132   ( local)
    Symbol gchare = 3135   ( local)
    Symbol gcharx = 3140   ( local)
    Symbol eoftbl = 3143   ( local)
    Symbol rchstp = 3146   ( local)
    Symbol tsint  = 3151   ( local)
    Symbol tsint2 = 3175   ( local)
    Symbol morint = 3203   ( local)
    Symbol morkil = 3227   ( local)
    Symbol morprc = 3232   ( local)
    Symbol inopen = 3237   ( local)
    Symbol inopt3 = 3263   ( local)
    Symbol rfindr = 3266   ( local)
    Symbol rfind2 = 3310   ( local)
    Symbol rchst  = 3333   ( local)
    Symbol rchst6 = 3412   ( local)
    Symbol rchs6a = 3413   ( local)
    Symbol cmdlin = 3423   ( local)
    Symbol ttilin = 3425   ( local)
    Symbol ttilna = 3427   ( local)
    Symbol ttichr = 3431   ( local)
    Symbol ttichu = 3435   ( local)
    Symbol fleof3 = 4000   ( halfkilled local)
    Symbol ttili1 = 4132   ( local)
    Symbol ttili9 = 4135   ( local)
    Symbol ttili8 = 4146   ( local)
    Symbol ttili4 = 4161   ( local)
    Symbol ttili2 = 4163   ( local)
    Symbol ttili3 = 4170   ( local)
    Symbol tryhlp = 4177   ( local)
    Symbol tryhl1 = 4217   ( local)
    Symbol tryhl3 = 4226   ( local)
    Symbol tryhll = 4234   ( local)
    Symbol ttinsp = 4237   ( local)
    Symbol cmdxct = 4243   ( local)
    Symbol ttifil = 4265   ( local)
    Symbol ttifi0 = 4270   ( local)
    Symbol ttifi1 = 4271   ( local)
    Symbol ttifi2 = 4366   ( local)
    Symbol ttifi4 = 4404   ( local)
    Symbol ttifi3 = 4410   ( local)
    Symbol ttieof = 4415   ( local)
    Symbol rfile  = 4422   ( local)
    Symbol rfilsw = 4423   ( local)
    Symbol rfname = 4424   ( local)
    Symbol rfloop = 4430   ( local)
    Symbol rfctq  = 4450   ( local)
    Symbol rfnorm = 4453   ( local)
    Symbol rfxctb = 4457   ( local)
    Symbol rfcol  = 4464   ( local)
    Symbol rfsem  = 4467   ( local)
    Symbol rfspac = 4472   ( local)
    Symbol rfspa0 = 4501   ( local)
    Symbol rdsw   = 4513   ( local)
    Symbol openl  = 4566   ( local)
    Symbol errxtr = 4573   ( local)
    Symbol errhlp = 4602   ( local)
    Symbol errind = 4605   ( local)
    Symbol errin2 = 4614   ( local)
    Symbol errin3 = 4626   ( local)
    Symbol err3nm = 4640   ( local)
    Symbol errxct = 4651   ( local)
    Symbol errarc = 4657   ( local)
    Symbol errsw  = 4667   ( local)
    Symbol errmsg = 4673   ( local)
    Symbol errfin = 4674   ( local)
    Symbol reldev = 4700   ( local)
    Symbol relde1 = 4715   ( local)
    Symbol typmsg = 4717   ( local)
    Symbol typms0 = 4721   ( local)
    Symbol typms1 = 4722   ( local)
    Symbol typm   = 4726   ( local)
    Symbol ttosix = 4736   ( local)
    Symbol ttosi0 = 4737   ( local)
    Symbol ttodec = 4745   ( local)
    Symbol tyo    = 4755   ( local)
    Symbol crlf   = 4757   ( local)
    Symbol getjcl = 4762   ( local)
    Symbol gtjcl2 = 4772   ( local)
    Symbol tylerr = 5002   ( local)
    Symbol tyler2 = 5007   ( local)
    Symbol errfil = 5014   ( local)
    Symbol lstfil = 5017   ( local)
    Symbol lstfi1 = 5024   ( local)
    Symbol lstfi2 = 5031   ( local)
    Symbol swdisn = 5036   ( local)
    Symbol tyi    = 5044   ( local)
    Symbol opnrdw = 5046   ( local)
    Symbol opnrda = 5051   ( local)
    Symbol opnrd2 = 5053   ( local)
    Symbol renmlo = 5061   ( local)
    Symbol quit   = 5064   ( local)
    Symbol quitx  = 5065   ( local)
    Symbol opnhlp = 5066   ( local)
    Symbol fsdsk  = 5072   ( local)
    Symbol fstty  = 5073   ( local)
    Symbol fsnul  = 5074   ( local)
    Symbol fscmp  = 5075   ( local)
    Symbol fscmpa = 5076   ( local)
    Symbol fsflgd = 5077   ( local)
    Symbol fsdmf2 = 5100   ( local)
    Symbol fvlow  = 5101   ( local)
    Symbol patch  = 5102   ( local)
    Symbol begp   = 6136   ( halfkilled local)
    Symbol junk   = 6136   ( local)
    Symbol ppset  = 6137   ( local)
    Symbol flushp = 6207   ( local)
    Symbol errcnt = 6210   ( local)
    Symbol lbufp1 = 6211   ( halfkilled local)
    Symbol lbufp  = 6211   ( local)
    Symbol lbufp2 = 6212   ( local)
    Symbol lbufp3 = 6213   ( local)
    Symbol nlines = 6214   ( local)
    Symbol nline1 = 6214   ( halfkilled local)
    Symbol nline2 = 6215   ( local)
    Symbol nline3 = 6216   ( local)
    Symbol eoffl1 = 6217   ( local)
    Symbol eoffl2 = 6220   ( local)
    Symbol eoffl3 = 6221   ( local)
    Symbol ncomp1 = 6222   ( local)
    Symbol ncomp2 = 6223   ( local)
    Symbol ncomp3 = 6224   ( local)
    Symbol hbuf1  = 6225   ( local)
    Symbol hbuf2  = 6266   ( local)
    Symbol hbuf3  = 6327   ( local)
    Symbol rchstb = 6370   ( local)
    Symbol pagnum = 6402   ( local)
    Symbol linnum = 6405   ( local)
    Symbol chrnum = 6410   ( local)
    Symbol llabel = 6413   ( local)
    Symbol mrgout = 6427   ( local)
    Symbol lphony = 6432   ( local)
    Symbol mrgcom = 6433   ( local)
    Symbol mrgbyt = 6436   ( local)
    Symbol mrgufl = 6437   ( local)
    Symbol outtty = 6440   ( local)
    Symbol ttysts = 6441   ( local)
    Symbol ttyst1 = 6442   ( local)
    Symbol ttyst2 = 6443   ( local)
    Symbol numtmp = 6444   ( local)
    Symbol tempf1 = 6445   ( local)
    Symbol tempf2 = 6446   ( local)
    Symbol tempf3 = 6447   ( local)
    Symbol rfilc  = 6450   ( local)
    Symbol lstexp = 6451   ( local)
    Symbol filbf1 = 6452   ( local)
    Symbol filbe1 = 6551   ( local)
    Symbol filpt1 = 6553   ( local)
    Symbol filep1 = 6554   ( local)
    Symbol filbf2 = 6555   ( local)
    Symbol filbe2 = 6654   ( local)
    Symbol filpt2 = 6656   ( local)
    Symbol filep2 = 6657   ( local)
    Symbol filbf3 = 6660   ( local)
    Symbol filbe3 = 6757   ( local)
    Symbol filpt3 = 6761   ( local)
    Symbol filep3 = 6762   ( local)
    Symbol mrgbf  = 6763   ( local)
    Symbol mrgbp  = 7063   ( local)
    Symbol mrgct  = 7064   ( local)
    Symbol pntdbf = 7065   ( local)
    Symbol endp   = 7070   ( halfkilled local)
    Symbol defdir = 7070   ( local)
    Symbol cmdfil = 7071   ( local)
    Symbol cmdis  = 7072   ( local)
    Symbol cmdid  = 7073   ( local)
    Symbol cmdos  = 7074   ( local)
    Symbol cmdod  = 7075   ( local)
    Symbol ctlcf  = 7076   ( local)
    Symbol colmax = 7077   ( local)
    Symbol linmax = 7100   ( local)
    Symbol numlin = 7101   ( local)
    Symbol seg1   = 7102   ( local)
    Symbol seg2   = 7103   ( local)
    Symbol seg3   = 7104   ( local)
    Symbol ttibuf = 7105   ( local)
    Symbol ttipnt = 7135   ( local)
    Symbol tticnt = 7136   ( local)
    Symbol fvbin  = 7137   ( local)
    Symbol foo    = 7137   ( local)
    Symbol fsbin  = 7140   ( local)
    Symbol gwadr  = 7141   ( local)
    Symbol 3way   = 7142   ( local)
    Symbol 12mtbp = 7143   ( local)
    Symbol 12mtbb = 7144   ( local)
    Symbol unqnam = 7145   ( local)
    Symbol prmnum = 7146   ( local)
    Symbol rbblk  = 7147   ( local)
    Symbol endcor = 7160   ( local)
    Symbol flfnum = 10000   ( halfkilled local)
    Symbol flflag = 20000   ( halfkilled local)
    Symbol flcase = 40000   ( halfkilled local)
    Symbol flovrd = 100000   ( halfkilled local)
    Symbol flxlbl = 200000   ( halfkilled local)
    Symbol flmerg = 400000   ( halfkilled local)
    Symbol fl     = 1525252   ( halfkilled local)
    Symbol errhlt = 43100000000   ( halfkilled local)
    Symbol pjrst  = 254000000000   ( halfkilled local)
    Symbol call   = 260740000000   ( local)
    Symbol save   = 261740000000   ( local)
    Symbol rest   = 262740000000   ( local)
    Symbol ret    = 263740000000   ( local)
  Header: global

Duplicate start instruction:
         254000000114  jrst     114             ;"5@  !,"

Disassembly:

000000:  000000000000                           ;"      "
000001:  000000000000                           ;"      "
000002:  000000000000                           ;"      "
000003:  000000000000                           ;"      "
000004:  000000000000                           ;"      "
000005:  000000000000                           ;"      "
000006:  000000000000                           ;"      "
000007:  000000000000                           ;"      "
000010:  000000000000                           ;"      "
000011:  000000000000                           ;"      "
000012:  000000000000                           ;"      "
000013:  000000000000                           ;"      "
000014:  000000000000                           ;"      "
000015:  000000000000                           ;"      "
000016:  000000000000                           ;"      "
000017:  000000000000                           ;"      "
000020:  000000000000                           ;"      "
000021:  000000000000                           ;"      "
000022:  000000000000                           ;"      "
000023:  000000000000                           ;"      "
000024:  000000000000                           ;"      "
000025:  000000000000                           ;"      "
000026:  000000000000                           ;"      "
000027:  000000000000                           ;"      "
000030:  000000000000                           ;"      "
000031:  000000000000                           ;"      "
000032:  000000000000                           ;"      "
000033:  000000000000                           ;"      "
000034:  000000000000                           ;"      "
000035:  000000000000                           ;"      "
000036:  000000000000                           ;"      "
000037:  000000000000                           ;"      "
000040:  000000000000                           ;"      "
000041:  000000000000                           ;"      "
000042:  264000003151  jsr      3151            ;"6@  9I"
000043:  000000000000                           ;"      "
000044:  000000000000                           ;"      "
000045:  000000000000                           ;"      "
000046:  000000000000                           ;"      "
000047:  000000000000                           ;"      "
000050:  000000000000                           ;"      "
000051:  000000000000                           ;"      "
000052:  000000000000                           ;"      "
000053:  000000000000                           ;"      "
000054:  000000000000                           ;"      "
000055:  000000000000                           ;"      "
000056:  000000000000                           ;"      "
000057:  000000000000                           ;"      "
000060:  000000000000                           ;"      "
000061:  000000000000                           ;"      "
000062:  000000000000                           ;"      "
000063:  000000000000                           ;"      "
000064:  000000000000                           ;"      "
000065:  000000000000                           ;"      "
000066:  000000000000                           ;"      "
000067:  000000000000                           ;"      "
000070:  000000000000                           ;"      "
000071:  000000000000                           ;"      "
000072:  000000000000                           ;"      "
000073:  000000000000                           ;"      "
000074:  000000000000                           ;"      "
000075:  000000000000                           ;"      "
000076:  000000000000                           ;"      "
000077:  000000000000                           ;"      "
000100:  000000000000                           ;"      "
000101:  000000000000                           ;"      "
000102:  000000000000                           ;"      "
000103:  000000000000                           ;"      "
000104:  000000000000                           ;"      "
000105:  000000000000                           ;"      "
000106:  000000000000                           ;"      "
000107:  000000000000                           ;"      "
000110:  000000000000                           ;"      "
000111:  000000000000                           ;"      "
000112:  000000000000                           ;"      "
000113:  000000000000                           ;"      "
000114:  200740005202  move     17, 5202        ;"0'@ J""
000115:  041000005203  .open    0, 5203         ;"$(  J#"
000116:  043100000000  .lose    0               ;"$9    "
000117:  041240005204  .open    5, 5204         ;"$*@ J$"
000120:  043100000000  .lose    0               ;"$9    "
000121:  043540005205  .suset   5205            ;"$=@ J%"
000122:  043540005206  .suset   5206            ;"$=@ J&"
000123:  661040000200  tlo      1, 200          ;"V(@ " "
000124:  043540005207  .suset   5207            ;"$=@ J'"
000125:  043540005211  .suset   5211            ;"$=@ J)"
000126:  043540005213  .suset   5213            ;"$=@ J+"
000127:  260740004762  pushj    17, 4762        ;"6'@ GR"
000130:  304000000000  caia     0, 0            ;"8@    " "1\0\0\0\0"
000131:  254000000141  jrst     141             ;"5@  !A"
000132:  200000005214  move     0, 5214         ;"0   J,"
000133:  260740004736  pushj    17, 4736        ;"6'@ G>"
000134:  040240005215  .iot     5, 5215         ;"$"@ J-"
000135:  200000005216  move     0, 5216         ;"0   J."
000136:  260740004745  pushj    17, 4745        ;"6'@ GE"
000137:  254000000140  jrst     140             ;"5@  !@"
000140:  402000007105  setzm    7105            ;"@0  Y%"
000141:  200740005202  move     17, 5202        ;"0'@ J""
000142:  043540005220  .suset   5220            ;"$=@ J0"
000143:  043540005222  .suset   5222            ;"$=@ J2"
000144:  403340006136  setzb    7, 6136         ;"@;@ Q>"
000145:  200000005223  move     0, 5223         ;"0   J3"
000146:  251000007067  blt      0, 7067         ;"5(  XW"
000147:  200040005224  move     1, 5224         ;"0 @ J4"
000150:  202040007063  movem    1, 7063         ;"00@ XS"
000151:  201040000500  movei    1, 500          ;"0(@ % "
000152:  202040007064  movem    1, 7064         ;"00@ XT"
000153:  200040007102  move     1, 7102         ;"0 @ Y""
000154:  202040006211  movem    1, 6211         ;"00@ R)"
000155:  200040007103  move     1, 7103         ;"0 @ Y#"
000156:  202040006212  movem    1, 6212         ;"00@ R*"
000157:  200040007104  move     1, 7104         ;"0 @ Y$"
000160:  202040006213  movem    1, 6213         ;"00@ R+"
000161:  350000006402  aos      0, 6402         ;"=   T""
000162:  350000006403  aos      0, 6403         ;"=   T#"
000163:  350000006404  aos      0, 6404         ;"=   T$"
000164:  350000006405  aos      0, 6405         ;"=   T%"
000165:  350000006406  aos      0, 6406         ;"=   T&"
000166:  350000006407  aos      0, 6407         ;"=   T'"
000167:  332000007105  skipe    0, 7105         ;";0  Y%"
000170:  476000007076  setom    7076            ;"GP  X^"
000171:  336000007105  skipn    0, 7105         ;";P  Y%"
000172:  260740003423  pushj    17, 3423        ;"6'@ <3"
000173:  260740004177  pushj    17, 4177        ;"6'@ A_"
000174:  200440005073  move     11, 5073        ;"0$@ H["
000175:  336000007071  skipn    0, 7071         ;";P  XY"
000176:  202440000110  movem    11, 110         ;"04@ !("
000177:  201640000104  movei    15, 104         ;"0.@ !$"
000200:  260740004422  pushj    17, 4422        ;"6'@ D2"
000201:  302440000075  caie     11, 75          ;"84@  ]"
000202:  306440000137  cain     11, 137         ;"8T@ !?"
000203:  304000000000  caia     0, 0            ;"8@    " "1\0\0\0\0"
000204:  254000000215  jrst     215             ;"5@  "-"
000205:  200440005225  move     11, 5225        ;"0$@ J5"
000206:  251440000113  blt      11, 113         ;"5,@ !+"
000207:  476000006451  setom    6451            ;"GP  TI"
000210:  402000000104  setzm    104             ;"@0  !$"
000211:  332000007071  skipe    0, 7071         ;";0  XY"
000212:  402000000107  setzm    107             ;"@0  !'"
000213:  260740004422  pushj    17, 4422        ;"6'@ D2"
000214:  254000000215  jrst     215             ;"5@  "-"
000215:  200100007070  move     2, 7070         ;"0!  XX"
000216:  332000007071  skipe    0, 7071         ;";0  XY"
000217:  200100007074  move     2, 7074         ;"0!  X\"
000220:  336000000113  skipn    0, 113          ;";P  !+"
000221:  202100000113  movem    2, 113          ;"01  !+"
000222:  200100005072  move     2, 5072         ;"0!  HZ"
000223:  332000007071  skipe    0, 7071         ;";0  XY"
000224:  200100007075  move     2, 7075         ;"0!  X]"
000225:  336000000110  skipn    0, 110          ;";P  !("
000226:  202100000110  movem    2, 110          ;"01  !("
000227:  607340000001  tlnn     7, 1            ;"P[@  !"
000230:  254000000250  jrst     250             ;"5@  "H"
000231:  200040005075  move     1, 5075         ;"0 @ H]"
000232:  603340000010  tlne     7, 10           ;"P;@  ("
000233:  200040005076  move     1, 5076         ;"0 @ H^"
000234:  332000000112  skipe    0, 112          ;";0  !*"
000235:  200040000112  move     1, 112          ;"0 @ !*"
000236:  336000000106  skipn    0, 106          ;";P  !&"
000237:  202040000106  movem    1, 106          ;"00@ !&"
000240:  200040000113  move     1, 113          ;"0 @ !+"
000241:  336000000107  skipn    0, 107          ;";P  !'"
000242:  202040000107  movem    1, 107          ;"00@ !'"
000243:  200040000110  move     1, 110          ;"0 @ !("
000244:  316040005073  camn     1, 5073         ;"9P@ H["
000245:  200040005072  move     1, 5072         ;"0 @ HZ"
000246:  336000000104  skipn    0, 104          ;";P  !$"
000247:  202040000104  movem    1, 104          ;"00@ !$"
000250:  200040007072  move     1, 7072         ;"0 @ XZ"
000251:  336000007071  skipn    0, 7071         ;";P  XY"
000252:  200040007070  move     1, 7070         ;"0 @ XX"
000253:  336000000107  skipn    0, 107          ;";P  !'"
000254:  202040000107  movem    1, 107          ;"00@ !'"
000255:  200040007073  move     1, 7073         ;"0 @ X["
000256:  336000007071  skipn    0, 7071         ;";P  XY"
000257:  200040005072  move     1, 5072         ;"0 @ HZ"
000260:  336000000104  skipn    0, 104          ;";P  !$"
000261:  202040000104  movem    1, 104          ;"00@ !$"
000262:  336040000106  skipn    1, 106          ;";P@ !&"
000263:  200040005101  move     1, 5101         ;"0 @ I!"
000264:  337000007136  skipg    0, 7136         ;";X  Y>"
000265:  202040000106  movem    1, 106          ;"00@ !&"
000266:  201040000001  movei    1, 1            ;"0(@  !"
000267:  260740003237  pushj    17, 3237        ;"6'@ :?"
000270:  603340000002  tlne     7, 2            ;"P;@  ""
000271:  254000004243  jrst     4243            ;"5@  BC"
000272:  603340000001  tlne     7, 1            ;"P;@  !"
000273:  254000003266  jrst     3266            ;"5@  :V"
000274:  260740004422  pushj    17, 4422        ;"6'@ D2"
000275:  201040000002  movei    1, 2            ;"0(@  ""
000276:  260740003237  pushj    17, 3237        ;"6'@ :?"
000277:  603340000003  tlne     7, 3            ;"P;@  #"
000300:  254000004614  jrst     4614            ;"5@  F,"
000301:  337000007136  skipg    0, 7136         ;";X  Y>"
000302:  254000000316  jrst     316             ;"5@  #."
000303:  260740004422  pushj    17, 4422        ;"6'@ D2"
000304:  607340400000  tlnn     7, 400000       ;"P[@@  "
000305:  254000004640  jrst     4640            ;"5@  F@"
000306:  476000007142  setom    7142            ;"GP  YB"
000307:  201040000003  movei    1, 3            ;"0(@  #"
000310:  260740003237  pushj    17, 3237        ;"6'@ :?"
000311:  603340000003  tlne     7, 3            ;"P;@  #"
000312:  254000004626  jrst     4626            ;"5@  F6"
000313:  337000007136  skipg    0, 7136         ;";X  Y>"
000314:  254000004573  jrst     4573            ;"5@  E["
000315:  254000000316  jrst     316             ;"5@  #."
000316:  201640000110  movei    15, 110         ;"0.@ !("
000317:  200100005075  move     2, 5075         ;"0!  H]"
000320:  603340000010  tlne     7, 10           ;"P;@  ("
000321:  200100005076  move     2, 5076         ;"0!  H^"
000322:  201040000007  movei    1, 7            ;"0(@  '"
000323:  607340400000  tlnn     7, 400000       ;"P[@@  "
000324:  254000000343  jrst     343             ;"5@  #C"
000325:  603340000010  tlne     7, 10           ;"P;@  ("
000326:  254000004657  jrst     4657            ;"5@  FO"
000327:  201040000004  movei    1, 4            ;"0(@  $"
000330:  041340005204  .open    7, 5204         ;"$+@ J$"
000331:  043100000000  .lose    0               ;"$9    "
000332:  200100005100  move     2, 5100         ;"0!  I "
000333:  603340020000  tlne     7, 20000        ;"P;@"  "
000334:  200100005077  move     2, 5077         ;"0!  H_"
000335:  200500005073  move     12, 5073        ;"0%  H["
000336:  331000006451  skipl    0, 6451         ;";(  TI"
000337:  312500000110  came     12, 110         ;"95  !("
000340:  254000000343  jrst     343             ;"5@  #C"
000341:  200500005072  move     12, 5072        ;"0%  HZ"
000342:  202500000110  movem    12, 110         ;"05  !("
000343:  336000000112  skipn    0, 112          ;";P  !*"
000344:  202100000112  movem    2, 112          ;"01  !*"
000345:  043000005226  .call    [setz
                                 SIXBIT/TRANS /
                                 000015000000
                                 000015000001
                                 000015000002
                                 000015000003
                                 201000000001
                                 202015000000
                                 202015000001
                                 202015000002
                                 602015000003]
                                                ;"$8  J6"
000346:  260740004566  pushj    17, 4566        ;"6'@ EV"
000347:  043000005243  .call    [setz
                                 SIXBIT/OPEN  /
                                 005000000001
                                 000000000001
                                 000015000000
                                 000000005241
                                 000000005242
                                 400015000003]
                                                ;"$8  JC"
000350:  260740004566  pushj    17, 4566        ;"6'@ EV"
000351:  043000005253  .call    [setz
                                 SIXBIT/TTYGET/
                                 201000000007
                                 202000006442
                                 202000006443
                                 602000000001]
                                                ;"$8  JK"
000352:  254000000360  jrst     360             ;"5@  #P"
000353:  476000006440  setom    6440            ;"GP  T@"
000354:  202040006441  movem    1, 6441         ;"00@ TA"
000355:  623040000200  tlze     1, 200          ;"R8@ " "
000356:  043000005261  .call    [setz
                                 SIXBIT/TTYSET/
                                 201000000007
                                 000000006442
                                 000000006443
                                 400000000001]
                                                ;"$8  JQ"
000357:  255000000000  nop                      ;"5H    " "+ \0\0\0"
000360:  403200000005  setzb    4, 5            ;"@:   %"
000361:  603340400000  tlne     7, 400000       ;"P;@@  "
000362:  476000006427  setom    6427            ;"GP  T7"
000363:  400000000000  setz     0,              ;"@     " "@\0\0\0\0"
000364:  043540005270  .suset   5270            ;"$=@ JX"
000365:  043540005272  .suset   5272            ;"$=@ JZ"
000366:  043540005274  .suset   5274            ;"$=@ J\"
000367:  332000007142  skipe    0, 7142         ;";0  YB"
000370:  254000001211  jrst     1211            ;"5@  *)"
000371:  603340400000  tlne     7, 400000       ;"P;@@  "
000372:  254000000464  jrst     464             ;"5@  $T"
000373:  205040777737  movsi    1, 777737       ;"0H@__?"
000374:  200501006225  move     12, 6225(1)     ;"0%! R5"
000375:  316501006266  camn     12, 6266(1)     ;"9U! RV"
000376:  253040000374  aobjn    1, 374          ;"58@ #\"
000377:  607340100000  tlnn     7, 100000       ;"P[@(  "
000400:  325040001010  jumpge   1, 1010         ;":H@ (("
000401:  201040005275  movei    1, 5275         ;"0(@ J]"
000402:  260740002302  pushj    17, 2302        ;"6'@ 3""
000403:  200040003146  move     1, 3146         ;"0 @ 9F"
000404:  260740002302  pushj    17, 2302        ;"6'@ 3""
000405:  201040005301  movei    1, 5301         ;"0(@ K!"
000406:  260740002302  pushj    17, 2302        ;"6'@ 3""
000407:  200040003147  move     1, 3147         ;"0 @ 9G"
000410:  260740002302  pushj    17, 2302        ;"6'@ 3""
000411:  201040005303  movei    1, 5303         ;"0(@ K#"
000412:  260740002302  pushj    17, 2302        ;"6'@ 3""
000413:  201040005307  movei    1, 5307         ;"0(@ K'"
000414:  603340000010  tlne     7, 10           ;"P;@  ("
000415:  260740002302  pushj    17, 2302        ;"6'@ 3""
000416:  201040005310  movei    1, 5310         ;"0(@ K("
000417:  603340000400  tlne     7, 400          ;"P;@ $ "
000420:  260740002302  pushj    17, 2302        ;"6'@ 3""
000421:  201040005311  movei    1, 5311         ;"0(@ K)"
000422:  603340000200  tlne     7, 200          ;"P;@ " "
000423:  260740002302  pushj    17, 2302        ;"6'@ 3""
000424:  201040005312  movei    1, 5312         ;"0(@ K*"
000425:  603340000040  tlne     7, 40           ;"P;@  @"
000426:  260740002302  pushj    17, 2302        ;"6'@ 3""
000427:  201040005313  movei    1, 5313         ;"0(@ K+"
000430:  603340040000  tlne     7, 40000        ;"P;@$  "
000431:  260740002302  pushj    17, 2302        ;"6'@ 3""
000432:  201040005314  movei    1, 5314         ;"0(@ K,"
000433:  603340000020  tlne     7, 20           ;"P;@  0"
000434:  260740002302  pushj    17, 2302        ;"6'@ 3""
000435:  201040005315  movei    1, 5315         ;"0(@ K-"
000436:  603340000100  tlne     7, 100          ;"P;@ ! "
000437:  260740002302  pushj    17, 2302        ;"6'@ 3""
000440:  201040005316  movei    1, 5316         ;"0(@ K."
000441:  603340010000  tlne     7, 10000        ;"P;@!  "
000442:  260740002302  pushj    17, 2302        ;"6'@ 3""
000443:  201040005317  movei    1, 5317         ;"0(@ K/"
000444:  603340200000  tlne     7, 200000       ;"P;@0  "
000445:  260740002302  pushj    17, 2302        ;"6'@ 3""
000446:  201040005320  movei    1, 5320         ;"0(@ K0"
000447:  332000007137  skipe    0, 7137         ;";0  Y?"
000450:  260740002302  pushj    17, 2302        ;"6'@ 3""
000451:  201040005321  movei    1, 5321         ;"0(@ K1"
000452:  332000007140  skipe    0, 7140         ;";0  Y@"
000453:  260740002302  pushj    17, 2302        ;"6'@ 3""
000454:  201040005322  movei    1, 5322         ;"0(@ K2"
000455:  260740002302  pushj    17, 2302        ;"6'@ 3""
000456:  200500007101  move     12, 7101        ;"0%  Y!"
000457:  350000000012  aos      0, 12           ;"=    *"
000460:  260740002265  pushj    17, 2265        ;"6'@ 2U"
000461:  260740002145  pushj    17, 2145        ;"6'@ 1E"
000462:  260740002145  pushj    17, 2145        ;"6'@ 1E"
000463:  254000000464  jrst     464             ;"5@  $T"
000464:  043540005324  .suset   5324            ;"$=@ K4"
000465:  332000007137  skipe    0, 7137         ;";0  Y?"
000466:  254000000514  jrst     514             ;"5@  %,"
000467:  332000007140  skipe    0, 7140         ;";0  Y@"
000470:  254000000575  jrst     575             ;"5@  %]"
000471:  332204000000  skipe    4, (4)          ;";2$   " "6H \0\0"
000472:  254000000502  jrst     502             ;"5@  %""
000473:  620340777777  trz      7, 777777       ;"R#@___"
000474:  332000006427  skipe    0, 6427         ;";0  T7"
000475:  260740001631  pushj    17, 1631        ;"6'@ .9"
000476:  402000006214  setzm    6214            ;"@0  R,"
000477:  260740002313  pushj    17, 2313        ;"6'@ 3+"
000500:  254000000735  jrst     735             ;"5@  '="
000501:  043100000000  .lose    0               ;"$9    "
000502:  332245000000  skipe    5, (5)          ;";2E   " "6J(\0\0"
000503:  254000000511  jrst     511             ;"5@  %)"
000504:  402000006215  setzm    6215            ;"@0  R-"
000505:  541340000001  hrri     7, 1            ;"L+@  !"
000506:  260740002313  pushj    17, 2313        ;"6'@ 3+"
000507:  254000000660  jrst     660             ;"5@  &P"
000510:  043100000000  .lose    0               ;"$9    "
000511:  260740001736  pushj    17, 1736        ;"6'@ />"
000512:  254000000471  jrst     471             ;"5@  $Y"
000513:  254000000660  jrst     660             ;"5@  &P"
000514:  620340777777  trz      7, 777777       ;"R#@___"
000515:  260740003027  pushj    17, 3027        ;"6'@ 87"
000516:  254000000526  jrst     526             ;"5@  %6"
000517:  200100000001  move     2, 1            ;"0!   !"
000520:  541340000001  hrri     7, 1            ;"L+@  !"
000521:  260740003027  pushj    17, 3027        ;"6'@ 87"
000522:  254000000537  jrst     537             ;"5@  %?"
000523:  316040000002  camn     1, 2            ;"9P@  ""
000524:  254000000514  jrst     514             ;"5@  %,"
000525:  254000000544  jrst     544             ;"5@  %D"
000526:  200100000001  move     2, 1            ;"0!   !"
000527:  541200000001  hrri     4, 1            ;"L*   !"
000530:  260740003027  pushj    17, 3027        ;"6'@ 87"
000531:  254000000764  jrst     764             ;"5@  'T"
000532:  201440000027  movei    11, 27          ;"0,@  7"
000533:  200100005332  move     2, 5332         ;"0!  K:"
000534:  260740002147  pushj    17, 2147        ;"6'@ 1G"
000535:  350000006210  aos      0, 6210         ;"=   R("
000536:  254000000764  jrst     764             ;"5@  'T"
000537:  201440000051  movei    11, 51          ;"0,@  I"
000540:  200100005344  move     2, 5344         ;"0!  KD"
000541:  260740002147  pushj    17, 2147        ;"6'@ 1G"
000542:  350000006210  aos      0, 6210         ;"=   R("
000543:  254000000764  jrst     764             ;"5@  'T"
000544:  350000006210  aos      0, 6210         ;"=   R("
000545:  261740000001  push     17, 1           ;"6/@  !"
000546:  261740000002  push     17, 2           ;"6/@  ""
000547:  200507003046  move     12, 3046(7)     ;"0%' 8F"
000550:  274507003051  sub      12, 3051(7)     ;"7E' 8I"
000551:  260740002241  pushj    17, 2241        ;"6'@ 2A"
000552:  201440000002  movei    11, 2           ;"0,@  ""
000553:  200100005346  move     2, 5346         ;"0!  KF"
000554:  260740002147  pushj    17, 2147        ;"6'@ 1G"
000555:  200517777777  move     12, 777777(17)  ;"0%/___"
000556:  260740002231  pushj    17, 2231        ;"6'@ 29"
000557:  201440000004  movei    11, 4           ;"0,@  $"
000560:  200100005350  move     2, 5350         ;"0!  KH"
000561:  260740002147  pushj    17, 2147        ;"6'@ 1G"
000562:  200517000000  move     12, (17)        ;"0%/   "
000563:  260740002231  pushj    17, 2231        ;"6'@ 29"
000564:  201440000007  movei    11, 7           ;"0,@  '"
000565:  200100005353  move     2, 5353         ;"0!  KK"
000566:  260740002147  pushj    17, 2147        ;"6'@ 1G"
000567:  262740000012  pop      17, 12          ;"67@  *"
000570:  430517000000  xor      12, (17)        ;"C%/   "
000571:  260740002231  pushj    17, 2231        ;"6'@ 29"
000572:  262740000012  pop      17, 12          ;"67@  *"
000573:  260740002145  pushj    17, 2145        ;"6'@ 1E"
000574:  254000000514  jrst     514             ;"5@  %,"
000575:  620340777777  trz      7, 777777       ;"R#@___"
000576:  260740003065  pushj    17, 3065        ;"6'@ 8U"
000577:  254000000612  jrst     612             ;"5@  &*"
000600:  200100000001  move     2, 1            ;"0!   !"
000601:  541340000001  hrri     7, 1            ;"L+@  !"
000602:  260740003065  pushj    17, 3065        ;"6'@ 8U"
000603:  254000000623  jrst     623             ;"5@  &3"
000604:  312040000002  came     1, 2            ;"90@  ""
000605:  254000000630  jrst     630             ;"5@  &8"
000606:  350040007141  aos      1, 7141         ;"= @ YA"
000607:  307040777777  caig     1, 777777       ;"8X@___"
000610:  254000000575  jrst     575             ;"5@  %]"
000611:  254000000764  jrst     764             ;"5@  'T"
000612:  200100000001  move     2, 1            ;"0!   !"
000613:  541200000001  hrri     4, 1            ;"L*   !"
000614:  260740003027  pushj    17, 3027        ;"6'@ 87"
000615:  254000000764  jrst     764             ;"5@  'T"
000616:  201440000027  movei    11, 27          ;"0,@  7"
000617:  200100005361  move     2, 5361         ;"0!  KQ"
000620:  260740002147  pushj    17, 2147        ;"6'@ 1G"
000621:  350000006210  aos      0, 6210         ;"=   R("
000622:  254000000764  jrst     764             ;"5@  'T"
000623:  201440000051  movei    11, 51          ;"0,@  I"
000624:  200100005373  move     2, 5373         ;"0!  K["
000625:  260740002147  pushj    17, 2147        ;"6'@ 1G"
000626:  350000006210  aos      0, 6210         ;"=   R("
000627:  254000000764  jrst     764             ;"5@  'T"
000630:  350000006210  aos      0, 6210         ;"=   R("
000631:  261740000002  push     17, 2           ;"6/@  ""
000632:  261740000001  push     17, 1           ;"6/@  !"
000633:  200500007141  move     12, 7141        ;"0%  YA"
000634:  260740002241  pushj    17, 2241        ;"6'@ 2A"
000635:  201440000002  movei    11, 2           ;"0,@  ""
000636:  200100005346  move     2, 5346         ;"0!  KF"
000637:  260740002147  pushj    17, 2147        ;"6'@ 1G"
000640:  200517777777  move     12, 777777(17)  ;"0%/___"
000641:  260740002231  pushj    17, 2231        ;"6'@ 29"
000642:  201440000004  movei    11, 4           ;"0,@  $"
000643:  200100005350  move     2, 5350         ;"0!  KH"
000644:  260740002147  pushj    17, 2147        ;"6'@ 1G"
000645:  200517000000  move     12, (17)        ;"0%/   "
000646:  260740002231  pushj    17, 2231        ;"6'@ 29"
000647:  201440000007  movei    11, 7           ;"0,@  '"
000650:  200100005376  move     2, 5376         ;"0!  K^"
000651:  260740002147  pushj    17, 2147        ;"6'@ 1G"
000652:  262740000012  pop      17, 12          ;"67@  *"
000653:  430517000000  xor      12, (17)        ;"C%/   "
000654:  260740002231  pushj    17, 2231        ;"6'@ 29"
000655:  262740000012  pop      17, 12          ;"67@  *"
000656:  260740002145  pushj    17, 2145        ;"6'@ 1E"
000657:  254000000606  jrst     606             ;"5@  &&"
000660:  260740001631  pushj    17, 1631        ;"6'@ .9"
000661:  640340000001  trc      7, 1            ;"T#@  !"
000662:  260740001631  pushj    17, 1631        ;"6'@ .9"
000663:  332000000000  skipe    0, 0            ;";0    " "6@\0\0\0"
000664:  043100000000  .lose    0               ;"$9    "
000665:  043540005400  .suset   5400            ;"$=@ L "
000666:  402000006222  setzm    6222            ;"@0  R2"
000667:  332000000004  skipe    0, 4            ;";0   $"
000670:  350000006222  aos      0, 6222         ;"=   R2"
000671:  402000006223  setzm    6223            ;"@0  R3"
000672:  332000000005  skipe    0, 5            ;";0   %"
000673:  350000006223  aos      0, 6223         ;"=   R3"
000674:  332004000000  skipe    0, (4)          ;";0$   " "6@ \0\0"
000675:  254000000701  jrst     701             ;"5@  '!"
000676:  541340000000  hrri     7, 0            ;"L+@   " "X.\0\0\0"
000677:  260740002313  pushj    17, 2313        ;"6'@ 3+"
000700:  254000000745  jrst     745             ;"5@  'E"
000701:  200204000000  move     4, (4)          ;"0"$   "
000702:  350000006222  aos      0, 6222         ;"=   R2"
000703:  332005000000  skipe    0, (5)          ;";0%   " "6@(\0\0"
000704:  254000000710  jrst     710             ;"5@  '("
000705:  541340000001  hrri     7, 1            ;"L+@  !"
000706:  260740002313  pushj    17, 2313        ;"6'@ 3+"
000707:  254000000722  jrst     722             ;"5@  '2"
000710:  200245000000  move     5, (5)          ;"0"E   " " \n(\0\0"
000711:  350000006223  aos      0, 6223         ;"=   R3"
000712:  336400006222  skipn    10, 6222        ;";T  R2"
000713:  254000000674  jrst     674             ;"5@  &\"
000714:  334200006211  skipa    4, 6211         ;";B  R)"
000715:  200200000001  move     4, 1            ;"0"   !"
000716:  260740001736  pushj    17, 1736        ;"6'@ />"
000717:  260740001033  pushj    17, 1033        ;"6'@ (;"
000720:  332044000000  skipe    1, (4)          ;";0D   " "6B \0\0"
000721:  367400000715  sojg     10, 715         ;">\  '-"
000722:  332000006217  skipe    0, 6217         ;";0  R/"
000723:  254000000674  jrst     674             ;"5@  &\"
000724:  336400006223  skipn    10, 6223        ;";T  R3"
000725:  254000000674  jrst     674             ;"5@  &\"
000726:  334240006212  skipa    5, 6212         ;";B@ R*"
000727:  200240000001  move     5, 1            ;"0"@  !"
000730:  260740001736  pushj    17, 1736        ;"6'@ />"
000731:  260740001033  pushj    17, 1033        ;"6'@ (;"
000732:  332045000000  skipe    1, (5)          ;";0E   " "6B(\0\0"
000733:  367400000727  sojg     10, 727         ;">\  '7"
000734:  254000000674  jrst     674             ;"5@  &\"
000735:  332245000000  skipe    5, (5)          ;";2E   " "6J(\0\0"
000736:  254000000660  jrst     660             ;"5@  &P"
000737:  402000006215  setzm    6215            ;"@0  R-"
000740:  541340000001  hrri     7, 1            ;"L+@  !"
000741:  260740002313  pushj    17, 2313        ;"6'@ 3+"
000742:  254000000764  jrst     764             ;"5@  'T"
000743:  043100000000  .lose    0               ;"$9    "
000744:  254000000660  jrst     660             ;"5@  &P"
000745:  332005000000  skipe    0, (5)          ;";0%   " "6@(\0\0"
000746:  254000000752  jrst     752             ;"5@  'J"
000747:  541340000001  hrri     7, 1            ;"L+@  !"
000750:  260740002313  pushj    17, 2313        ;"6'@ 3+"
000751:  254000000754  jrst     754             ;"5@  'L"
000752:  200245000000  move     5, (5)          ;"0"E   " " \n(\0\0"
000753:  254000000711  jrst     711             ;"5@  ')"
000754:  403200000005  setzb    4, 5            ;"@:   %"
000755:  260740001120  pushj    17, 1120        ;"6'@ )0"
000756:  254000000764  jrst     764             ;"5@  'T"
000757:  260740002072  pushj    17, 2072        ;"6'@ 0Z"
000760:  260740001412  pushj    17, 1412        ;"6'@ ,*"
000761:  254000000764  jrst     764             ;"5@  'T"
000762:  201040005401  movei    1, 5401         ;"0(@ L!"
000763:  260740002302  pushj    17, 2302        ;"6'@ 3""
000764:  620340777777  trz      7, 777777       ;"R#@___"
000765:  260740001631  pushj    17, 1631        ;"6'@ .9"
000766:  607340000010  tlnn     7, 10           ;"P[@  ("
000767:  254000001013  jrst     1013            ;"5@  (+"
000770:  336000006210  skipn    0, 6210         ;";P  R("
000771:  254000001010  jrst     1010            ;"5@  (("
000772:  200640005405  move     15, 5405        ;"0&@ L%"
000773:  260740005051  pushj    17, 5051        ;"6'@ HI"
000774:  254000001013  jrst     1013            ;"5@  (+"
000775:  040340005406  .iot     7, 5406         ;"$#@ L&"
000776:  200100003132  move     2, 3132         ;"0!  9:"
000777:  201440000500  movei    11, 500         ;"0,@ % "
001000:  043000005407  .call    [setz
                                 SIXBIT/SIOT  /
                                 201000000001
                                 000000000002
                                 400000000011]
                                                ;"$8  L'"
001001:  043100001400  .lose    1400            ;"$9  , "
001002:  213000000011  movns    0, 11           ;"18   )"
001003:  271440000500  addi     11, 500         ;"7,@ % "
001004:  322440001013  jumpe    11, 1013        ;":4@ (+"
001005:  200100003132  move     2, 3132         ;"0!  9:"
001006:  260740002147  pushj    17, 2147        ;"6'@ 1G"
001007:  254000000776  jrst     776             ;"5@  '^"
001010:  042340000007  .close   7,              ;"$3@  '"
001011:  043000005414  .call    [setz
                                 SIXBIT/DELETE/
                                 000000000110
                                 000000005241
                                 000000005242
                                 400000000113]
                                                ;"$8  L,"
001012:  255000000000  nop                      ;"5H    " "+ \0\0\0"
001013:  603340400000  tlne     7, 400000       ;"P;@@  "
001014:  260740001543  pushj    17, 1543        ;"6'@ -C"
001015:  201040000007  movei    1, 7            ;"0(@  '"
001016:  603340400000  tlne     7, 400000       ;"P;@@  "
001017:  201040000004  movei    1, 4            ;"0(@  $"
001020:  260740005061  pushj    17, 5061        ;"6'@ HQ"
001021:  201500005422  movei    12, 5422        ;"0-  L2"
001022:  336000006210  skipn    0, 6210         ;";P  R("
001023:  260740004721  pushj    17, 4721        ;"6'@ G1"
001024:  332000006210  skipe    0, 6210         ;";0  R("
001025:  607340400000  tlnn     7, 400000       ;"P[@@  "
001026:  254000004700  jrst     4700            ;"5@  G "
001027:  201500005430  movei    12, 5430        ;"0-  L8"
001030:  607340020004  tlnn     7, 20004        ;"P[@" $"
001031:  260740004717  pushj    17, 4717        ;"6'@ G/"
001032:  254000004700  jrst     4700            ;"5@  G "
001033:  261740000010  push     17, 10          ;"6/@  ("
001034:  202200006445  movem    4, 6445         ;"02  TE"
001035:  202240006446  movem    5, 6446         ;"02@ TF"
001036:  337000007101  skipg    0, 7101         ;";X  Y!"
001037:  254000001077  jrst     1077            ;"5@  (_"
001040:  402000006444  setzm    6444            ;"@0  TD"
001041:  332004000000  skipe    0, (4)          ;";0$   " "6@ \0\0"
001042:  254000001046  jrst     1046            ;"5@  (F"
001043:  541340000000  hrri     7, 0            ;"L+@   " "X.\0\0\0"
001044:  260740002313  pushj    17, 2313        ;"6'@ 3+"
001045:  254000001065  jrst     1065            ;"5@  (U"
001046:  200204000000  move     4, (4)          ;"0"$   "
001047:  332005000000  skipe    0, (5)          ;";0%   " "6@(\0\0"
001050:  254000001054  jrst     1054            ;"5@  (L"
001051:  541340000001  hrri     7, 1            ;"L+@  !"
001052:  260740002313  pushj    17, 2313        ;"6'@ 3+"
001053:  254000001057  jrst     1057            ;"5@  (O"
001054:  200245000000  move     5, (5)          ;"0"E   " " \n(\0\0"
001055:  260740001736  pushj    17, 1736        ;"6'@ />"
001056:  254000001074  jrst     1074            ;"5@  (\"
001057:  332200006445  skipe    4, 6445         ;";2  TE"
001060:  402000006217  setzm    6217            ;"@0  R/"
001061:  332240006446  skipe    5, 6446         ;";2@ TF"
001062:  402000006220  setzm    6220            ;"@0  R0"
001063:  262740000010  pop      17, 10          ;"67@  ("
001064:  263740000000  popj     17,             ;"6?@   "
001065:  332005000000  skipe    0, (5)          ;";0%   " "6@(\0\0"
001066:  254000001072  jrst     1072            ;"5@  (Z"
001067:  541340000001  hrri     7, 1            ;"L+@  !"
001070:  260740002313  pushj    17, 2313        ;"6'@ 3+"
001071:  254000001077  jrst     1077            ;"5@  (_"
001072:  200245000000  move     5, (5)          ;"0"E   " " \n(\0\0"
001073:  254000001057  jrst     1057            ;"5@  (O"
001074:  350040006444  aos      1, 6444         ;"= @ TD"
001075:  315040007101  camge    1, 7101         ;"9H@ Y!"
001076:  254000001041  jrst     1041            ;"5@  (A"
001077:  332000007142  skipe    0, 7142         ;";0  YB"
001100:  254000005433  jrst     5433            ;"5@  L;"
001101:  250200006445  exch     4, 6445         ;"5"  TE"
001102:  250240006446  exch     5, 6446         ;"5"@ TF"
001103:  274740005437  sub      17, 5437        ;"7G@ L?"
001104:  260740001120  pushj    17, 1120        ;"6'@ )0"
001105:  254000001113  jrst     1113            ;"5@  )+"
001106:  260740002072  pushj    17, 2072        ;"6'@ 0Z"
001107:  260740001412  pushj    17, 1412        ;"6'@ ,*"
001110:  254000001113  jrst     1113            ;"5@  )+"
001111:  200040005444  move     1, 5444         ;"0 @ LD"
001112:  260740002302  pushj    17, 2302        ;"6'@ 3""
001113:  332200006445  skipe    4, 6445         ;";2  TE"
001114:  402000006217  setzm    6217            ;"@0  R/"
001115:  332240006446  skipe    5, 6446         ;";2@ TF"
001116:  402000006220  setzm    6220            ;"@0  R0"
001117:  254000000464  jrst     464             ;"5@  $T"
001120:  603340000100  tlne     7, 100          ;"P;@ ! "
001121:  603340000400  tlne     7, 400          ;"P;@ $ "
001122:  603340000200  tlne     7, 200          ;"P;@ " "
001123:  304000000000  caia     0, 0            ;"8@    " "1\0\0\0\0"
001124:  254000002070  jrst     2070            ;"5@  0X"
001125:  261740000004  push     17, 4           ;"6/@  $"
001126:  261740000005  push     17, 5           ;"6/@  %"
001127:  332200006214  skipe    4, 6214         ;";2  R,"
001130:  200200006211  move     4, 6211         ;"0"  R)"
001131:  332240006215  skipe    5, 6215         ;";2@ R-"
001132:  200240006212  move     5, 6212         ;"0"@ R*"
001133:  316217777777  camn     4, 777777(17)   ;"9R/___"
001134:  254000001143  jrst     1143            ;"5@  )C"
001135:  541340000000  hrri     7, 0            ;"L+@   " "X.\0\0\0"
001136:  607340000400  tlnn     7, 400          ;"P[@ $ "
001137:  260740001170  pushj    17, 1170        ;"6'@ )X"
001140:  254000001143  jrst     1143            ;"5@  )C"
001141:  200204000000  move     4, (4)          ;"0"$   "
001142:  254000001133  jrst     1133            ;"5@  );"
001143:  316257000000  camn     5, (17)         ;"9RO   " "3Jx\0\0"
001144:  254000001157  jrst     1157            ;"5@  )O"
001145:  541340000001  hrri     7, 1            ;"L+@  !"
001146:  607340000400  tlnn     7, 400          ;"P[@ $ "
001147:  260740001170  pushj    17, 1170        ;"6'@ )X"
001150:  254000001153  jrst     1153            ;"5@  )K"
001151:  200245000000  move     5, (5)          ;"0"E   " " \n(\0\0"
001152:  254000001133  jrst     1133            ;"5@  );"
001153:  316217777777  camn     4, 777777(17)   ;"9R/___"
001154:  254000001157  jrst     1157            ;"5@  )O"
001155:  260740002020  pushj    17, 2020        ;"6'@ 00"
001156:  254000001165  jrst     1165            ;"5@  )U"
001157:  316217777777  camn     4, 777777(17)   ;"9R/___"
001160:  312257000000  came     5, (17)         ;"92O   " "2Jx\0\0"
001161:  350017777776  aos      0, 777776(17)   ;"= /__^"
001162:  262740000005  pop      17, 5           ;"67@  %"
001163:  262740000004  pop      17, 4           ;"67@  $"
001164:  263740000000  popj     17,             ;"6?@   "
001165:  200204000000  move     4, (4)          ;"0"$   "
001166:  200245000000  move     5, (5)          ;"0"E   " " \n(\0\0"
001167:  254000001133  jrst     1133            ;"5@  );"
001170:  550047000004  hrrz     1, 4(7)         ;"M G  $"
001171:  200441000001  move     11, 1(1)        ;"0$A  !"
001172:  270040005445  add      1, 5445         ;"7 @ LE"
001173:  134500000001  ildb     12, 1           ;"+E   !"
001174:  363440002070  sojle    11, 2070        ;"><@ 0X"
001175:  302500000015  caie     12, 15          ;"85   -"
001176:  306500000012  cain     12, 12          ;"8U   *"
001177:  254000001173  jrst     1173            ;"5@  )["
001200:  302500000040  caie     12, 40          ;"85   @"
001201:  306500000011  cain     12, 11          ;"8U   )"
001202:  607340000100  tlnn     7, 100          ;"P[@ ! "
001203:  304000000000  caia     0, 0            ;"8@    " "1\0\0\0\0"
001204:  254000001173  jrst     1173            ;"5@  )["
001205:  603340000200  tlne     7, 200          ;"P;@ " "
001206:  302500000073  caie     12, 73          ;"85   ["
001207:  263740000000  popj     17,             ;"6?@   "
001210:  254000002070  jrst     2070            ;"5@  0X"
001211:  043540005324  .suset   5324            ;"$=@ K4"
001212:  332204000000  skipe    4, (4)          ;";2$   " "6H \0\0"
001213:  254000001223  jrst     1223            ;"5@  *3"
001214:  620340777777  trz      7, 777777       ;"R#@___"
001215:  332000006427  skipe    0, 6427         ;";0  T7"
001216:  260740001631  pushj    17, 1631        ;"6'@ .9"
001217:  402000006214  setzm    6214            ;"@0  R,"
001220:  260740002313  pushj    17, 2313        ;"6'@ 3+"
001221:  304000000000  caia     0, 0            ;"8@    " "1\0\0\0\0"
001222:  255000000000  nop                      ;"5H    " "+ \0\0\0"
001223:  332245000000  skipe    5, (5)          ;";2E   " "6J(\0\0"
001224:  254000001232  jrst     1232            ;"5@  *:"
001225:  402000006215  setzm    6215            ;"@0  R-"
001226:  541340000001  hrri     7, 1            ;"L+@  !"
001227:  260740002313  pushj    17, 2313        ;"6'@ 3+"
001230:  304000000000  caia     0, 0            ;"8@    " "1\0\0\0\0"
001231:  255000000000  nop                      ;"5H    " "+ \0\0\0"
001232:  332306000000  skipe    6, (6)          ;";3&   " "6L0\0\0"
001233:  254000001241  jrst     1241            ;"5@  *A"
001234:  402000006216  setzm    6216            ;"@0  R."
001235:  541340000003  hrri     7, 3            ;"L+@  #"
001236:  260740002313  pushj    17, 2313        ;"6'@ 3+"
001237:  304000000000  caia     0, 0            ;"8@    " "1\0\0\0\0"
001240:  255000000000  nop                      ;"5H    " "+ \0\0\0"
001241:  200040006217  move     1, 6217         ;"0 @ R/"
001242:  316040006220  camn     1, 6220         ;"9P@ R0"
001243:  312040006221  came     1, 6221         ;"90@ R1"
001244:  254000001260  jrst     1260            ;"5@  *P"
001245:  260740001736  pushj    17, 1736        ;"6'@ />"
001246:  304000000000  caia     0, 0            ;"8@    " "1\0\0\0\0"
001247:  254000001260  jrst     1260            ;"5@  *P"
001250:  250240000006  exch     5, 6            ;"5"@  &"
001251:  260740001736  pushj    17, 1736        ;"6'@ />"
001252:  304000000000  caia     0, 0            ;"8@    " "1\0\0\0\0"
001253:  254000005446  jrst     5446            ;"5@  LF"
001254:  250240000006  exch     5, 6            ;"5"@  &"
001255:  332000006217  skipe    0, 6217         ;";0  R/"
001256:  254000000764  jrst     764             ;"5@  'T"
001257:  254000001212  jrst     1212            ;"5@  **"
001260:  541340000000  hrri     7, 0            ;"L+@   " "X.\0\0\0"
001261:  260740001631  pushj    17, 1631        ;"6'@ .9"
001262:  541340000001  hrri     7, 1            ;"L+@  !"
001263:  260740001631  pushj    17, 1631        ;"6'@ .9"
001264:  541340000002  hrri     7, 2            ;"L+@  ""
001265:  260740001631  pushj    17, 1631        ;"6'@ .9"
001266:  332000000000  skipe    0, 0            ;";0    " "6@\0\0\0"
001267:  043100000000  .lose    0               ;"$9    "
001270:  043540005400  .suset   5400            ;"$=@ L "
001271:  402000006222  setzm    6222            ;"@0  R2"
001272:  331000006217  skipl    0, 6217         ;";(  R/"
001273:  350000006222  aos      0, 6222         ;"=   R2"
001274:  402000006223  setzm    6223            ;"@0  R3"
001275:  331000006220  skipl    0, 6220         ;";(  R0"
001276:  350000006223  aos      0, 6223         ;"=   R3"
001277:  402000006224  setzm    6224            ;"@0  R4"
001300:  331000006221  skipl    0, 6221         ;";(  R1"
001301:  350000006224  aos      0, 6224         ;"=   R4"
001302:  200040007144  move     1, 7144         ;"0 @ YD"
001303:  202040007143  movem    1, 7143         ;"00@ YC"
001304:  332004000000  skipe    0, (4)          ;";0$   " "6@ \0\0"
001305:  254000001311  jrst     1311            ;"5@  +)"
001306:  541340000000  hrri     7, 0            ;"L+@   " "X.\0\0\0"
001307:  260740002313  pushj    17, 2313        ;"6'@ 3+"
001310:  304000000000  caia     0, 0            ;"8@    " "1\0\0\0\0"
001311:  200204000000  move     4, (4)          ;"0"$   "
001312:  331000006217  skipl    0, 6217         ;";(  R/"
001313:  350000006222  aos      0, 6222         ;"=   R2"
001314:  332005000000  skipe    0, (5)          ;";0%   " "6@(\0\0"
001315:  254000001321  jrst     1321            ;"5@  +1"
001316:  541340000001  hrri     7, 1            ;"L+@  !"
001317:  260740002313  pushj    17, 2313        ;"6'@ 3+"
001320:  304000000000  caia     0, 0            ;"8@    " "1\0\0\0\0"
001321:  200245000000  move     5, (5)          ;"0"E   " " \n(\0\0"
001322:  331000006220  skipl    0, 6220         ;";(  R0"
001323:  350000006223  aos      0, 6223         ;"=   R3"
001324:  332006000000  skipe    0, (6)          ;";0&   " "6@0\0\0"
001325:  254000001331  jrst     1331            ;"5@  +9"
001326:  541340000002  hrri     7, 2            ;"L+@  ""
001327:  260740002313  pushj    17, 2313        ;"6'@ 3+"
001330:  304000000000  caia     0, 0            ;"8@    " "1\0\0\0\0"
001331:  200306000000  move     6, (6)          ;"0#&   " " \f0\0\0"
001332:  331000006221  skipl    0, 6221         ;";(  R1"
001333:  350000006224  aos      0, 6224         ;"=   R4"
001334:  332000006220  skipe    0, 6220         ;";0  R0"
001335:  254000001346  jrst     1346            ;"5@  +F"
001336:  336400006222  skipn    10, 6222        ;";T  R2"
001337:  254000001346  jrst     1346            ;"5@  +F"
001340:  334200006211  skipa    4, 6211         ;";B  R)"
001341:  200200000001  move     4, 1            ;"0"   !"
001342:  260740001736  pushj    17, 1736        ;"6'@ />"
001343:  260740001033  pushj    17, 1033        ;"6'@ (;"
001344:  332044000000  skipe    1, (4)          ;";0D   " "6B \0\0"
001345:  367400001341  sojg     10, 1341        ;">\  +A"
001346:  332000006217  skipe    0, 6217         ;";0  R/"
001347:  254000001360  jrst     1360            ;"5@  +P"
001350:  336400006223  skipn    10, 6223        ;";T  R3"
001351:  254000001360  jrst     1360            ;"5@  +P"
001352:  334240006212  skipa    5, 6212         ;";B@ R*"
001353:  200240000001  move     5, 1            ;"0"@  !"
001354:  260740001736  pushj    17, 1736        ;"6'@ />"
001355:  260740001033  pushj    17, 1033        ;"6'@ (;"
001356:  332045000000  skipe    1, (5)          ;";0E   " "6B(\0\0"
001357:  367400001353  sojg     10, 1353        ;">\  +K"
001360:  261740000004  push     17, 4           ;"6/@  $"
001361:  261740000005  push     17, 5           ;"6/@  %"
001362:  200040007144  move     1, 7144         ;"0 @ YD"
001363:  316040007143  camn     1, 7143         ;"9P@ YC"
001364:  254000001401  jrst     1401            ;"5@  ,!"
001365:  134240000001  ildb     5, 1            ;"+B@  !"
001366:  261740000001  push     17, 1           ;"6/@  !"
001367:  405240777777  andi     5, 777777       ;"@J@___"
001370:  200400006224  move     10, 6224        ;"0$  R4"
001371:  334200006213  skipa    4, 6213         ;";B  R+"
001372:  200200000001  move     4, 1            ;"0"   !"
001373:  260740001736  pushj    17, 1736        ;"6'@ />"
001374:  260740001411  pushj    17, 1411        ;"6'@ ,)"
001375:  332044000000  skipe    1, (4)          ;";0D   " "6B \0\0"
001376:  367400001372  sojg     10, 1372        ;">\  +Z"
001377:  262740000001  pop      17, 1           ;"67@  !"
001400:  254000001363  jrst     1363            ;"5@  +S"
001401:  262740000005  pop      17, 5           ;"67@  %"
001402:  262740000004  pop      17, 4           ;"67@  $"
001403:  332000006217  skipe    0, 6217         ;";0  R/"
001404:  331000006220  skipl    0, 6220         ;";(  R0"
001405:  254000001304  jrst     1304            ;"5@  +$"
001406:  331000006221  skipl    0, 6221         ;";(  R1"
001407:  254000001304  jrst     1304            ;"5@  +$"
001410:  254000001411  jrst     1411            ;"5@  ,)"
001411:  263740000000  popj     17,             ;"6?@   "
001412:  607340400000  tlnn     7, 400000       ;"P[@@  "
001413:  254000002070  jrst     2070            ;"5@  0X"
001414:  043540005451  .suset   5451            ;"$=@ LI"
001415:  603340000004  tlne     7, 4            ;"P;@  $"
001416:  254000001477  jrst     1477            ;"5@  ,_"
001417:  603340020000  tlne     7, 20000        ;"P;@"  "
001420:  254000001463  jrst     1463            ;"5@  ,S"
001421:  260740001562  pushj    17, 1562        ;"6'@ -R"
001422:  260740001627  pushj    17, 1627        ;"6'@ .7"
001423:  302440000061  caie     11, 61          ;"84@  Q"
001424:  306440000062  cain     11, 62          ;"8T@  R"
001425:  254000001457  jrst     1457            ;"5@  ,O"
001426:  306440000111  cain     11, 111         ;"8T@ !)"
001427:  254000001476  jrst     1476            ;"5@  ,^"
001430:  302440000124  caie     11, 124         ;"84@ !4"
001431:  254000001445  jrst     1445            ;"5@  ,E"
001432:  260740003425  pushj    17, 3425        ;"6'@ <5"
001433:  260740003431  pushj    17, 3431        ;"6'@ <9"
001434:  302440000003  caie     11, 3           ;"84@  #"
001435:  306440000033  cain     11, 33          ;"8T@  ;"
001436:  254000001422  jrst     1422            ;"5@  ,2"
001437:  260740001540  pushj    17, 1540        ;"6'@ -@"
001440:  302440000015  caie     11, 15          ;"84@  -"
001441:  254000001433  jrst     1433            ;"5@  ,;"
001442:  201440000012  movei    11, 12          ;"0,@  *"
001443:  260740001540  pushj    17, 1540        ;"6'@ -@"
001444:  254000001432  jrst     1432            ;"5@  ,:"
001445:  302440000000  caie     11, 0           ;"84@   " "0R\0\0\0"
001446:  043100000000  .lose    0               ;"$9    "
001447:  541340000000  hrri     7, 0            ;"L+@   " "X.\0\0\0"
001450:  402007006427  setzm    6427(7)         ;"@0' T7"
001451:  260740001631  pushj    17, 1631        ;"6'@ .9"
001452:  541340000001  hrri     7, 1            ;"L+@  !"
001453:  402007006427  setzm    6427(7)         ;"@0' T7"
001454:  260740001631  pushj    17, 1631        ;"6'@ .9"
001455:  476000006427  setom    6427            ;"GP  T7"
001456:  263740000000  popj     17,             ;"6?@   "
001457:  541351777717  hrri     7, 777717(11)   ;"L+I__/"
001460:  476007006427  setom    6427(7)         ;"GP' T7"
001461:  260740001631  pushj    17, 1631        ;"6'@ .9"
001462:  254000001422  jrst     1422            ;"5@  ,2"
001463:  476000006430  setom    6430            ;"GP  T8"
001464:  541340000001  hrri     7, 1            ;"L+@  !"
001465:  476000006437  setom    6437            ;"GP  T?"
001466:  261747000004  push     17, 4(7)        ;"6/G  $"
001467:  260740001631  pushj    17, 1631        ;"6'@ .9"
001470:  262740000001  pop      17, 1           ;"67@  !"
001471:  201100005452  movei    2, 5452         ;"0)  LJ"
001472:  316047000004  camn     1, 4(7)         ;"9PG  $"
001473:  260740001524  pushj    17, 1524        ;"6'@ -4"
001474:  403440006437  setzb    11, 6437        ;"@<@ T?"
001475:  254000001445  jrst     1445            ;"5@  ,E"
001476:  261740005453  push     17, 5453        ;"6/@ LK"
001477:  201100005454  movei    2, 5454         ;"0)  LL"
001500:  260740001524  pushj    17, 1524        ;"6'@ -4"
001501:  200100003146  move     2, 3146         ;"0!  9F"
001502:  260740001524  pushj    17, 1524        ;"6'@ -4"
001503:  201100005463  movei    2, 5463         ;"0)  LS"
001504:  260740001524  pushj    17, 1524        ;"6'@ -4"
001505:  476000006427  setom    6427            ;"GP  T7"
001506:  541340000000  hrri     7, 0            ;"L+@   " "X.\0\0\0"
001507:  260740001631  pushj    17, 1631        ;"6'@ .9"
001510:  201100005465  movei    2, 5465         ;"0)  LU"
001511:  260740001524  pushj    17, 1524        ;"6'@ -4"
001512:  200100003147  move     2, 3147         ;"0!  9G"
001513:  260740001524  pushj    17, 1524        ;"6'@ -4"
001514:  201100005467  movei    2, 5467         ;"0)  LW"
001515:  260740001524  pushj    17, 1524        ;"6'@ -4"
001516:  476000006430  setom    6430            ;"GP  T8"
001517:  541340000001  hrri     7, 1            ;"L+@  !"
001520:  260740001631  pushj    17, 1631        ;"6'@ .9"
001521:  402000006430  setzm    6430            ;"@0  T8"
001522:  201100005471  movei    2, 5471         ;"0)  LY"
001523:  254000001524  jrst     1524            ;"5@  -4"
001524:  505100440700  hrli     2, 440700       ;"HI D' "
001525:  134440000002  ildb     11, 2           ;"+D@  ""
001526:  322440002071  jumpe    11, 2071        ;":4@ 0Y"
001527:  260740001540  pushj    17, 1540        ;"6'@ -@"
001530:  254000001525  jrst     1525            ;"5@  -5"
001531:  261740000001  push     17, 1           ;"6/@  !"
001532:  336040000011  skipn    1, 11           ;";P@  )"
001533:  254000001556  jrst     1556            ;"5@  -N"
001534:  134440000002  ildb     11, 2           ;"+D@  ""
001535:  260740001540  pushj    17, 1540        ;"6'@ -@"
001536:  367040001534  sojg     1, 1534         ;">X@ -<"
001537:  254000001556  jrst     1556            ;"5@  -N"
001540:  136440007063  idpb     11, 7063        ;"+T@ XS"
001541:  373000007064  sosle    0, 7064         ;"?8  XT"
001542:  263740000000  popj     17,             ;"6?@   "
001543:  261740000001  push     17, 1           ;"6/@  !"
001544:  261740000002  push     17, 2           ;"6/@  ""
001545:  200040005224  move     1, 5224         ;"0 @ J4"
001546:  202040007063  movem    1, 7063         ;"00@ XS"
001547:  201100000500  movei    2, 500          ;"0)  % "
001550:  274100007064  sub      2, 7064         ;"7A  XT"
001551:  272100007064  addm     2, 7064         ;"71  XT"
001552:  322100001555  jumpe    2, 1555         ;":1  -M"
001553:  043000005500  .call    [setz
                                 SIXBIT/SIOT  /
                                 201000000004
                                 000000000001
                                 400000000002]
                                                ;"$8  M "
001554:  043100001400  .lose    1400            ;"$9  , "
001555:  262740000002  pop      17, 2           ;"67@  ""
001556:  262740000001  pop      17, 1           ;"67@  !"
001557:  263740000000  popj     17,             ;"6?@   "
001560:  554457000000  hlrz     11, (17)        ;"MDO   "
001561:  202051000000  movem    1, (11)         ;"00I   " " BH\0\0"
001562:  260740003427  pushj    17, 3427        ;"6'@ <7"
001563:  200040005505  move     1, 5505         ;"0 @ M%"
001564:  201440000000  movei    11, 0           ;"0,@   " " 2\0\0\0"
001565:  312040005506  came     1, 5506         ;"90@ M&"
001566:  260740003435  pushj    17, 3435        ;"6'@ <="
001567:  305440000040  caige    11, 40          ;"8L@  @"
001570:  201440000000  movei    11, 0           ;"0,@   " " 2\0\0\0"
001571:  136440000001  idpb     11, 1           ;"+T@  !"
001572:  302440000061  caie     11, 61          ;"84@  Q"
001573:  306440000062  cain     11, 62          ;"8T@  R"
001574:  254000001564  jrst     1564            ;"5@  -T"
001575:  302440000111  caie     11, 111         ;"84@ !)"
001576:  306440000124  cain     11, 124         ;"8T@ !4"
001577:  254000001564  jrst     1564            ;"5@  -T"
001600:  306440000114  cain     11, 114         ;"8T@ !,"
001601:  254000001605  jrst     1605            ;"5@  .%"
001602:  302440000103  caie     11, 103         ;"84@ !#"
001603:  254000001621  jrst     1621            ;"5@  .1"
001604:  334040005507  skipa    1, 5507         ;";@@ M'"
001605:  201040007100  movei    1, 7100         ;"0(@ Y "
001606:  506057000000  hrlm     1, (17)         ;"HPO   " "QBx\0\0"
001607:  201040000000  movei    1, 0            ;"0(@   " " \"\0\0\0"
001610:  260740003431  pushj    17, 3431        ;"6'@ <9"
001611:  305440000040  caige    11, 40          ;"8L@  @"
001612:  254000001560  jrst     1560            ;"5@  -P"
001613:  301440000060  cail     11, 60          ;"8,@  P"
001614:  303440000071  caile    11, 71          ;"8<@  Y"
001615:  254000001624  jrst     1624            ;"5@  .4"
001616:  221040000012  imuli    1, 12           ;"2(@  *"
001617:  271051777720  addi     1, 777720(11)   ;"7(I__0"
001620:  254000001610  jrst     1610            ;"5@  .("
001621:  200040005505  move     1, 5505         ;"0 @ M%"
001622:  202040006436  movem    1, 6436         ;"00@ T>"
001623:  322440002071  jumpe    11, 2071        ;":4@ 0Y"
001624:  200040005537  move     1, 5537         ;"0 @ M?"
001625:  260740002302  pushj    17, 2302        ;"6'@ 3""
001626:  254000001562  jrst     1562            ;"5@  -R"
001627:  134440006436  ildb     11, 6436        ;"+D@ T>"
001630:  263740000000  popj     17,             ;"6?@   "
001631:  336000007140  skipn    0, 7140         ;";P  Y@"
001632:  332000007137  skipe    0, 7137         ;";0  Y?"
001633:  263740000000  popj     17,             ;"6?@   "
001634:  332007006427  skipe    0, 6427(7)      ;";0' T7"
001635:  260740001670  pushj    17, 1670        ;"6'@ .X"
001636:  332047000004  skipe    1, 4(7)         ;";0G  $"
001637:  254000001642  jrst     1642            ;"5@  .B"
001640:  402007006214  setzm    6214(7)         ;"@0' R," "@@8\fF"
001641:  263740000000  popj     17,             ;"6?@   "
001642:  201500000001  movei    12, 1           ;"0-   !"
001643:  210440000001  movn     11, 1           ;"1$@  !"
001644:  270447006211  add      11, 6211(7)     ;"7$G R)"
001645:  200100000001  move     2, 1            ;"0!   !"
001646:  316047006445  camn     1, 6445(7)      ;"9PG TE"
001647:  272447006445  addm     11, 6445(7)     ;"74G TE"
001650:  336041000000  skipn    1, (1)          ;";PA   "
001651:  254000001654  jrst     1654            ;"5@  .L"
001652:  272442000000  addm     11, (2)         ;"74B   "
001653:  344500001645  aoja     12, 1645        ;"<E  .E"
001654:  202507006214  movem    12, 6214(7)     ;"05' R," " T8\fF"
001655:  514047000004  hrlz     1, 4(7)         ;"I@G  $"
001656:  540047006211  hrr      1, 6211(7)      ;"L G R)"
001657:  200502000001  move     12, 1(2)        ;"0%"  !"
001660:  271500000005  addi     12, 5           ;"7-   %"
001661:  231500000005  idivi    12, 5           ;"3-   %"
001662:  271112000010  addi     2, 10(12)       ;"7)*  ("
001663:  270100000011  add      2, 11           ;"7!   )"
001664:  251042000000  blt      1, (2)          ;"5(B   "
001665:  200047006211  move     1, 6211(7)      ;"0 G R)"
001666:  202047000004  movem    1, 4(7)         ;"00G  $"
001667:  263740000000  popj     17,             ;"6?@   "
001670:  200047006211  move     1, 6211(7)      ;"0 G R)"
001671:  336007006214  skipn    0, 6214(7)      ;";P' R," "7@8\fF"
001672:  400040000000  setz     1,              ;"@ @   "
001673:  316047000004  camn     1, 4(7)         ;"9PG  $"
001674:  263740000000  popj     17,             ;"6?@   "
001675:  603340020000  tlne     7, 20000        ;"P;@"  "
001676:  335000006432  skipge   0, 6432         ;";H  T:"
001677:  254000001711  jrst     1711            ;"5@  /)"
001700:  333000006432  skiple   0, 6432         ;";8  T:"
001701:  254000001707  jrst     1707            ;"5@  /'"
001702:  201440000174  movei    11, 174         ;"0,@ !\"
001703:  332000006437  skipe    0, 6437         ;";0  T?"
001704:  260740001540  pushj    17, 1540        ;"6'@ -@"
001705:  607340020000  tlnn     7, 20000        ;"P[@"  "
001706:  254000001711  jrst     1711            ;"5@  /)"
001707:  201440000011  movei    11, 11          ;"0,@  )"
001710:  260740001540  pushj    17, 1540        ;"6'@ -@"
001711:  201101000011  movei    2, 11(1)        ;"0)!  )"
001712:  505100440700  hrli     2, 440700       ;"HI D' "
001713:  200441000001  move     11, 1(1)        ;"0$A  !"
001714:  402000006432  setzm    6432            ;"@0  T:"
001715:  305440000002  caige    11, 2           ;"8L@  ""
001716:  476000006432  setom    6432            ;"GP  T:"
001717:  260740001531  pushj    17, 1531        ;"6'@ -9"
001720:  370000000002  sos      0, 2            ;"?    ""
001721:  133000000002  ibp      2               ;"+8   ""
001722:  133000000002  ibp      2               ;"+8   ""
001723:  133000000002  ibp      2               ;"+8   ""
001724:  134440000002  ildb     11, 2           ;"+D@  ""
001725:  302440000015  caie     11, 15          ;"84@  -"
001726:  476000006432  setom    6432            ;"GP  T:"
001727:  134440000002  ildb     11, 2           ;"+D@  ""
001730:  302440000012  caie     11, 12          ;"84@  *"
001731:  476000006432  setom    6432            ;"GP  T:"
001732:  306440000015  cain     11, 15          ;"8T@  -"
001733:  213000006432  movns    0, 6432         ;"18  T:"
001734:  200041000000  move     1, (1)          ;"0 A   "
001735:  254000001673  jrst     1673            ;"5@  .["
001736:  200444000001  move     11, 1(4)        ;"0$D  !"
001737:  312445000001  came     11, 1(5)        ;"94E  !"
001740:  254000001757  jrst     1757            ;"5@  /O"
001741:  201051000005  movei    1, 5(11)        ;"0(I  %"
001742:  231040000005  idivi    1, 5            ;"3(@  %"
001743:  213000000001  movns    0, 1            ;"18   !"
001744:  517000000001  hrlzs    0, 1            ;"IX   !"
001745:  541044000011  hrri     1, 11(4)        ;"L(D  )"
001746:  201105000011  movei    2, 11(5)        ;"0)%  )"
001747:  274100000001  sub      2, 1            ;"7A   !"
001750:  542100001752  hrrm     2, 1752         ;"L1  /J"
001751:  200441000000  move     11, (1)         ;"0$A   "
001752:  430441000000  xor      11, (1)         ;"C$A   "
001753:  612440005540  tdne     11, 5540        ;"Q4@ M@"
001754:  254000001757  jrst     1757            ;"5@  /O"
001755:  253040001751  aobjn    1, 1751         ;"58@ /I"
001756:  263740000000  popj     17,             ;"6?@   "
001757:  607340040100  tlnn     7, 40100        ;"P[@$! "
001760:  254000002070  jrst     2070            ;"5@  0X"
001761:  201044000011  movei    1, 11(4)        ;"0(D  )"
001762:  201105000011  movei    2, 11(5)        ;"0)%  )"
001763:  505040440700  hrli     1, 440700       ;"HH@D' "
001764:  505100440700  hrli     2, 440700       ;"HI D' "
001765:  134500000001  ildb     12, 1           ;"+E   !"
001766:  134540000002  ildb     13, 2           ;"+E@  ""
001767:  312500000013  came     12, 13          ;"95   +"
001770:  254000001773  jrst     1773            ;"5@  /["
001771:  326500001765  jumpn    12, 1765        ;":U  /U"
001772:  263740000000  popj     17,             ;"6?@   "
001773:  607340000100  tlnn     7, 100          ;"P[@ ! "
001774:  254000002003  jrst     2003            ;"5@  0#"
001775:  302500000040  caie     12, 40          ;"85   @"
001776:  306500000011  cain     12, 11          ;"8U   )"
001777:  254000005541  jrst     5541            ;"5@  MA"
002000:  302540000040  caie     13, 40          ;"85@  @"
002001:  306540000011  cain     13, 11          ;"8U@  )"
002002:  254000005543  jrst     5543            ;"5@  MC"
002003:  607340040000  tlnn     7, 40000        ;"P[@$  "
002004:  254000002015  jrst     2015            ;"5@  0-"
002005:  301500000141  cail     12, 141         ;"8-  !A"
002006:  303500000172  caile    12, 172         ;"8=  !Z"
002007:  304000000000  caia     0, 0            ;"8@    " "1\0\0\0\0"
002010:  275500000040  subi     12, 40          ;"7M   @"
002011:  301540000141  cail     13, 141         ;"8-@ !A"
002012:  303540000172  caile    13, 172         ;"8=@ !Z"
002013:  304000000000  caia     0, 0            ;"8@    " "1\0\0\0\0"
002014:  275540000040  subi     13, 40          ;"7M@  @"
002015:  316500000013  camn     12, 13          ;"9U   +"
002016:  254000001765  jrst     1765            ;"5@  /U"
002017:  254000002070  jrst     2070            ;"5@  0X"
002020:  201044000011  movei    1, 11(4)        ;"0(D  )"
002021:  201105000011  movei    2, 11(5)        ;"0)%  )"
002022:  505040440700  hrli     1, 440700       ;"HH@D' "
002023:  505100440700  hrli     2, 440700       ;"HI D' "
002024:  134500000001  ildb     12, 1           ;"+E   !"
002025:  134540000002  ildb     13, 2           ;"+E@  ""
002026:  312540000012  came     13, 12          ;"95@  *"
002027:  254000002034  jrst     2034            ;"5@  0<"
002030:  306500000073  cain     12, 73          ;"8U   ["
002031:  607340000200  tlnn     7, 200          ;"P[@ " "
002032:  326500002024  jumpn    12, 2024        ;":U  04"
002033:  263740000000  popj     17,             ;"6?@   "
002034:  607340000100  tlnn     7, 100          ;"P[@ ! "
002035:  254000002046  jrst     2046            ;"5@  0F"
002036:  302540000040  caie     13, 40          ;"85@  @"
002037:  306540000011  cain     13, 11          ;"8U@  )"
002040:  254000002025  jrst     2025            ;"5@  05"
002041:  302500000040  caie     12, 40          ;"85   @"
002042:  306500000011  cain     12, 11          ;"8U   )"
002043:  254000005545  jrst     5545            ;"5@  ME"
002044:  316500000013  camn     12, 13          ;"9U   +"
002045:  254000002030  jrst     2030            ;"5@  08"
002046:  607340040000  tlnn     7, 40000        ;"P[@$  "
002047:  254000002062  jrst     2062            ;"5@  0R"
002050:  301500000141  cail     12, 141         ;"8-  !A"
002051:  303500000172  caile    12, 172         ;"8=  !Z"
002052:  304000000000  caia     0, 0            ;"8@    " "1\0\0\0\0"
002053:  275500000040  subi     12, 40          ;"7M   @"
002054:  301540000141  cail     13, 141         ;"8-@ !A"
002055:  303540000172  caile    13, 172         ;"8=@ !Z"
002056:  304000000000  caia     0, 0            ;"8@    " "1\0\0\0\0"
002057:  275540000040  subi     13, 40          ;"7M@  @"
002060:  316500000013  camn     12, 13          ;"9U   +"
002061:  254000002024  jrst     2024            ;"5@  04"
002062:  302500000073  caie     12, 73          ;"85   ["
002063:  306540000073  cain     13, 73          ;"8U@  ["
002064:  607340000200  tlnn     7, 200          ;"P[@ " "
002065:  254000002070  jrst     2070            ;"5@  0X"
002066:  322500002071  jumpe    12, 2071        ;":5  0Y"
002067:  322540002071  jumpe    13, 2071        ;":5@ 0Y"
002070:  350017000000  aos      0, (17)         ;"= /   "
002071:  263740000000  popj     17,             ;"6?@   "
002072:  350000006210  aos      0, 6210         ;"=   R("
002073:  603340020004  tlne     7, 20004        ;"P;@" $"
002074:  263740000000  popj     17,             ;"6?@   "
002075:  043540005550  .suset   5550            ;"$=@ MH"
002076:  202740006207  movem    17, 6207        ;"07@ R'"
002077:  620340777777  trz      7, 777777       ;"R#@___"
002100:  260740002105  pushj    17, 2105        ;"6'@ 1%"
002101:  541340000001  hrri     7, 1            ;"L+@  !"
002102:  260740002105  pushj    17, 2105        ;"6'@ 1%"
002103:  402000006207  setzm    6207            ;"@0  R'"
002104:  263740000000  popj     17,             ;"6?@   "
002105:  260740002152  pushj    17, 2152        ;"6'@ 1J"
002106:  336007006214  skipn    0, 6214(7)      ;";P' R," "7@8\fF"
002107:  263740000000  popj     17,             ;"6?@   "
002110:  200047006211  move     1, 6211(7)      ;"0 G R)"
002111:  400140000000  setz     3,              ;"@!@   "
002112:  332407000004  skipe    10, 4(7)        ;";4'  $"
002113:  607340000040  tlnn     7, 40           ;"P[@  @"
002114:  304000000000  caia     0, 0            ;"8@    " "1\0\0\0\0"
002115:  200410000000  move     10, (10)        ;"0$(   "
002116:  312040000010  came     1, 10           ;"90@  ("
002117:  311140007100  caml     3, 7100         ;"9)@ Y "
002120:  263740000000  popj     17,             ;"6?@   "
002121:  607340010000  tlnn     7, 10000        ;"P[@!  "
002122:  254000002127  jrst     2127            ;"5@  17"
002123:  261740000001  push     17, 1           ;"6/@  !"
002124:  201047002143  movei    1, 2143(7)      ;"0(G 1C"
002125:  260740002302  pushj    17, 2302        ;"6'@ 3""
002126:  262740000001  pop      17, 1           ;"67@  !"
002127:  201101000011  movei    2, 11(1)        ;"0)!  )"
002130:  505100440700  hrli     2, 440700       ;"HI D' "
002131:  200441000001  move     11, 1(1)        ;"0$A  !"
002132:  311440007077  caml     11, 7077        ;"9,@ X_"
002133:  200440007077  move     11, 7077        ;"0$@ X_"
002134:  607340400000  tlnn     7, 400000       ;"P[@@  "
002135:  200441000001  move     11, 1(1)        ;"0$A  !"
002136:  260740002147  pushj    17, 2147        ;"6'@ 1G"
002137:  607340000400  tlnn     7, 400          ;"P[@ $ "
002140:  260740002145  pushj    17, 2145        ;"6'@ 1E"
002141:  200041000000  move     1, (1)          ;"0 A   "
002142:  344140002116  aoja     3, 2116         ;"<A@ 1."
002143:  305221100000  caige    4, @100000(1)   ;"8J1(  " "1)\t\0\0"
002144:  311221100000  caml     4, @100000(1)   ;"9*1(  " "2)\t\0\0"
002145:  200100005551  move     2, 5551         ;"0!  MI"
002146:  201440000002  movei    11, 2           ;"0,@  ""
002147:  043000005552  .call    [setz
                                 SIXBIT/SIOT  /
                                 201000000007
                                 000000000002
                                 400000000011]
                                                ;"$8  MJ"
002150:  043100001400  .lose    1400            ;"$9  , "
002151:  263740000000  popj     17,             ;"6?@   "
002152:  200100005562  move     2, 5562         ;"0!  MR"
002153:  201440000012  movei    11, 12          ;"0,@  *"
002154:  260740002147  pushj    17, 2147        ;"6'@ 1G"
002155:  200047003146  move     1, 3146(7)      ;"0 G 9F"
002156:  260740002302  pushj    17, 2302        ;"6'@ 3""
002157:  200100005564  move     2, 5564         ;"0!  MT"
002160:  201440000002  movei    11, 2           ;"0,@  ""
002161:  260740002147  pushj    17, 2147        ;"6'@ 1G"
002162:  200047006211  move     1, 6211(7)      ;"0 G R)"
002163:  336007006214  skipn    0, 6214(7)      ;";P' R," "7@8\fF"
002164:  334507006402  skipa    12, 6402(7)     ;";E' T""
002165:  200501000006  move     12, 6(1)        ;"0%!  &"
002166:  260740002265  pushj    17, 2265        ;"6'@ 2U"
002167:  040340005565  .iot     7, 5565         ;"$#@ MU"
002170:  336007006214  skipn    0, 6214(7)      ;";P' R," "7@8\fF"
002171:  334507006405  skipa    12, 6405(7)     ;";E' T%"
002172:  200501000007  move     12, 7(1)        ;"0%!  '"
002173:  260740002265  pushj    17, 2265        ;"6'@ 2U"
002174:  201040005566  movei    1, 5566         ;"0(@ MV"
002175:  260740002302  pushj    17, 2302        ;"6'@ 3""
002176:  200047006211  move     1, 6211(7)      ;"0 G R)"
002177:  336007006214  skipn    0, 6214(7)      ;";P' R," "7@8\fF"
002200:  334507006410  skipa    12, 6410(7)     ;";E' T("
002201:  200501000010  move     12, 10(1)       ;"0%!  ("
002202:  260740002265  pushj    17, 2265        ;"6'@ 2U"
002203:  040340005567  .iot     7, 5567         ;"$#@ MW"
002204:  607340200020  tlnn     7, 200020       ;"P[@0 0"
002205:  254000002145  jrst     2145            ;"5@  1E"
002206:  200047006211  move     1, 6211(7)      ;"0 G R)"
002207:  336007006214  skipn    0, 6214(7)      ;";P' R," "7@8\fF"
002210:  254000005570  jrst     5570            ;"5@  MX"
002211:  201501000002  movei    12, 2(1)        ;"0-!  ""
002212:  336012000000  skipn    0, (12)         ;";P*   " "7@P\0\0"
002213:  254000002145  jrst     2145            ;"5@  1E"
002214:  201040005574  movei    1, 5574         ;"0(@ M\"
002215:  261740000012  push     17, 12          ;"6/@  *"
002216:  260740002302  pushj    17, 2302        ;"6'@ 3""
002217:  262740000001  pop      17, 1           ;"67@  !"
002220:  603340200000  tlne     7, 200000       ;"P;@0  "
002221:  040340005576  .iot     7, 5576         ;"$#@ M^"
002222:  261741000004  push     17, 4(1)        ;"6/A  $"
002223:  402001000004  setzm    4(1)            ;"@0!  $"
002224:  260740002302  pushj    17, 2302        ;"6'@ 3""
002225:  262741000004  pop      17, 4(1)        ;"67A  $"
002226:  603340200000  tlne     7, 200000       ;"P;@0  "
002227:  040340005576  .iot     7, 5576         ;"$#@ M^"
002230:  254000002145  jrst     2145            ;"5@  1E"
002231:  261740000012  push     17, 12          ;"6/@  *"
002232:  557000000012  hlrzs    0, 12           ;"MX   *"
002233:  260740002241  pushj    17, 2241        ;"6'@ 2A"
002234:  201440000002  movei    11, 2           ;"0,@  ""
002235:  200100005600  move     2, 5600         ;"0!  N "
002236:  260740002147  pushj    17, 2147        ;"6'@ 1G"
002237:  262740000012  pop      17, 12          ;"67@  *"
002240:  254000002241  jrst     2241            ;"5@  2A"
002241:  200100005601  move     2, 5601         ;"0!  N!"
002242:  261740000012  push     17, 12          ;"6/@  *"
002243:  200540005602  move     13, 5602        ;"0%@ N""
002244:  205440777772  movsi    11, 777772      ;"0L@__Z"
002245:  134500000013  ildb     12, 13          ;"+E   +"
002246:  326500002256  jumpn    12, 2256        ;":U  2N"
002247:  201500000040  movei    12, 40          ;"0-   @"
002250:  136500000002  idpb     12, 2           ;"+U   ""
002251:  253440002245  aobjn    11, 2245        ;"5<@ 2E"
002252:  201500000060  movei    12, 60          ;"0-   P"
002253:  137500000002  dpb      12, 2           ;"+]   ""
002254:  254000002261  jrst     2261            ;"5@  2Q"
002255:  134500000013  ildb     12, 13          ;"+E   +"
002256:  271500000060  addi     12, 60          ;"7-   P"
002257:  136500000002  idpb     12, 2           ;"+U   ""
002260:  253440002255  aobjn    11, 2255        ;"5<@ 2M"
002261:  201440000006  movei    11, 6           ;"0,@  &"
002262:  200100005601  move     2, 5601         ;"0!  N!"
002263:  262740000012  pop      17, 12          ;"67@  *"
002264:  254000002147  jrst     2147            ;"5@  1G"
002265:  200100005601  move     2, 5601         ;"0!  N!"
002266:  400440000000  setz     11,             ;"@$@   "
002267:  260740002272  pushj    17, 2272        ;"6'@ 2Z"
002270:  200100005601  move     2, 5601         ;"0!  N!"
002271:  254000002147  jrst     2147            ;"5@  1G"
002272:  231500000012  idivi    12, 12          ;"3-   *"
002273:  506557000000  hrlm     13, (17)        ;"HUO   " "QVx\0\0"
002274:  332000000012  skipe    0, 12           ;";0   *"
002275:  260740002272  pushj    17, 2272        ;"6'@ 2Z"
002276:  554557000000  hlrz     13, (17)        ;"MEO   "
002277:  271540000060  addi     13, 60          ;"7-@  P"
002300:  136540000002  idpb     13, 2           ;"+U@  ""
002301:  344440002071  aoja     11, 2071        ;"<D@ 0Y"
002302:  201101000000  movei    2, (1)          ;"0)!   "
002303:  505100440700  hrli     2, 440700       ;"HI D' "
002304:  400440000000  setz     11,             ;"@$@   "
002305:  134500000002  ildb     12, 2           ;"+E   ""
002306:  332000000012  skipe    0, 12           ;";0   *"
002307:  344440002305  aoja     11, 2305        ;"<D@ 3%"
002310:  201101000000  movei    2, (1)          ;"0)!   "
002311:  505100440700  hrli     2, 440700       ;"HI D' "
002312:  254000002147  jrst     2147            ;"5@  1G"
002313:  612347003143  tdne     7, 3143(7)      ;"Q3G 9C"
002314:  254000005603  jrst     5603            ;"5@  N#"
002315:  200047006211  move     1, 6211(7)      ;"0 G R)"
002316:  336007006214  skipn    0, 6214(7)      ;";P' R," "7@8\fF"
002317:  254000002326  jrst     2326            ;"5@  36"
002320:  336047000004  skipn    1, 4(7)         ;";PG  $"
002321:  043100000000  .lose    0               ;"$9    "
002322:  200501000001  move     12, 1(1)        ;"0%!  !"
002323:  271500000005  addi     12, 5           ;"7-   %"
002324:  231500000005  idivi    12, 5           ;"3-   %"
002325:  271052000011  addi     1, 11(12)       ;"7(J  )"
002326:  400140000000  setz     3,              ;"@!@   "
002327:  200427003121  move     10, @3121(7)    ;"0$7 91"
002330:  134440000010  ildb     11, 10          ;"+D@  ("
002331:  307440000015  caig     11, 15          ;"8\@  -"
002332:  256011002401  xct      2401(11)        ;"5P) 4!"
002333:  273147006410  addb     3, 6410(7)      ;"79G T("
002334:  202141000010  movem    3, 10(1)        ;"01A  ("
002335:  607340200020  tlnn     7, 200020       ;"P[@0 0"
002336:  254000002343  jrst     2343            ;"5@  3C"
002337:  201141000002  movei    3, 2(1)         ;"0)A  ""
002340:  137340005605  dpb      7, 5605         ;"+[@ N%"
002341:  270140005606  add      3, 5606         ;"7!@ N&"
002342:  251141000005  blt      3, 5(1)         ;"5)A  %"
002343:  200107006402  move     2, 6402(7)      ;"0!' T""
002344:  202101000006  movem    2, 6(1)         ;"01!  &"
002345:  200107006405  move     2, 6405(7)      ;"0!' T%"
002346:  202101000007  movem    2, 7(1)         ;"01!  '"
002347:  402001000000  setzm    (1)             ;"@0!   "
002350:  201101000011  movei    2, 11(1)        ;"0)!  )"
002351:  505100440700  hrli     2, 440700       ;"HI D' "
002352:  200700005607  move     16, 5607        ;"0'  N'"
002353:  251700000016  blt      16, 16          ;"5/   ."
002354:  630140000003  tdz      3, 3            ;"S!@  #"
002355:  254000000015  jrst     15              ;"5@   -"
002356:  134440000010  ildb     11, 10          ;"+D@  ("
002357:  256011002417  xct      2417(11)        ;"5P) 4/"
002360:  344140000014  aoja     3, 14           ;"<A@  ,"
002361:  350007006214  aos      0, 6214(7)      ;"= ' R,"
002362:  332007000004  skipe    0, 4(7)         ;";0'  $"
002363:  202067000004  movem    1, @4(7)        ;"00W  $"
002364:  202047000004  movem    1, 4(7)         ;"00G  $"
002365:  202141000001  movem    3, 1(1)         ;"01A  !"
002366:  272147006410  addm     3, 6410(7)      ;"71G T("
002367:  202427003121  movem    10, @3121(7)    ;"047 91"
002370:  403500000013  setzb    12, 13          ;"@=   +"
002371:  136500000002  idpb     12, 2           ;"+U   ""
002372:  135500005610  ldb      12, 5610        ;"+M  N("
002373:  137500005611  dpb      12, 5611        ;"+]  N)"
002374:  137540000002  dpb      13, 2           ;"+]@  ""
002375:  603340200000  tlne     7, 200000       ;"P;@0  "
002376:  260740002723  pushj    17, 2723        ;"6'@ 73"
002377:  350017000000  aos      0, (17)         ;"= /   "
002400:  254000002070  jrst     2070            ;"5@  0X"
002401:  255000000000  nop                      ;"5H    " "+ \0\0\0"
002402:  255000000000  nop                      ;"5H    " "+ \0\0\0"
002403:  255000000000  nop                      ;"5H    " "+ \0\0\0"
002404:  254000002775  jrst     2775            ;"5@  7]"
002405:  255000000000  nop                      ;"5H    " "+ \0\0\0"
002406:  255000000000  nop                      ;"5H    " "+ \0\0\0"
002407:  255000000000  nop                      ;"5H    " "+ \0\0\0"
002410:  255000000000  nop                      ;"5H    " "+ \0\0\0"
002411:  255000000000  nop                      ;"5H    " "+ \0\0\0"
002412:  255000000000  nop                      ;"5H    " "+ \0\0\0"
002413:  254000002630  jrst     2630            ;"5@  68"
002414:  255000000000  nop                      ;"5H    " "+ \0\0\0"
002415:  254000002617  jrst     2617            ;"5@  6/"
002416:  254000002634  jrst     2634            ;"5@  6<"
002417:  136440000002  idpb     11, 2           ;"+T@  ""
002420:  136440000002  idpb     11, 2           ;"+T@  ""
002421:  136440000002  idpb     11, 2           ;"+T@  ""
002422:  254000003005  jrst     3005            ;"5@  8%"
002423:  136440000002  idpb     11, 2           ;"+T@  ""
002424:  136440000002  idpb     11, 2           ;"+T@  ""
002425:  136440000002  idpb     11, 2           ;"+T@  ""
002426:  136440000002  idpb     11, 2           ;"+T@  ""
002427:  136440000002  idpb     11, 2           ;"+T@  ""
002430:  136440000002  idpb     11, 2           ;"+T@  ""
002431:  254000002644  jrst     2644            ;"5@  6D"
002432:  136440000002  idpb     11, 2           ;"+T@  ""
002433:  254000002637  jrst     2637            ;"5@  6?"
002434:  254000002653  jrst     2653            ;"5@  6K"
002435:  136440000002  idpb     11, 2           ;"+T@  ""
002436:  136440000002  idpb     11, 2           ;"+T@  ""
002437:  136440000002  idpb     11, 2           ;"+T@  ""
002440:  136440000002  idpb     11, 2           ;"+T@  ""
002441:  136440000002  idpb     11, 2           ;"+T@  ""
002442:  136440000002  idpb     11, 2           ;"+T@  ""
002443:  136440000002  idpb     11, 2           ;"+T@  ""
002444:  136440000002  idpb     11, 2           ;"+T@  ""
002445:  136440000002  idpb     11, 2           ;"+T@  ""
002446:  136440000002  idpb     11, 2           ;"+T@  ""
002447:  136440000002  idpb     11, 2           ;"+T@  ""
002450:  136440000002  idpb     11, 2           ;"+T@  ""
002451:  136440000002  idpb     11, 2           ;"+T@  ""
002452:  136440000002  idpb     11, 2           ;"+T@  ""
002453:  136440000002  idpb     11, 2           ;"+T@  ""
002454:  136440000002  idpb     11, 2           ;"+T@  ""
002455:  136440000002  idpb     11, 2           ;"+T@  ""
002456:  136440000002  idpb     11, 2           ;"+T@  ""
002457:  136440000002  idpb     11, 2           ;"+T@  ""
002460:  136440000002  idpb     11, 2           ;"+T@  ""
002461:  136440000002  idpb     11, 2           ;"+T@  ""
002462:  136440000002  idpb     11, 2           ;"+T@  ""
002463:  136440000002  idpb     11, 2           ;"+T@  ""
002464:  136440000002  idpb     11, 2           ;"+T@  ""
002465:  136440000002  idpb     11, 2           ;"+T@  ""
002466:  136440000002  idpb     11, 2           ;"+T@  ""
002467:  136440000002  idpb     11, 2           ;"+T@  ""
002470:  136440000002  idpb     11, 2           ;"+T@  ""
002471:  136440000002  idpb     11, 2           ;"+T@  ""
002472:  136440000002  idpb     11, 2           ;"+T@  ""
002473:  136440000002  idpb     11, 2           ;"+T@  ""
002474:  136440000002  idpb     11, 2           ;"+T@  ""
002475:  136440000002  idpb     11, 2           ;"+T@  ""
002476:  136440000002  idpb     11, 2           ;"+T@  ""
002477:  136440000002  idpb     11, 2           ;"+T@  ""
002500:  136440000002  idpb     11, 2           ;"+T@  ""
002501:  136440000002  idpb     11, 2           ;"+T@  ""
002502:  136440000002  idpb     11, 2           ;"+T@  ""
002503:  136440000002  idpb     11, 2           ;"+T@  ""
002504:  136440000002  idpb     11, 2           ;"+T@  ""
002505:  136440000002  idpb     11, 2           ;"+T@  ""
002506:  136440000002  idpb     11, 2           ;"+T@  ""
002507:  136440000002  idpb     11, 2           ;"+T@  ""
002510:  136440000002  idpb     11, 2           ;"+T@  ""
002511:  254000002670  jrst     2670            ;"5@  6X"
002512:  136440000002  idpb     11, 2           ;"+T@  ""
002513:  136440000002  idpb     11, 2           ;"+T@  ""
002514:  136440000002  idpb     11, 2           ;"+T@  ""
002515:  136440000002  idpb     11, 2           ;"+T@  ""
002516:  136440000002  idpb     11, 2           ;"+T@  ""
002517:  136440000002  idpb     11, 2           ;"+T@  ""
002520:  136440000002  idpb     11, 2           ;"+T@  ""
002521:  136440000002  idpb     11, 2           ;"+T@  ""
002522:  136440000002  idpb     11, 2           ;"+T@  ""
002523:  136440000002  idpb     11, 2           ;"+T@  ""
002524:  136440000002  idpb     11, 2           ;"+T@  ""
002525:  136440000002  idpb     11, 2           ;"+T@  ""
002526:  136440000002  idpb     11, 2           ;"+T@  ""
002527:  136440000002  idpb     11, 2           ;"+T@  ""
002530:  136440000002  idpb     11, 2           ;"+T@  ""
002531:  136440000002  idpb     11, 2           ;"+T@  ""
002532:  136440000002  idpb     11, 2           ;"+T@  ""
002533:  136440000002  idpb     11, 2           ;"+T@  ""
002534:  136440000002  idpb     11, 2           ;"+T@  ""
002535:  136440000002  idpb     11, 2           ;"+T@  ""
002536:  136440000002  idpb     11, 2           ;"+T@  ""
002537:  136440000002  idpb     11, 2           ;"+T@  ""
002540:  136440000002  idpb     11, 2           ;"+T@  ""
002541:  136440000002  idpb     11, 2           ;"+T@  ""
002542:  136440000002  idpb     11, 2           ;"+T@  ""
002543:  136440000002  idpb     11, 2           ;"+T@  ""
002544:  136440000002  idpb     11, 2           ;"+T@  ""
002545:  136440000002  idpb     11, 2           ;"+T@  ""
002546:  136440000002  idpb     11, 2           ;"+T@  ""
002547:  136440000002  idpb     11, 2           ;"+T@  ""
002550:  136440000002  idpb     11, 2           ;"+T@  ""
002551:  136440000002  idpb     11, 2           ;"+T@  ""
002552:  136440000002  idpb     11, 2           ;"+T@  ""
002553:  136440000002  idpb     11, 2           ;"+T@  ""
002554:  136440000002  idpb     11, 2           ;"+T@  ""
002555:  136440000002  idpb     11, 2           ;"+T@  ""
002556:  136440000002  idpb     11, 2           ;"+T@  ""
002557:  136440000002  idpb     11, 2           ;"+T@  ""
002560:  136440000002  idpb     11, 2           ;"+T@  ""
002561:  136440000002  idpb     11, 2           ;"+T@  ""
002562:  136440000002  idpb     11, 2           ;"+T@  ""
002563:  136440000002  idpb     11, 2           ;"+T@  ""
002564:  136440000002  idpb     11, 2           ;"+T@  ""
002565:  136440000002  idpb     11, 2           ;"+T@  ""
002566:  136440000002  idpb     11, 2           ;"+T@  ""
002567:  136440000002  idpb     11, 2           ;"+T@  ""
002570:  136440000002  idpb     11, 2           ;"+T@  ""
002571:  136440000002  idpb     11, 2           ;"+T@  ""
002572:  136440000002  idpb     11, 2           ;"+T@  ""
002573:  136440000002  idpb     11, 2           ;"+T@  ""
002574:  136440000002  idpb     11, 2           ;"+T@  ""
002575:  136440000002  idpb     11, 2           ;"+T@  ""
002576:  136440000002  idpb     11, 2           ;"+T@  ""
002577:  136440000002  idpb     11, 2           ;"+T@  ""
002600:  136440000002  idpb     11, 2           ;"+T@  ""
002601:  136440000002  idpb     11, 2           ;"+T@  ""
002602:  136440000002  idpb     11, 2           ;"+T@  ""
002603:  136440000002  idpb     11, 2           ;"+T@  ""
002604:  136440000002  idpb     11, 2           ;"+T@  ""
002605:  136440000002  idpb     11, 2           ;"+T@  ""
002606:  136440000002  idpb     11, 2           ;"+T@  ""
002607:  136440000002  idpb     11, 2           ;"+T@  ""
002610:  136440000002  idpb     11, 2           ;"+T@  ""
002611:  136440000002  idpb     11, 2           ;"+T@  ""
002612:  136440000002  idpb     11, 2           ;"+T@  ""
002613:  136440000002  idpb     11, 2           ;"+T@  ""
002614:  136440000002  idpb     11, 2           ;"+T@  ""
002615:  136440000002  idpb     11, 2           ;"+T@  ""
002616:  136440000002  idpb     11, 2           ;"+T@  ""
002617:  603340000400  tlne     7, 400          ;"P;@ $ "
002620:  254000002333  jrst     2333            ;"5@  3;"
002621:  402007006405  setzm    6405(7)         ;"@0' T%"
002622:  350007006402  aos      0, 6402(7)      ;"= ' T""
002623:  350007006405  aos      0, 6405(7)      ;"= ' T%"
002624:  514500006402  hrlz     12, 6402        ;"IE  T""
002625:  540500006403  hrr      12, 6403        ;"L%  T#"
002626:  043540005612  .suset   5612            ;"$=@ N*"
002627:  344140002330  aoja     3, 2330         ;"<A@ 38"
002630:  603340000400  tlne     7, 400          ;"P;@ $ "
002631:  254000002333  jrst     2333            ;"5@  3;"
002632:  350007006405  aos      0, 6405(7)      ;"= ' T%"
002633:  344140002330  aoja     3, 2330         ;"<A@ 38"
002634:  607340000400  tlnn     7, 400          ;"P[@ $ "
002635:  344140002330  aoja     3, 2330         ;"<A@ 38"
002636:  254000002333  jrst     2333            ;"5@  3;"
002637:  402007006405  setzm    6405(7)         ;"@0' T%"
002640:  350007006402  aos      0, 6402(7)      ;"= ' T""
002641:  514500006402  hrlz     12, 6402        ;"IE  T""
002642:  540500006403  hrr      12, 6403        ;"L%  T#"
002643:  043540005612  .suset   5612            ;"$=@ N*"
002644:  350007006405  aos      0, 6405(7)      ;"= ' T%"
002645:  607340000400  tlnn     7, 400          ;"P[@ $ "
002646:  254000002651  jrst     2651            ;"5@  6I"
002647:  136440000002  idpb     11, 2           ;"+T@  ""
002650:  344140002361  aoja     3, 2361         ;"<A@ 3Q"
002651:  350007006410  aos      0, 6410(7)      ;"= ' T("
002652:  254000002361  jrst     2361            ;"5@  3Q"
002653:  607340000400  tlnn     7, 400          ;"P[@ $ "
002654:  254000002651  jrst     2651            ;"5@  6I"
002655:  136440000002  idpb     11, 2           ;"+T@  ""
002656:  134440000010  ildb     11, 10          ;"+D@  ("
002657:  306440000012  cain     11, 12          ;"8T@  *"
002660:  344140002644  aoja     3, 2644         ;"<A@ 6D"
002661:  316407003135  camn     10, 3135(7)     ;"9T' 9="
002662:  254000005613  jrst     5613            ;"5@  N+"
002663:  340140000000  aoj      3, 0            ;"<!@   "
002664:  270400005615  add      10, 5615        ;"7$  N-"
002665:  325400002361  jumpge   10, 2361        ;":L  3Q"
002666:  274400005616  sub      10, 5616        ;"7D  N."
002667:  254000002361  jrst     2361            ;"5@  3Q"
002670:  607340000020  tlnn     7, 20           ;"P[@  0"
002671:  254000003025  jrst     3025            ;"5@  85"
002672:  322140003025  jumpe    3, 3025         ;":1@ 85"
002673:  201501000011  movei    12, 11(1)       ;"0-!  )"
002674:  505500440700  hrli     12, 440700      ;"HM D' "
002675:  134540000012  ildb     13, 12          ;"+E@  *"
002676:  307540000040  caig     13, 40          ;"8]@  @"
002677:  254000003025  jrst     3025            ;"5@  85"
002700:  302540000072  caie     13, 72          ;"85@  Z"
002701:  306540000073  cain     13, 73          ;"8U@  ["
002702:  254000003025  jrst     3025            ;"5@  85"
002703:  312500000002  came     12, 2           ;"95   ""
002704:  254000002675  jrst     2675            ;"5@  6]"
002705:  203001000012  moves    0, 12(1)        ;"08!  *"
002706:  203012000001  moves    0, 1(12)        ;"08*  !"
002707:  201540000072  movei    13, 72          ;"0-@  Z"
002710:  136540000012  idpb     13, 12          ;"+U@  *"
002711:  400540000000  setz     13,             ;"@%@   "
002712:  136540000012  idpb     13, 12          ;"+U@  *"
002713:  550500000007  hrrz     12, 7           ;"M%   '"
002714:  242500000002  lsh      12, 2           ;"45   ""
002715:  271500006412  addi     12, 6412        ;"7-  T*"
002716:  261501000011  push     12, 11(1)       ;"6-!  )"
002717:  261501000012  push     12, 12(1)       ;"6-!  *"
002720:  261500005217  push     12, 5217        ;"6-  J/"
002721:  261500005217  push     12, 5217        ;"6-  J/"
002722:  254000003025  jrst     3025            ;"5@  85"
002723:  336141000001  skipn    3, 1(1)         ;";QA  !"
002724:  263740000000  popj     17,             ;"6?@   "
002725:  135500005617  ldb      12, 5617        ;"+M  N/"
002726:  303500000040  caile    12, 40          ;"8=   @"
002727:  254000002740  jrst     2740            ;"5@  7@"
002730:  306500000040  cain     12, 40          ;"8U   @"
002731:  263740000000  popj     17,             ;"6?@   "
002732:  302500000011  caie     12, 11          ;"85   )"
002733:  306500000014  cain     12, 14          ;"8U   ,"
002734:  263740000000  popj     17,             ;"6?@   "
002735:  302500000015  caie     12, 15          ;"85   -"
002736:  306500000012  cain     12, 12          ;"8U   *"
002737:  263740000000  popj     17,             ;"6?@   "
002740:  306500000073  cain     12, 73          ;"8U   ["
002741:  263740000000  popj     17,             ;"6?@   "
002742:  550500000007  hrrz     12, 7           ;"M%   '"
002743:  221500000004  imuli    12, 4           ;"2-   $"
002744:  271500006412  addi     12, 6412        ;"7-  T*"
002745:  200540000012  move     13, 12          ;"0%@  *"
002746:  301140000001  cail     3, 1            ;"8)@  !"
002747:  261501000011  push     12, 11(1)       ;"6-!  )"
002750:  301140000006  cail     3, 6            ;"8)@  &"
002751:  261501000012  push     12, 12(1)       ;"6-!  *"
002752:  301140000013  cail     3, 13           ;"8)@  +"
002753:  261501000013  push     12, 13(1)       ;"6-!  +"
002754:  301140000020  cail     3, 20           ;"8)@  0"
002755:  261501000014  push     12, 14(1)       ;"6-!  ,"
002756:  607340000400  tlnn     7, 400          ;"P[@ $ "
002757:  263740000000  popj     17,             ;"6?@   "
002760:  201513000001  movei    12, 1(13)       ;"0-+  !"
002761:  505500440700  hrli     12, 440700      ;"HM D' "
002762:  201140000024  movei    3, 24           ;"0)@  4"
002763:  134540000012  ildb     13, 12          ;"+E@  *"
002764:  322540002071  jumpe    13, 2071        ;":5@ 0Y"
002765:  302540000015  caie     13, 15          ;"85@  -"
002766:  306540000012  cain     13, 12          ;"8U@  *"
002767:  304000000000  caia     0, 0            ;"8@    " "1\0\0\0\0"
002770:  367140002763  sojg     3, 2763         ;">Y@ 7S"
002771:  322140002071  jumpe    3, 2071         ;":1@ 0Y"
002772:  400540000000  setz     13,             ;"@%@   "
002773:  137540000012  dpb      13, 12          ;"+]@  *"
002774:  263740000000  popj     17,             ;"6?@   "
002775:  316407003135  camn     10, 3135(7)     ;"9T' 9="
002776:  254000005620  jrst     5620            ;"5@  N0"
002777:  312427003124  came     10, @3124(7)    ;"947 94"
003000:  254000002333  jrst     2333            ;"5@  3;"
003001:  434347003143  or       7, 3143(7)      ;"CCG 9C"
003002:  476007006217  setom    6217(7)         ;"GP' R/"
003003:  202427003121  movem    10, @3121(7)    ;"047 91"
003004:  263740000000  popj     17,             ;"6?@   "
003005:  316407003135  camn     10, 3135(7)     ;"9T' 9="
003006:  254000005622  jrst     5622            ;"5@  N2"
003007:  312427003124  came     10, @3124(7)    ;"947 94"
003010:  254000003025  jrst     3025            ;"5@  85"
003011:  434347003143  or       7, 3143(7)      ;"CCG 9C"
003012:  201501000010  movei    12, 10(1)       ;"0-!  ("
003013:  306502000000  cain     12, (2)         ;"8U"   "
003014:  254000003002  jrst     3002            ;"5@  8""
003015:  135440000002  ldb      11, 2           ;"+L@  ""
003016:  302440000003  caie     11, 3           ;"84@  #"
003017:  326440002361  jumpn    11, 2361        ;":T@ 3Q"
003020:  360140000000  soj      3, 0            ;">!@   "
003021:  270100005615  add      2, 5615         ;"7!  N-"
003022:  325100003013  jumpge   2, 3013         ;":I  8+"
003023:  274100005616  sub      2, 5616         ;"7A  N."
003024:  254000003013  jrst     3013            ;"5@  8+"
003025:  136440000002  idpb     11, 2           ;"+T@  ""
003026:  344140000014  aoja     3, 14           ;"<A@  ,"
003027:  375007003051  sosge    0, 3051(7)      ;"?H' 8I"
003030:  254000005624  jrst     5624            ;"5@  N4"
003031:  352047003054  aose     1, 3054(7)      ;"=0G 8L"
003032:  313047003062  camle    1, 3062(7)      ;"98G 8R"
003033:  254000003037  jrst     3037            ;"5@  8?"
003034:  200041000000  move     1, (1)          ;"0 A   "
003035:  350017000000  aos      0, (17)         ;"= /   "
003036:  263740000000  popj     17,             ;"6?@   "
003037:  201400000100  movei    10, 100         ;"0,  ! "
003040:  200447003057  move     11, 3057(7)     ;"0$G 8O"
003041:  552447003054  hrrzm    11, 3054(7)     ;"M4G 8L"
003042:  260767003140  pushj    17, @3140(7)    ;"6'W 9@"
003043:  200067003054  move     1, @3054(7)     ;"0 W 8L"
003044:  350017000000  aos      0, (17)         ;"= /   "
003045:  263740000000  popj     17,             ;"6?@   "
003046:  000000000000                           ;"      "
003047:  000000000000                           ;"      "
003050:  000000000000                           ;"      "
003051:  000000000000                           ;"      "
003052:  000000000000                           ;"      "
003053:  000000000000                           ;"      "
003054:  777777777777  conso    774, @777777(17);"______"
003055:  777777777777  conso    774, @777777(17);"______"
003056:  777777777777  conso    774, @777777(17);"______"
003057:  444400006452  eqv      10, 6452        ;"DD  TJ"
003060:  444400006555  eqv      10, 6555        ;"DD  UM"
003061:  444400006660  eqv      10, 6660        ;"DD  VP"
003062:  000000006551                           ;"    UI"
003063:  000000006654                           ;"    VL"
003064:  000000006757                           ;"    WO"
003065:  375007003051  sosge    0, 3051(7)      ;"?H' 8I"
003066:  254000005630  jrst     5630            ;"5@  N8"
003067:  352047003054  aose     1, 3054(7)      ;"=0G 8L"
003070:  313047003062  camle    1, 3062(7)      ;"98G 8R"
003071:  254000003075  jrst     3075            ;"5@  8]"
003072:  200041000000  move     1, (1)          ;"0 A   "
003073:  350017000000  aos      0, (17)         ;"= /   "
003074:  263740000000  popj     17,             ;"6?@   "
003075:  201400000100  movei    10, 100         ;"0,  ! "
003076:  200447003057  move     11, 3057(7)     ;"0$G 8O"
003077:  552447003054  hrrzm    11, 3054(7)     ;"M4G 8L"
003100:  260740003104  pushj    17, 3104        ;"6'@ 9$"
003101:  200067003054  move     1, @3054(7)     ;"0 W 8L"
003102:  350017000000  aos      0, (17)         ;"= /   "
003103:  263740000000  popj     17,             ;"6?@   "
003104:  043000005634  .call    [setz
                                 SIXBIT/SIOT  /
                                 201007000011
                                 000000000011
                                 400000000010]
                                                ;"$8  N<"
003105:  043100001400  .lose    1400            ;"$9  , "
003106:  263740000000  popj     17,             ;"6?@   "
003107:  200447003127  move     11, 3127(7)     ;"0$G 97"
003110:  201400000100  movei    10, 100         ;"0,  ! "
003111:  260767003140  pushj    17, @3140(7)    ;"6'W 9@"
003112:  621440007700  tlz      11, 7700        ;"R,@ _ "
003113:  661440000700  tlo      11, 700         ;"V,@ ' "
003114:  201400000003  movei    10, 3           ;"0,   #"
003115:  136400000011  idpb     10, 11          ;"+T   )"
003116:  202467003124  movem    11, @3124(7)    ;"04W 94"
003117:  200407003132  move     10, 3132(7)     ;"0$' 9:"
003120:  263740000000  popj     17,             ;"6?@   "
003121:  000000006553                           ;"    UK"
003122:  000000006656                           ;"    VN"
003123:  000000006761                           ;"    WQ"
003124:  000000006554                           ;"    UL"
003125:  000000006657                           ;"    VO"
003126:  000000006762                           ;"    WR"
003127:  444400006452  eqv      10, 6452        ;"DD  TJ"
003130:  444400006555  eqv      10, 6555        ;"DD  UM"
003131:  444400006660  eqv      10, 6660        ;"DD  VP"
003132:  440700006452  andcb    16, 6452        ;"D'  TJ"
003133:  440700006555  andcb    16, 6555        ;"D'  UM"
003134:  440700006660  andcb    16, 6660        ;"D'  VP"
003135:  350700006552  aos      16, 6552        ;"='  UJ"
003136:  350700006655  aos      16, 6655        ;"='  VM"
003137:  350700006760  aos      16, 6760        ;"='  WP"
003140:  000000005646                           ;"    NF"
003141:  000000005656                           ;"    NN"
003142:  000000005666                           ;"    NV"
003143:  001000000000                           ;" (    "
003144:  002000000000                           ;" 0    "
003145:  004000000000                           ;" @    "
003146:  440700006225  andcb    16, 6225        ;"D'  R5"
003147:  440700006266  andcb    16, 6266        ;"D'  RV"
003150:  440700006327  andcb    16, 6327        ;"D'  S7"
003151:  000000000000                           ;"      "
003152:  000000000000                           ;"      "
003153:  250040003151  exch     1, 3151         ;"5 @ 9I"
003154:  321040003203  jumpl    1, 3203         ;":(@ :#"
003155:  302040020000  caie     1, 20000        ;"80@"  "
003156:  043100000000  .lose    0               ;"$9    "
003157:  550040003152  hrrz     1, 3152         ;"M @ 9J"
003160:  302040002706  caie     1, 2706         ;"80@ 7&"
003161:  306040002371  cain     1, 2371         ;"8P@ 3Y"
003162:  254000003175  jrst     3175            ;"5@  9]"
003163:  302040002705  caie     1, 2705         ;"80@ 7%"
003164:  306040003025  cain     1, 3025         ;"8P@ 85"
003165:  254000003175  jrst     3175            ;"5@  9]"
003166:  302040002655  caie     1, 2655         ;"80@ 6M"
003167:  306040002647  cain     1, 2647         ;"8P@ 6G"
003170:  254000003175  jrst     3175            ;"5@  9]"
003171:  302040000015  caie     1, 15           ;"80@  -"
003172:  306040002334  cain     1, 2334         ;"8P@ 3<"
003173:  304000000000  caia     0, 0            ;"8@    " "1\0\0\0\0"
003174:  043100000000  .lose    0               ;"$9    "
003175:  043540005671  .suset   5671            ;"$=@ NY"
003176:  242040777766  lsh      1, 777766       ;"40@__V"
003177:  043000005672  .call    [setz
                                 SIXBIT/CORBLK/
                                 201000400000
                                 201000777777
                                 000000000001
                                 601000400001]
                                                ;"$8  NZ"
003200:  254000005700  jrst     5700            ;"5@  O "
003201:  200040003151  move     1, 3151         ;"0 @ 9I"
003202:  043040003152  .dismis  3152            ;"$8@ 9J"
003203:  200040003151  move     1, 3151         ;"0 @ 9I"
003204:  261740000011  push     17, 11          ;"6/@  )"
003205:  261740000012  push     17, 12          ;"6/@  *"
003206:  201500005702  movei    12, 5702        ;"0-  O""
003207:  260740004721  pushj    17, 4721        ;"6'@ G1"
003210:  043000005704  .call    [setz
                                 SIXBIT/IOT   /
                                 201000000000
                                 200000000011
                                 405000020000]
                                                ;"$8  O$"
003211:  043100001000  .lose    1000            ;"$9  ( "
003212:  306440000003  cain     11, 3           ;"8T@  #"
003213:  254000003227  jrst     3227            ;"5@  :7"
003214:  302440000040  caie     11, 40          ;"84@  @"
003215:  306440000177  cain     11, 177         ;"8T@ !_"
003216:  040000000011  .iot     0, 11           ;"$    )"
003217:  332000006207  skipe    0, 6207         ;";0  R'"
003220:  306440000040  cain     11, 40          ;"8T@  @"
003221:  254000003232  jrst     3232            ;"5@  ::"
003222:  201500005711  movei    12, 5711        ;"0-  O)"
003223:  260740004721  pushj    17, 4721        ;"6'@ G1"
003224:  200740006207  move     17, 6207        ;"0'@ R'"
003225:  402000006207  setzm    6207            ;"@0  R'"
003226:  043040005713  .dismis  5713            ;"$8@ O+"
003227:  040000000011  .iot     0, 11           ;"$    )"
003230:  042000000033  .logout  0,              ;"$0   ;"
003231:  045700160000  .break   16, 160000      ;"$O .  "
003232:  201500005404  movei    12, 5404        ;"0-  L$"
003233:  260740004721  pushj    17, 4721        ;"6'@ G1"
003234:  262740000012  pop      17, 12          ;"67@  *"
003235:  262740000011  pop      17, 11          ;"67@  )"
003236:  043040003152  .dismis  3152            ;"$8@ 9J"
003237:  201640000104  movei    15, 104         ;"0.@ !$"
003240:  505641000000  hrli     15, (1)         ;"HNA   "
003241:  205100360000  movsi    2, 360000       ;"0I >  "
003242:  336015000002  skipn    0, 2(15)        ;";P-  ""
003243:  202115000002  movem    2, 2(15)        ;"01-  ""
003244:  201100005051  movei    2, 5051         ;"0)  HI"
003245:  607340000002  tlnn     7, 2            ;"P[@  ""
003246:  201100005046  movei    2, 5046         ;"0)  HF"
003247:  260742000000  pushj    17, (2)         ;"6'B   "
003250:  260740004566  pushj    17, 4566        ;"6'@ EV"
003251:  200101003262  move     2, 3262(1)      ;"0!! :R"
003252:  201042000000  movei    1, (2)          ;"0(B   "
003253:  505040010700  hrli     1, 10700        ;"HH@!' "
003254:  202042000002  movem    1, 2(2)         ;"00B  ""
003255:  200040005714  move     1, 5714         ;"0 @ O,"
003256:  202042000001  movem    1, 1(2)         ;"00B  !"
003257:  541340000000  hrri     7, 0            ;"L+@   " "X.\0\0\0"
003260:  302100006551  caie     2, 6551         ;"81  UI"
003261:  541340000001  hrri     7, 1            ;"L+@  !"
003262:  254000003333  jrst     3333            ;"5@  ;;"
003263:  000000006551                           ;"    UI"
003264:  000000006654                           ;"    VL"
003265:  000000006757                           ;"    WO"
003266:  200040003127  move     1, 3127         ;"0 @ 97"
003267:  201100000100  movei    2, 100          ;"0)  ! "
003270:  043000005715  .call    [setz
                                 SIXBIT/SIOT  /
                                 201000000001
                                 000000000001
                                 400000000002]
                                                ;"$8  O-"
003271:  043100001400  .lose    1400            ;"$9  , "
003272:  271040000001  addi     1, 1            ;"7(@  !"
003273:  405040777777  andi     1, 777777       ;"@H@___"
003274:  305040006464  caige    1, 6464         ;"8H@ TT"
003275:  254000004605  jrst     4605            ;"5@  F%"
003276:  200040006452  move     1, 6452         ;"0 @ TJ"
003277:  200100006453  move     2, 6453         ;"0!  TK"
003300:  316040005275  camn     1, 5275         ;"9P@ J]"
003301:  312100005276  came     2, 5276         ;"91  J^"
003302:  254000004605  jrst     4605            ;"5@  F%"
003303:  200040006454  move     1, 6454         ;"0 @ TL"
003304:  312040005277  came     1, 5277         ;"90@ J_"
003305:  254000004605  jrst     4605            ;"5@  F%"
003306:  200040005722  move     1, 5722         ;"0 @ O2"
003307:  201100000004  movei    2, 4            ;"0)   $"
003310:  134440000001  ildb     11, 1           ;"+D@  !"
003311:  302440000040  caie     11, 40          ;"84@  @"
003312:  254000003310  jrst     3310            ;"5@  ;("
003313:  367100003310  sojg     2, 3310         ;">Y  ;("
003314:  261740007135  push     17, 7135        ;"6/@ Y="
003315:  261740007136  push     17, 7136        ;"6/@ Y>"
003316:  516740007136  hrlzm    17, 7136        ;"IW@ Y>"
003317:  202040007135  movem    1, 7135         ;"00@ Y="
003320:  260740004422  pushj    17, 4422        ;"6'@ D2"
003321:  134440007135  ildb     11, 7135        ;"+D@ Y="
003322:  302440000012  caie     11, 12          ;"84@  *"
003323:  254000003321  jrst     3321            ;"5@  ;1"
003324:  201440000003  movei    11, 3           ;"0,@  #"
003325:  272440007135  addm     11, 7135        ;"74@ Y="
003326:  260740004423  pushj    17, 4423        ;"6'@ D3"
003327:  262740007136  pop      17, 7136        ;"67@ Y>"
003330:  262740007135  pop      17, 7135        ;"67@ Y="
003331:  621340000001  tlz      7, 1            ;"R+@  !"
003332:  254000000266  jrst     266             ;"5@  "V"
003333:  043000005723  .call    [setz
                                 SIXBIT/RFNAME/
                                 201007000001
                                 002000006370
                                 002000006371
                                 002000006372
                                 402000006373]
                                                ;"$8  O3"
003334:  043100001000  .lose    1000            ;"$9  ( "
003335:  043000005732  .call    [setz
                                 SIXBIT/FILLEN/
                                 201007000001
                                 602000000002]
                                                ;"$8  O:"
003336:  043100001000  .lose    1000            ;"$9  ( "
003337:  202107003046  movem    2, 3046(7)      ;"01' 8F"
003340:  202107003051  movem    2, 3051(7)      ;"01' 8I"
003341:  200107003146  move     2, 3146(7)      ;"0!' 9F"
003342:  200500006370  move     12, 6370        ;"0%  SX"
003343:  265040003412  jsp      1, 3412         ;"6H@ <*"
003344:  000000000072                           ;"     Z"
003345:  200500006373  move     12, 6373        ;"0%  S["
003346:  265040003412  jsp      1, 3412         ;"6H@ <*"
003347:  000000000073                           ;"     ["
003350:  336500006371  skipn    12, 6371        ;";U  SY"
003351:  200500000105  move     12, 105         ;"0%  !%"
003352:  336000000111  skipn    0, 111          ;";P  !)"
003353:  202500000111  movem    12, 111         ;"05  !)"
003354:  265040003412  jsp      1, 3412         ;"6H@ <*"
003355:  000000000040                           ;"     @"
003356:  336500006372  skipn    12, 6372        ;";U  SZ"
003357:  200500000106  move     12, 106         ;"0%  !&"
003360:  265040003412  jsp      1, 3412         ;"6H@ <*"
003361:  000000000000                           ;"      "
003362:  201440000000  movei    11, 0           ;"0,@   " " 2\0\0\0"
003363:  136440000002  idpb     11, 2           ;"+T@  ""
003364:  336000007140  skipn    0, 7140         ;";P  Y@"
003365:  263740000000  popj     17,             ;"6?@   "
003366:  336000007145  skipn    0, 7145         ;";P  YE"
003367:  043540005736  .suset   5736            ;"$=@ O>"
003370:  350000007145  aos      0, 7145         ;"=   YE"
003371:  201507000013  movei    12, 13(7)       ;"0-'  +"
003372:  505500000005  hrli     12, 5           ;"HM   %"
003373:  043000005740  .call    [setz
                                 SIXBIT/OPEN  /
                                 000000000012
                                 000000005737
                                 000000005217
                                 400000007145]
                                                ;"$8  O@"
003374:  043100001000  .lose    1000            ;"$9  ( "
003375:  201507000011  movei    12, 11(7)       ;"0-'  )"
003376:  505500000004  hrli     12, 4           ;"HM   $"
003377:  043000005746  .call    [setz
                                 SIXBIT/OPEN  /
                                 000000000012
                                 000000005737
                                 000000005217
                                 400000007145]
                                                ;"$8  OF"
003400:  043100001000  .lose    1000            ;"$9  ( "
003401:  043000005754  .call    [setz
                                 SIXBIT/LOAD  /
                                 201012000000
                                 601007000001]
                                                ;"$8  OL"
003402:  043100001000  .lose    1000            ;"$9  ( "
003403:  043000005760  .call    [setz
                                 SIXBIT/ACCESS/
                                 201012000000
                                 400000005217]
                                                ;"$8  OP"
003404:  043100001000  .lose    1000            ;"$9  ( "
003405:  043000005765  .call    [setz
                                 SIXBIT/USRVAR/
                                 201012000000
                                 000000005764
                                 602000000002]
                                                ;"$8  OU"
003406:  043100001000  .lose    1000            ;"$9  ( "
003407:  202107003046  movem    2, 3046(7)      ;"01' 8F"
003410:  202107003051  movem    2, 3051(7)      ;"01' 8I"
003411:  263740000000  popj     17,             ;"6?@   "
003412:  322501000001  jumpe    12, 1(1)        ;":5!  !"
003413:  201440000000  movei    11, 0           ;"0,@   " " 2\0\0\0"
003414:  246440000006  lshc     11, 6           ;"4T@  &"
003415:  271440000040  addi     11, 40          ;"7,@  @"
003416:  136440000002  idpb     11, 2           ;"+T@  ""
003417:  326500003413  jumpn    12, 3413        ;":U  <+"
003420:  332441000000  skipe    11, (1)         ;";4A   "
003421:  136440000002  idpb     11, 2           ;"+T@  ""
003422:  254001000001  jrst     1(1)            ;"5@!  !"
003423:  332000007071  skipe    0, 7071         ;";0  XY"
003424:  254000004265  jrst     4265            ;"5@  BU"
003425:  563017000000  hrros    0, (17)         ;"N8/   " "\\`x\0\0"
003426:  254000004132  jrst     4132            ;"5@  A:"
003427:  553017000000  hrrzs    0, (17)         ;"M8/   " "Z`x\0\0"
003430:  254000004132  jrst     4132            ;"5@  A:"
003431:  375000007136  sosge    0, 7136         ;"?H  Y>"
003432:  334440005772  skipa    11, 5772        ;";D@ OZ"
003433:  134440007135  ildb     11, 7135        ;"+D@ Y="
003434:  263740000000  popj     17,             ;"6?@   "
003435:  260740003431  pushj    17, 3431        ;"6'@ <9"
003436:  301440000141  cail     11, 141         ;"8,@ !A"
003437:  303440000172  caile    11, 172         ;"8<@ !Z"
003440:  304000000000  caia     0, 0            ;"8@    " "1\0\0\0\0"
003441:  275440000040  subi     11, 40          ;"7L@  @"
003442:  263740000000  popj     17,             ;"6?@   "
003443:  261740000003  push     17, 3           ;"6/@  #"
003444:  135140005773  ldb      3, 5773         ;"+I@ O["
003445:  306140000007  cain     3, 7            ;"8Q@  '"
003446:  254000003451  jrst     3451            ;"5@  <I"
003447:  305040000177  caige    1, 177          ;"8H@ !_"
003450:  254000005774  jrst     5774            ;"5@  O\"
003451:  260740003553  pushj    17, 3553        ;"6'@ =K"
003452:  262740000003  pop      17, 3           ;"67@  #"
003453:  306040000177  cain     1, 177          ;"8P@ !_"
003454:  254000005776  jrst     5776            ;"5@  O^"
003455:  261740000003  push     17, 3           ;"6/@  #"
003456:  261740000004  push     17, 4           ;"6/@  $"
003457:  200140000001  move     3, 1            ;"0!@  !"
003460:  231140000006  idivi    3, 6            ;"3)@  &"
003461:  301040000040  cail     1, 40           ;"8(@  @"
003462:  634040000001  tdza     1, 1            ;"S@@  !"
003463:  135044003465  ldb      1, 3465(4)      ;"+HD <U"
003464:  254000003521  jrst     3521            ;"5@  =1"
003465:  360603003473  soj      14, 3473(3)     ;">&# <["
003466:  300603003473  cai      14, 3473(3)     ;"8&# <["
003467:  220603003473  imul     14, 3473(3)     ;"2&# <["
003470:  140603003473  fad      14, 3473(3)     ;",&# <["
003471:  060603003473                           ;"&&# <["
003472:  000603003473                           ;" &# <["
003473:  060101010101                           ;"&!!!!!"
003474:  010702050401                           ;"!'"%$!"
003475:  010301010101                           ;"!#!!!!"
003476:  010101010101                           ;"!!!!!!"
003477:  010101000101                           ;"!!! !!"
003500:  010100000000                           ;"!!    "
003501:  260740003527  pushj    17, 3527        ;"6'@ =7"
003502:  261740000003  push     17, 3           ;"6/@  #"
003503:  261740000004  push     17, 4           ;"6/@  $"
003504:  043000006000  .call    [setz
                                 SIXBIT/CNSGET/
                                 000000000001
                                 202000000004
                                 202002000001
                                 202000000004
                                 202000000004
                                 602000000004]
                                                ;"$8  P "
003505:  254000003524  jrst     3524            ;"5@  =4"
003506:  400140000000  setz     3,              ;"@!@   "
003507:  607200000400  tlnn     4, 400          ;"PZ  $ "
003510:  603200001000  tlne     4, 1000         ;"P:  ( "
003511:  205140200000  movsi    3, 200000       ;"0I@0  "
003512:  603200040000  tlne     4, 40000        ;"P: $  "
003513:  205140600000  movsi    3, 600000       ;"0I@P  "
003514:  603200000001  tlne     4, 1            ;"P:   !"
003515:  661140000001  tlo      3, 1            ;"V)@  !"
003516:  202142000002  movem    3, 2(2)         ;"01B  ""
003517:  043000006010  .call    [setz
                                 SIXBIT/RCPOS /
                                 000000000001
                                 602002000000]
                                                ;"$8  P("
003520:  043100001400  .lose    1400            ;"$9  , "
003521:  262740000004  pop      17, 4           ;"67@  $"
003522:  262740000003  pop      17, 3           ;"67@  #"
003523:  263740000000  popj     17,             ;"6?@   "
003524:  205140200002  movsi    3, 200002       ;"0I@0 ""
003525:  202142000002  movem    3, 2(2)         ;"01B  ""
003526:  254000003521  jrst     3521            ;"5@  =1"
003527:  261740000003  push     17, 3           ;"6/@  #"
003530:  200142000003  move     3, 3(2)         ;"0!B  #"
003531:  202142000005  movem    3, 5(2)         ;"01B  %"
003532:  254000003522  jrst     3522            ;"5@  =2"
003533:  602040000600  trne     1, 600          ;"P0@ & "
003534:  606040000100  trnn     1, 100          ;"PP@ ! "
003535:  254000003541  jrst     3541            ;"5@  =A"
003536:  640040000177  trc      1, 177          ;"T @ !_"
003537:  646040000177  trcn     1, 177          ;"TP@ !_"
003540:  620040000040  trz      1, 40           ;"R @  @"
003541:  602040004340  trne     1, 4340         ;"P0@ C@"
003542:  263740000000  popj     17,             ;"6?@   "
003543:  302040000033  caie     1, 33           ;"80@  ;"
003544:  271040000300  addi     1, 300          ;"7(@ # "
003545:  263740000000  popj     17,             ;"6?@   "
003546:  261740000003  push     17, 3           ;"6/@  #"
003547:  135140005773  ldb      3, 5773         ;"+I@ O["
003550:  302140000007  caie     3, 7            ;"81@  '"
003551:  254000003522  jrst     3522            ;"5@  =2"
003552:  262740000003  pop      17, 3           ;"67@  #"
003553:  405040000377  andi     1, 377          ;"@H@ #_"
003554:  626040000200  trzn     1, 200          ;"RP@ " "
003555:  263740000000  popj     17,             ;"6?@   "
003556:  306040000177  cain     1, 177          ;"8P@ !_"
003557:  263740000000  popj     17,             ;"6?@   "
003560:  302040000040  caie     1, 40           ;"80@  @"
003561:  301040000140  cail     1, 140          ;"8(@ !@"
003562:  275040000040  subi     1, 40           ;"7H@  @"
003563:  421040000100  andcmi   1, 100          ;"B(@ ! "
003564:  263740000000  popj     17,             ;"6?@   "
003565:  261740000003  push     17, 3           ;"6/@  #"
003566:  261740000004  push     17, 4           ;"6/@  $"
003567:  260740004111  pushj    17, 4111        ;"6'@ A)"
003570:  333002000002  skiple   0, 2(2)         ;";8"  ""
003571:  302040000015  caie     1, 15           ;"80@  -"
003572:  254000003575  jrst     3575            ;"5@  =]"
003573:  260740004111  pushj    17, 4111        ;"6'@ A)"
003574:  201040000015  movei    1, 15           ;"0(@  -"
003575:  260740003533  pushj    17, 3533        ;"6'@ =;"
003576:  260740004125  pushj    17, 4125        ;"6'@ A5"
003577:  254000003601  jrst     3601            ;"5@  >!"
003600:  254000003521  jrst     3521            ;"5@  =1"
003601:  200142000005  move     3, 5(2)         ;"0!B  %"
003602:  312142000004  came     3, 4(2)         ;"91B  $"
003603:  254000003567  jrst     3567            ;"5@  =W"
003604:  211040000001  movni    1, 1            ;"1(@  !"
003605:  254000003521  jrst     3521            ;"5@  =1"
003606:  306040000177  cain     1, 177          ;"8P@ !_"
003607:  254000004021  jrst     4021            ;"5@  @1"
003610:  306040000325  cain     1, 325          ;"8P@ #5"
003611:  254000003721  jrst     3721            ;"5@  ?1"
003612:  306040000304  cain     1, 304          ;"8P@ #$"
003613:  254000003675  jrst     3675            ;"5@  >]"
003614:  306040000307  cain     1, 307          ;"8P@ #'"
003615:  254000003667  jrst     3667            ;"5@  >W"
003616:  306040000315  cain     1, 315          ;"8P@ #-"
003617:  254000003650  jrst     3650            ;"5@  >H"
003620:  302040000337  caie     1, 337          ;"80@ #?"
003621:  306040000303  cain     1, 303          ;"8P@ ##"
003622:  254000003657  jrst     3657            ;"5@  >O"
003623:  306040000321  cain     1, 321          ;"8P@ #1"
003624:  254000003630  jrst     3630            ;"5@  >8"
003625:  306040000314  cain     1, 314          ;"8P@ #,"
003626:  254000003737  jrst     3737            ;"5@  ??"
003627:  254000003633  jrst     3633            ;"5@  >;"
003630:  260740003546  pushj    17, 3546        ;"6'@ =F"
003631:  136042000005  idpb     1, 5(2)         ;"+PB  %"
003632:  260740004111  pushj    17, 4111        ;"6'@ A)"
003633:  302040000177  caie     1, 177          ;"80@ !_"
003634:  304000000000  caia     0, 0            ;"8@    " "1\0\0\0\0"
003635:  260740003774  pushj    17, 3774        ;"6'@ ?\"
003636:  254000003645  jrst     3645            ;"5@  >E"
003637:  201040000015  movei    1, 15           ;"0(@  -"
003640:  136042000005  idpb     1, 5(2)         ;"+PB  %"
003641:  201040000012  movei    1, 12           ;"0(@  *"
003642:  200142000004  move     3, 4(2)         ;"0!B  $"
003643:  316142000005  camn     3, 5(2)         ;"9QB  %"
003644:  254000006014  jrst     6014            ;"5@  P,"
003645:  260740003546  pushj    17, 3546        ;"6'@ =F"
003646:  136042000005  idpb     1, 5(2)         ;"+PB  %"
003647:  263740000000  popj     17,             ;"6?@   "
003650:  261740000001  push     17, 1           ;"6/@  !"
003651:  201040000015  movei    1, 15           ;"0(@  -"
003652:  136042000005  idpb     1, 5(2)         ;"+PB  %"
003653:  201040000012  movei    1, 12           ;"0(@  *"
003654:  136042000005  idpb     1, 5(2)         ;"+PB  %"
003655:  262740000001  pop      17, 1           ;"67@  !"
003656:  254000003662  jrst     3662            ;"5@  >R"
003657:  261740000001  push     17, 1           ;"6/@  !"
003660:  260740003633  pushj    17, 3633        ;"6'@ >;"
003661:  262740000001  pop      17, 1           ;"67@  !"
003662:  400140000000  setz     3,              ;"@!@   "
003663:  200202000005  move     4, 5(2)         ;"0""  %"
003664:  136140000004  idpb     3, 4            ;"+Q@  $"
003665:  350017000000  aos      0, (17)         ;"= /   "
003666:  263740000000  popj     17,             ;"6?@   "
003667:  200142000003  move     3, 3(2)         ;"0!B  #"
003670:  202142000005  movem    3, 5(2)         ;"01B  %"
003671:  402002000006  setzm    6(2)            ;"@0"  &"
003672:  211040000002  movni    1, 2            ;"1(@  ""
003673:  350017000000  aos      0, (17)         ;"= /   "
003674:  263740000000  popj     17,             ;"6?@   "
003675:  402002000006  setzm    6(2)            ;"@0"  &"
003676:  335202000002  skipge   4, 2(2)         ;";J"  ""
003677:  254000003715  jrst     3715            ;"5@  ?-"
003700:  200142000003  move     3, 3(2)         ;"0!B  #"
003701:  202142000005  movem    3, 5(2)         ;"01B  %"
003702:  603200000002  tlne     4, 2            ;"P:   ""
003703:  263740000000  popj     17,             ;"6?@   "
003704:  201040000040  movei    1, 40           ;"0(@  @"
003705:  260740004113  pushj    17, 4113        ;"6'@ A+"
003706:  201040000130  movei    1, 130          ;"0(@ !8"
003707:  260740004113  pushj    17, 4113        ;"6'@ A+"
003710:  260740004113  pushj    17, 4113        ;"6'@ A+"
003711:  260740004113  pushj    17, 4113        ;"6'@ A+"
003712:  201040000077  movei    1, 77           ;"0(@  _"
003713:  260740004113  pushj    17, 4113        ;"6'@ A+"
003714:  254000003746  jrst     3746            ;"5@  ?F"
003715:  260740003746  pushj    17, 3746        ;"6'@ ?F"
003716:  200142000003  move     3, 3(2)         ;"0!B  #"
003717:  202142000005  movem    3, 5(2)         ;"01B  %"
003720:  263740000000  popj     17,             ;"6?@   "
003721:  260740003734  pushj    17, 3734        ;"6'@ ?<"
003722:  260740004021  pushj    17, 4021        ;"6'@ @1"
003723:  304000000000  caia     0, 0            ;"8@    " "1\0\0\0\0"
003724:  254000004074  jrst     4074            ;"5@  @\"
003725:  200142000005  move     3, 5(2)         ;"0!B  %"
003726:  316142000003  camn     3, 3(2)         ;"9QB  #"
003727:  263740000000  popj     17,             ;"6?@   "
003730:  135040000003  ldb      1, 3            ;"+H@  #"
003731:  302040000012  caie     1, 12           ;"80@  *"
003732:  254000003722  jrst     3722            ;"5@  ?2"
003733:  263740000000  popj     17,             ;"6?@   "
003734:  331002000002  skipl    0, 2(2)         ;";("  ""
003735:  263740000000  popj     17,             ;"6?@   "
003736:  254000004042  jrst     4042            ;"5@  @B"
003737:  260740004121  pushj    17, 4121        ;"6'@ A1"
003740:  200142000003  move     3, 3(2)         ;"0!B  #"
003741:  316142000005  camn     3, 5(2)         ;"9QB  %"
003742:  263740000000  popj     17,             ;"6?@   "
003743:  134040000003  ildb     1, 3            ;"+@@  #"
003744:  260740003774  pushj    17, 3774        ;"6'@ ?\"
003745:  254000003741  jrst     3741            ;"5@  ?A"
003746:  331002000002  skipl    0, 2(2)         ;";("  ""
003747:  254000006017  jrst     6017            ;"5@  P/"
003750:  260740003753  pushj    17, 3753        ;"6'@ ?K"
003751:  201040000114  movei    1, 114          ;"0(@ !,"
003752:  254000003766  jrst     3766            ;"5@  ?V"
003753:  201040000126  movei    1, 126          ;"0(@ !6"
003754:  260740003766  pushj    17, 3766        ;"6'@ ?V"
003755:  554042000000  hlrz     1, (2)          ;"M@B   "
003756:  271040000010  addi     1, 10           ;"7(@  ("
003757:  260740004116  pushj    17, 4116        ;"6'@ A."
003760:  201040000110  movei    1, 110          ;"0(@ !("
003761:  260740003766  pushj    17, 3766        ;"6'@ ?V"
003762:  550042000000  hrrz     1, (2)          ;"M B   "
003763:  271040000010  addi     1, 10           ;"7(@  ("
003764:  260740004116  pushj    17, 4116        ;"6'@ A."
003765:  263740000000  popj     17,             ;"6?@   "
003766:  261740000001  push     17, 1           ;"6/@  !"
003767:  201040000020  movei    1, 20           ;"0(@  0"
003770:  260740004116  pushj    17, 4116        ;"6'@ A."
003771:  262740000001  pop      17, 1           ;"67@  !"
003772:  260740004116  pushj    17, 4116        ;"6'@ A."
003773:  263740000000  popj     17,             ;"6?@   "
003774:  261740000001  push     17, 1           ;"6/@  !"
003775:  260740004000  pushj    17, 4000        ;"6'@ @ "
003776:  262740000001  pop      17, 1           ;"67@  !"
003777:  263740000000  popj     17,             ;"6?@   "
004000:  305040000177  caige    1, 177          ;"8H@ !_"
004001:  254000004041  jrst     4041            ;"5@  @A"
004002:  260740003553  pushj    17, 3553        ;"6'@ =K"
004003:  306040000177  cain     1, 177          ;"8P@ !_"
004004:  254000004010  jrst     4010            ;"5@  @("
004005:  306040000015  cain     1, 15           ;"8P@  -"
004006:  254000004014  jrst     4014            ;"5@  @,"
004007:  254000004041  jrst     4041            ;"5@  @A"
004010:  201040000136  movei    1, 136          ;"0(@ !>"
004011:  260740004041  pushj    17, 4041        ;"6'@ @A"
004012:  201040000077  movei    1, 77           ;"0(@  _"
004013:  254000004041  jrst     4041            ;"5@  @A"
004014:  201040000015  movei    1, 15           ;"0(@  -"
004015:  260740004113  pushj    17, 4113        ;"6'@ A+"
004016:  201040000012  movei    1, 12           ;"0(@  *"
004017:  260740004113  pushj    17, 4113        ;"6'@ A+"
004020:  263740000000  popj     17,             ;"6?@   "
004021:  260740004065  pushj    17, 4065        ;"6'@ @U"
004022:  254000003667  jrst     3667            ;"5@  >W"
004023:  200040000003  move     1, 3            ;"0 @  #"
004024:  134040000001  ildb     1, 1            ;"+@@  !"
004025:  135200000003  ldb      4, 3            ;"+J   #"
004026:  306040000012  cain     1, 12           ;"8P@  *"
004027:  302200000015  caie     4, 15           ;"82   -"
004030:  254000004040  jrst     4040            ;"5@  @@"
004031:  316142000003  camn     3, 3(2)         ;"9QB  #"
004032:  254000004040  jrst     4040            ;"5@  @@"
004033:  337002000002  skipg    0, 2(2)         ;";X"  ""
004034:  254000004037  jrst     4037            ;"5@  @?"
004035:  260740004065  pushj    17, 4065        ;"6'@ @U"
004036:  254000004014  jrst     4014            ;"5@  @,"
004037:  261740006022  push     17, 6022        ;"6/@ P2"
004040:  333002000002  skiple   0, 2(2)         ;";8"  ""
004041:  254000004113  jrst     4113            ;"5@  A+"
004042:  260740003443  pushj    17, 3443        ;"6'@ <C"
004043:  256001004046  xct      4046(1)         ;"5P! @F"
004044:  201040000130  movei    1, 130          ;"0(@ !8"
004045:  254000003766  jrst     3766            ;"5@  ?V"
004046:  255000000000  nop                      ;"5H    " "+ \0\0\0"
004047:  254000004056  jrst     4056            ;"5@  @N"
004050:  254000004062  jrst     4062            ;"5@  @R"
004051:  254000004062  jrst     4062            ;"5@  @R"
004052:  254000004063  jrst     4063            ;"5@  @S"
004053:  254000004062  jrst     4062            ;"5@  @R"
004054:  260740004044  pushj    17, 4044        ;"6'@ @D"
004055:  254000004041  jrst     4041            ;"5@  @A"
004056:  205200000002  movsi    4, 2            ;"0J   ""
004057:  616202000002  tdnn     4, 2(2)         ;"QR"  ""
004060:  260740004044  pushj    17, 4044        ;"6'@ @D"
004061:  254000004044  jrst     4044            ;"5@  @D"
004062:  254000003737  jrst     3737            ;"5@  ??"
004063:  201040000125  movei    1, 125          ;"0(@ !5"
004064:  254000003766  jrst     3766            ;"5@  ?V"
004065:  200142000005  move     3, 5(2)         ;"0!B  %"
004066:  316142000003  camn     3, 3(2)         ;"9QB  #"
004067:  263740000000  popj     17,             ;"6?@   "
004070:  316142000006  camn     3, 6(2)         ;"9QB  &"
004071:  402002000006  setzm    6(2)            ;"@0"  &"
004072:  260740004076  pushj    17, 4076        ;"6'@ @^"
004073:  202142000005  movem    3, 5(2)         ;"01B  %"
004074:  350017000000  aos      0, (17)         ;"= /   "
004075:  263740000000  popj     17,             ;"6?@   "
004076:  135200006023  ldb      4, 6023         ;"+J  P3"
004077:  302200000007  caie     4, 7            ;"82   '"
004100:  254000004105  jrst     4105            ;"5@  A%"
004101:  270140005615  add      3, 5615         ;"7!@ N-"
004102:  335000000003  skipge   0, 3            ;";H   #"
004103:  274140005616  sub      3, 5616         ;"7A@ N."
004104:  263740000000  popj     17,             ;"6?@   "
004105:  270140006024  add      3, 6024         ;"7!@ P4"
004106:  335000000003  skipge   0, 3            ;";H   #"
004107:  274140006025  sub      3, 6025         ;"7A@ P5"
004110:  263740000000  popj     17,             ;"6?@   "
004111:  040000000001  .iot     0, 1            ;"$    !"
004112:  263740000000  popj     17,             ;"6?@   "
004113:  043000006026  .call    [setz
                                 SIXBIT/IOT   /
                                 001000000005
                                 000000000001
                                 405000001000]
                                                ;"$8  P6"
004114:  043100001400  .lose    1400            ;"$9  , "
004115:  263740000000  popj     17,             ;"6?@   "
004116:  043000006033  .call    [setz
                                 SIXBIT/IOT   /
                                 001000000005
                                 000000000001
                                 405000005000]
                                                ;"$8  P;"
004117:  043100001400  .lose    1400            ;"$9  , "
004120:  263740000000  popj     17,             ;"6?@   "
004121:  201040000043  movei    1, 43           ;"0(@  C"
004122:  331000007146  skipl    0, 7146         ;";(  YF"
004123:  201040000052  movei    1, 52           ;"0(@  J"
004124:  254000004113  jrst     4113            ;"5@  A+"
004125:  306040000321  cain     1, 321          ;"8P@ #1"
004126:  254000003633  jrst     3633            ;"5@  >;"
004127:  306040000315  cain     1, 315          ;"8P@ #-"
004130:  254000003657  jrst     3657            ;"5@  >O"
004131:  254000003606  jrst     3606            ;"5@  >&"
004132:  260740004757  pushj    17, 4757        ;"6'@ GO"
004133:  200057000000  move     1, (17)         ;"0 O   "
004134:  202040007146  movem    1, 7146         ;"00@ YF"
004135:  260740004121  pushj    17, 4121        ;"6'@ A1"
004136:  200040006040  move     1, 6040         ;"0 @ P@"
004137:  202040007135  movem    1, 7135         ;"00@ Y="
004140:  202040007152  movem    1, 7152         ;"00@ YJ"
004141:  271040000030  addi     1, 30           ;"7(@  8"
004142:  202040007153  movem    1, 7153         ;"00@ YK"
004143:  201040000005  movei    1, 5            ;"0(@  %"
004144:  201100007147  movei    2, 7147         ;"0)  YG"
004145:  260740003501  pushj    17, 3501        ;"6'@ =!"
004146:  260740003565  pushj    17, 3565        ;"6'@ =U"
004147:  316040006041  camn     1, 6041         ;"9P@ PA"
004150:  254000006043  jrst     6043            ;"5@  PC"
004151:  321040004132  jumpl    1, 4132         ;":(@ A:"
004152:  201100000000  movei    2, 0            ;"0)    " " $\0\0\0"
004153:  137100007154  dpb      2, 7154         ;"+Y  YL"
004154:  306040000315  cain     1, 315          ;"8P@ #-"
004155:  254000004161  jrst     4161            ;"5@  AQ"
004156:  260740004757  pushj    17, 4757        ;"6'@ GO"
004157:  607340400000  tlnn     7, 400000       ;"P[@@  "
004160:  476000007076  setom    7076            ;"GP  X^"
004161:  200040007135  move     1, 7135         ;"0 @ Y="
004162:  402000007136  setzm    7136            ;"@0  Y>"
004163:  316040007154  camn     1, 7154         ;"9P@ YL"
004164:  254000004170  jrst     4170            ;"5@  AX"
004165:  133000000001  ibp      1               ;"+8   !"
004166:  350000007136  aos      0, 7136         ;"=   Y>"
004167:  254000004163  jrst     4163            ;"5@  AS"
004170:  372000007136  sose     0, 7136         ;"?0  Y>"
004171:  263740000000  popj     17,             ;"6?@   "
004172:  331017000000  skipl    0, (17)         ;";(/   " "6 x\0\0"
004173:  263740000000  popj     17,             ;"6?@   "
004174:  335000007076  skipge   0, 7076         ;";H  X^"
004175:  254000005064  jrst     5064            ;"5@  HT"
004176:  254000004135  jrst     4135            ;"5@  A="
004177:  261740007135  push     17, 7135        ;"6/@ Y="
004200:  261740007136  push     17, 7136        ;"6/@ Y>"
004201:  260740004237  pushj    17, 4237        ;"6'@ B?"
004202:  306440000077  cain     11, 77          ;"8T@  _"
004203:  254000004217  jrst     4217            ;"5@  B/"
004204:  302440000110  caie     11, 110         ;"84@ !("
004205:  254000004234  jrst     4234            ;"5@  B<"
004206:  260740003435  pushj    17, 3435        ;"6'@ <="
004207:  302440000105  caie     11, 105         ;"84@ !%"
004210:  254000004234  jrst     4234            ;"5@  B<"
004211:  260740003435  pushj    17, 3435        ;"6'@ <="
004212:  302440000114  caie     11, 114         ;"84@ !,"
004213:  254000004234  jrst     4234            ;"5@  B<"
004214:  260740003435  pushj    17, 3435        ;"6'@ <="
004215:  302440000120  caie     11, 120         ;"84@ !0"
004216:  254000004234  jrst     4234            ;"5@  B<"
004217:  260740004237  pushj    17, 4237        ;"6'@ B?"
004220:  302440000015  caie     11, 15          ;"84@  -"
004221:  306440000003  cain     11, 3           ;"8T@  #"
004222:  304000000000  caia     0, 0            ;"8@    " "1\0\0\0\0"
004223:  254000004234  jrst     4234            ;"5@  B<"
004224:  260740005066  pushj    17, 5066        ;"6'@ HV"
004225:  254000004602  jrst     4602            ;"5@  F""
004226:  040040000011  .iot     1, 11           ;"$ @  )"
004227:  306440000014  cain     11, 14          ;"8T@  ,"
004230:  254000004700  jrst     4700            ;"5@  G "
004231:  321440004700  jumpl    11, 4700        ;":,@ G "
004232:  040240000011  .iot     5, 11           ;"$"@  )"
004233:  254000004226  jrst     4226            ;"5@  B6"
004234:  262740007136  pop      17, 7136        ;"67@ Y>"
004235:  262740007135  pop      17, 7135        ;"67@ Y="
004236:  263740000000  popj     17,             ;"6?@   "
004237:  260740003435  pushj    17, 3435        ;"6'@ <="
004240:  306440000040  cain     11, 40          ;"8T@  @"
004241:  254000004237  jrst     4237            ;"5@  B?"
004242:  263740000000  popj     17,             ;"6?@   "
004243:  332000007071  skipe    0, 7071         ;";0  XY"
004244:  254000004651  jrst     4651            ;"5@  FI"
004245:  333000007136  skiple   0, 7136         ;";8  Y>"
004246:  254000004573  jrst     4573            ;"5@  E["
004247:  042040000013  .iopush  1,              ;"$0@  +"
004250:  042400000014  .iopop   10,             ;"$4   ,"
004251:  200040000107  move     1, 107          ;"0 @ !'"
004252:  202040007072  movem    1, 7072         ;"00@ XZ"
004253:  200040000104  move     1, 104          ;"0 @ !$"
004254:  202040007073  movem    1, 7073         ;"00@ X["
004255:  200040000113  move     1, 113          ;"0 @ !+"
004256:  202040007074  movem    1, 7074         ;"00@ X\"
004257:  200040000110  move     1, 110          ;"0 @ !("
004260:  316040005073  camn     1, 5073         ;"9P@ H["
004261:  200040005072  move     1, 5072         ;"0 @ HZ"
004262:  202040007075  movem    1, 7075         ;"00@ X]"
004263:  476000007071  setom    7071            ;"GP  XY"
004264:  254000004700  jrst     4700            ;"5@  G "
004265:  402000007136  setzm    7136            ;"@0  Y>"
004266:  200600006045  move     14, 6045        ;"0&  PE"
004267:  202600007135  movem    14, 7135        ;"06  Y="
004270:  040400000011  .iot     10, 11          ;"$$   )"
004271:  405440777777  andi     11, 777777      ;"@L@___"
004272:  302440000003  caie     11, 3           ;"84@  #"
004273:  306440000014  cain     11, 14          ;"8T@  ,"
004274:  254000004415  jrst     4415            ;"5@  D-"
004275:  302440000073  caie     11, 73          ;"84@  ["
004276:  254000004270  jrst     4270            ;"5@  BX"
004277:  040400000011  .iot     10, 11          ;"$$   )"
004300:  302440000073  caie     11, 73          ;"84@  ["
004301:  254000004271  jrst     4271            ;"5@  BY"
004302:  040400000011  .iot     10, 11          ;"$$   )"
004303:  302440000123  caie     11, 123         ;"84@ !3"
004304:  254000004271  jrst     4271            ;"5@  BY"
004305:  040400000011  .iot     10, 11          ;"$$   )"
004306:  302440000122  caie     11, 122         ;"84@ !2"
004307:  254000004271  jrst     4271            ;"5@  BY"
004310:  040400000011  .iot     10, 11          ;"$$   )"
004311:  302440000103  caie     11, 103         ;"84@ !#"
004312:  254000004271  jrst     4271            ;"5@  BY"
004313:  040400000011  .iot     10, 11          ;"$$   )"
004314:  302440000103  caie     11, 103         ;"84@ !#"
004315:  254000004271  jrst     4271            ;"5@  BY"
004316:  040400000011  .iot     10, 11          ;"$$   )"
004317:  302440000117  caie     11, 117         ;"84@ !/"
004320:  254000004271  jrst     4271            ;"5@  BY"
004321:  040400000011  .iot     10, 11          ;"$$   )"
004322:  302440000115  caie     11, 115         ;"84@ !-"
004323:  254000004271  jrst     4271            ;"5@  BY"
004324:  040400000011  .iot     10, 11          ;"$$   )"
004325:  302440000040  caie     11, 40          ;"84@  @"
004326:  254000004271  jrst     4271            ;"5@  BY"
004327:  040400000011  .iot     10, 11          ;"$$   )"
004330:  302440000103  caie     11, 103         ;"84@ !#"
004331:  254000004271  jrst     4271            ;"5@  BY"
004332:  040400000011  .iot     10, 11          ;"$$   )"
004333:  302440000117  caie     11, 117         ;"84@ !/"
004334:  254000004271  jrst     4271            ;"5@  BY"
004335:  040400000011  .iot     10, 11          ;"$$   )"
004336:  302440000115  caie     11, 115         ;"84@ !-"
004337:  254000004271  jrst     4271            ;"5@  BY"
004340:  040400000011  .iot     10, 11          ;"$$   )"
004341:  302440000115  caie     11, 115         ;"84@ !-"
004342:  254000004271  jrst     4271            ;"5@  BY"
004343:  040400000011  .iot     10, 11          ;"$$   )"
004344:  302440000101  caie     11, 101         ;"84@ !!"
004345:  254000004271  jrst     4271            ;"5@  BY"
004346:  040400000011  .iot     10, 11          ;"$$   )"
004347:  302440000116  caie     11, 116         ;"84@ !."
004350:  254000004271  jrst     4271            ;"5@  BY"
004351:  040400000011  .iot     10, 11          ;"$$   )"
004352:  302440000104  caie     11, 104         ;"84@ !$"
004353:  254000004271  jrst     4271            ;"5@  BY"
004354:  040400000011  .iot     10, 11          ;"$$   )"
004355:  302440000040  caie     11, 40          ;"84@  @"
004356:  254000004271  jrst     4271            ;"5@  BY"
004357:  040400000011  .iot     10, 11          ;"$$   )"
004360:  302440000073  caie     11, 73          ;"84@  ["
004361:  254000004271  jrst     4271            ;"5@  BY"
004362:  040400000011  .iot     10, 11          ;"$$   )"
004363:  302440000073  caie     11, 73          ;"84@  ["
004364:  254000004271  jrst     4271            ;"5@  BY"
004365:  634040000001  tdza     1, 1            ;"S@@  !"
004366:  200040000011  move     1, 11           ;"0 @  )"
004367:  040400000011  .iot     10, 11          ;"$$   )"
004370:  405440777777  andi     11, 777777      ;"@L@___"
004371:  302440000003  caie     11, 3           ;"84@  #"
004372:  306440000015  cain     11, 15          ;"8T@  -"
004373:  254000004410  jrst     4410            ;"5@  D("
004374:  306440000014  cain     11, 14          ;"8T@  ,"
004375:  254000004410  jrst     4410            ;"5@  D("
004376:  306440000073  cain     11, 73          ;"8T@  ["
004377:  302040000073  caie     1, 73           ;"80@  ["
004400:  354000007136  aosa     0, 7136         ;"=@  Y>"
004401:  254000004404  jrst     4404            ;"5@  D$"
004402:  136440000014  idpb     11, 14          ;"+T@  ,"
004403:  254000004366  jrst     4366            ;"5@  CV"
004404:  370000007136  sos      0, 7136         ;"?   Y>"
004405:  270600005615  add      14, 5615        ;"7&  N-"
004406:  325600004410  jumpge   14, 4410        ;":N  D("
004407:  274600005616  sub      14, 5616        ;"7F  N."
004410:  400440000000  setz     11,             ;"@$@   "
004411:  136440000014  idpb     11, 14          ;"+T@  ,"
004412:  201500007105  movei    12, 7105        ;"0-  Y%"
004413:  260740004721  pushj    17, 4721        ;"6'@ G1"
004414:  254000004757  jrst     4757            ;"5@  GO"
004415:  042400000007  .close   10,             ;"$4   '"
004416:  402000007071  setzm    7071            ;"@0  XY"
004417:  332000007076  skipe    0, 7076         ;";0  X^"
004420:  254000005064  jrst     5064            ;"5@  HT"
004421:  254000003425  jrst     3425            ;"5@  <5"
004422:  402015000002  setzm    2(15)           ;"@0-  ""
004423:  400400000000  setz     10,             ;"@$    "
004424:  200600006046  move     14, 6046        ;"0&  PF"
004425:  201000000006  movei    0, 6            ;"0(   &"
004426:  202000006450  movem    0, 6450         ;"00  TH"
004427:  400000000000  setz     0,              ;"@     " "@\0\0\0\0"
004430:  260740003435  pushj    17, 3435        ;"6'@ <="
004431:  306440000021  cain     11, 21          ;"8T@  1"
004432:  254000004450  jrst     4450            ;"5@  DH"
004433:  302440000075  caie     11, 75          ;"84@  ]"
004434:  306440000054  cain     11, 54          ;"8T@  L"
004435:  254000004472  jrst     4472            ;"5@  DZ"
004436:  302440000137  caie     11, 137         ;"84@ !?"
004437:  307440000040  caig     11, 40          ;"8\@  @"
004440:  254000004472  jrst     4472            ;"5@  DZ"
004441:  306440000072  cain     11, 72          ;"8T@  Z"
004442:  254000004464  jrst     4464            ;"5@  DT"
004443:  306440000073  cain     11, 73          ;"8T@  ["
004444:  254000004467  jrst     4467            ;"5@  DW"
004445:  306440000057  cain     11, 57          ;"8T@  O"
004446:  254000004472  jrst     4472            ;"5@  DZ"
004447:  254000004453  jrst     4453            ;"5@  DK"
004450:  260740003435  pushj    17, 3435        ;"6'@ <="
004451:  305440000040  caige    11, 40          ;"8L@  @"
004452:  254000004472  jrst     4472            ;"5@  DZ"
004453:  201451777740  movei    11, 777740(11)  ;"0,I__@"
004454:  371000006450  sosl     0, 6450         ;"?(  TH"
004455:  136440000014  idpb     11, 14          ;"+T@  ,"
004456:  254000004430  jrst     4430            ;"5@  D8"
004457:  202015000001  movem    0, 1(15)        ;"00-  !"
004460:  202015000002  movem    0, 2(15)        ;"00-  ""
004461:  202015000000  movem    0, (15)         ;"00-   " " @h\0\0"
004462:  202015000003  movem    0, 3(15)        ;"00-  #"
004463:  334000000000  skipa    0, 0            ;";@    " "7\0\0\0\0"
004464:  332000000000  skipe    0, 0            ;";0    " "6@\0\0\0"
004465:  202015000000  movem    0, (15)         ;"00-   " " @h\0\0"
004466:  254000004424  jrst     4424            ;"5@  D4"
004467:  332000000000  skipe    0, 0            ;";0    " "6@\0\0\0"
004470:  202015000003  movem    0, 3(15)        ;"00-  #"
004471:  254000004424  jrst     4424            ;"5@  D4"
004472:  322000004501  jumpe    0, 4501         ;":0  E!"
004473:  256010004457  xct      4457(10)        ;"5P( DO"
004474:  340400000000  aoj      10, 0           ;"<$    "
004475:  607340000001  tlnn     7, 1            ;"P[@  !"
004476:  254000004501  jrst     4501            ;"5@  E!"
004477:  306400000002  cain     10, 2           ;"8T   ""
004500:  263740000000  popj     17,             ;"6?@   "
004501:  306440000030  cain     11, 30          ;"8T@  8"
004502:  254000006047  jrst     6047            ;"5@  PG"
004503:  306440000040  cain     11, 40          ;"8T@  @"
004504:  254000004424  jrst     4424            ;"5@  D4"
004505:  306440000003  cain     11, 3           ;"8T@  #"
004506:  201440000015  movei    11, 15          ;"0,@  -"
004507:  302440000057  caie     11, 57          ;"84@  O"
004510:  263740000000  popj     17,             ;"6?@   "
004511:  260740004513  pushj    17, 4513        ;"6'@ E+"
004512:  254000004424  jrst     4424            ;"5@  D4"
004513:  260740003435  pushj    17, 3435        ;"6'@ <="
004514:  400600000000  setz     14,             ;"@&    "
004515:  306440000041  cain     11, 41          ;"8T@  A"
004516:  561600100000  hrroi    14, 100000      ;"N. (  "
004517:  306440000100  cain     11, 100         ;"8T@ ! "
004520:  561600000001  hrroi    14, 1           ;"N.   !"
004521:  306440000043  cain     11, 43          ;"8T@  C"
004522:  254000006051  jrst     6051            ;"5@  PI"
004523:  306440000044  cain     11, 44          ;"8T@  D"
004524:  254000006053  jrst     6053            ;"5@  PK"
004525:  306440000102  cain     11, 102         ;"8T@ !""
004526:  561600000400  hrroi    14, 400         ;"N.  $ "
004527:  306440000103  cain     11, 103         ;"8T@ !#"
004530:  561600000200  hrroi    14, 200         ;"N.  " "
004531:  306440000104  cain     11, 104         ;"8T@ !$"
004532:  254000005036  jrst     5036            ;"5@  H>"
004533:  306440000105  cain     11, 105         ;"8T@ !%"
004534:  561600000040  hrroi    14, 40          ;"N.   @"
004535:  306440000106  cain     11, 106         ;"8T@ !&"
004536:  561600420400  hrroi    14, 420400      ;"N. B$ "
004537:  306440000111  cain     11, 111         ;"8T@ !)"
004540:  561600400404  hrroi    14, 400404      ;"N. @$$"
004541:  306440000113  cain     11, 113         ;"8T@ !+"
004542:  561600040000  hrroi    14, 40000       ;"N. $  "
004543:  306440000114  cain     11, 114         ;"8T@ !,"
004544:  561600000020  hrroi    14, 20          ;"N.   0"
004545:  306440000115  cain     11, 115         ;"8T@ !-"
004546:  561600400400  hrroi    14, 400400      ;"N. @$ "
004547:  306440000123  cain     11, 123         ;"8T@ !3"
004550:  561600000100  hrroi    14, 100         ;"N.  ! "
004551:  306440000127  cain     11, 127         ;"8T@ !7"
004552:  561600010000  hrroi    14, 10000       ;"N. !  "
004553:  306440000130  cain     11, 130         ;"8T@ !8"
004554:  561600000002  hrroi    14, 2           ;"N.   ""
004555:  306440000131  cain     11, 131         ;"8T@ !9"
004556:  561600200000  hrroi    14, 200000      ;"N. 0  "
004557:  301440000061  cail     11, 61          ;"8,@  Q"
004560:  303440000071  caile    11, 71          ;"8<@  Y"
004561:  304000000000  caia     0, 0            ;"8@    " "1\0\0\0\0"
004562:  254000006055  jrst     6055            ;"5@  PM"
004563:  322600004667  jumpe    14, 4667        ;":6  FW"
004564:  661354000000  tlo      7, (14)         ;"V+L   " "l.`\0\0"
004565:  263740000000  popj     17,             ;"6?@   "
004566:  042000000033  .logout  0,              ;"$0   ;"
004567:  260740005017  pushj    17, 5017        ;"6'@ H/"
004570:  040240005637  .iot     5, 5637         ;"$"@ N?"
004571:  260740005002  pushj    17, 5002        ;"6'@ H""
004572:  254000004674  jrst     4674            ;"5@  F\"
004573:  265500004673  jsp      12, 4673        ;"6M  F["
004574:  427616471302  setab    14, 471302(16)  ;"B^.G+"" "Extra"
004575:  203235670352  moves    4, @670352(15)  ;"0:=W#J" " inpu"
004576:  721014664730  iordbq   0, 664730(14)   ;"Z(,VG8" "t fil"
004577:  627464071740  tlzn     11, @71740(4)   ;"R\T'/@" "es sp"
004600:  627075163322  tlzn     1, @163322(15)  ;"RX].;2" "ecifi"
004601:  627100000000  tlzn     2, 0            ;"RY    " "ed\0\0\0"
004602:  201500006060  movei    12, 6060        ;"0-  PP"
004603:  260740004717  pushj    17, 4717        ;"6'@ G/"
004604:  254000004674  jrst     4674            ;"5@  F\"
004605:  265500004673  jsp      12, 4673        ;"6M  F["
004606:  413034420314  andcab   0, @420314(14)  ;"A8<B#," "Bad f"
004607:  677455560750  tson     11, 560750(15)  ;"W\MN'H" "ormat"
004610:  201370020322  movei    7, @20322(10)   ;"0+X"#2" " /@ i"
004611:  673115171312  tsoe     2, 171312(15)   ;"W9-/+*" "ndire"
004612:  617504063322  tsnn     12, 63322(4)    ;"Q]$&;2" "ct fi"
004613:  663120000000  tloe     2, @0           ;"V90   " "le\0\0\0"
004614:  265500004673  jsp      12, 4673        ;"6M  F["
004615:  417035623750  setmb    0, @623750(15)  ;"AX=R?H" "Can't"
004616:  203536362500  moves    12, @362500(16) ;"0=>>5 " " use "
004617:  276004067744  subm     0, 67744(4)     ;"7P$&_D" "/@ or"
004620:  201373020356  movei    7, @20356(13)   ;"0+["#N" " /X w"
004621:  647515020346  tlcn     12, 20346(15)   ;"T]-"#F" "ith s"
004622:  627075767310  tlzn     1, @767310(15)  ;"RX]^[(" "econd"
004623:  203235670352  moves    4, @670352(15)  ;"0:=W#J" " inpu"
004624:  721014664730  iordbq   0, 664730(14)   ;"Z(,VG8" "t fil"
004625:  624000000000  trza     0, 0            ;"R@    " "e\0\0\0\0"
004626:  265500004673  jsp      12, 4673        ;"6M  F["
004627:  417035623750  setmb    0, @623750(15)  ;"AX=R?H" "Can't"
004630:  203536362500  moves    12, @362500(16) ;"0=>>5 " " use "
004631:  276004067744  subm     0, 67744(4)     ;"7P$&_D" "/@ or"
004632:  201373020356  movei    7, @20356(13)   ;"0+["#N" " /X w"
004633:  647515020350  tlcn     12, 20350(15)   ;"T]-"#H" "ith t"
004634:  643236262100  tlce     4, @262100(16)  ;"T:>61 " "hird "
004635:  647356072750  tlcn     7, 72750(16)    ;"T[N'7H" "input"
004636:  203155166312  moves    3, 166312(15)   ;"09M.S*" " file"
004637:  000000000000                           ;"      "
004640:  265500004673  jsp      12, 4673        ;"6M  F["
004641:  523216262712  hllos    4, 262712(16)   ;"J:.67*" "Three"
004642:  203235670352  moves    4, @670352(15)  ;"0:=W#J" " inpu"
004643:  721014664730  iordbq   0, 664730(14)   ;"Z(,VG8" "t fil"
004644:  627464061352  tlzn     11, @61352(4)   ;"R\T&+J" "es bu"
004645:  721005746500  iordbq   0, 746500(5)    ;"Z(%\U " "t /M "
004646:  673376420346  tsoe     7, @420346(16)  ;"W;^B#F" "not s"
004647:  703134364714  blko     30, @364714(14) ;"X9<>G," "pecif"
004650:  647134400000  tlcn     2, @400000(14)  ;"TY<@  " "ied\0\0"
004651:  265500004673  jsp      12, 4673        ;"6M  F["
004652:  513134372744  hllzs    2, @372744(14)  ;"I9<?7D" "Recur"
004653:  717236662500  bltub    4, @662500(16)  ;"YZ>V5 " "sive "
004654:  276604060750  subm     14, 60750(4)    ;"7V$&'H" "/X at"
004655:  723135570350  iowrb    2, @570350(15)  ;"Z9=O#H" "tempt"
004656:  627100000000  tlzn     2, 0            ;"RY    " "ed\0\0\0"
004657:  265500004673  jsp      12, 4673        ;"6M  F["
004660:  417035623750  setmb    0, @623750(15)  ;"AX=R?H" "Can't"
004661:  203036261720  moves    0, @261720(16)  ;"08>6/0" " arch"
004662:  647554520302  tlcn     13, 520302(14)  ;"T]LJ#"" "ive a"
004663:  673104066712  tsoe     2, 66712(4)     ;"W9$&W*" "nd me"
004664:  713174520302  iowr     3, @520302(14)  ;"Y9\J#"" "rge a"
004665:  721015767306  iordbq   0, 767306(15)   ;"Z(-^[&" "t onc"
004666:  624000000000  trza     0, 0            ;"R@    " "e\0\0\0\0"
004667:  265500004673  jsp      12, 4673        ;"6M  F["
004670:  447315462716  eqvb     6, 462716(15)   ;"D[-F7." "Illeg"
004671:  607304071756  tlnn     6, 71756(4)     ;"P[$'/N" "al sw"
004672:  647514364000  tlcn     12, 364000(14)  ;"T],>@ " "itch\0"
004673:  260740004717  pushj    17, 4717        ;"6'@ G/"
004674:  042000000037  .reset   0,              ;"$0   ?"
004675:  402000007071  setzm    7071            ;"@0  XY"
004676:  042400000007  .close   10,             ;"$4   '"
004677:  402000007076  setzm    7076            ;"@0  X^"
004700:  042040000007  .close   1,              ;"$0@  '"
004701:  042100000007  .close   2,              ;"$1   '"
004702:  042200000007  .close   4,              ;"$2   '"
004703:  200040006441  move     1, 6441         ;"0 @ TA"
004704:  603040000200  tlne     1, 200          ;"P8@ " "
004705:  043000006065  .call    [setz
                                 SIXBIT/TTYSET/
                                 201000000007
                                 000000006442
                                 000000006443
                                 400000000001]
                                                ;"$8  PU"
004706:  255000000000  nop                      ;"5H    " "+ \0\0\0"
004707:  042340000007  .close   7,              ;"$3@  '"
004710:  332000007071  skipe    0, 7071         ;";0  XY"
004711:  254000004715  jrst     4715            ;"5@  G-"
004712:  042000000033  .logout  0,              ;"$0   ;"
004713:  332000007076  skipe    0, 7076         ;";0  X^"
004714:  254000005065  jrst     5065            ;"5@  HU"
004715:  260740004757  pushj    17, 4757        ;"6'@ GO"
004716:  254000000140  jrst     140             ;"5@  !@"
004717:  042000000033  .logout  0,              ;"$0   ;"
004720:  260740004757  pushj    17, 4757        ;"6'@ GO"
004721:  505500440700  hrli     12, 440700      ;"HM D' "
004722:  134440000012  ildb     11, 12          ;"+D@  *"
004723:  322440002071  jumpe    11, 2071        ;":4@ 0Y"
004724:  260740004755  pushj    17, 4755        ;"6'@ GM"
004725:  254000004722  jrst     4722            ;"5@  G2"
004726:  261740000011  push     17, 11          ;"6/@  )"
004727:  261740000012  push     17, 12          ;"6/@  *"
004730:  200517777776  move     12, 777776(17)  ;"0%/__^"
004731:  260740004717  pushj    17, 4717        ;"6'@ G/"
004732:  262740000012  pop      17, 12          ;"67@  *"
004733:  262740000011  pop      17, 11          ;"67@  )"
004734:  274740005271  sub      17, 5271        ;"7G@ JY"
004735:  263740000000  popj     17,             ;"6?@   "
004736:  200600000000  move     14, 0           ;"0&    "
004737:  400540000000  setz     13,             ;"@%@   "
004740:  245540000006  rotc     13, 6           ;"4M@  &"
004741:  201553000040  movei    13, 40(13)      ;"0-K  @"
004742:  040240000013  .iot     5, 13           ;"$"@  +"
004743:  326600004737  jumpn    14, 4737        ;":V  G?"
004744:  263740000000  popj     17,             ;"6?@   "
004745:  231000000012  idivi    0, 12           ;"3(   *"
004746:  506057000000  hrlm     1, (17)         ;"HPO   " "QBx\0\0"
004747:  332000000000  skipe    0, 0            ;";0    " "6@\0\0\0"
004750:  260740004745  pushj    17, 4745        ;"6'@ GE"
004751:  554057000000  hlrz     1, (17)         ;"M@O   "
004752:  271040000060  addi     1, 60           ;"7(@  P"
004753:  040240000001  .iot     5, 1            ;"$"@  !"
004754:  263740000000  popj     17,             ;"6?@   "
004755:  040240000011  .iot     5, 11           ;"$"@  )"
004756:  263740000000  popj     17,             ;"6?@   "
004757:  040240005772  .iot     5, 5772         ;"$"@ OZ"
004760:  040240005742  .iot     5, 5742         ;"$"@ OB"
004761:  263740000000  popj     17,             ;"6?@   "
004762:  402000007105  setzm    7105            ;"@0  Y%"
004763:  603040040000  tlne     1, 40000        ;"P8@$  "
004764:  045500006073  .break   12, 6073        ;"$M  P["
004765:  336000007105  skipn    0, 7105         ;";P  Y%"
004766:  263740000000  popj     17,             ;"6?@   "
004767:  200040006045  move     1, 6045         ;"0 @ PE"
004770:  202040007135  movem    1, 7135         ;"00@ Y="
004771:  400400000000  setz     10,             ;"@$    "
004772:  134440000001  ildb     11, 1           ;"+D@  !"
004773:  302440000015  caie     11, 15          ;"84@  -"
004774:  306440000000  cain     11, 0           ;"8T@   " "1R\0\0\0"
004775:  304000000000  caia     0, 0            ;"8@    " "1\0\0\0\0"
004776:  344400004772  aoja     10, 4772        ;"<D  GZ"
004777:  202400007136  movem    10, 7136        ;"04  Y>"
005000:  350017000000  aos      0, (17)         ;"= /   "
005001:  263740000000  popj     17,             ;"6?@   "
005002:  043540006074  .suset   6074            ;"$=@ P\"
005003:  043000006075  .call    [setz
                                 SIXBIT/STATUS/
                                 000000000011
                                 602000005016]
                                                ;"$8  P]"
005004:  043100000000  .lose    0               ;"$9    "
005005:  041300005014  .open    6, 5014         ;"$+  H,"
005006:  043100000000  .lose    0               ;"$9    "
005007:  040300000011  .iot     6, 11           ;"$#   )"
005010:  306440000015  cain     11, 15          ;"8T@  -"
005011:  263740000000  popj     17,             ;"6?@   "
005012:  040240000011  .iot     5, 11           ;"$"@  )"
005013:  254000005007  jrst     5007            ;"5@  H'"
005014:  000000456262                           ;"   ERR"
005015:  000000000003                           ;"     #"
005016:  000000000000                           ;"      "
005017:  200015000000  move     0, (15)         ;"0 -   "
005020:  316000005072  camn     0, 5072         ;"9P  HZ"
005021:  254000005024  jrst     5024            ;"5@  H4"
005022:  260740004736  pushj    17, 4736        ;"6'@ G>"
005023:  040240006101  .iot     5, 6101         ;"$"@ Q!"
005024:  200015000003  move     0, 3(15)        ;"0 -  #"
005025:  316000007070  camn     0, 7070         ;"9P  XX"
005026:  254000005031  jrst     5031            ;"5@  H9"
005027:  260740004736  pushj    17, 4736        ;"6'@ G>"
005030:  040240006102  .iot     5, 6102         ;"$"@ Q""
005031:  200015000001  move     0, 1(15)        ;"0 -  !"
005032:  260740004736  pushj    17, 4736        ;"6'@ G>"
005033:  040240005215  .iot     5, 5215         ;"$"@ J-"
005034:  200015000002  move     0, 2(15)        ;"0 -  ""
005035:  254000004736  jrst     4736            ;"5@  G>"
005036:  041000006103  .open    0, 6103         ;"$(  Q#"
005037:  043100000000  .lose    0               ;"$9    "
005040:  041240006104  .open    5, 6104         ;"$*@ Q$"
005041:  043100000000  .lose    0               ;"$9    "
005042:  043200006105  .value   6105            ;"$:  Q%"
005043:  263740000000  popj     17,             ;"6?@   "
005044:  040000000011  .iot     0, 11           ;"$    )"
005045:  263740000000  popj     17,             ;"6?@   "
005046:  261740000001  push     17, 1           ;"6/@  !"
005047:  515040000004  hrlzi    1, 4            ;"IH@  $"
005050:  254000005053  jrst     5053            ;"5@  HK"
005051:  261740000001  push     17, 1           ;"6/@  !"
005052:  515040000000  hrlzi    1, 0            ;"IH@   " "S\"\0\0\0"
005053:  544040000015  hlr      1, 15           ;"L@@  -"
005054:  043000006110  .call    [setz
                                 SIXBIT/OPEN  /
                                 000000000001
                                 000015000000
                                 000015000001
                                 000015000002
                                 400015000003]
                                                ;"$8  Q("
005055:  304000000000  caia     0, 0            ;"8@    " "1\0\0\0\0"
005056:  350017777777  aos      0, 777777(17)   ;"= /___"
005057:  262740000001  pop      17, 1           ;"67@  !"
005060:  263740000000  popj     17,             ;"6?@   "
005061:  043000006117  .call    [setz
                                 SIXBIT/RENMWO/
                                 000000000001
                                 000000000111
                                 400000000112]
                                                ;"$8  Q/"
005062:  255000000000  nop                      ;"5H    " "+ \0\0\0"
005063:  263740000000  popj     17,             ;"6?@   "
005064:  045700140000  .break   16, 140000      ;"$O ,  "
005065:  045700160000  .break   16, 160000      ;"$O .  "
005066:  043000006127  .call    [setz
                                 SIXBIT/OPEN  /
                                 201000000001
                                 000000006124
                                 000000005214
                                 000000006125
                                 400000006126]
                                                ;"$8  Q7"
005067:  263740000000  popj     17,             ;"6?@   "
005070:  350017000000  aos      0, (17)         ;"= /   "
005071:  263740000000  popj     17,             ;"6?@   "
005072:  446353000000  eqvm     7, (13)         ;"DSK   " "INX\0\0"
005073:  646471000000  trcn     11, @(11)       ;"TTY   " "iSH\0\0"
005074:  566554000000  hlrom    13, (14)        ;"NUL   " "]V`\0\0"
005075:  435755604162  ori      17, 604162(15)  ;"COMPAR"
005076:  435560416243  ori      13, @416243     ;"CMPARC"
005077:  465441474744  orcmi    11, 474744(1)   ;"FLAGGD" "M2\fyr"
005100:  360000000000  soj      0, 0            ;">     " "<\0\0\0\0"
005101:  340000000000  aoj      0, 0            ;"<     " "8\0\0\0\0"
005102:  000000000000                           ;"      "
005103:  000000000000                           ;"      "
005104:  000000000000                           ;"      "
005105:  000000000000                           ;"      "
005106:  000000000000                           ;"      "
005107:  000000000000                           ;"      "
005110:  000000000000                           ;"      "
005111:  000000000000                           ;"      "
005112:  000000000000                           ;"      "
005113:  000000000000                           ;"      "
005114:  000000000000                           ;"      "
005115:  000000000000                           ;"      "
005116:  000000000000                           ;"      "
005117:  000000000000                           ;"      "
005120:  000000000000                           ;"      "
005121:  000000000000                           ;"      "
005122:  000000000000                           ;"      "
005123:  000000000000                           ;"      "
005124:  000000000000                           ;"      "
005125:  000000000000                           ;"      "
005126:  000000000000                           ;"      "
005127:  000000000000                           ;"      "
005130:  000000000000                           ;"      "
005131:  000000000000                           ;"      "
005132:  000000000000                           ;"      "
005133:  000000000000                           ;"      "
005134:  000000000000                           ;"      "
005135:  000000000000                           ;"      "
005136:  000000000000                           ;"      "
005137:  000000000000                           ;"      "
005140:  000000000000                           ;"      "
005141:  000000000000                           ;"      "
005142:  000000000000                           ;"      "
005143:  000000000000                           ;"      "
005144:  000000000000                           ;"      "
005145:  000000000000                           ;"      "
005146:  000000000000                           ;"      "
005147:  000000000000                           ;"      "
005150:  000000000000                           ;"      "
005151:  000000000000                           ;"      "
005152:  000000000000                           ;"      "
005153:  000000000000                           ;"      "
005154:  000000000000                           ;"      "
005155:  000000000000                           ;"      "
005156:  000000000000                           ;"      "
005157:  000000000000                           ;"      "
005160:  000000000000                           ;"      "
005161:  000000000000                           ;"      "
005162:  000000000000                           ;"      "
005163:  000000000000                           ;"      "
005164:  000000000000                           ;"      "
005165:  000000000000                           ;"      "
005166:  000000000000                           ;"      "
005167:  000000000000                           ;"      "
005170:  000000000000                           ;"      "
005171:  000000000000                           ;"      "
005172:  000000000000                           ;"      "
005173:  000000000000                           ;"      "
005174:  000000000000                           ;"      "
005175:  000000000000                           ;"      "
005176:  000000000000                           ;"      "
005177:  000000000000                           ;"      "
005200:  000000000000                           ;"      "
005201:  000000000000                           ;"      "
005202:  777750006136  conso    774, 6136(10)   ;"__H Q>"
005203:  000000646471                           ;"   TTY"
005204:  000001646471                           ;"  !TTY"
005205:  000016007070                           ;"  . XX"
005206:  000054000001                           ;"  L  !"
005207:  400054000001  setz     1, 1(14)        ;"@ L  !"
005210:  000000020000                           ;"   "  "
005211:  400006005210  setz     0, 5210(6)      ;"@ & J("
005212:  000000000240                           ;"    "@"
005213:  400025005212  setz     0, @5212(5)     ;"@ 5 J*"
005214:  636243435755  tdzn     5, 435755(3)    ;"SRCCOM"
005215:  000000000040                           ;"     @"
005216:  000000000174                           ;"    !\"
005217:  000000000000                           ;"      "
005220:  400062005217  setz     1, @5217(2)     ;"@ R J/"
005221:  000000007160                           ;"    YP"
005222:  400012005221  setz     0, 5221(12)     ;"@ * J1"
005223:  006136006137                           ;" Q> Q?"
005224:  440700006763  andcb    16, 6763        ;"D'  WS"
005225:  000104000110                           ;" !$ !("
005226:  400000000000  setz     0,              ;"@     " "@\0\0\0\0"
005227:  646241566300  trcn     5, 566300(1)    ;"TRANS " "iJ\rl`"
005230:  000015000000                           ;"  -   "
005231:  000015000001                           ;"  -  !"
005232:  000015000002                           ;"  -  ""
005233:  000015000003                           ;"  -  #"
005234:  201000000001  movei    0, 1            ;"0(   !"
005235:  202015000000  movem    0, (15)         ;"00-   " " @h\0\0"
005236:  202015000001  movem    0, 1(15)        ;"00-  !"
005237:  202015000002  movem    0, 2(15)        ;"00-  ""
005240:  602015000003  trne     0, 3(15)        ;"P0-  #"
005241:  776362434357  conso    760, @434357(2) ;"_SRCCO"
005242:  576564606564  hlrem    13, @606564(4)  ;"OUTPUT" "_W&\r:"
005243:  400000000000  setz     0,              ;"@     " "@\0\0\0\0"
005244:  576045560000  hlrem    1, 560000(5)    ;"OPEN  " "_B-`\0"
005245:  005000000001                           ;" H   !"
005246:  000000000001                           ;"     !"
005247:  000015000000                           ;"  -   "
005250:  000000005241                           ;"    JA"
005251:  000000005242                           ;"    JB"
005252:  400015000003  setz     0, 3(15)        ;"@ -  #"
005253:  400000000000  setz     0,              ;"@     " "@\0\0\0\0"
005254:  646471474564  trcn     11, @474564(11) ;"TTYGET" "iSLy:"
005255:  201000000007  movei    0, 7            ;"0(   '"
005256:  202000006442  movem    0, 6442         ;"00  TB"
005257:  202000006443  movem    0, 6443         ;"00  TC"
005260:  602000000001  trne     0, 1            ;"P0   !"
005261:  400000000000  setz     0,              ;"@     " "@\0\0\0\0"
005262:  646471634564  trcn     11, @634564(11) ;"TTYSET" "iSN9:"
005263:  201000000007  movei    0, 7            ;"0(   '"
005264:  000000006442                           ;"    TB"
005265:  000000006443                           ;"    TC"
005266:  400000000001  setz     0, 1            ;"@    !"
005267:  354000551300  aosa     0, 551300       ;"=@ M+ "
005270:  400062005267  setz     1, @5267(2)     ;"@ R JW"
005271:  000001000001                           ;"  !  !"
005272:  400064005271  setz     1, @5271(4)     ;"@ T JY"
005273:  504541444562  hrl      13, 444562(1)   ;"HEADER"
005274:  400063005273  setz     1, @5273(3)     ;"@ S J["
005275:  064247341636                           ;"&BG<.>" "\r\n;CO"
005276:  466410151222  orcmm    10, 151222(10)  ;"FT(-*2" "MPARI"
005277:  516371620236  hrlzm    7, @620236(11)  ;"ISYR">" "SON O"
005300:  431000000000  xori     0, 0            ;"C(    " "F \0\0\0"
005301:  202031642100  movem    0, @642100(11)  ;"009T1 " " AND "
005302:  000000000000                           ;"      "
005303:  064247347640                           ;"&BG<^@" "\r\n;OP"
005304:  522231747246  hllom    4, @747246(11)  ;"J29\ZF" "TIONS"
005305:  202032242500  movem    0, @242500(12)  ;"00:45 " " ARE "
005306:  201000000000  movei    0, 0            ;"0(    " "  \0\0\0"
005307:  201370100000  movei    7, @100000(10)  ;"0+X(  " " /A\0\0"
005310:  201370200000  movei    7, @200000(10)  ;"0+X0  " " /B\0\0"
005311:  201370300000  movei    7, @300000(10)  ;"0+X8  " " /C\0\0"
005312:  201370500000  movei    7, @500000(10)  ;"0+XH  " " /E\0\0"
005313:  201371300000  movei    7, @300000(11)  ;"0+Y8  " " /K\0\0"
005314:  201371400000  movei    7, @400000(11)  ;"0+Y@  " " /L\0\0"
005315:  201372300000  movei    7, @300000(12)  ;"0+Z8  " " /S\0\0"
005316:  201372700000  movei    7, @700000(12)  ;"0+ZX  " " /W\0\0"
005317:  201373100000  movei    7, @100000(13)  ;"0+[(  " " /Y\0\0"
005320:  201364300000  movei    7, @300000(4)   ;"0+T8  " " /#\0\0"
005321:  201364400000  movei    7, @400000(4)   ;"0+T@  " " /$\0\0"
005322:  201360000000  movei    7, @0           ;"0+P   " " /\0\0\0"
005323:  634155450000  tdza     3, 450000(15)   ;"SAME  "
005324:  400063005323  setz     1, @5323(3)     ;"@ S K3"
005325:  201004020100  movei    0, 20100(4)     ;"0($"! " "     "
005326:  201004042636  movei    0, 42636(4)     ;"0($$6>" "   EO"
005327:  431015767100  xori     0, 767100(15)   ;"C(-^Y " "F on "
005330:  633235462500  tsze     4, @462500(15)  ;"S:=F5 " "file "
005331:  304321200000  caia     6, @200000(1)   ;"8C10  " "1\r\n\0\0"
005332:  440700005325  andcb    16, 5325        ;"D'  K5"
005333:  201004020100  movei    0, 20100(4)     ;"0($"! " "     "
005334:  201004020100  movei    0, 20100(4)     ;"0($"! " "     "
005335:  201004020100  movei    0, 20100(4)     ;"0($"! " "     "
005336:  201004020100  movei    0, 20100(4)     ;"0($"! " "     "
005337:  201004020100  movei    0, 20100(4)     ;"0($"! " "     "
005340:  202131743100  movem    2, @743100(11)  ;"019\9 " " EOF "
005341:  677344063322  tson     7, 63322(4)     ;"W[D&;2" "on fi"
005342:  663124031032  tloe     2, @31032(4)    ;"V94#(:" "le 2\r"
005343:  050000000000                           ;"%     " "\n\0\0\0\0"
005344:  440700005333  andcb    16, 5333        ;"D'  K;"
005345:  351000000000  aosl     0, 0            ;"=(    " ": \0\0\0"
005346:  440700005345  andcb    16, 5345        ;"D'  KE"
005347:  201004020000  movei    0, 20000(4)     ;"0($"  " "    \0"
005350:  440700005347  andcb    16, 5347        ;"D'  KG"
005351:  201013047644  movei    0, 47644(13)    ;"0(+$^D" "  XOR"
005352:  365000000000  sojge    0, 0            ;">H    " "= \0\0\0"
005353:  440700005351  andcb    16, 5351        ;"D'  KI"
005354:  201004020100  movei    0, 20100(4)     ;"0($"! " "     "
005355:  201004042636  movei    0, 42636(4)     ;"0($$6>" "   EO"
005356:  431015767100  xori     0, 767100(15)   ;"C(-^Y " "F on "
005357:  633235462500  tsze     4, @462500(15)  ;"S:=F5 " "file "
005360:  304321200000  caia     6, @200000(1)   ;"8C10  " "1\r\n\0\0"
005361:  440700005354  andcb    16, 5354        ;"D'  KL"
005362:  201004020100  movei    0, 20100(4)     ;"0($"! " "     "
005363:  201004020100  movei    0, 20100(4)     ;"0($"! " "     "
005364:  201004020100  movei    0, 20100(4)     ;"0($"! " "     "
005365:  201004020100  movei    0, 20100(4)     ;"0($"! " "     "
005366:  201004020100  movei    0, 20100(4)     ;"0($"! " "     "
005367:  202131743100  movem    2, @743100(11)  ;"019\9 " " EOF "
005370:  677344063322  tson     7, 63322(4)     ;"W[D&;2" "on fi"
005371:  663124031032  tloe     2, @31032(4)    ;"V94#(:" "le 2\r"
005372:  050000000000                           ;"%     " "\n\0\0\0\0"
005373:  440700005362  andcb    16, 5362        ;"D'  KR"
005374:  201013047644  movei    0, 47644(13)    ;"0(+$^D" "  XOR"
005375:  365000000000  sojge    0, 0            ;">H    " "= \0\0\0"
005376:  440700005374  andcb    16, 5374        ;"D'  K\"
005377:  445146460000  eqvi     3, 460000(6)    ;"DIFF  " "I&4`\0"
005400:  400063005377  setz     1, @5377(3)     ;"@ S K_"
005401:  251245225124  blt      5, 225124(5)    ;"5*E2I4" "*****"
005402:  251245225124  blt      5, 225124(5)    ;"5*E2I4" "*****"
005403:  251245225124  blt      5, 225124(5)    ;"5*E2I4" "*****"
005404:  064240000000                           ;"&B@   " "\r\n\0\0\0"
005405:  000001000110                           ;"  ! !("
005406:  000000000014                           ;"     ,"
005407:  400000000000  setz     0,              ;"@     " "@\0\0\0\0"
005410:  635157640000  tsza     3, 640000(17)   ;"SIOT  " "g&~@\0"
005411:  201000000001  movei    0, 1            ;"0(   !"
005412:  000000000002                           ;"     ""
005413:  400000000011  setz     0, 11           ;"@    )"
005414:  400000000000  setz     0,              ;"@     " "@\0\0\0\0"
005415:  444554456445  eqv      13, 456445(14)  ;"DELETE"
005416:  000000000110                           ;"    !("
005417:  000000005241                           ;"    JA"
005420:  000000005242                           ;"    JB"
005421:  400000000113  setz     0, 113          ;"@   !+"
005422:  472364042222  orcbm    7, @42222(4)    ;"G3T$22" "NO DI"
005423:  432150551212  xorm     3, 551212(10)   ;"C1HM**" "FFERE"
005424:  472070551500  orcbm    1, @551500(10)  ;"G0XM- " "NCES "
005425:  426350347652  setam    7, 347652(10)   ;"BSH<^J" "ENCOU"
005426:  472510551212  orcbm    12, 551212(10)  ;"G5(M**" "NTERE"
005427:  420000000000  andcm    0, 0            ;"B     " "D\0\0\0\0"
005430:  426350420236  setam    7, 420236(10)   ;"BSHB">" "END O"
005431:  431011542644  xori     0, 542644(11)   ;"C()L6D" "F MER"
005432:  436120000000  orm      2, @0           ;"CQ0   " "GE\0\0\0"
005433:  200040006446  move     1, 6446         ;"0 @ TF"
005434:  504040006445  hrl      1, 6445         ;"H@@ TE"
005435:  136040007143  idpb     1, 7143         ;"+P@ YC"
005436:  254000001057  jrst     1057            ;"5@  (O"
005437:  000002000002                           ;"  "  ""
005440:  251245225124  blt      5, 225124(5)    ;"5*E2I4" "*****"
005441:  251245225124  blt      5, 225124(5)    ;"5*E2I4" "*****"
005442:  251245225124  blt      5, 225124(5)    ;"5*E2I4" "*****"
005443:  064241505000                           ;"&BAHH " "\r\n\r\n\0"
005444:  440700005440  andcb    16, 5440        ;"D'  L@"
005445:  440700000011  andcb    16, 11          ;"D'   )"
005446:  250240000006  exch     5, 6            ;"5"@  &"
005447:  254000001260  jrst     1260            ;"5@  *P"
005450:  554562474500  hlrz     13, @474500(2)  ;"MERGE "
005451:  400063005450  setz     1, @5450(3)     ;"@ S LH"
005452:  572753657000  hrrem    17, 657000(13)  ;"O7KUX " "^^^^\0"
005453:  000000001422                           ;"    ,2"
005454:  251245220232  blt      5, 220232(5)    ;"5*E2":" "*** M"
005455:  426450742500  setam    11, 742500(10)  ;"BTH\5 " "ERGE "
005456:  462372351602  setcmm   7, @351602(12)  ;"F3Z=."" "LOSSA"
005457:  436124025124  orm      2, @25124(4)    ;"CQ4"I4" "GE **"
005460:  250321225124  exch     6, @225124(1)   ;"5#12I4" "*\r\n**"
005461:  251010644630  blt      0, 644630(10)   ;"5((TF8" "* FIL"
005462:  425000000000  setai    0,              ;"BH    " "E \0\0\0"
005463:  202210151564  movem    4, 151564(10)   ;"02(--T" " HAS:"
005464:  064240000000                           ;"&B@   " "\r\n\0\0\0"
005465:  251245220214  blt      5, 220214(5)    ;"5*E2"," "*** F"
005466:  446310520000  eqvm     6, 520000(10)   ;"DS(J  " "ILE \0"
005467:  202210151564  movem    4, 151564(10)   ;"02(--T" " HAS:"
005470:  064240000000                           ;"&B@   " "\r\n\0\0\0"
005471:  251245220212  blt      5, 220212(5)    ;"5*E2"*" "*** E"
005472:  472104047614  orcbm    2, 47614(4)     ;"G1$$^," "ND OF"
005473:  202330551216  movem    6, @551216(10)  ;"038M*." " MERG"
005474:  425011447646  setai    0, 447646(11)   ;"BH)D^F" "E LOS"
005475:  516030742500  hrlzm    0, @742500(10)  ;"IP8\5 " "SAGE "
005476:  251245206424  blt      5, 206424(5)    ;"5*E0T4" "***\r\n"
005477:  000000000000                           ;"      "
005500:  400000000000  setz     0,              ;"@     " "@\0\0\0\0"
005501:  635157640000  tsza     3, 640000(17)   ;"SIOT  " "g&~@\0"
005502:  201000000004  movei    0, 4            ;"0(   $"
005503:  000000000001                           ;"     !"
005504:  400000000002  setz     0, 2            ;"@    ""
005505:  440700006433  andcb    16, 6433        ;"D'  T;"
005506:  350700006434  aos      16, 6434        ;"='  T<"
005507:  000000007077                           ;"    X_"
005510:  376371646262  sosn     7, @646262(11)  ;"?SYTRR" "?ONLY"
005511:  201425420144  movei    10, @420144(5)  ;"0,5B!D" " 1, 2"
005512:  261011126100  push     0, 126100(11)   ;"6()*Q " ", I, "
005513:  406350427636  andm     7, 427636(10)   ;"@SHB^>" "AND/O"
005514:  511012420202  hllzi    0, 420202(12)   ;"I(*B""" "R T A"
005515:  512124046212  hllzm    2, @46212(4)    ;"I14$R*" "RE LE"
005516:  436031420222  orm      0, @420222(11)  ;"CP9B"2" "GAL I"
005517:  471011542644  orcbi    0, 542644(11)   ;"G()L6D" "N MER"
005520:  436124041636  orm      2, @41636(4)    ;"CQ4$.>" "GE CO"
005521:  466330147210  orcmm    6, @147210(10)  ;"FS8,Z(" "MMAND"
005522:  514321247644  hrlz     6, @247644(1)   ;"IC14^D" "S\r\nOR"
005523:  202064321506  movem    1, @321506(4)   ;"00T:-&" " C###"
005524:  202511720246  movem    12, 720246(11)  ;"05)Z"F" " TO S"
005525:  426504046602  setam    12, 46602(4)    ;"BU$$V"" "ET MA"
005526:  541344041636  hrri     7, 41636(4)     ;"L+D$.>" "X. CO"
005527:  461344047644  setcmi   7, 47644(4)     ;"F+D$^D" "L. OR"
005530:  202304321506  movem    6, 321506(4)    ;"03$:-&" " L###"
005531:  202511720246  movem    12, 720246(11)  ;"05)Z"F" " TO S"
005532:  426504046602  setam    12, 46602(4)    ;"BU$$V"" "ET MA"
005533:  541344046222  hrri     7, 46222(4)     ;"L+D$R2" "X. LI"
005534:  472132320250  orcbm    2, @320250(12)  ;"G1::"H" "NES T"
005535:  546410542134  hlrm     10, 542134(10)  ;"LT(L1<" "YPED."
005536:  064240000000                           ;"&B@   " "\r\n\0\0\0"
005537:  440700005510  andcb    16, 5510        ;"D'  M("
005540:  777777777776  conso    774, @777776(17);"_____^"
005541:  134500000001  ildb     12, 1           ;"+E   !"
005542:  254000001775  jrst     1775            ;"5@  /]"
005543:  134540000002  ildb     13, 2           ;"+E@  ""
005544:  254000002000  jrst     2000            ;"5@  0 "
005545:  134500000001  ildb     12, 1           ;"+E   !"
005546:  254000002041  jrst     2041            ;"5@  0A"
005547:  606251566400  trnn     5, 566400(11)   ;"PRINT " "aJMm\0"
005550:  400063005547  setz     1, @5547(3)     ;"@ S MG"
005551:  440700005404  andcb    16, 5404        ;"D'  L$"
005552:  400000000000  setz     0,              ;"@     " "@\0\0\0\0"
005553:  635157640000  tsza     3, 640000(17)   ;"SIOT  " "g&~@\0"
005554:  201000000007  movei    0, 7            ;"0(   '"
005555:  000000000002                           ;"     ""
005556:  400000000011  setz     0, 11           ;"@    )"
005557:  251245225100  blt      5, 225100(5)    ;"5*E2I " "**** "
005560:  432231442500  xorm     4, @442500(11)  ;"C29D5 " "FILE "
005561:  000000000000                           ;"      "
005562:  440700005557  andcb    16, 5557        ;"D'  MO"
005563:  261000000000  push     0, 0            ;"6(    " ", \0\0\0"
005564:  440700005563  andcb    16, 5563        ;"D'  MS"
005565:  000000000055                           ;"     M"
005566:  201200000000  movei    4, 0            ;"0*    " " (\0\0\0"
005567:  000000000051                           ;"     I"
005570:  201507000000  movei    12, (7)         ;"0-'   " " 48\0\0"
005571:  221500000004  imuli    12, 4           ;"2-   $"
005572:  271500006413  addi     12, 6413        ;"7-  T+"
005573:  254000002212  jrst     2212            ;"5@  2*"
005574:  202030652212  movem    0, @652212(10)  ;"008U2*" " AFTE"
005575:  511000000000  hllzi    0, 0            ;"I(    " "R \0\0\0"
005576:  000000000042                           ;"     B"
005577:  261300000000  push     6, 0            ;"6+    " ",,\0\0\0"
005600:  440700005577  andcb    16, 5577        ;"D'  M_"
005601:  440700007065  andcb    16, 7065        ;"D'  XU"
005602:  220317000000  imul     6, (17)         ;"2#/   " "$\fx\0\0"
005603:  476007006217  setom    6217(7)         ;"GP' R/"
005604:  263740000000  popj     17,             ;"6?@   "
005605:  240100000003  ash      2, 3            ;"4!   #"
005606:  006413000000                           ;" T+   "
005607:  002356000014                           ;" 3N  ,"
005610:  360600000002  soj      14, 2           ;">&   ""
005611:  301400000002  cail     10, 2           ;"8,   ""
005612:  400064000012  setz     1, @12(4)       ;"@ T  *"
005613:  260740003107  pushj    17, 3107        ;"6'@ 9'"
005614:  254000002656  jrst     2656            ;"5@  6N"
005615:  070000000000                           ;"'     "
005616:  430000000001  xor      0, 1            ;"C    !"
005617:  350701000011  aos      16, 11(1)       ;"='!  )"
005620:  260740003107  pushj    17, 3107        ;"6'@ 9'"
005621:  254000002330  jrst     2330            ;"5@  38"
005622:  260740003107  pushj    17, 3107        ;"6'@ 9'"
005623:  254000000014  jrst     14              ;"5@   ,"
005624:  476007006217  setom    6217(7)         ;"GP' R/"
005625:  476007003054  setom    3054(7)         ;"GP' 8L"
005626:  402007003051  setzm    3051(7)         ;"@0' 8I"
005627:  263740000000  popj     17,             ;"6?@   "
005630:  476007006217  setom    6217(7)         ;"GP' R/"
005631:  476007003054  setom    3054(7)         ;"GP' 8L"
005632:  402007003051  setzm    3051(7)         ;"@0' 8I"
005633:  263740000000  popj     17,             ;"6?@   "
005634:  400000000000  setz     0,              ;"@     " "@\0\0\0\0"
005635:  635157640000  tsza     3, 640000(17)   ;"SIOT  " "g&~@\0"
005636:  201007000011  movei    0, 11(7)        ;"0('  )"
005637:  000000000011                           ;"     )"
005640:  400000000010  setz     0, 10           ;"@    ("
005641:  400000000000  setz     0,              ;"@     " "@\0\0\0\0"
005642:  635157640000  tsza     3, 640000(17)   ;"SIOT  " "g&~@\0"
005643:  201000000001  movei    0, 1            ;"0(   !"
005644:  000000000011                           ;"     )"
005645:  400000000010  setz     0, 10           ;"@    ("
005646:  043000005641  .call    [setz
                                 SIXBIT/SIOT  /
                                 201000000001
                                 000000000011
                                 400000000010]
                                                ;"$8  NA"
005647:  043100001400  .lose    1400            ;"$9  , "
005650:  263740000000  popj     17,             ;"6?@   "
005651:  400000000000  setz     0,              ;"@     " "@\0\0\0\0"
005652:  635157640000  tsza     3, 640000(17)   ;"SIOT  " "g&~@\0"
005653:  201000000002  movei    0, 2            ;"0(   ""
005654:  000000000011                           ;"     )"
005655:  400000000010  setz     0, 10           ;"@    ("
005656:  043000005651  .call    [setz
                                 SIXBIT/SIOT  /
                                 201000000002
                                 000000000011
                                 400000000010]
                                                ;"$8  NI"
005657:  043100001400  .lose    1400            ;"$9  , "
005660:  263740000000  popj     17,             ;"6?@   "
005661:  400000000000  setz     0,              ;"@     " "@\0\0\0\0"
005662:  635157640000  tsza     3, 640000(17)   ;"SIOT  " "g&~@\0"
005663:  201000000003  movei    0, 3            ;"0(   #"
005664:  000000000011                           ;"     )"
005665:  400000000010  setz     0, 10           ;"@    ("
005666:  043000005661  .call    [setz
                                 SIXBIT/SIOT  /
                                 201000000003
                                 000000000011
                                 400000000010]
                                                ;"$8  NQ"
005667:  043100001400  .lose    1400            ;"$9  , "
005670:  263740000000  popj     17,             ;"6?@   "
005671:  000045000001                           ;"  E  !"
005672:  400000000000  setz     0,              ;"@     " "@\0\0\0\0"
005673:  435762425453  ori      17, @425453(2)  ;"CORBLK"
005674:  201000400000  movei    0, 400000       ;"0( @  "
005675:  201000777777  movei    0, 777777       ;"0( ___"
005676:  000000000001                           ;"     !"
005677:  601000400001  tln      0, 400001       ;"P( @ !"
005700:  260740005002  pushj    17, 5002        ;"6'@ H""
005701:  254000004674  jrst     4674            ;"5@  F\"
005702:  265331547644  jsp      6, @547644(11)  ;"6K9L^D" "--MOR"
005703:  425325500000  setai    6, @500000(5)   ;"BK5H  " "E--\0\0"
005704:  400000000000  setz     0,              ;"@     " "@\0\0\0\0"
005705:  515764000000  hrlzi    17, @(4)        ;"IOT   " "S? \0\0"
005706:  201000000000  movei    0, 0            ;"0(    " "  \0\0\0"
005707:  200000000011  move     0, 11           ;"0    )"
005710:  405000020000  andi     0, 20000        ;"@H "  "
005711:  432312551620  xorm     6, 551620(12)   ;"C3*M.0" "FLUSH"
005712:  426101505000  setam    2, 505000(1)    ;"BQ!HH " "ED\r\n\0"
005713:  000000002071                           ;"    0Y"
005714:  014060301406                           ;"!@P8,&"
005715:  400000000000  setz     0,              ;"@     " "@\0\0\0\0"
005716:  635157640000  tsza     3, 640000(17)   ;"SIOT  " "g&~@\0"
005717:  201000000001  movei    0, 1            ;"0(   !"
005720:  000000000001                           ;"     !"
005721:  400000000002  setz     0, 2            ;"@    ""
005722:  350700006455  aos      16, 6455        ;"='  TM"
005723:  400000000000  setz     0,              ;"@     " "@\0\0\0\0"
005724:  624656415545  trza     15, 415545(16)  ;"RFNAME"
005725:  201007000001  movei    0, 1(7)         ;"0('  !"
005726:  002000006370                           ;" 0  SX"
005727:  002000006371                           ;" 0  SY"
005730:  002000006372                           ;" 0  SZ"
005731:  402000006373  setzm    6373            ;"@0  S["
005732:  400000000000  setz     0,              ;"@     " "@\0\0\0\0"
005733:  465154544556  orcmi    3, 544556(14)   ;"FILLEN" "M&eI7"
005734:  201007000001  movei    0, 1(7)         ;"0('  !"
005735:  602000000002  trne     0, 2            ;"P0   ""
005736:  000005007145                           ;"  % YE"
005737:  656362000000  tdcn     7, @(2)         ;"USR   "
005740:  400000000000  setz     0,              ;"@     " "@\0\0\0\0"
005741:  576045560000  hlrem    1, 560000(5)    ;"OPEN  " "_B-`\0"
005742:  000000000012                           ;"     *"
005743:  000000005737                           ;"    O?"
005744:  000000005217                           ;"    J/"
005745:  400000007145  setz     0, 7145         ;"@   YE"
005746:  400000000000  setz     0,              ;"@     " "@\0\0\0\0"
005747:  576045560000  hlrem    1, 560000(5)    ;"OPEN  " "_B-`\0"
005750:  000000000012                           ;"     *"
005751:  000000005737                           ;"    O?"
005752:  000000005217                           ;"    J/"
005753:  400000007145  setz     0, 7145         ;"@   YE"
005754:  400000000000  setz     0,              ;"@     " "@\0\0\0\0"
005755:  545741440000  hlri     17, 440000(1)   ;"LOAD  " "Y>\f@\0"
005756:  201012000000  movei    0, (12)         ;"0(*   " "  P\0\0"
005757:  601007000001  tln      0, 1(7)         ;"P('  !"
005760:  400000000000  setz     0,              ;"@     " "@\0\0\0\0"
005761:  414343456363  setm     7, 456363(3)    ;"ACCESS"
005762:  201012000000  movei    0, (12)         ;"0(*   " "  P\0\0"
005763:  400000005217  setz     0, 5217         ;"@   J/"
005764:  554555640000  hlrz     13, 640000(15)  ;"MEMT  "
005765:  400000000000  setz     0,              ;"@     " "@\0\0\0\0"
005766:  656362664162  tdcn     7, @664162(2)   ;"USRVAR"
005767:  201012000000  movei    0, (12)         ;"0(*   " "  P\0\0"
005770:  000000005764                           ;"    OT"
005771:  602000000002  trne     0, 2            ;"P0   ""
005772:  000000000015                           ;"     -"
005773:  300602000005  cai      14, 5(2)        ;"8&"  %"
005774:  400040000000  setz     1,              ;"@ @   "
005775:  254000003522  jrst     3522            ;"5@  =2"
005776:  201040000006  movei    1, 6            ;"0(@  &"
005777:  263740000000  popj     17,             ;"6?@   "
006000:  400000000000  setz     0,              ;"@     " "@\0\0\0\0"
006001:  435663474564  ori      15, @474564(3)  ;"CNSGET"
006002:  000000000001                           ;"     !"
006003:  202000000004  movem    0, 4            ;"00   $"
006004:  202002000001  movem    0, 1(2)         ;"00"  !"
006005:  202000000004  movem    0, 4            ;"00   $"
006006:  202000000004  movem    0, 4            ;"00   $"
006007:  602000000004  trne     0, 4            ;"P0   $"
006010:  400000000000  setz     0,              ;"@     " "@\0\0\0\0"
006011:  624360576300  trza     7, @576300      ;"RCPOS "
006012:  000000000001                           ;"     !"
006013:  602002000000  trne     0, (2)          ;"P0"   "
006014:  201100000001  movei    2, 1            ;"0)   !"
006015:  350017000000  aos      0, (17)         ;"= /   "
006016:  263740000000  popj     17,             ;"6?@   "
006017:  260740004014  pushj    17, 4014        ;"6'@ @,"
006020:  260740004121  pushj    17, 4121        ;"6'@ A1"
006021:  263740000000  popj     17,             ;"6?@   "
006022:  000000004021                           ;"    @1"
006023:  300600000003  cai      14, 3           ;"8&   #"
006024:  110000000000                           ;")     "
006025:  440000000001  andcb    0, 1            ;"D    !"
006026:  400000000000  setz     0,              ;"@     " "@\0\0\0\0"
006027:  515764000000  hrlzi    17, @(4)        ;"IOT   " "S? \0\0"
006030:  001000000005                           ;" (   %"
006031:  000000000001                           ;"     !"
006032:  405000001000  andi     0, 1000         ;"@H  ( "
006033:  400000000000  setz     0,              ;"@     " "@\0\0\0\0"
006034:  515764000000  hrlzi    17, @(4)        ;"IOT   " "S? \0\0"
006035:  001000000005                           ;" (   %"
006036:  000000000001                           ;"     !"
006037:  405000005000  andi     0, 5000         ;"@H  H "
006040:  010700007104                           ;"!'  Y$"
006041:  777777777777  conso    774, @777777(17);"______"
006042:  000000000007                           ;"     '"
006043:  040240006042  .iot     5, 6042         ;"$"@ PB"
006044:  254000004146  jrst     4146            ;"5@  AF"
006045:  440700007105  andcb    16, 7105        ;"D'  Y%"
006046:  440600000000  andcb    14, 0           ;"D&    "
006047:  326400004424  jumpn    10, 4424        ;":T  D4"
006050:  344400004424  aoja     10, 4424        ;"<D  D4"
006051:  476000007137  setom    7137            ;"GP  Y?"
006052:  263740000000  popj     17,             ;"6?@   "
006053:  476000007140  setom    7140            ;"GP  Y@"
006054:  263740000000  popj     17,             ;"6?@   "
006055:  201451777717  movei    11, 777717(11)  ;"0,I__/"
006056:  202440007101  movem    11, 7101        ;"04@ Y!"
006057:  263740000000  popj     17,             ;"6?@   "
006060:  417035623750  setmb    0, @623750(15)  ;"AX=R?H" "Can't"
006061:  203155167310  moves    3, 167310(15)   ;"09M.[(" " find"
006062:  203214566340  moves    4, 566340(14)   ;"0:,NS@" " help"
006063:  203155166312  moves    3, 166312(15)   ;"09M.S*" " file"
006064:  204000000000  movs     0, 0            ;"0@    " "!\0\0\0\0"
006065:  400000000000  setz     0,              ;"@     " "@\0\0\0\0"
006066:  646471634564  trcn     11, @634564(11) ;"TTYSET" "iSN9:"
006067:  201000000007  movei    0, 7            ;"0(   '"
006070:  000000006442                           ;"    TB"
006071:  000000006443                           ;"    TC"
006072:  400000000001  setz     0, 1            ;"@    !"
006073:  000005007105                           ;"  % Y%"
006074:  000044000011                           ;"  D  )"
006075:  400000000000  setz     0,              ;"@     " "@\0\0\0\0"
006076:  636441646563  tdzn     11, 646563(1)   ;"STATUS"
006077:  000000000011                           ;"     )"
006100:  602000005016  trne     0, 5016         ;"P0  H."
006101:  000000000072                           ;"     Z"
006102:  000000000073                           ;"     ["
006103:  000000566554                           ;"   NUL"
006104:  000001566554                           ;"  !NUL"
006105:  134407242222  ildb     10, 242222(7)   ;"+D'422"
006106:  516372747100  hrlzm    7, @747100(12)  ;"ISZ\Y " "SOWN "
006107:  352551320000  aose     13, 320000(11)  ;"=5I:  " ":VK \0"
006110:  400000000000  setz     0,              ;"@     " "@\0\0\0\0"
006111:  576045560000  hlrem    1, 560000(5)    ;"OPEN  " "_B-`\0"
006112:  000000000001                           ;"     !"
006113:  000015000000                           ;"  -   "
006114:  000015000001                           ;"  -  !"
006115:  000015000002                           ;"  -  ""
006116:  400015000003  setz     0, 3(15)        ;"@ -  #"
006117:  400000000000  setz     0,              ;"@     " "@\0\0\0\0"
006120:  624556556757  trza     13, 556757(16)  ;"RENMWO"
006121:  000000000001                           ;"     !"
006122:  000000000111                           ;"    !)"
006123:  400000000112  setz     0, 112          ;"@   !*"
006124:  446353000000  eqvm     7, (13)         ;"DSK   " "INX\0\0"
006125:  360000000000  soj      0, 0            ;">     " "<\0\0\0\0"
006126:  515646570000  hrlzi    15, 570000(6)   ;"INFO  " "S:5p\0"
006127:  400000000000  setz     0,              ;"@     " "@\0\0\0\0"
006130:  576045560000  hlrem    1, 560000(5)    ;"OPEN  " "_B-`\0"
006131:  201000000001  movei    0, 1            ;"0(   !"
006132:  000000006124                           ;"    Q4"
006133:  000000005214                           ;"    J,"
006134:  000000006125                           ;"    Q5"
006135:  400000006126  setz     0, 6126         ;"@   Q6"
006136:  000000000000                           ;"      "
006137:  000000000000                           ;"      "
006140:  000000000000                           ;"      "
006141:  000000000000                           ;"      "
006142:  000000000000                           ;"      "
006143:  000000000000                           ;"      "
006144:  000000000000                           ;"      "
006145:  000000000000                           ;"      "
006146:  000000000000                           ;"      "
006147:  000000000000                           ;"      "
006150:  000000000000                           ;"      "
006151:  000000000000                           ;"      "
006152:  000000000000                           ;"      "
006153:  000000000000                           ;"      "
006154:  000000000000                           ;"      "
006155:  000000000000                           ;"      "
006156:  000000000000                           ;"      "
006157:  000000000000                           ;"      "
006160:  000000000000                           ;"      "
006161:  000000000000                           ;"      "
006162:  000000000000                           ;"      "
006163:  000000000000                           ;"      "
006164:  000000000000                           ;"      "
006165:  000000000000                           ;"      "
006166:  000000000000                           ;"      "
006167:  000000000000                           ;"      "
006170:  000000000000                           ;"      "
006171:  000000000000                           ;"      "
006172:  000000000000                           ;"      "
006173:  000000000000                           ;"      "
006174:  000000000000                           ;"      "
006175:  000000000000                           ;"      "
006176:  000000000000                           ;"      "
006177:  000000000000                           ;"      "
006200:  000000000000                           ;"      "
006201:  000000000000                           ;"      "
006202:  000000000000                           ;"      "
006203:  000000000000                           ;"      "
006204:  000000000000                           ;"      "
006205:  000000000000                           ;"      "
006206:  000000000000                           ;"      "
006207:  000000000000                           ;"      "
006210:  000000000000                           ;"      "
006211:  000000000000                           ;"      "
006212:  000000000000                           ;"      "
006213:  000000000000                           ;"      "
006214:  000000000000                           ;"      "
006215:  000000000000                           ;"      "
006216:  000000000000                           ;"      "
006217:  000000000000                           ;"      "
006220:  000000000000                           ;"      "
006221:  000000000000                           ;"      "
006222:  000000000000                           ;"      "
006223:  000000000000                           ;"      "
006224:  000000000000                           ;"      "
006225:  000000000000                           ;"      "
006226:  000000000000                           ;"      "
006227:  000000000000                           ;"      "
006230:  000000000000                           ;"      "
006231:  000000000000                           ;"      "
006232:  000000000000                           ;"      "
006233:  000000000000                           ;"      "
006234:  000000000000                           ;"      "
006235:  000000000000                           ;"      "
006236:  000000000000                           ;"      "
006237:  000000000000                           ;"      "
006240:  000000000000                           ;"      "
006241:  000000000000                           ;"      "
006242:  000000000000                           ;"      "
006243:  000000000000                           ;"      "
006244:  000000000000                           ;"      "
006245:  000000000000                           ;"      "
006246:  000000000000                           ;"      "
006247:  000000000000                           ;"      "
006250:  000000000000                           ;"      "
006251:  000000000000                           ;"      "
006252:  000000000000                           ;"      "
006253:  000000000000                           ;"      "
006254:  000000000000                           ;"      "
006255:  000000000000                           ;"      "
006256:  000000000000                           ;"      "
006257:  000000000000                           ;"      "
006260:  000000000000                           ;"      "
006261:  000000000000                           ;"      "
006262:  000000000000                           ;"      "
006263:  000000000000                           ;"      "
006264:  000000000000                           ;"      "
006265:  000000000000                           ;"      "
006266:  000000000000                           ;"      "
006267:  000000000000                           ;"      "
006270:  000000000000                           ;"      "
006271:  000000000000                           ;"      "
006272:  000000000000                           ;"      "
006273:  000000000000                           ;"      "
006274:  000000000000                           ;"      "
006275:  000000000000                           ;"      "
006276:  000000000000                           ;"      "
006277:  000000000000                           ;"      "
006300:  000000000000                           ;"      "
006301:  000000000000                           ;"      "
006302:  000000000000                           ;"      "
006303:  000000000000                           ;"      "
006304:  000000000000                           ;"      "
006305:  000000000000                           ;"      "
006306:  000000000000                           ;"      "
006307:  000000000000                           ;"      "
006310:  000000000000                           ;"      "
006311:  000000000000                           ;"      "
006312:  000000000000                           ;"      "
006313:  000000000000                           ;"      "
006314:  000000000000                           ;"      "
006315:  000000000000                           ;"      "
006316:  000000000000                           ;"      "
006317:  000000000000                           ;"      "
006320:  000000000000                           ;"      "
006321:  000000000000                           ;"      "
006322:  000000000000                           ;"      "
006323:  000000000000                           ;"      "
006324:  000000000000                           ;"      "
006325:  000000000000                           ;"      "
006326:  000000000000                           ;"      "
006327:  000000000000                           ;"      "
006330:  000000000000                           ;"      "
006331:  000000000000                           ;"      "
006332:  000000000000                           ;"      "
006333:  000000000000                           ;"      "
006334:  000000000000                           ;"      "
006335:  000000000000                           ;"      "
006336:  000000000000                           ;"      "
006337:  000000000000                           ;"      "
006340:  000000000000                           ;"      "
006341:  000000000000                           ;"      "
006342:  000000000000                           ;"      "
006343:  000000000000                           ;"      "
006344:  000000000000                           ;"      "
006345:  000000000000                           ;"      "
006346:  000000000000                           ;"      "
006347:  000000000000                           ;"      "
006350:  000000000000                           ;"      "
006351:  000000000000                           ;"      "
006352:  000000000000                           ;"      "
006353:  000000000000                           ;"      "
006354:  000000000000                           ;"      "
006355:  000000000000                           ;"      "
006356:  000000000000                           ;"      "
006357:  000000000000                           ;"      "
006360:  000000000000                           ;"      "
006361:  000000000000                           ;"      "
006362:  000000000000                           ;"      "
006363:  000000000000                           ;"      "
006364:  000000000000                           ;"      "
006365:  000000000000                           ;"      "
006366:  000000000000                           ;"      "
006367:  000000000000                           ;"      "
006370:  000000000000                           ;"      "
006371:  000000000000                           ;"      "
006372:  000000000000                           ;"      "
006373:  000000000000                           ;"      "
006374:  000000000000                           ;"      "
006375:  000000000000                           ;"      "
006376:  000000000000                           ;"      "
006377:  000000000000                           ;"      "
006400:  000000000000                           ;"      "
006401:  000000000000                           ;"      "
006402:  000000000000                           ;"      "
006403:  000000000000                           ;"      "
006404:  000000000000                           ;"      "
006405:  000000000000                           ;"      "
006406:  000000000000                           ;"      "
006407:  000000000000                           ;"      "
006410:  000000000000                           ;"      "
006411:  000000000000                           ;"      "
006412:  000000000000                           ;"      "
006413:  000000000000                           ;"      "
006414:  000000000000                           ;"      "
006415:  000000000000                           ;"      "
006416:  000000000000                           ;"      "
006417:  000000000000                           ;"      "
006420:  000000000000                           ;"      "
006421:  000000000000                           ;"      "
006422:  000000000000                           ;"      "
006423:  000000000000                           ;"      "
006424:  000000000000                           ;"      "
006425:  000000000000                           ;"      "
006426:  000000000000                           ;"      "
006427:  000000000000                           ;"      "
006430:  000000000000                           ;"      "
006431:  000000000000                           ;"      "
006432:  000000000000                           ;"      "
006433:  000000000000                           ;"      "
006434:  000000000000                           ;"      "
006435:  000000000000                           ;"      "
006436:  000000000000                           ;"      "
006437:  000000000000                           ;"      "
006440:  000000000000                           ;"      "
006441:  000000000000                           ;"      "
006442:  000000000000                           ;"      "
006443:  000000000000                           ;"      "
006444:  000000000000                           ;"      "
006445:  000000000000                           ;"      "
006446:  000000000000                           ;"      "
006447:  000000000000                           ;"      "
006450:  000000000000                           ;"      "
006451:  000000000000                           ;"      "
006452:  000000000000                           ;"      "
006453:  000000000000                           ;"      "
006454:  000000000000                           ;"      "
006455:  000000000000                           ;"      "
006456:  000000000000                           ;"      "
006457:  000000000000                           ;"      "
006460:  000000000000                           ;"      "
006461:  000000000000                           ;"      "
006462:  000000000000                           ;"      "
006463:  000000000000                           ;"      "
006464:  000000000000                           ;"      "
006465:  000000000000                           ;"      "
006466:  000000000000                           ;"      "
006467:  000000000000                           ;"      "
006470:  000000000000                           ;"      "
006471:  000000000000                           ;"      "
006472:  000000000000                           ;"      "
006473:  000000000000                           ;"      "
006474:  000000000000                           ;"      "
006475:  000000000000                           ;"      "
006476:  000000000000                           ;"      "
006477:  000000000000                           ;"      "
006500:  000000000000                           ;"      "
006501:  000000000000                           ;"      "
006502:  000000000000                           ;"      "
006503:  000000000000                           ;"      "
006504:  000000000000                           ;"      "
006505:  000000000000                           ;"      "
006506:  000000000000                           ;"      "
006507:  000000000000                           ;"      "
006510:  000000000000                           ;"      "
006511:  000000000000                           ;"      "
006512:  000000000000                           ;"      "
006513:  000000000000                           ;"      "
006514:  000000000000                           ;"      "
006515:  000000000000                           ;"      "
006516:  000000000000                           ;"      "
006517:  000000000000                           ;"      "
006520:  000000000000                           ;"      "
006521:  000000000000                           ;"      "
006522:  000000000000                           ;"      "
006523:  000000000000                           ;"      "
006524:  000000000000                           ;"      "
006525:  000000000000                           ;"      "
006526:  000000000000                           ;"      "
006527:  000000000000                           ;"      "
006530:  000000000000                           ;"      "
006531:  000000000000                           ;"      "
006532:  000000000000                           ;"      "
006533:  000000000000                           ;"      "
006534:  000000000000                           ;"      "
006535:  000000000000                           ;"      "
006536:  000000000000                           ;"      "
006537:  000000000000                           ;"      "
006540:  000000000000                           ;"      "
006541:  000000000000                           ;"      "
006542:  000000000000                           ;"      "
006543:  000000000000                           ;"      "
006544:  000000000000                           ;"      "
006545:  000000000000                           ;"      "
006546:  000000000000                           ;"      "
006547:  000000000000                           ;"      "
006550:  000000000000                           ;"      "
006551:  000000000000                           ;"      "
006552:  014060301406                           ;"!@P8,&"
006553:  000000000000                           ;"      "
006554:  000000000000                           ;"      "
006555:  000000000000                           ;"      "
006556:  000000000000                           ;"      "
006557:  000000000000                           ;"      "
006560:  000000000000                           ;"      "
006561:  000000000000                           ;"      "
006562:  000000000000                           ;"      "
006563:  000000000000                           ;"      "
006564:  000000000000                           ;"      "
006565:  000000000000                           ;"      "
006566:  000000000000                           ;"      "
006567:  000000000000                           ;"      "
006570:  000000000000                           ;"      "
006571:  000000000000                           ;"      "
006572:  000000000000                           ;"      "
006573:  000000000000                           ;"      "
006574:  000000000000                           ;"      "
006575:  000000000000                           ;"      "
006576:  000000000000                           ;"      "
006577:  000000000000                           ;"      "
006600:  000000000000                           ;"      "
006601:  000000000000                           ;"      "
006602:  000000000000                           ;"      "
006603:  000000000000                           ;"      "
006604:  000000000000                           ;"      "
006605:  000000000000                           ;"      "
006606:  000000000000                           ;"      "
006607:  000000000000                           ;"      "
006610:  000000000000                           ;"      "
006611:  000000000000                           ;"      "
006612:  000000000000                           ;"      "
006613:  000000000000                           ;"      "
006614:  000000000000                           ;"      "
006615:  000000000000                           ;"      "
006616:  000000000000                           ;"      "
006617:  000000000000                           ;"      "
006620:  000000000000                           ;"      "
006621:  000000000000                           ;"      "
006622:  000000000000                           ;"      "
006623:  000000000000                           ;"      "
006624:  000000000000                           ;"      "
006625:  000000000000                           ;"      "
006626:  000000000000                           ;"      "
006627:  000000000000                           ;"      "
006630:  000000000000                           ;"      "
006631:  000000000000                           ;"      "
006632:  000000000000                           ;"      "
006633:  000000000000                           ;"      "
006634:  000000000000                           ;"      "
006635:  000000000000                           ;"      "
006636:  000000000000                           ;"      "
006637:  000000000000                           ;"      "
006640:  000000000000                           ;"      "
006641:  000000000000                           ;"      "
006642:  000000000000                           ;"      "
006643:  000000000000                           ;"      "
006644:  000000000000                           ;"      "
006645:  000000000000                           ;"      "
006646:  000000000000                           ;"      "
006647:  000000000000                           ;"      "
006650:  000000000000                           ;"      "
006651:  000000000000                           ;"      "
006652:  000000000000                           ;"      "
006653:  000000000000                           ;"      "
006654:  000000000000                           ;"      "
006655:  014060301406                           ;"!@P8,&"
006656:  000000000000                           ;"      "
006657:  000000000000                           ;"      "
006660:  000000000000                           ;"      "
006661:  000000000000                           ;"      "
006662:  000000000000                           ;"      "
006663:  000000000000                           ;"      "
006664:  000000000000                           ;"      "
006665:  000000000000                           ;"      "
006666:  000000000000                           ;"      "
006667:  000000000000                           ;"      "
006670:  000000000000                           ;"      "
006671:  000000000000                           ;"      "
006672:  000000000000                           ;"      "
006673:  000000000000                           ;"      "
006674:  000000000000                           ;"      "
006675:  000000000000                           ;"      "
006676:  000000000000                           ;"      "
006677:  000000000000                           ;"      "
006700:  000000000000                           ;"      "
006701:  000000000000                           ;"      "
006702:  000000000000                           ;"      "
006703:  000000000000                           ;"      "
006704:  000000000000                           ;"      "
006705:  000000000000                           ;"      "
006706:  000000000000                           ;"      "
006707:  000000000000                           ;"      "
006710:  000000000000                           ;"      "
006711:  000000000000                           ;"      "
006712:  000000000000                           ;"      "
006713:  000000000000                           ;"      "
006714:  000000000000                           ;"      "
006715:  000000000000                           ;"      "
006716:  000000000000                           ;"      "
006717:  000000000000                           ;"      "
006720:  000000000000                           ;"      "
006721:  000000000000                           ;"      "
006722:  000000000000                           ;"      "
006723:  000000000000                           ;"      "
006724:  000000000000                           ;"      "
006725:  000000000000                           ;"      "
006726:  000000000000                           ;"      "
006727:  000000000000                           ;"      "
006730:  000000000000                           ;"      "
006731:  000000000000                           ;"      "
006732:  000000000000                           ;"      "
006733:  000000000000                           ;"      "
006734:  000000000000                           ;"      "
006735:  000000000000                           ;"      "
006736:  000000000000                           ;"      "
006737:  000000000000                           ;"      "
006740:  000000000000                           ;"      "
006741:  000000000000                           ;"      "
006742:  000000000000                           ;"      "
006743:  000000000000                           ;"      "
006744:  000000000000                           ;"      "
006745:  000000000000                           ;"      "
006746:  000000000000                           ;"      "
006747:  000000000000                           ;"      "
006750:  000000000000                           ;"      "
006751:  000000000000                           ;"      "
006752:  000000000000                           ;"      "
006753:  000000000000                           ;"      "
006754:  000000000000                           ;"      "
006755:  000000000000                           ;"      "
006756:  000000000000                           ;"      "
006757:  000000000000                           ;"      "
006760:  014060301406                           ;"!@P8,&"
006761:  000000000000                           ;"      "
006762:  000000000000                           ;"      "
006763:  000000000000                           ;"      "
006764:  000000000000                           ;"      "
006765:  000000000000                           ;"      "
006766:  000000000000                           ;"      "
006767:  000000000000                           ;"      "
006770:  000000000000                           ;"      "
006771:  000000000000                           ;"      "
006772:  000000000000                           ;"      "
006773:  000000000000                           ;"      "
006774:  000000000000                           ;"      "
006775:  000000000000                           ;"      "
006776:  000000000000                           ;"      "
006777:  000000000000                           ;"      "
007000:  000000000000                           ;"      "
007001:  000000000000                           ;"      "
007002:  000000000000                           ;"      "
007003:  000000000000                           ;"      "
007004:  000000000000                           ;"      "
007005:  000000000000                           ;"      "
007006:  000000000000                           ;"      "
007007:  000000000000                           ;"      "
007010:  000000000000                           ;"      "
007011:  000000000000                           ;"      "
007012:  000000000000                           ;"      "
007013:  000000000000                           ;"      "
007014:  000000000000                           ;"      "
007015:  000000000000                           ;"      "
007016:  000000000000                           ;"      "
007017:  000000000000                           ;"      "
007020:  000000000000                           ;"      "
007021:  000000000000                           ;"      "
007022:  000000000000                           ;"      "
007023:  000000000000                           ;"      "
007024:  000000000000                           ;"      "
007025:  000000000000                           ;"      "
007026:  000000000000                           ;"      "
007027:  000000000000                           ;"      "
007030:  000000000000                           ;"      "
007031:  000000000000                           ;"      "
007032:  000000000000                           ;"      "
007033:  000000000000                           ;"      "
007034:  000000000000                           ;"      "
007035:  000000000000                           ;"      "
007036:  000000000000                           ;"      "
007037:  000000000000                           ;"      "
007040:  000000000000                           ;"      "
007041:  000000000000                           ;"      "
007042:  000000000000                           ;"      "
007043:  000000000000                           ;"      "
007044:  000000000000                           ;"      "
007045:  000000000000                           ;"      "
007046:  000000000000                           ;"      "
007047:  000000000000                           ;"      "
007050:  000000000000                           ;"      "
007051:  000000000000                           ;"      "
007052:  000000000000                           ;"      "
007053:  000000000000                           ;"      "
007054:  000000000000                           ;"      "
007055:  000000000000                           ;"      "
007056:  000000000000                           ;"      "
007057:  000000000000                           ;"      "
007060:  000000000000                           ;"      "
007061:  000000000000                           ;"      "
007062:  000000000000                           ;"      "
007063:  000000000000                           ;"      "
007064:  000000000000                           ;"      "
007065:  000000000000                           ;"      "
007066:  000000000000                           ;"      "
007067:  000000000000                           ;"      "
007070:  000000000000                           ;"      "
007071:  000000000000                           ;"      "
007072:  000000000000                           ;"      "
007073:  000000000000                           ;"      "
007074:  000000000000                           ;"      "
007075:  000000000000                           ;"      "
007076:  000000000000                           ;"      "
007077:  377777777777  sosg     17, @777777(17) ;"?_____"
007100:  377777777777  sosg     17, @777777(17) ;"?_____"
007101:  000000000002                           ;"     ""
007102:  000000010000                           ;"   !  "
007103:  000000201000                           ;"   0( "
007104:  000000401000                           ;"   @( "
007105:  000000000000                           ;"      "
007106:  000000000000                           ;"      "
007107:  000000000000                           ;"      "
007110:  000000000000                           ;"      "
007111:  000000000000                           ;"      "
007112:  000000000000                           ;"      "
007113:  000000000000                           ;"      "
007114:  000000000000                           ;"      "
007115:  000000000000                           ;"      "
007116:  000000000000                           ;"      "
007117:  000000000000                           ;"      "
007120:  000000000000                           ;"      "
007121:  000000000000                           ;"      "
007122:  000000000000                           ;"      "
007123:  000000000000                           ;"      "
007124:  000000000000                           ;"      "
007125:  000000000000                           ;"      "
007126:  000000000000                           ;"      "
007127:  000000000000                           ;"      "
007130:  000000000000                           ;"      "
007131:  000000000000                           ;"      "
007132:  000000000000                           ;"      "
007133:  000000000000                           ;"      "
007134:  000000000000                           ;"      "
007135:  000000000000                           ;"      "
007136:  000000000000                           ;"      "
007137:  000000000000                           ;"      "
007140:  000000000000                           ;"      "
007141:  000000000000                           ;"      "
007142:  000000000000                           ;"      "
007143:  000000000000                           ;"      "
007144:  000000000000                           ;"      "
007145:  000000000000                           ;"      "
007146:  000000000000                           ;"      "
007147:  000000000000                           ;"      "
007150:  000000000000                           ;"      "
007151:  000000000000                           ;"      "
007152:  000000000000                           ;"      "
007153:  000000000000                           ;"      "
007154:  000000000000                           ;"      "
007155:  000000000000                           ;"      "
007156:  000000000000                           ;"      "
007157:  777777777777  conso    774, @777777(17);"______"
007160:  000000000000                           ;"      "
007161:  000000000000                           ;"      "
007162:  000000000000                           ;"      "
007163:  000000000000                           ;"      "
007164:  000000000000                           ;"      "
007165:  000000000000                           ;"      "
007166:  000000000000                           ;"      "
007167:  000000000000                           ;"      "
007170:  000000000000                           ;"      "
007171:  000000000000                           ;"      "
007172:  000000000000                           ;"      "
007173:  000000000000                           ;"      "
007174:  000000000000                           ;"      "
007175:  000000000000                           ;"      "
007176:  000000000000                           ;"      "
007177:  000000000000                           ;"      "
007200:  000000000000                           ;"      "
007201:  000000000000                           ;"      "
007202:  000000000000                           ;"      "
007203:  000000000000                           ;"      "
007204:  000000000000                           ;"      "
007205:  000000000000                           ;"      "
007206:  000000000000                           ;"      "
007207:  000000000000                           ;"      "
007210:  000000000000                           ;"      "
007211:  000000000000                           ;"      "
007212:  000000000000                           ;"      "
007213:  000000000000                           ;"      "
007214:  000000000000                           ;"      "
007215:  000000000000                           ;"      "
007216:  000000000000                           ;"      "
007217:  000000000000                           ;"      "
007220:  000000000000                           ;"      "
007221:  000000000000                           ;"      "
007222:  000000000000                           ;"      "
007223:  000000000000                           ;"      "
007224:  000000000000                           ;"      "
007225:  000000000000                           ;"      "
007226:  000000000000                           ;"      "
007227:  000000000000                           ;"      "
007230:  000000000000                           ;"      "
007231:  000000000000                           ;"      "
007232:  000000000000                           ;"      "
007233:  000000000000                           ;"      "
007234:  000000000000                           ;"      "
007235:  000000000000                           ;"      "
007236:  000000000000                           ;"      "
007237:  000000000000                           ;"      "
007240:  000000000000                           ;"      "
007241:  000000000000                           ;"      "
007242:  000000000000                           ;"      "
007243:  000000000000                           ;"      "
007244:  000000000000                           ;"      "
007245:  000000000000                           ;"      "
007246:  000000000000                           ;"      "
007247:  000000000000                           ;"      "
007250:  000000000000                           ;"      "
007251:  000000000000                           ;"      "
007252:  000000000000                           ;"      "
007253:  000000000000                           ;"      "
007254:  000000000000                           ;"      "
007255:  000000000000                           ;"      "
007256:  000000000000                           ;"      "
007257:  000000000000                           ;"      "
007260:  000000000000                           ;"      "
007261:  000000000000                           ;"      "
007262:  000000000000                           ;"      "
007263:  000000000000                           ;"      "
007264:  000000000000                           ;"      "
007265:  000000000000                           ;"      "
007266:  000000000000                           ;"      "
007267:  000000000000                           ;"      "
007270:  000000000000                           ;"      "
007271:  000000000000                           ;"      "
007272:  000000000000                           ;"      "
007273:  000000000000                           ;"      "
007274:  000000000000                           ;"      "
007275:  000000000000                           ;"      "
007276:  000000000000                           ;"      "
007277:  000000000000                           ;"      "
007300:  000000000000                           ;"      "
007301:  000000000000                           ;"      "
007302:  000000000000                           ;"      "
007303:  000000000000                           ;"      "
007304:  000000000000                           ;"      "
007305:  000000000000                           ;"      "
007306:  000000000000                           ;"      "
007307:  000000000000                           ;"      "
007310:  000000000000                           ;"      "
007311:  000000000000                           ;"      "
007312:  000000000000                           ;"      "
007313:  000000000000                           ;"      "
007314:  000000000000                           ;"      "
007315:  000000000000                           ;"      "
007316:  000000000000                           ;"      "
007317:  000000000000                           ;"      "
007320:  000000000000                           ;"      "
007321:  000000000000                           ;"      "
007322:  000000000000                           ;"      "
007323:  000000000000                           ;"      "
007324:  000000000000                           ;"      "
007325:  000000000000                           ;"      "
007326:  000000000000                           ;"      "
007327:  000000000000                           ;"      "
007330:  000000000000                           ;"      "
007331:  000000000000                           ;"      "
007332:  000000000000                           ;"      "
007333:  000000000000                           ;"      "
007334:  000000000000                           ;"      "
007335:  000000000000                           ;"      "
007336:  000000000000                           ;"      "
007337:  000000000000                           ;"      "
007340:  000000000000                           ;"      "
007341:  000000000000                           ;"      "
007342:  000000000000                           ;"      "
007343:  000000000000                           ;"      "
007344:  000000000000                           ;"      "
007345:  000000000000                           ;"      "
007346:  000000000000                           ;"      "
007347:  000000000000                           ;"      "
007350:  000000000000                           ;"      "
007351:  000000000000                           ;"      "
007352:  000000000000                           ;"      "
007353:  000000000000                           ;"      "
007354:  000000000000                           ;"      "
007355:  000000000000                           ;"      "
007356:  000000000000                           ;"      "
007357:  000000000000                           ;"      "
007360:  000000000000                           ;"      "
007361:  000000000000                           ;"      "
007362:  000000000000                           ;"      "
007363:  000000000000                           ;"      "
007364:  000000000000                           ;"      "
007365:  000000000000                           ;"      "
007366:  000000000000                           ;"      "
007367:  000000000000                           ;"      "
007370:  000000000000                           ;"      "
007371:  000000000000                           ;"      "
007372:  000000000000                           ;"      "
007373:  000000000000                           ;"      "
007374:  000000000000                           ;"      "
007375:  000000000000                           ;"      "
007376:  000000000000                           ;"      "
007377:  000000000000                           ;"      "
007400:  000000000000                           ;"      "
007401:  000000000000                           ;"      "
007402:  000000000000                           ;"      "
007403:  000000000000                           ;"      "
007404:  000000000000                           ;"      "
007405:  000000000000                           ;"      "
007406:  000000000000                           ;"      "
007407:  000000000000                           ;"      "
007410:  000000000000                           ;"      "
007411:  000000000000                           ;"      "
007412:  000000000000                           ;"      "
007413:  000000000000                           ;"      "
007414:  000000000000                           ;"      "
007415:  000000000000                           ;"      "
007416:  000000000000                           ;"      "
007417:  000000000000                           ;"      "
007420:  000000000000                           ;"      "
007421:  000000000000                           ;"      "
007422:  000000000000                           ;"      "
007423:  000000000000                           ;"      "
007424:  000000000000                           ;"      "
007425:  000000000000                           ;"      "
007426:  000000000000                           ;"      "
007427:  000000000000                           ;"      "
007430:  000000000000                           ;"      "
007431:  000000000000                           ;"      "
007432:  000000000000                           ;"      "
007433:  000000000000                           ;"      "
007434:  000000000000                           ;"      "
007435:  000000000000                           ;"      "
007436:  000000000000                           ;"      "
007437:  000000000000                           ;"      "
007440:  000000000000                           ;"      "
007441:  000000000000                           ;"      "
007442:  000000000000                           ;"      "
007443:  000000000000                           ;"      "
007444:  000000000000                           ;"      "
007445:  000000000000                           ;"      "
007446:  000000000000                           ;"      "
007447:  000000000000                           ;"      "
007450:  000000000000                           ;"      "
007451:  000000000000                           ;"      "
007452:  000000000000                           ;"      "
007453:  000000000000                           ;"      "
007454:  000000000000                           ;"      "
007455:  000000000000                           ;"      "
007456:  000000000000                           ;"      "
007457:  000000000000                           ;"      "
007460:  000000000000                           ;"      "
007461:  000000000000                           ;"      "
007462:  000000000000                           ;"      "
007463:  000000000000                           ;"      "
007464:  000000000000                           ;"      "
007465:  000000000000                           ;"      "
007466:  000000000000                           ;"      "
007467:  000000000000                           ;"      "
007470:  000000000000                           ;"      "
007471:  000000000000                           ;"      "
007472:  000000000000                           ;"      "
007473:  000000000000                           ;"      "
007474:  000000000000                           ;"      "
007475:  000000000000                           ;"      "
007476:  000000000000                           ;"      "
007477:  000000000000                           ;"      "
007500:  000000000000                           ;"      "
007501:  000000000000                           ;"      "
007502:  000000000000                           ;"      "
007503:  000000000000                           ;"      "
007504:  000000000000                           ;"      "
007505:  000000000000                           ;"      "
007506:  000000000000                           ;"      "
007507:  000000000000                           ;"      "
007510:  000000000000                           ;"      "
007511:  000000000000                           ;"      "
007512:  000000000000                           ;"      "
007513:  000000000000                           ;"      "
007514:  000000000000                           ;"      "
007515:  000000000000                           ;"      "
007516:  000000000000                           ;"      "
007517:  000000000000                           ;"      "
007520:  000000000000                           ;"      "
007521:  000000000000                           ;"      "
007522:  000000000000                           ;"      "
007523:  000000000000                           ;"      "
007524:  000000000000                           ;"      "
007525:  000000000000                           ;"      "
007526:  000000000000                           ;"      "
007527:  000000000000                           ;"      "
007530:  000000000000                           ;"      "
007531:  000000000000                           ;"      "
007532:  000000000000                           ;"      "
007533:  000000000000                           ;"      "
007534:  000000000000                           ;"      "
007535:  000000000000                           ;"      "
007536:  000000000000                           ;"      "
007537:  000000000000                           ;"      "
007540:  000000000000                           ;"      "
007541:  000000000000                           ;"      "
007542:  000000000000                           ;"      "
007543:  000000000000                           ;"      "
007544:  000000000000                           ;"      "
007545:  000000000000                           ;"      "
007546:  000000000000                           ;"      "
007547:  000000000000                           ;"      "
007550:  000000000000                           ;"      "
007551:  000000000000                           ;"      "
007552:  000000000000                           ;"      "
007553:  000000000000                           ;"      "
007554:  000000000000                           ;"      "
007555:  000000000000                           ;"      "
007556:  000000000000                           ;"      "
007557:  000000000000                           ;"      "
007560:  000000000000                           ;"      "
007561:  000000000000                           ;"      "
007562:  000000000000                           ;"      "
007563:  000000000000                           ;"      "
007564:  000000000000                           ;"      "
007565:  000000000000                           ;"      "
007566:  000000000000                           ;"      "
007567:  000000000000                           ;"      "
007570:  000000000000                           ;"      "
007571:  000000000000                           ;"      "
007572:  000000000000                           ;"      "
007573:  000000000000                           ;"      "
007574:  000000000000                           ;"      "
007575:  000000000000                           ;"      "
007576:  000000000000                           ;"      "
007577:  000000000000                           ;"      "
007600:  000000000000                           ;"      "
007601:  000000000000                           ;"      "
007602:  000000000000                           ;"      "
007603:  000000000000                           ;"      "
007604:  000000000000                           ;"      "
007605:  000000000000                           ;"      "
007606:  000000000000                           ;"      "
007607:  000000000000                           ;"      "
007610:  000000000000                           ;"      "
007611:  000000000000                           ;"      "
007612:  000000000000                           ;"      "
007613:  000000000000                           ;"      "
007614:  000000000000                           ;"      "
007615:  000000000000                           ;"      "
007616:  000000000000                           ;"      "
007617:  000000000000                           ;"      "
007620:  000000000000                           ;"      "
007621:  000000000000                           ;"      "
007622:  000000000000                           ;"      "
007623:  000000000000                           ;"      "
007624:  000000000000                           ;"      "
007625:  000000000000                           ;"      "
007626:  000000000000                           ;"      "
007627:  000000000000                           ;"      "
007630:  000000000000                           ;"      "
007631:  000000000000                           ;"      "
007632:  000000000000                           ;"      "
007633:  000000000000                           ;"      "
007634:  000000000000                           ;"      "
007635:  000000000000                           ;"      "
007636:  000000000000                           ;"      "
007637:  000000000000                           ;"      "
007640:  000000000000                           ;"      "
007641:  000000000000                           ;"      "
007642:  000000000000                           ;"      "
007643:  000000000000                           ;"      "
007644:  000000000000                           ;"      "
007645:  000000000000                           ;"      "
007646:  000000000000                           ;"      "
007647:  000000000000                           ;"      "
007650:  000000000000                           ;"      "
007651:  000000000000                           ;"      "
007652:  000000000000                           ;"      "
007653:  000000000000                           ;"      "
007654:  000000000000                           ;"      "
007655:  000000000000                           ;"      "
007656:  000000000000                           ;"      "
007657:  000000000000                           ;"      "
007660:  000000000000                           ;"      "
007661:  000000000000                           ;"      "
007662:  000000000000                           ;"      "
007663:  000000000000                           ;"      "
007664:  000000000000                           ;"      "
007665:  000000000000                           ;"      "
007666:  000000000000                           ;"      "
007667:  000000000000                           ;"      "
007670:  000000000000                           ;"      "
007671:  000000000000                           ;"      "
007672:  000000000000                           ;"      "
007673:  000000000000                           ;"      "
007674:  000000000000                           ;"      "
007675:  000000000000                           ;"      "
007676:  000000000000                           ;"      "
007677:  000000000000                           ;"      "
007700:  000000000000                           ;"      "
007701:  000000000000                           ;"      "
007702:  000000000000                           ;"      "
007703:  000000000000                           ;"      "
007704:  000000000000                           ;"      "
007705:  000000000000                           ;"      "
007706:  000000000000                           ;"      "
007707:  000000000000                           ;"      "
007710:  000000000000                           ;"      "
007711:  000000000000                           ;"      "
007712:  000000000000                           ;"      "
007713:  000000000000                           ;"      "
007714:  000000000000                           ;"      "
007715:  000000000000                           ;"      "
007716:  000000000000                           ;"      "
007717:  000000000000                           ;"      "
007720:  000000000000                           ;"      "
007721:  000000000000                           ;"      "
007722:  000000000000                           ;"      "
007723:  000000000000                           ;"      "
007724:  000000000000                           ;"      "
007725:  000000000000                           ;"      "
007726:  000000000000                           ;"      "
007727:  000000000000                           ;"      "
007730:  000000000000                           ;"      "
007731:  000000000000                           ;"      "
007732:  000000000000                           ;"      "
007733:  000000000000                           ;"      "
007734:  000000000000                           ;"      "
007735:  000000000000                           ;"      "
007736:  000000000000                           ;"      "
007737:  000000000000                           ;"      "
007740:  000000000000                           ;"      "
007741:  000000000000                           ;"      "
007742:  000000000000                           ;"      "
007743:  000000000000                           ;"      "
007744:  000000000000                           ;"      "
007745:  000000000000                           ;"      "
007746:  000000000000                           ;"      "
007747:  000000000000                           ;"      "
007750:  000000000000                           ;"      "
007751:  000000000000                           ;"      "
007752:  000000000000                           ;"      "
007753:  000000000000                           ;"      "
007754:  000000000000                           ;"      "
007755:  000000000000                           ;"      "
007756:  000000000000                           ;"      "
007757:  000000000000                           ;"      "
007760:  000000000000                           ;"      "
007761:  000000000000                           ;"      "
007762:  000000000000                           ;"      "
007763:  000000000000                           ;"      "
007764:  000000000000                           ;"      "
007765:  000000000000                           ;"      "
007766:  000000000000                           ;"      "
007767:  000000000000                           ;"      "
007770:  000000000000                           ;"      "
007771:  000000000000                           ;"      "
007772:  000000000000                           ;"      "
007773:  000000000000                           ;"      "
007774:  000000000000                           ;"      "
007775:  000000000000                           ;"      "
007776:  000000000000                           ;"      "
007777:  000000000000                           ;"      "
